GAS LISTING /tmp/cchEysKF.s 			page 1


   1              		.file	"Tests.cpp"
   2              		.option pic
   3              		.option norelax
   4              		.text
   5              	.Ltext0:
   6              		.section	.text._ZN6Thread3runEv,"axG",@progbits,_ZN6Thread3runEv,comdat
   7              		.align	2
   8              		.weak	_ZN6Thread3runEv
  10              	_ZN6Thread3runEv:
  11              	.LFB21:
  12              		.file 1 "src/../h/syscall_cpp.hpp"
   1:src/../h/syscall_cpp.hpp **** //
   2:src/../h/syscall_cpp.hpp **** // Created by os on 4/8/22.
   3:src/../h/syscall_cpp.hpp **** //
   4:src/../h/syscall_cpp.hpp **** 
   5:src/../h/syscall_cpp.hpp **** #ifndef PROJECT_BASE_V1_0_SYSCALL_CPP_HPP
   6:src/../h/syscall_cpp.hpp **** #define PROJECT_BASE_V1_0_SYSCALL_CPP_HPP
   7:src/../h/syscall_cpp.hpp **** 
   8:src/../h/syscall_cpp.hpp **** #include "syscall_c.h"
   9:src/../h/syscall_cpp.hpp **** #include "PCB.hpp"
  10:src/../h/syscall_cpp.hpp **** #include "KSemaphore.hpp"
  11:src/../h/syscall_cpp.hpp **** 
  12:src/../h/syscall_cpp.hpp **** void * operator new(size_t size);
  13:src/../h/syscall_cpp.hpp **** 
  14:src/../h/syscall_cpp.hpp **** void operator delete(void * p);
  15:src/../h/syscall_cpp.hpp **** 
  16:src/../h/syscall_cpp.hpp **** class Thread
  17:src/../h/syscall_cpp.hpp **** {
  18:src/../h/syscall_cpp.hpp **** public:
  19:src/../h/syscall_cpp.hpp ****     Thread(void (*body)(void*), void* args);
  20:src/../h/syscall_cpp.hpp **** 
  21:src/../h/syscall_cpp.hpp ****     virtual ~Thread();
  22:src/../h/syscall_cpp.hpp **** 
  23:src/../h/syscall_cpp.hpp ****     int start();
  24:src/../h/syscall_cpp.hpp **** 
  25:src/../h/syscall_cpp.hpp ****     static void dispatch();
  26:src/../h/syscall_cpp.hpp **** 
  27:src/../h/syscall_cpp.hpp ****     static void sleep(time_t);
  28:src/../h/syscall_cpp.hpp **** 
  29:src/../h/syscall_cpp.hpp **** protected:
  30:src/../h/syscall_cpp.hpp ****     Thread();
  31:src/../h/syscall_cpp.hpp **** 
  32:src/../h/syscall_cpp.hpp ****     virtual void run() {}
  13              		.loc 1 32 18
  14              		.cfi_startproc
  15              	.LVL0:
  16 0000 130101FF 		addi	sp,sp,-16
  17              		.cfi_def_cfa_offset 16
  18 0004 23348100 		sd	s0,8(sp)
  19              		.cfi_offset 8, -8
  20 0008 13040101 		addi	s0,sp,16
  21              		.cfi_def_cfa 8, 0
  22              		.loc 1 32 25 is_stmt 0
  23 000c 03348100 		ld	s0,8(sp)
  24              		.cfi_restore 8
  25              		.cfi_def_cfa 2, 16
  26 0010 13010101 		addi	sp,sp,16
GAS LISTING /tmp/cchEysKF.s 			page 2


  27              		.cfi_def_cfa_offset 0
  28 0014 67800000 		jr	ra
  29              		.cfi_endproc
  30              	.LFE21:
  32              		.section	.text._ZN14PeriodicThread18periodicActivationEv,"axG",@progbits,_ZN14PeriodicThread18peri
  33              		.align	2
  34              		.weak	_ZN14PeriodicThread18periodicActivationEv
  36              	_ZN14PeriodicThread18periodicActivationEv:
  37              	.LFB22:
  33:src/../h/syscall_cpp.hpp **** private:
  34:src/../h/syscall_cpp.hpp ****     thread_t myHandle;
  35:src/../h/syscall_cpp.hpp ****     static void runner(void* t);
  36:src/../h/syscall_cpp.hpp **** };
  37:src/../h/syscall_cpp.hpp **** 
  38:src/../h/syscall_cpp.hpp **** class Semaphore
  39:src/../h/syscall_cpp.hpp **** {
  40:src/../h/syscall_cpp.hpp **** public:
  41:src/../h/syscall_cpp.hpp ****     Semaphore(unsigned init = 1);
  42:src/../h/syscall_cpp.hpp **** 
  43:src/../h/syscall_cpp.hpp ****     virtual ~Semaphore();
  44:src/../h/syscall_cpp.hpp **** 
  45:src/../h/syscall_cpp.hpp ****     int wait();
  46:src/../h/syscall_cpp.hpp ****     int signal();
  47:src/../h/syscall_cpp.hpp **** 
  48:src/../h/syscall_cpp.hpp **** private:
  49:src/../h/syscall_cpp.hpp ****     sem_t myHandle;
  50:src/../h/syscall_cpp.hpp **** };
  51:src/../h/syscall_cpp.hpp **** 
  52:src/../h/syscall_cpp.hpp **** class Console
  53:src/../h/syscall_cpp.hpp **** {
  54:src/../h/syscall_cpp.hpp **** public:
  55:src/../h/syscall_cpp.hpp ****     static char getc();
  56:src/../h/syscall_cpp.hpp ****     static void putc(char);
  57:src/../h/syscall_cpp.hpp **** };
  58:src/../h/syscall_cpp.hpp **** 
  59:src/../h/syscall_cpp.hpp **** class PeriodicThread : public Thread
  60:src/../h/syscall_cpp.hpp **** {
  61:src/../h/syscall_cpp.hpp **** protected:
  62:src/../h/syscall_cpp.hpp ****     PeriodicThread(time_t period);
  63:src/../h/syscall_cpp.hpp ****     virtual void periodicActivation() {};
  38              		.loc 1 63 18 is_stmt 1
  39              		.cfi_startproc
  40              	.LVL1:
  41 0000 130101FF 		addi	sp,sp,-16
  42              		.cfi_def_cfa_offset 16
  43 0004 23348100 		sd	s0,8(sp)
  44              		.cfi_offset 8, -8
  45 0008 13040101 		addi	s0,sp,16
  46              		.cfi_def_cfa 8, 0
  47              		.loc 1 63 40 is_stmt 0
  48 000c 03348100 		ld	s0,8(sp)
  49              		.cfi_restore 8
  50              		.cfi_def_cfa 2, 16
  51 0010 13010101 		addi	sp,sp,16
  52              		.cfi_def_cfa_offset 0
  53 0014 67800000 		jr	ra
  54              		.cfi_endproc
GAS LISTING /tmp/cchEysKF.s 			page 3


  55              	.LFE22:
  57              		.section	.rodata.str1.8,"aMS",@progbits,1
  58              		.align	3
  59              	.LC0:
  60 0000 49646C65 		.string	"Idle\n"
  60      0A00
  61              		.text
  62              		.align	2
  63              		.globl	_Z4idlePv
  65              	_Z4idlePv:
  66              	.LFB23:
  67              		.file 2 "src/Tests.cpp"
   1:src/Tests.cpp **** //
   2:src/Tests.cpp **** // Created by os on 5/5/22.
   3:src/Tests.cpp **** //
   4:src/Tests.cpp **** 
   5:src/Tests.cpp **** #include "../h/Tests.hpp"
   6:src/Tests.cpp **** #include "../lib/console.h"
   7:src/Tests.cpp **** 
   8:src/Tests.cpp **** void idle(void* args)
   9:src/Tests.cpp **** {
  68              		.loc 2 9 1 is_stmt 1
  69              		.cfi_startproc
  70              	.LVL2:
  71 0000 130101FF 		addi	sp,sp,-16
  72              		.cfi_def_cfa_offset 16
  73 0004 23341100 		sd	ra,8(sp)
  74 0008 23308100 		sd	s0,0(sp)
  75              		.cfi_offset 1, -8
  76              		.cfi_offset 8, -16
  77 000c 13040101 		addi	s0,sp,16
  78              		.cfi_def_cfa 8, 0
  79              	.LVL3:
  80              	.L6:
  10:src/Tests.cpp ****     while(true)
  81              		.loc 2 10 5 discriminator 1
  11:src/Tests.cpp ****     {
  12:src/Tests.cpp ****         Riscv::printString("Idle\n");
  82              		.loc 2 12 9 discriminator 1
  83              		.loc 2 12 27 is_stmt 0 discriminator 1
  84 0010 17050000 		lla	a0,.LC0
  84      13050500 
  85 0018 97000000 		call	_ZN5Riscv11printStringEPKc@plt
  85      E7800000 
  86              	.LVL4:
  13:src/Tests.cpp ****         thread_dispatch();
  87              		.loc 2 13 9 is_stmt 1 discriminator 1
  88              		.loc 2 13 24 is_stmt 0 discriminator 1
  89 0020 97000000 		call	thread_dispatch@plt
  89      E7800000 
  90              	.LVL5:
  10:src/Tests.cpp ****     while(true)
  91              		.loc 2 10 5 is_stmt 1 discriminator 1
  92 0028 6FF09FFE 		j	.L6
  93              		.cfi_endproc
  94              	.LFE23:
  96              		.section	.rodata.str1.8
GAS LISTING /tmp/cchEysKF.s 			page 4


  97 0006 0000     		.align	3
  98              	.LC1:
  99 0008 54687265 		.string	"Thread 1 started...\n"
  99      61642031 
  99      20737461 
  99      72746564 
  99      2E2E2E0A 
 100 001d 000000   		.align	3
 101              	.LC2:
 102 0020 69203A20 		.string	"i : "
 102      00
 103 0025 000000   		.align	3
 104              	.LC3:
 105 0028 0A00     		.string	"\n"
 106              		.text
 107              		.align	2
 108              		.globl	_Z15thread1FunctionPv
 110              	_Z15thread1FunctionPv:
 111              	.LFB24:
  14:src/Tests.cpp ****     }
  15:src/Tests.cpp **** }
  16:src/Tests.cpp **** 
  17:src/Tests.cpp **** void thread1Function(void* p)
  18:src/Tests.cpp **** {
 112              		.loc 2 18 1
 113              		.cfi_startproc
 114              	.LVL6:
 115 002c 130101FE 		addi	sp,sp,-32
 116              		.cfi_def_cfa_offset 32
 117 0030 233C1100 		sd	ra,24(sp)
 118 0034 23388100 		sd	s0,16(sp)
 119 0038 23349100 		sd	s1,8(sp)
 120              		.cfi_offset 1, -8
 121              		.cfi_offset 8, -16
 122              		.cfi_offset 9, -24
 123 003c 13040102 		addi	s0,sp,32
 124              		.cfi_def_cfa 8, 0
  19:src/Tests.cpp ****     Riscv::printString("Thread 1 started...\n");
 125              		.loc 2 19 5
 126              		.loc 2 19 23 is_stmt 0
 127 0040 17050000 		lla	a0,.LC1
 127      13050500 
 128              	.LVL7:
 129 0048 97000000 		call	_ZN5Riscv11printStringEPKc@plt
 129      E7800000 
 130              	.LVL8:
  20:src/Tests.cpp ****     uint64 num = 10000;
 131              		.loc 2 20 5 is_stmt 1
  21:src/Tests.cpp ****     for(uint64 i = 0; i < num;i++)
 132              		.loc 2 21 5
 133              	.LBB14:
 134              		.loc 2 21 16 is_stmt 0
 135 0050 93040000 		li	s1,0
 136 0054 6F00C003 		j	.L11
 137              	.LVL9:
 138              	.L13:
  22:src/Tests.cpp ****     {
GAS LISTING /tmp/cchEysKF.s 			page 5


  23:src/Tests.cpp ****         if(i % 150 == 0 && i > 0)
  24:src/Tests.cpp ****             thread_dispatch();
 139              		.loc 2 24 13 is_stmt 1
 140              		.loc 2 24 28 is_stmt 0
 141 0058 97000000 		call	thread_dispatch@plt
 141      E7800000 
 142              	.LVL10:
 143              	.L10:
  25:src/Tests.cpp ****         Riscv::printString("i : ");
 144              		.loc 2 25 9 is_stmt 1 discriminator 2
 145              		.loc 2 25 27 is_stmt 0 discriminator 2
 146 0060 17050000 		lla	a0,.LC2
 146      13050500 
 147 0068 97000000 		call	_ZN5Riscv11printStringEPKc@plt
 147      E7800000 
 148              	.LVL11:
  26:src/Tests.cpp ****         Riscv::printInteger(i);
 149              		.loc 2 26 9 is_stmt 1 discriminator 2
 150              		.loc 2 26 28 is_stmt 0 discriminator 2
 151 0070 13850400 		mv	a0,s1
 152 0074 97000000 		call	_ZN5Riscv12printIntegerEm@plt
 152      E7800000 
 153              	.LVL12:
  27:src/Tests.cpp ****         Riscv::printString("\n");
 154              		.loc 2 27 9 is_stmt 1 discriminator 2
 155              		.loc 2 27 27 is_stmt 0 discriminator 2
 156 007c 17050000 		lla	a0,.LC3
 156      13050500 
 157 0084 97000000 		call	_ZN5Riscv11printStringEPKc@plt
 157      E7800000 
 158              	.LVL13:
  21:src/Tests.cpp ****     {
 159              		.loc 2 21 5 is_stmt 1 discriminator 2
 160 008c 93841400 		addi	s1,s1,1
 161              	.LVL14:
 162              	.L11:
  21:src/Tests.cpp ****     {
 163              		.loc 2 21 25 discriminator 1
 164 0090 B7270000 		li	a5,8192
 165 0094 9387F770 		addi	a5,a5,1807
 166 0098 63EC9700 		bgtu	s1,a5,.L8
  23:src/Tests.cpp ****             thread_dispatch();
 167              		.loc 2 23 9
  23:src/Tests.cpp ****             thread_dispatch();
 168              		.loc 2 23 14 is_stmt 0
 169 009c 93076009 		li	a5,150
 170 00a0 B3F7F402 		remu	a5,s1,a5
  23:src/Tests.cpp ****             thread_dispatch();
 171              		.loc 2 23 9
 172 00a4 E39E07FA 		bnez	a5,.L10
  23:src/Tests.cpp ****             thread_dispatch();
 173              		.loc 2 23 25 discriminator 1
 174 00a8 E38C04FA 		beqz	s1,.L10
 175 00ac 6FF0DFFA 		j	.L13
 176              	.L8:
 177              	.LBE14:
  28:src/Tests.cpp ****     }
GAS LISTING /tmp/cchEysKF.s 			page 6


  29:src/Tests.cpp **** }
 178              		.loc 2 29 1
 179 00b0 83308101 		ld	ra,24(sp)
 180              		.cfi_restore 1
 181 00b4 03340101 		ld	s0,16(sp)
 182              		.cfi_restore 8
 183              		.cfi_def_cfa 2, 32
 184 00b8 83348100 		ld	s1,8(sp)
 185              		.cfi_restore 9
 186              	.LVL15:
 187 00bc 13010102 		addi	sp,sp,32
 188              		.cfi_def_cfa_offset 0
 189 00c0 67800000 		jr	ra
 190              		.cfi_endproc
 191              	.LFE24:
 193              		.section	.rodata.str1.8
 194 002a 00000000 		.align	3
 194      0000
 195              	.LC4:
 196 0030 54687265 		.string	"Thread 2 started...\n"
 196      61642032 
 196      20737461 
 196      72746564 
 196      2E2E2E0A 
 197 0045 000000   		.align	3
 198              	.LC5:
 199 0048 6A203A20 		.string	"j : "
 199      00
 200              		.text
 201              		.align	2
 202              		.globl	_Z15thread2FunctionPv
 204              	_Z15thread2FunctionPv:
 205              	.LFB25:
  30:src/Tests.cpp **** 
  31:src/Tests.cpp **** void thread2Function(void* p)
  32:src/Tests.cpp **** {
 206              		.loc 2 32 1 is_stmt 1
 207              		.cfi_startproc
 208              	.LVL16:
 209 00c4 130101FE 		addi	sp,sp,-32
 210              		.cfi_def_cfa_offset 32
 211 00c8 233C1100 		sd	ra,24(sp)
 212 00cc 23388100 		sd	s0,16(sp)
 213 00d0 23349100 		sd	s1,8(sp)
 214              		.cfi_offset 1, -8
 215              		.cfi_offset 8, -16
 216              		.cfi_offset 9, -24
 217 00d4 13040102 		addi	s0,sp,32
 218              		.cfi_def_cfa 8, 0
  33:src/Tests.cpp ****     Riscv::printString("Thread 2 started...\n");
 219              		.loc 2 33 5
 220              		.loc 2 33 23 is_stmt 0
 221 00d8 17050000 		lla	a0,.LC4
 221      13050500 
 222              	.LVL17:
 223 00e0 97000000 		call	_ZN5Riscv11printStringEPKc@plt
 223      E7800000 
GAS LISTING /tmp/cchEysKF.s 			page 7


 224              	.LVL18:
  34:src/Tests.cpp ****     uint64 num = 10000;
 225              		.loc 2 34 5 is_stmt 1
  35:src/Tests.cpp ****     for(uint64 j = 0; j < num;j++)
 226              		.loc 2 35 5
 227              	.LBB15:
 228              		.loc 2 35 16 is_stmt 0
 229 00e8 93040000 		li	s1,0
 230 00ec 6F00C003 		j	.L17
 231              	.LVL19:
 232              	.L19:
  36:src/Tests.cpp ****     {
  37:src/Tests.cpp ****         if(j % 50 == 0 && j > 0)
  38:src/Tests.cpp ****             thread_dispatch();
 233              		.loc 2 38 13 is_stmt 1
 234              		.loc 2 38 28 is_stmt 0
 235 00f0 97000000 		call	thread_dispatch@plt
 235      E7800000 
 236              	.LVL20:
 237              	.L16:
  39:src/Tests.cpp ****         Riscv::printString("j : ");
 238              		.loc 2 39 9 is_stmt 1 discriminator 2
 239              		.loc 2 39 27 is_stmt 0 discriminator 2
 240 00f8 17050000 		lla	a0,.LC5
 240      13050500 
 241 0100 97000000 		call	_ZN5Riscv11printStringEPKc@plt
 241      E7800000 
 242              	.LVL21:
  40:src/Tests.cpp ****         Riscv::printInteger(j);
 243              		.loc 2 40 9 is_stmt 1 discriminator 2
 244              		.loc 2 40 28 is_stmt 0 discriminator 2
 245 0108 13850400 		mv	a0,s1
 246 010c 97000000 		call	_ZN5Riscv12printIntegerEm@plt
 246      E7800000 
 247              	.LVL22:
  41:src/Tests.cpp ****         Riscv::printString("\n");
 248              		.loc 2 41 9 is_stmt 1 discriminator 2
 249              		.loc 2 41 27 is_stmt 0 discriminator 2
 250 0114 17050000 		lla	a0,.LC3
 250      13050500 
 251 011c 97000000 		call	_ZN5Riscv11printStringEPKc@plt
 251      E7800000 
 252              	.LVL23:
  35:src/Tests.cpp ****     {
 253              		.loc 2 35 5 is_stmt 1 discriminator 2
 254 0124 93841400 		addi	s1,s1,1
 255              	.LVL24:
 256              	.L17:
  35:src/Tests.cpp ****     {
 257              		.loc 2 35 25 discriminator 1
 258 0128 B7270000 		li	a5,8192
 259 012c 9387F770 		addi	a5,a5,1807
 260 0130 63EC9700 		bgtu	s1,a5,.L14
  37:src/Tests.cpp ****             thread_dispatch();
 261              		.loc 2 37 9
  37:src/Tests.cpp ****             thread_dispatch();
 262              		.loc 2 37 14 is_stmt 0
GAS LISTING /tmp/cchEysKF.s 			page 8


 263 0134 93072003 		li	a5,50
 264 0138 B3F7F402 		remu	a5,s1,a5
  37:src/Tests.cpp ****             thread_dispatch();
 265              		.loc 2 37 9
 266 013c E39E07FA 		bnez	a5,.L16
  37:src/Tests.cpp ****             thread_dispatch();
 267              		.loc 2 37 24 discriminator 1
 268 0140 E38C04FA 		beqz	s1,.L16
 269 0144 6FF0DFFA 		j	.L19
 270              	.L14:
 271              	.LBE15:
  42:src/Tests.cpp ****     }
  43:src/Tests.cpp **** }
 272              		.loc 2 43 1
 273 0148 83308101 		ld	ra,24(sp)
 274              		.cfi_restore 1
 275 014c 03340101 		ld	s0,16(sp)
 276              		.cfi_restore 8
 277              		.cfi_def_cfa 2, 32
 278 0150 83348100 		ld	s1,8(sp)
 279              		.cfi_restore 9
 280              	.LVL25:
 281 0154 13010102 		addi	sp,sp,32
 282              		.cfi_def_cfa_offset 0
 283 0158 67800000 		jr	ra
 284              		.cfi_endproc
 285              	.LFE25:
 287              		.align	2
 288              		.globl	_ZN12TestPeriodic18periodicActivationEv
 290              	_ZN12TestPeriodic18periodicActivationEv:
 291              	.LFB46:
  44:src/Tests.cpp **** 
  45:src/Tests.cpp **** void thread2FunctionTest2(void* p)
  46:src/Tests.cpp **** {
  47:src/Tests.cpp ****     Riscv::printString("Thread 2 started...\n");
  48:src/Tests.cpp ****     uint64 num = 10000;
  49:src/Tests.cpp ****     for(uint64 j = 0; j < num;j++)
  50:src/Tests.cpp ****     {
  51:src/Tests.cpp ****         if(j == 200)
  52:src/Tests.cpp ****             thread_exit();
  53:src/Tests.cpp ****         if(j % 50 == 0 && j > 0)
  54:src/Tests.cpp ****             thread_dispatch();
  55:src/Tests.cpp ****         Riscv::printString("j : ");
  56:src/Tests.cpp ****         Riscv::printInteger(j);
  57:src/Tests.cpp ****         Riscv::printString("\n");
  58:src/Tests.cpp ****     }
  59:src/Tests.cpp **** }
  60:src/Tests.cpp **** 
  61:src/Tests.cpp **** void threadTest1()
  62:src/Tests.cpp **** {
  63:src/Tests.cpp ****     Thread* t1 = new Thread(&thread1Function, 0);
  64:src/Tests.cpp ****     t1->start();
  65:src/Tests.cpp ****     Thread* t2 = new Thread(&thread2Function, 0);
  66:src/Tests.cpp ****     t2->start();
  67:src/Tests.cpp ****     Riscv::enableInterrupts();
  68:src/Tests.cpp ****     //while(((PCB*)(t1->myHandle))->getState() != PCB::FINISHED || ((PCB*)(t2->myHandle))->getState
  69:src/Tests.cpp ****     //{
GAS LISTING /tmp/cchEysKF.s 			page 9


  70:src/Tests.cpp ****     //    Riscv::printString("Main thread\n");
  71:src/Tests.cpp ****     //    thread_dispatch();
  72:src/Tests.cpp ****     //}
  73:src/Tests.cpp **** 
  74:src/Tests.cpp ****     Riscv::printString("End...\n");
  75:src/Tests.cpp ****     Riscv::disableInterrupts();
  76:src/Tests.cpp **** }
  77:src/Tests.cpp **** 
  78:src/Tests.cpp **** void threadTest2()
  79:src/Tests.cpp **** {
  80:src/Tests.cpp ****     Thread* idleThread = new Thread(&idle, 0);
  81:src/Tests.cpp ****     idleThread->start();
  82:src/Tests.cpp ****     Thread* t1 = new Thread(&thread1Function, 0);
  83:src/Tests.cpp ****     t1->start();
  84:src/Tests.cpp ****     Thread* t2  = new Thread(&thread2FunctionTest2, 0);
  85:src/Tests.cpp ****     t2->start();
  86:src/Tests.cpp **** 
  87:src/Tests.cpp ****     Riscv::enableInterrupts();
  88:src/Tests.cpp **** 
  89:src/Tests.cpp ****     //while(((PCB*)idleThread->myHandle)->getState() != PCB::FINISHED);
  90:src/Tests.cpp **** 
  91:src/Tests.cpp ****     Riscv::printString("End...\n");
  92:src/Tests.cpp **** 
  93:src/Tests.cpp ****     Riscv::disableInterrupts();
  94:src/Tests.cpp **** }
  95:src/Tests.cpp **** 
  96:src/Tests.cpp **** 
  97:src/Tests.cpp **** void threadTest3()
  98:src/Tests.cpp **** {
  99:src/Tests.cpp ****     Thread* t = new TestPeriodic(50);
 100:src/Tests.cpp ****     t->start();
 101:src/Tests.cpp ****     while(true)
 102:src/Tests.cpp ****     {
 103:src/Tests.cpp ****         //thread_dispatch();
 104:src/Tests.cpp ****     }
 105:src/Tests.cpp **** }
 106:src/Tests.cpp **** 
 107:src/Tests.cpp **** void threadTests()
 108:src/Tests.cpp **** {
 109:src/Tests.cpp ****     //threadTest1();
 110:src/Tests.cpp ****     //threadTest2();
 111:src/Tests.cpp ****     threadTest3();
 112:src/Tests.cpp **** }
 113:src/Tests.cpp **** 
 114:src/Tests.cpp **** 
 115:src/Tests.cpp **** //memory (de)allocation tests
 116:src/Tests.cpp **** void mallocFree()
 117:src/Tests.cpp **** {
 118:src/Tests.cpp ****     Riscv::printString("mallocFree\n");
 119:src/Tests.cpp ****     constexpr int num = 100;
 120:src/Tests.cpp ****     void* addrs[num];
 121:src/Tests.cpp ****     for(int i = 0; i < num;i++)
 122:src/Tests.cpp ****     {
 123:src/Tests.cpp ****         addrs[i] = mem_alloc(100);
 124:src/Tests.cpp ****         if(addrs[i] == 0)
 125:src/Tests.cpp ****         {
 126:src/Tests.cpp ****             Riscv::printString("not OK\n");
GAS LISTING /tmp/cchEysKF.s 			page 10


 127:src/Tests.cpp ****             return;
 128:src/Tests.cpp ****         }
 129:src/Tests.cpp **** 
 130:src/Tests.cpp ****     }
 131:src/Tests.cpp **** 
 132:src/Tests.cpp ****     for(int i = 0 ; i < num;i+=2)
 133:src/Tests.cpp ****     {
 134:src/Tests.cpp ****         int retval = mem_free(addrs[i]);
 135:src/Tests.cpp ****         if(retval != 0)
 136:src/Tests.cpp ****         {
 137:src/Tests.cpp ****             Riscv::printString("not OK\n");
 138:src/Tests.cpp ****             return;
 139:src/Tests.cpp ****         }
 140:src/Tests.cpp ****     }
 141:src/Tests.cpp **** 
 142:src/Tests.cpp ****     for(int i = 0 ; i < num;i+=2)
 143:src/Tests.cpp ****     {
 144:src/Tests.cpp ****         addrs[i] = mem_alloc(20);
 145:src/Tests.cpp ****         if(addrs[i] == 0)
 146:src/Tests.cpp ****         {
 147:src/Tests.cpp ****             Riscv::printString("not OK\n");
 148:src/Tests.cpp ****             return;
 149:src/Tests.cpp ****         }
 150:src/Tests.cpp ****     }
 151:src/Tests.cpp **** 
 152:src/Tests.cpp ****     for(int i = 0; i < num;i++)
 153:src/Tests.cpp ****     {
 154:src/Tests.cpp ****         int retval = mem_free(addrs[i]);
 155:src/Tests.cpp ****         if(retval != 0)
 156:src/Tests.cpp ****         {
 157:src/Tests.cpp ****             Riscv::printString("not OK\n");
 158:src/Tests.cpp ****             return;
 159:src/Tests.cpp ****         }
 160:src/Tests.cpp ****     }
 161:src/Tests.cpp **** 
 162:src/Tests.cpp ****     Riscv::printString("OK\n");
 163:src/Tests.cpp **** }
 164:src/Tests.cpp **** void bigMalloc()
 165:src/Tests.cpp **** {
 166:src/Tests.cpp ****     Riscv::printString("bigMalloc\n");
 167:src/Tests.cpp ****     uint64 x = (uint64)HEAP_END_ADDR - (uint64)HEAP_START_ADDR + 100UL;
 168:src/Tests.cpp ****     void* p = mem_alloc(x);
 169:src/Tests.cpp ****     if(p == 0)
 170:src/Tests.cpp ****         Riscv::printString("OK\n");
 171:src/Tests.cpp ****     else
 172:src/Tests.cpp ****         Riscv::printString("not OK\n");
 173:src/Tests.cpp **** }
 174:src/Tests.cpp **** 
 175:src/Tests.cpp **** void lotOfSmallMallocs()
 176:src/Tests.cpp **** {
 177:src/Tests.cpp ****     Riscv::printString("lotOfSmallMallocs\n");
 178:src/Tests.cpp ****     uint64 cnt = 0;
 179:src/Tests.cpp ****     uint64 sum = 0;
 180:src/Tests.cpp ****     uint64 N = 10000UL;
 181:src/Tests.cpp ****     uint64 X = 10UL;
 182:src/Tests.cpp ****     for(uint64 i = 0; i < N;i++)
 183:src/Tests.cpp ****     {
GAS LISTING /tmp/cchEysKF.s 			page 11


 184:src/Tests.cpp ****         Test* t = (Test*)mem_alloc(sizeof(Test));
 185:src/Tests.cpp ****         if(t == 0)
 186:src/Tests.cpp ****             break;
 187:src/Tests.cpp ****         t->a = X;
 188:src/Tests.cpp ****         sum+=t->a;
 189:src/Tests.cpp ****         cnt++;
 190:src/Tests.cpp ****     }
 191:src/Tests.cpp ****     Riscv::printInteger(cnt);
 192:src/Tests.cpp ****     Riscv::printString("\n");
 193:src/Tests.cpp ****     if(sum == X*cnt)
 194:src/Tests.cpp ****         Riscv::printString("OK\n");
 195:src/Tests.cpp ****     else
 196:src/Tests.cpp ****         Riscv::printString("not OK\n");
 197:src/Tests.cpp **** }
 198:src/Tests.cpp **** void badFree()
 199:src/Tests.cpp **** {
 200:src/Tests.cpp ****     Riscv::printString("badFree\n");
 201:src/Tests.cpp ****     Test* t = (Test*)mem_alloc(sizeof(Test));
 202:src/Tests.cpp ****     uint64 retval = mem_free((char*)t + 2);
 203:src/Tests.cpp ****     if(retval == 0)
 204:src/Tests.cpp ****         Riscv::printString("not OK\n");
 205:src/Tests.cpp ****     else
 206:src/Tests.cpp ****         Riscv::printString("OK\n");
 207:src/Tests.cpp **** }
 208:src/Tests.cpp **** 
 209:src/Tests.cpp **** void stressTesting()
 210:src/Tests.cpp **** {
 211:src/Tests.cpp ****     Riscv::printString("stressTesting\n");
 212:src/Tests.cpp ****     constexpr int num = 100;
 213:src/Tests.cpp ****     void* addrs[num];
 214:src/Tests.cpp ****     for(int i = 0; i < num;i++)
 215:src/Tests.cpp ****     {
 216:src/Tests.cpp ****         addrs[i] = mem_alloc(1);
 217:src/Tests.cpp ****         if(addrs[i] == 0)
 218:src/Tests.cpp ****         {
 219:src/Tests.cpp ****             Riscv::printString("not OK\n");
 220:src/Tests.cpp ****             return;
 221:src/Tests.cpp ****         }
 222:src/Tests.cpp **** 
 223:src/Tests.cpp ****     }
 224:src/Tests.cpp ****     int sz = 300;
 225:src/Tests.cpp ****     while(sz > 0)
 226:src/Tests.cpp ****     {
 227:src/Tests.cpp ****         for(int i = 0 ; i < num;i+=2)
 228:src/Tests.cpp ****         {
 229:src/Tests.cpp ****             int retval = mem_free(addrs[i]);
 230:src/Tests.cpp ****             if(retval != 0)
 231:src/Tests.cpp ****             {
 232:src/Tests.cpp ****                 Riscv::printString("not OK\n");
 233:src/Tests.cpp ****                 return;
 234:src/Tests.cpp ****             }
 235:src/Tests.cpp ****             addrs[i] = mem_alloc(sz/2);
 236:src/Tests.cpp ****             if(addrs[i] == 0)
 237:src/Tests.cpp ****             {
 238:src/Tests.cpp ****                 Riscv::printString("not Ok\n");
 239:src/Tests.cpp ****                 return;
 240:src/Tests.cpp ****             }
GAS LISTING /tmp/cchEysKF.s 			page 12


 241:src/Tests.cpp **** 
 242:src/Tests.cpp ****         }
 243:src/Tests.cpp **** 
 244:src/Tests.cpp ****         for(int i = 1 ; i < num;i+=2)
 245:src/Tests.cpp ****         {
 246:src/Tests.cpp ****             int retval = mem_free(addrs[i]);
 247:src/Tests.cpp ****             if(retval != 0)
 248:src/Tests.cpp ****             {
 249:src/Tests.cpp ****                 Riscv::printString("not OK\n");
 250:src/Tests.cpp ****                 return;
 251:src/Tests.cpp ****             }
 252:src/Tests.cpp ****             addrs[i] = mem_alloc(sz);
 253:src/Tests.cpp ****             if(addrs[i] == 0)
 254:src/Tests.cpp ****             {
 255:src/Tests.cpp ****                 Riscv::printString("not Ok\n");
 256:src/Tests.cpp ****                 return;
 257:src/Tests.cpp ****             }
 258:src/Tests.cpp **** 
 259:src/Tests.cpp ****         }
 260:src/Tests.cpp ****         sz-=10;
 261:src/Tests.cpp ****     }
 262:src/Tests.cpp **** 
 263:src/Tests.cpp ****     Riscv::printString("OK\n");
 264:src/Tests.cpp **** }
 265:src/Tests.cpp **** 
 266:src/Tests.cpp **** void memoryAllocationTests()
 267:src/Tests.cpp **** {
 268:src/Tests.cpp ****     //bigMalloc();
 269:src/Tests.cpp ****     //lotOfSmallMallocs();
 270:src/Tests.cpp ****     //mallocFree();
 271:src/Tests.cpp ****     //badFree();
 272:src/Tests.cpp ****     //stressTesting();
 273:src/Tests.cpp ****     //mallocTest();
 274:src/Tests.cpp ****     //mallocEverything();
 275:src/Tests.cpp ****     mallocGapFillTest();
 276:src/Tests.cpp **** }
 277:src/Tests.cpp **** 
 278:src/Tests.cpp **** void semaphoreTests()
 279:src/Tests.cpp **** {
 280:src/Tests.cpp ****     semTest1();
 281:src/Tests.cpp **** }
 282:src/Tests.cpp **** 
 283:src/Tests.cpp **** void myTests()
 284:src/Tests.cpp **** {
 285:src/Tests.cpp ****     //memoryAllocationTests();
 286:src/Tests.cpp ****     //threadTests();
 287:src/Tests.cpp ****     semaphoreTests();
 288:src/Tests.cpp **** }
 289:src/Tests.cpp **** 
 290:src/Tests.cpp **** TestPeriodic::TestPeriodic(time_t time) : PeriodicThread(time) {
 291:src/Tests.cpp **** 
 292:src/Tests.cpp **** }
 293:src/Tests.cpp **** 
 294:src/Tests.cpp **** void TestPeriodic::periodicActivation()
 295:src/Tests.cpp **** {
 292              		.loc 2 295 1 is_stmt 1
 293              		.cfi_startproc
GAS LISTING /tmp/cchEysKF.s 			page 13


 294              	.LVL26:
 295 015c 130101FE 		addi	sp,sp,-32
 296              		.cfi_def_cfa_offset 32
 297 0160 233C1100 		sd	ra,24(sp)
 298 0164 23388100 		sd	s0,16(sp)
 299 0168 23349100 		sd	s1,8(sp)
 300              		.cfi_offset 1, -8
 301              		.cfi_offset 8, -16
 302              		.cfi_offset 9, -24
 303 016c 13040102 		addi	s0,sp,32
 304              		.cfi_def_cfa 8, 0
 296:src/Tests.cpp ****     for(int i = 0 ; i < 10000;i++)
 305              		.loc 2 296 5
 306              	.LVL27:
 307              	.LBB16:
 308              		.loc 2 296 13 is_stmt 0
 309 0170 93040000 		li	s1,0
 310              	.LVL28:
 311              	.L22:
 312              		.loc 2 296 23 is_stmt 1 discriminator 3
 313 0174 B7270000 		li	a5,8192
 314 0178 9387F770 		addi	a5,a5,1807
 315 017c 63C49702 		bgt	s1,a5,.L20
 297:src/Tests.cpp ****     {
 298:src/Tests.cpp ****         Riscv::printString("i : ");
 316              		.loc 2 298 9 discriminator 2
 317              		.loc 2 298 27 is_stmt 0 discriminator 2
 318 0180 17050000 		lla	a0,.LC2
 318      13050500 
 319 0188 97000000 		call	_ZN5Riscv11printStringEPKc@plt
 319      E7800000 
 320              	.LVL29:
 299:src/Tests.cpp ****         Riscv::printInteger(i);
 321              		.loc 2 299 9 is_stmt 1 discriminator 2
 322              		.loc 2 299 28 is_stmt 0 discriminator 2
 323 0190 13850400 		mv	a0,s1
 324 0194 97000000 		call	_ZN5Riscv12printIntegerEm@plt
 324      E7800000 
 325              	.LVL30:
 296:src/Tests.cpp ****     for(int i = 0 ; i < 10000;i++)
 326              		.loc 2 296 5 is_stmt 1 discriminator 2
 327 019c 9B841400 		addiw	s1,s1,1
 328              	.LVL31:
 329 01a0 6FF05FFD 		j	.L22
 330              	.LVL32:
 331              	.L20:
 332              	.LBE16:
 300:src/Tests.cpp ****     }
 301:src/Tests.cpp **** }
 333              		.loc 2 301 1 is_stmt 0
 334 01a4 83308101 		ld	ra,24(sp)
 335              		.cfi_restore 1
 336 01a8 03340101 		ld	s0,16(sp)
 337              		.cfi_restore 8
 338              		.cfi_def_cfa 2, 32
 339 01ac 83348100 		ld	s1,8(sp)
 340              		.cfi_restore 9
GAS LISTING /tmp/cchEysKF.s 			page 14


 341              	.LVL33:
 342 01b0 13010102 		addi	sp,sp,32
 343              		.cfi_def_cfa_offset 0
 344 01b4 67800000 		jr	ra
 345              		.cfi_endproc
 346              	.LFE46:
 348              		.align	2
 349              		.globl	_Z20thread2FunctionTest2Pv
 351              	_Z20thread2FunctionTest2Pv:
 352              	.LFB26:
  46:src/Tests.cpp ****     Riscv::printString("Thread 2 started...\n");
 353              		.loc 2 46 1 is_stmt 1
 354              		.cfi_startproc
 355              	.LVL34:
 356 01b8 130101FE 		addi	sp,sp,-32
 357              		.cfi_def_cfa_offset 32
 358 01bc 233C1100 		sd	ra,24(sp)
 359 01c0 23388100 		sd	s0,16(sp)
 360 01c4 23349100 		sd	s1,8(sp)
 361              		.cfi_offset 1, -8
 362              		.cfi_offset 8, -16
 363              		.cfi_offset 9, -24
 364 01c8 13040102 		addi	s0,sp,32
 365              		.cfi_def_cfa 8, 0
  47:src/Tests.cpp ****     uint64 num = 10000;
 366              		.loc 2 47 5
  47:src/Tests.cpp ****     uint64 num = 10000;
 367              		.loc 2 47 23 is_stmt 0
 368 01cc 17050000 		lla	a0,.LC4
 368      13050500 
 369              	.LVL35:
 370 01d4 97000000 		call	_ZN5Riscv11printStringEPKc@plt
 370      E7800000 
 371              	.LVL36:
  48:src/Tests.cpp ****     for(uint64 j = 0; j < num;j++)
 372              		.loc 2 48 5 is_stmt 1
  49:src/Tests.cpp ****     {
 373              		.loc 2 49 5
 374              	.LBB17:
  49:src/Tests.cpp ****     {
 375              		.loc 2 49 16 is_stmt 0
 376 01dc 93040000 		li	s1,0
 377 01e0 6F008004 		j	.L28
 378              	.LVL37:
 379              	.L30:
  52:src/Tests.cpp ****         if(j % 50 == 0 && j > 0)
 380              		.loc 2 52 13 is_stmt 1
  52:src/Tests.cpp ****         if(j % 50 == 0 && j > 0)
 381              		.loc 2 52 24 is_stmt 0
 382 01e4 97000000 		call	thread_exit@plt
 382      E7800000 
 383              	.LVL38:
 384 01ec 6F000005 		j	.L26
 385              	.L31:
  54:src/Tests.cpp ****         Riscv::printString("j : ");
 386              		.loc 2 54 13 is_stmt 1
  54:src/Tests.cpp ****         Riscv::printString("j : ");
GAS LISTING /tmp/cchEysKF.s 			page 15


 387              		.loc 2 54 28 is_stmt 0
 388 01f0 97000000 		call	thread_dispatch@plt
 388      E7800000 
 389              	.LVL39:
 390              	.L27:
  55:src/Tests.cpp ****         Riscv::printInteger(j);
 391              		.loc 2 55 9 is_stmt 1 discriminator 2
  55:src/Tests.cpp ****         Riscv::printInteger(j);
 392              		.loc 2 55 27 is_stmt 0 discriminator 2
 393 01f8 17050000 		lla	a0,.LC5
 393      13050500 
 394 0200 97000000 		call	_ZN5Riscv11printStringEPKc@plt
 394      E7800000 
 395              	.LVL40:
  56:src/Tests.cpp ****         Riscv::printString("\n");
 396              		.loc 2 56 9 is_stmt 1 discriminator 2
  56:src/Tests.cpp ****         Riscv::printString("\n");
 397              		.loc 2 56 28 is_stmt 0 discriminator 2
 398 0208 13850400 		mv	a0,s1
 399 020c 97000000 		call	_ZN5Riscv12printIntegerEm@plt
 399      E7800000 
 400              	.LVL41:
  57:src/Tests.cpp ****     }
 401              		.loc 2 57 9 is_stmt 1 discriminator 2
  57:src/Tests.cpp ****     }
 402              		.loc 2 57 27 is_stmt 0 discriminator 2
 403 0214 17050000 		lla	a0,.LC3
 403      13050500 
 404 021c 97000000 		call	_ZN5Riscv11printStringEPKc@plt
 404      E7800000 
 405              	.LVL42:
  49:src/Tests.cpp ****     {
 406              		.loc 2 49 5 is_stmt 1 discriminator 2
 407 0224 93841400 		addi	s1,s1,1
 408              	.LVL43:
 409              	.L28:
  49:src/Tests.cpp ****     {
 410              		.loc 2 49 25 discriminator 1
 411 0228 B7270000 		li	a5,8192
 412 022c 9387F770 		addi	a5,a5,1807
 413 0230 63E09702 		bgtu	s1,a5,.L24
  51:src/Tests.cpp ****             thread_exit();
 414              		.loc 2 51 9
 415 0234 9307800C 		li	a5,200
 416 0238 E386F4FA 		beq	s1,a5,.L30
 417              	.L26:
  53:src/Tests.cpp ****             thread_dispatch();
 418              		.loc 2 53 9
  53:src/Tests.cpp ****             thread_dispatch();
 419              		.loc 2 53 14 is_stmt 0
 420 023c 93072003 		li	a5,50
 421 0240 B3F7F402 		remu	a5,s1,a5
  53:src/Tests.cpp ****             thread_dispatch();
 422              		.loc 2 53 9
 423 0244 E39A07FA 		bnez	a5,.L27
  53:src/Tests.cpp ****             thread_dispatch();
 424              		.loc 2 53 24 discriminator 1
GAS LISTING /tmp/cchEysKF.s 			page 16


 425 0248 E38804FA 		beqz	s1,.L27
 426 024c 6FF05FFA 		j	.L31
 427              	.L24:
 428              	.LBE17:
  59:src/Tests.cpp **** 
 429              		.loc 2 59 1
 430 0250 83308101 		ld	ra,24(sp)
 431              		.cfi_restore 1
 432 0254 03340101 		ld	s0,16(sp)
 433              		.cfi_restore 8
 434              		.cfi_def_cfa 2, 32
 435 0258 83348100 		ld	s1,8(sp)
 436              		.cfi_restore 9
 437              	.LVL44:
 438 025c 13010102 		addi	sp,sp,32
 439              		.cfi_def_cfa_offset 0
 440 0260 67800000 		jr	ra
 441              		.cfi_endproc
 442              	.LFE26:
 444              		.align	2
 445              		.globl	_Z9consumerAPv
 447              	_Z9consumerAPv:
 448              	.LFB50:
 302:src/Tests.cpp **** 
 303:src/Tests.cpp **** void mallocTest()
 304:src/Tests.cpp **** {
 305:src/Tests.cpp ****     Riscv::printString("Testing a few mallocs and frees\n\n");
 306:src/Tests.cpp **** 
 307:src/Tests.cpp ****     object* o = new object;
 308:src/Tests.cpp ****     o->a = 3;
 309:src/Tests.cpp ****     void* m1 = mem_alloc(10);
 310:src/Tests.cpp ****     void* m2 = mem_alloc(100);
 311:src/Tests.cpp ****     void* m3 = mem_alloc(1000);
 312:src/Tests.cpp ****     void* m4 = mem_alloc(10000);
 313:src/Tests.cpp ****     void* m5 = mem_alloc(1);
 314:src/Tests.cpp **** 
 315:src/Tests.cpp ****     if(!m1 || !m2 || !m3 || !m4 || !m5){
 316:src/Tests.cpp ****         Riscv::printString("not OK\n");
 317:src/Tests.cpp ****         return;
 318:src/Tests.cpp ****     }
 319:src/Tests.cpp **** 
 320:src/Tests.cpp ****     delete (uint64*)m1;
 321:src/Tests.cpp ****     delete (uint64*)m3;
 322:src/Tests.cpp ****     delete (uint64*)m4;
 323:src/Tests.cpp ****     delete (uint64*)m2;
 324:src/Tests.cpp ****     delete (uint64*)m5;
 325:src/Tests.cpp ****     delete o;
 326:src/Tests.cpp **** 
 327:src/Tests.cpp ****     Riscv::printString("SUCCESSFUL: Testing a few mallocs and frees\n\n");
 328:src/Tests.cpp **** }
 329:src/Tests.cpp **** 
 330:src/Tests.cpp **** void mallocEverything()
 331:src/Tests.cpp **** {
 332:src/Tests.cpp ****     Riscv::printString("Testing allocating whole address space\n\n");
 333:src/Tests.cpp **** 
 334:src/Tests.cpp ****     uint64 neg_size = (uint64)HEAP_START_ADDR - (uint64)HEAP_END_ADDR -sizeof(MemoryAllocator::Bloc
 335:src/Tests.cpp **** 
GAS LISTING /tmp/cchEysKF.s 			page 17


 336:src/Tests.cpp ****     void* m = mem_alloc(neg_size);
 337:src/Tests.cpp **** 
 338:src/Tests.cpp ****     if(m!=nullptr){
 339:src/Tests.cpp ****         Riscv::printString("not OK\n");
 340:src/Tests.cpp ****         return;
 341:src/Tests.cpp ****     }
 342:src/Tests.cpp **** 
 343:src/Tests.cpp ****     uint64 blockSize = (((uint64)HEAP_END_ADDR - (uint64)HEAP_START_ADDR - sizeof(MemoryAllocator::
 344:src/Tests.cpp **** 
 345:src/Tests.cpp ****     m = mem_alloc(blockSize<<6);
 346:src/Tests.cpp **** 
 347:src/Tests.cpp ****     if(m==nullptr){
 348:src/Tests.cpp ****         Riscv::printString("not OK\n");
 349:src/Tests.cpp ****         return;
 350:src/Tests.cpp ****     }
 351:src/Tests.cpp **** 
 352:src/Tests.cpp **** //    there should be some space left still, depending on source file size and output buffer size
 353:src/Tests.cpp **** //    excess allocation should fail and small_chunk should succeed
 354:src/Tests.cpp **** 
 355:src/Tests.cpp **** //    void *excess = mem_alloc(100);
 356:src/Tests.cpp **** //
 357:src/Tests.cpp **** //    if(excess!=nullptr){
 358:src/Tests.cpp **** //        Riscv::printString("not OK\n");
 359:src/Tests.cpp **** //        return;
 360:src/Tests.cpp **** //    }
 361:src/Tests.cpp **** //
 362:src/Tests.cpp ****     void *small_chunk = mem_alloc(1);
 363:src/Tests.cpp **** 
 364:src/Tests.cpp ****     if(small_chunk == nullptr){
 365:src/Tests.cpp ****         Riscv::printString("not OK\n");
 366:src/Tests.cpp ****         return;
 367:src/Tests.cpp ****     }
 368:src/Tests.cpp **** 
 369:src/Tests.cpp ****     delete (uint64*)m;
 370:src/Tests.cpp ****     //delete (uint64*)small_chunk;
 371:src/Tests.cpp **** 
 372:src/Tests.cpp ****     Riscv::printString("SUCCESSFUL: Testing allocating whole address space\n\n");
 373:src/Tests.cpp **** }
 374:src/Tests.cpp **** 
 375:src/Tests.cpp **** void mallocGapFillTest()
 376:src/Tests.cpp **** {
 377:src/Tests.cpp ****     Riscv::printString("Testing gap filling and chunk merge after multiple mallocs and frees\n\n");
 378:src/Tests.cpp **** 
 379:src/Tests.cpp ****     const int N = 10;
 380:src/Tests.cpp **** 
 381:src/Tests.cpp ****     void *m[N];
 382:src/Tests.cpp **** 
 383:src/Tests.cpp ****     for(int i=0;i<N;i++)
 384:src/Tests.cpp ****     {
 385:src/Tests.cpp ****         m[i] = mem_alloc((i<<6)+1);
 386:src/Tests.cpp ****         if(m[i] == nullptr){
 387:src/Tests.cpp ****             Riscv::printString("not OK\n");
 388:src/Tests.cpp ****             return;
 389:src/Tests.cpp ****         }
 390:src/Tests.cpp ****     }
 391:src/Tests.cpp **** 
 392:src/Tests.cpp ****     delete (uint64*)m[2];
GAS LISTING /tmp/cchEysKF.s 			page 18


 393:src/Tests.cpp **** 
 394:src/Tests.cpp ****     void* tmp1 = mem_alloc(1);
 395:src/Tests.cpp ****     void* tmp2 = mem_alloc(1);
 396:src/Tests.cpp ****     void* tmp3 = mem_alloc(1);
 397:src/Tests.cpp **** 
 398:src/Tests.cpp ****     if(!tmp1 || !tmp2 || !tmp3)
 399:src/Tests.cpp ****     {
 400:src/Tests.cpp ****         Riscv::printString("not OK\n");
 401:src/Tests.cpp ****         return;
 402:src/Tests.cpp ****     }
 403:src/Tests.cpp **** 
 404:src/Tests.cpp ****     uint64 im1 = (uint64)m[1];
 405:src/Tests.cpp ****     uint64 im3 = (uint64)m[3];
 406:src/Tests.cpp ****     uint64 im5 = (uint64)m[5];
 407:src/Tests.cpp ****     uint64 imN = (uint64)m[N];
 408:src/Tests.cpp **** 
 409:src/Tests.cpp ****     uint64 itmp1 = (uint64)tmp1;
 410:src/Tests.cpp ****     uint64 itmp2 = (uint64)tmp2;
 411:src/Tests.cpp ****     uint64 itmp3 = (uint64)tmp3;
 412:src/Tests.cpp **** 
 413:src/Tests.cpp ****     if(!(im1<itmp1 && itmp1<im3 && im1<itmp2 && itmp2<im3 && itmp3>imN))
 414:src/Tests.cpp ****     {
 415:src/Tests.cpp ****         Riscv::printString("not OK\n");
 416:src/Tests.cpp ****         return;
 417:src/Tests.cpp ****     }
 418:src/Tests.cpp **** 
 419:src/Tests.cpp ****     delete (uint64*)m[3];
 420:src/Tests.cpp ****     delete (uint64*)m[4];
 421:src/Tests.cpp **** 
 422:src/Tests.cpp ****     void* tmp4 = mem_alloc(640);
 423:src/Tests.cpp ****     void* tmp5 = mem_alloc(576);
 424:src/Tests.cpp **** 
 425:src/Tests.cpp ****     if(!tmp4 || !tmp5){
 426:src/Tests.cpp ****         Riscv::printString("not OK\n");
 427:src/Tests.cpp ****         return;
 428:src/Tests.cpp ****     }
 429:src/Tests.cpp **** 
 430:src/Tests.cpp ****     uint64 itmp4 = (uint64)tmp4;
 431:src/Tests.cpp ****     uint64 itmp5 = (uint64)tmp5;
 432:src/Tests.cpp **** 
 433:src/Tests.cpp ****     if(!(itmp5>itmp2 && itmp5>im5 && itmp4<itmp3)){
 434:src/Tests.cpp ****         Riscv::printString("not OK\n");
 435:src/Tests.cpp ****         return;
 436:src/Tests.cpp ****     }
 437:src/Tests.cpp **** 
 438:src/Tests.cpp ****     for(int i=0;i<N;i++){
 439:src/Tests.cpp ****         delete (uint64*)m[i];
 440:src/Tests.cpp ****     }
 441:src/Tests.cpp **** 
 442:src/Tests.cpp ****     delete (uint64*)tmp1;
 443:src/Tests.cpp ****     delete (uint64*)tmp2;
 444:src/Tests.cpp ****     delete (uint64*)tmp3;
 445:src/Tests.cpp ****     delete (uint64*)tmp4;
 446:src/Tests.cpp ****     delete (uint64*)tmp5;
 447:src/Tests.cpp **** 
 448:src/Tests.cpp ****     Riscv::printString("SUCCESSFUL: Testing gap filling and chunk merge after multiple mallocs and 
 449:src/Tests.cpp **** }
GAS LISTING /tmp/cchEysKF.s 			page 19


 450:src/Tests.cpp **** 
 451:src/Tests.cpp **** char buffer[10];
 452:src/Tests.cpp **** int head = 0;
 453:src/Tests.cpp **** int tail = 0;
 454:src/Tests.cpp **** sem_t spaceAvailable, itemAvailable;
 455:src/Tests.cpp **** char string[11] = "this is ni";
 456:src/Tests.cpp **** 
 457:src/Tests.cpp **** void consumerA(void *arg)
 458:src/Tests.cpp **** {
 449              		.loc 2 458 1 is_stmt 1
 450              		.cfi_startproc
 451              	.LVL45:
 459:src/Tests.cpp ****     while(head!=10){
 452              		.loc 2 459 5
 453              		.loc 2 459 15
 454 0264 17070000 		lw	a4,.LANCHOR0
 454      03270700 
 455 026c 9307A000 		li	a5,10
 456 0270 630CF706 		beq	a4,a5,.L40
 458:src/Tests.cpp ****     while(head!=10){
 457              		.loc 2 458 1 is_stmt 0
 458 0274 130101FE 		addi	sp,sp,-32
 459              		.cfi_def_cfa_offset 32
 460 0278 233C1100 		sd	ra,24(sp)
 461 027c 23388100 		sd	s0,16(sp)
 462 0280 23349100 		sd	s1,8(sp)
 463              		.cfi_offset 1, -8
 464              		.cfi_offset 8, -16
 465              		.cfi_offset 9, -24
 466 0284 13040102 		addi	s0,sp,32
 467              		.cfi_def_cfa 8, 0
 468              	.LVL46:
 469              	.L37:
 460:src/Tests.cpp ****         sem_wait(itemAvailable);
 470              		.loc 2 460 9 is_stmt 1
 471              		.loc 2 460 17 is_stmt 0
 472 0288 97040000 		lla	s1,.LANCHOR0
 472      93840400 
 473 0290 03B58400 		ld	a0,8(s1)
 474 0294 97000000 		call	sem_wait@plt
 474      E7800000 
 475              	.LVL47:
 461:src/Tests.cpp ****         __putc(buffer[head++]);
 476              		.loc 2 461 9 is_stmt 1
 477              		.loc 2 461 27 is_stmt 0
 478 029c 83A70400 		lw	a5,0(s1)
 479 02a0 1B871700 		addiw	a4,a5,1
 480 02a4 23A0E400 		sw	a4,0(s1)
 481              		.loc 2 461 15
 482 02a8 B387F400 		add	a5,s1,a5
 483 02ac 03C50701 		lbu	a0,16(a5)
 484 02b0 97000000 		call	__putc@plt
 484      E7800000 
 485              	.LVL48:
 462:src/Tests.cpp ****         sem_signal(spaceAvailable);
 486              		.loc 2 462 9 is_stmt 1
 487              		.loc 2 462 19 is_stmt 0
GAS LISTING /tmp/cchEysKF.s 			page 20


 488 02b8 03B50402 		ld	a0,32(s1)
 489 02bc 97000000 		call	sem_signal@plt
 489      E7800000 
 490              	.LVL49:
 459:src/Tests.cpp ****         sem_wait(itemAvailable);
 491              		.loc 2 459 5 is_stmt 1
 459:src/Tests.cpp ****         sem_wait(itemAvailable);
 492              		.loc 2 459 15
 493 02c4 17070000 		lw	a4,.LANCHOR0
 493      03270700 
 494 02cc 9307A000 		li	a5,10
 495 02d0 E31CF7FA 		bne	a4,a5,.L37
 463:src/Tests.cpp ****     }
 464:src/Tests.cpp **** }
 496              		.loc 2 464 1 is_stmt 0
 497 02d4 83308101 		ld	ra,24(sp)
 498              		.cfi_restore 1
 499 02d8 03340101 		ld	s0,16(sp)
 500              		.cfi_restore 8
 501              		.cfi_def_cfa 2, 32
 502 02dc 83348100 		ld	s1,8(sp)
 503              		.cfi_restore 9
 504 02e0 13010102 		addi	sp,sp,32
 505              		.cfi_def_cfa_offset 0
 506 02e4 67800000 		jr	ra
 507              	.LVL50:
 508              	.L40:
 509 02e8 67800000 		ret
 510              		.cfi_endproc
 511              	.LFE50:
 513              		.align	2
 514              		.globl	_Z9producerAPv
 516              	_Z9producerAPv:
 517              	.LFB51:
 465:src/Tests.cpp **** 
 466:src/Tests.cpp **** void producerA(void *arg)
 467:src/Tests.cpp **** {
 518              		.loc 2 467 1 is_stmt 1
 519              		.cfi_startproc
 520              	.LVL51:
 468:src/Tests.cpp ****     while(tail!=10)
 521              		.loc 2 468 5
 522              		.loc 2 468 15
 523 02ec 17070000 		lw	a4,.LANCHOR0+40
 523      03270700 
 524 02f4 9307A000 		li	a5,10
 525 02f8 6300F708 		beq	a4,a5,.L49
 467:src/Tests.cpp ****     while(tail!=10)
 526              		.loc 2 467 1 is_stmt 0
 527 02fc 130101FE 		addi	sp,sp,-32
 528              		.cfi_def_cfa_offset 32
 529 0300 233C1100 		sd	ra,24(sp)
 530 0304 23388100 		sd	s0,16(sp)
 531 0308 23349100 		sd	s1,8(sp)
 532              		.cfi_offset 1, -8
 533              		.cfi_offset 8, -16
 534              		.cfi_offset 9, -24
GAS LISTING /tmp/cchEysKF.s 			page 21


 535 030c 13040102 		addi	s0,sp,32
 536              		.cfi_def_cfa 8, 0
 537              	.LVL52:
 538              	.L46:
 469:src/Tests.cpp ****     {
 470:src/Tests.cpp ****         sem_wait(spaceAvailable);
 539              		.loc 2 470 9 is_stmt 1
 540              		.loc 2 470 17 is_stmt 0
 541 0310 97040000 		lla	s1,.LANCHOR0
 541      93840400 
 542 0318 03B50402 		ld	a0,32(s1)
 543 031c 97000000 		call	sem_wait@plt
 543      E7800000 
 544              	.LVL53:
 471:src/Tests.cpp ****         buffer[tail] = string[tail];
 545              		.loc 2 471 9 is_stmt 1
 546              		.loc 2 471 35 is_stmt 0
 547 0324 83A78402 		lw	a5,40(s1)
 548 0328 17070000 		lla	a4,.LANCHOR1
 548      13070700 
 549 0330 3307F700 		add	a4,a4,a5
 550 0334 83460700 		lbu	a3,0(a4)
 551              		.loc 2 471 22
 552 0338 3387F400 		add	a4,s1,a5
 553 033c 2308D700 		sb	a3,16(a4)
 472:src/Tests.cpp ****         tail++;
 554              		.loc 2 472 9 is_stmt 1
 555              		.loc 2 472 13 is_stmt 0
 556 0340 9B871700 		addiw	a5,a5,1
 557 0344 23A4F402 		sw	a5,40(s1)
 473:src/Tests.cpp ****         sem_signal(itemAvailable);
 558              		.loc 2 473 9 is_stmt 1
 559              		.loc 2 473 19 is_stmt 0
 560 0348 03B58400 		ld	a0,8(s1)
 561 034c 97000000 		call	sem_signal@plt
 561      E7800000 
 562              	.LVL54:
 468:src/Tests.cpp ****     {
 563              		.loc 2 468 5 is_stmt 1
 468:src/Tests.cpp ****     {
 564              		.loc 2 468 15
 565 0354 17070000 		lw	a4,.LANCHOR0+40
 565      03270700 
 566 035c 9307A000 		li	a5,10
 567 0360 E318F7FA 		bne	a4,a5,.L46
 474:src/Tests.cpp ****     }
 475:src/Tests.cpp **** }
 568              		.loc 2 475 1 is_stmt 0
 569 0364 83308101 		ld	ra,24(sp)
 570              		.cfi_restore 1
 571 0368 03340101 		ld	s0,16(sp)
 572              		.cfi_restore 8
 573              		.cfi_def_cfa 2, 32
 574 036c 83348100 		ld	s1,8(sp)
 575              		.cfi_restore 9
 576 0370 13010102 		addi	sp,sp,32
 577              		.cfi_def_cfa_offset 0
GAS LISTING /tmp/cchEysKF.s 			page 22


 578 0374 67800000 		jr	ra
 579              	.LVL55:
 580              	.L49:
 581 0378 67800000 		ret
 582              		.cfi_endproc
 583              	.LFE51:
 585              		.section	.text._ZN14PeriodicThreadD2Ev,"axG",@progbits,_ZN14PeriodicThreadD5Ev,comdat
 586              		.align	2
 587              		.weak	_ZN14PeriodicThreadD2Ev
 589              	_ZN14PeriodicThreadD2Ev:
 590              	.LFB41:
  59:src/../h/syscall_cpp.hpp **** {
 591              		.loc 1 59 7 is_stmt 1
 592              		.cfi_startproc
 593              	.LVL56:
 594 0000 130101FF 		addi	sp,sp,-16
 595              		.cfi_def_cfa_offset 16
 596 0004 23341100 		sd	ra,8(sp)
 597 0008 23308100 		sd	s0,0(sp)
 598              		.cfi_offset 1, -8
 599              		.cfi_offset 8, -16
 600 000c 13040101 		addi	s0,sp,16
 601              		.cfi_def_cfa 8, 0
 602              	.LBB18:
  59:src/../h/syscall_cpp.hpp **** {
 603              		.loc 1 59 7 is_stmt 0
 604 0010 97070000 		lla	a5,_ZTV14PeriodicThread+16
 604      93870700 
 605 0018 2330F500 		sd	a5,0(a0)
 606 001c 97000000 		call	_ZN6ThreadD2Ev@plt
 606      E7800000 
 607              	.LVL57:
 608              	.LBE18:
 609 0024 83308100 		ld	ra,8(sp)
 610              		.cfi_restore 1
 611 0028 03340100 		ld	s0,0(sp)
 612              		.cfi_restore 8
 613              		.cfi_def_cfa 2, 16
 614 002c 13010101 		addi	sp,sp,16
 615              		.cfi_def_cfa_offset 0
 616 0030 67800000 		jr	ra
 617              		.cfi_endproc
 618              	.LFE41:
 620              		.weak	_ZN14PeriodicThreadD1Ev
 621              		.set	_ZN14PeriodicThreadD1Ev,_ZN14PeriodicThreadD2Ev
 622              		.section	.text._ZN14PeriodicThreadD0Ev,"axG",@progbits,_ZN14PeriodicThreadD5Ev,comdat
 623              		.align	2
 624              		.weak	_ZN14PeriodicThreadD0Ev
 626              	_ZN14PeriodicThreadD0Ev:
 627              	.LFB43:
  59:src/../h/syscall_cpp.hpp **** {
 628              		.loc 1 59 7 is_stmt 1
 629              		.cfi_startproc
 630              	.LVL58:
 631 0000 130101FE 		addi	sp,sp,-32
 632              		.cfi_def_cfa_offset 32
 633 0004 233C1100 		sd	ra,24(sp)
GAS LISTING /tmp/cchEysKF.s 			page 23


 634 0008 23388100 		sd	s0,16(sp)
 635 000c 23349100 		sd	s1,8(sp)
 636              		.cfi_offset 1, -8
 637              		.cfi_offset 8, -16
 638              		.cfi_offset 9, -24
 639 0010 13040102 		addi	s0,sp,32
 640              		.cfi_def_cfa 8, 0
 641 0014 93040500 		mv	s1,a0
 642              	.LVL59:
 643              	.LBB19:
 644              	.LBB20:
  59:src/../h/syscall_cpp.hpp **** {
 645              		.loc 1 59 7 is_stmt 0
 646 0018 97070000 		lla	a5,_ZTV14PeriodicThread+16
 646      93870700 
 647 0020 2330F500 		sd	a5,0(a0)
 648 0024 97000000 		call	_ZN6ThreadD2Ev@plt
 648      E7800000 
 649              	.LVL60:
 650              	.LBE20:
 651              	.LBE19:
 652 002c 13850400 		mv	a0,s1
 653 0030 97000000 		call	_ZdlPv@plt
 653      E7800000 
 654              	.LVL61:
 655 0038 83308101 		ld	ra,24(sp)
 656              		.cfi_restore 1
 657 003c 03340101 		ld	s0,16(sp)
 658              		.cfi_restore 8
 659              		.cfi_def_cfa 2, 32
 660 0040 83348100 		ld	s1,8(sp)
 661              		.cfi_restore 9
 662              	.LVL62:
 663 0044 13010102 		addi	sp,sp,32
 664              		.cfi_def_cfa_offset 0
 665 0048 67800000 		jr	ra
 666              		.cfi_endproc
 667              	.LFE43:
 669              		.section	.text._ZN12TestPeriodicD2Ev,"axG",@progbits,_ZN12TestPeriodicD5Ev,comdat
 670              		.align	2
 671              		.weak	_ZN12TestPeriodicD2Ev
 673              	_ZN12TestPeriodicD2Ev:
 674              	.LFB54:
 675              		.file 3 "src/../h/Tests.hpp"
   1:src/../h/Tests.hpp **** //
   2:src/../h/Tests.hpp **** // Created by os on 5/5/22.
   3:src/../h/Tests.hpp **** //
   4:src/../h/Tests.hpp **** 
   5:src/../h/Tests.hpp **** #ifndef PROJECT_BASE_V1_0_TESTS_HPP
   6:src/../h/Tests.hpp **** #define PROJECT_BASE_V1_0_TESTS_HPP
   7:src/../h/Tests.hpp **** 
   8:src/../h/Tests.hpp **** #include "Riscv.hpp"
   9:src/../h/Tests.hpp **** #include "PCB.hpp"
  10:src/../h/Tests.hpp **** #include "syscall_cpp.hpp"
  11:src/../h/Tests.hpp **** 
  12:src/../h/Tests.hpp **** class Test
  13:src/../h/Tests.hpp **** {
GAS LISTING /tmp/cchEysKF.s 			page 24


  14:src/../h/Tests.hpp **** public:
  15:src/../h/Tests.hpp ****     uint64 a;
  16:src/../h/Tests.hpp **** };
  17:src/../h/Tests.hpp **** struct object{
  18:src/../h/Tests.hpp ****     int a,b,c,d,e,f,g,h,i,j,k;
  19:src/../h/Tests.hpp **** };
  20:src/../h/Tests.hpp **** struct node{
  21:src/../h/Tests.hpp ****     object o1, o2, o3;
  22:src/../h/Tests.hpp ****     char id;
  23:src/../h/Tests.hpp ****     node *next, *prev;
  24:src/../h/Tests.hpp **** };
  25:src/../h/Tests.hpp **** 
  26:src/../h/Tests.hpp **** //memory (de)allocation tests
  27:src/../h/Tests.hpp **** void mallocFree();
  28:src/../h/Tests.hpp **** void bigMalloc();
  29:src/../h/Tests.hpp **** void lotOfSmallMallocs();
  30:src/../h/Tests.hpp **** void badFree();
  31:src/../h/Tests.hpp **** void stressTesting();
  32:src/../h/Tests.hpp **** void mallocTest();
  33:src/../h/Tests.hpp **** void mallocEverything();
  34:src/../h/Tests.hpp **** void mallocGapFillTest();
  35:src/../h/Tests.hpp **** void memoryAllocationTests();
  36:src/../h/Tests.hpp **** 
  37:src/../h/Tests.hpp **** //thread tests
  38:src/../h/Tests.hpp **** void thread1Function();
  39:src/../h/Tests.hpp **** void thread2Function();
  40:src/../h/Tests.hpp **** 
  41:src/../h/Tests.hpp **** void threadFunction3();
  42:src/../h/Tests.hpp **** 
  43:src/../h/Tests.hpp **** void threadTest1();
  44:src/../h/Tests.hpp **** void threadTest2();
  45:src/../h/Tests.hpp **** void threadTest3();
  46:src/../h/Tests.hpp **** 
  47:src/../h/Tests.hpp **** void threadTests();
  48:src/../h/Tests.hpp **** 
  49:src/../h/Tests.hpp **** class TestPeriodic : public PeriodicThread
 676              		.loc 3 49 7 is_stmt 1
 677              		.cfi_startproc
 678              	.LVL63:
 679 0000 130101FF 		addi	sp,sp,-16
 680              		.cfi_def_cfa_offset 16
 681 0004 23341100 		sd	ra,8(sp)
 682 0008 23308100 		sd	s0,0(sp)
 683              		.cfi_offset 1, -8
 684              		.cfi_offset 8, -16
 685 000c 13040101 		addi	s0,sp,16
 686              		.cfi_def_cfa 8, 0
 687              	.LVL64:
 688              	.LBB21:
 689              	.LBB22:
  59:src/../h/syscall_cpp.hpp **** {
 690              		.loc 1 59 7 is_stmt 0
 691 0010 97070000 		lla	a5,_ZTV14PeriodicThread+16
 691      93870700 
 692 0018 2330F500 		sd	a5,0(a0)
 693 001c 97000000 		call	_ZN6ThreadD2Ev@plt
 693      E7800000 
GAS LISTING /tmp/cchEysKF.s 			page 25


 694              	.LVL65:
 695              	.LBE22:
 696              	.LBE21:
 697              		.loc 3 49 7
 698 0024 83308100 		ld	ra,8(sp)
 699              		.cfi_restore 1
 700 0028 03340100 		ld	s0,0(sp)
 701              		.cfi_restore 8
 702              		.cfi_def_cfa 2, 16
 703 002c 13010101 		addi	sp,sp,16
 704              		.cfi_def_cfa_offset 0
 705 0030 67800000 		jr	ra
 706              		.cfi_endproc
 707              	.LFE54:
 709              		.weak	_ZN12TestPeriodicD1Ev
 710              		.set	_ZN12TestPeriodicD1Ev,_ZN12TestPeriodicD2Ev
 711              		.section	.text._ZN12TestPeriodicD0Ev,"axG",@progbits,_ZN12TestPeriodicD5Ev,comdat
 712              		.align	2
 713              		.weak	_ZN12TestPeriodicD0Ev
 715              	_ZN12TestPeriodicD0Ev:
 716              	.LFB56:
 717              		.loc 3 49 7 is_stmt 1
 718              		.cfi_startproc
 719              	.LVL66:
 720 0000 130101FE 		addi	sp,sp,-32
 721              		.cfi_def_cfa_offset 32
 722 0004 233C1100 		sd	ra,24(sp)
 723 0008 23388100 		sd	s0,16(sp)
 724 000c 23349100 		sd	s1,8(sp)
 725              		.cfi_offset 1, -8
 726              		.cfi_offset 8, -16
 727              		.cfi_offset 9, -24
 728 0010 13040102 		addi	s0,sp,32
 729              		.cfi_def_cfa 8, 0
 730 0014 93040500 		mv	s1,a0
 731              	.LVL67:
 732              	.LBB23:
 733              	.LBB24:
 734              	.LBB25:
  59:src/../h/syscall_cpp.hpp **** {
 735              		.loc 1 59 7 is_stmt 0
 736 0018 97070000 		lla	a5,_ZTV14PeriodicThread+16
 736      93870700 
 737 0020 2330F500 		sd	a5,0(a0)
 738 0024 97000000 		call	_ZN6ThreadD2Ev@plt
 738      E7800000 
 739              	.LVL68:
 740              	.LBE25:
 741              	.LBE24:
 742              	.LBE23:
 743              		.loc 3 49 7
 744 002c 13850400 		mv	a0,s1
 745 0030 97000000 		call	_ZdlPv@plt
 745      E7800000 
 746              	.LVL69:
 747 0038 83308101 		ld	ra,24(sp)
 748              		.cfi_restore 1
GAS LISTING /tmp/cchEysKF.s 			page 26


 749 003c 03340101 		ld	s0,16(sp)
 750              		.cfi_restore 8
 751              		.cfi_def_cfa 2, 32
 752 0040 83348100 		ld	s1,8(sp)
 753              		.cfi_restore 9
 754              	.LVL70:
 755 0044 13010102 		addi	sp,sp,32
 756              		.cfi_def_cfa_offset 0
 757 0048 67800000 		jr	ra
 758              		.cfi_endproc
 759              	.LFE56:
 761              		.section	.rodata.str1.8
 762 004d 000000   		.align	3
 763              	.LC6:
 764 0050 456E642E 		.string	"End...\n"
 764      2E2E0A00 
 765              		.text
 766              		.align	2
 767              		.globl	_Z11threadTest1v
 769              	_Z11threadTest1v:
 770              	.LFB27:
  62:src/Tests.cpp ****     Thread* t1 = new Thread(&thread1Function, 0);
 771              		.loc 2 62 1 is_stmt 1
 772              		.cfi_startproc
 773              		.cfi_personality 0x9b,DW.ref.__gxx_personality_v0
 774              		.cfi_lsda 0x1b,.LLSDA27
 775 037c 130101FE 		addi	sp,sp,-32
 776              		.cfi_def_cfa_offset 32
 777 0380 233C1100 		sd	ra,24(sp)
 778 0384 23388100 		sd	s0,16(sp)
 779 0388 23349100 		sd	s1,8(sp)
 780 038c 23302101 		sd	s2,0(sp)
 781              		.cfi_offset 1, -8
 782              		.cfi_offset 8, -16
 783              		.cfi_offset 9, -24
 784              		.cfi_offset 18, -32
 785 0390 13040102 		addi	s0,sp,32
 786              		.cfi_def_cfa 8, 0
  63:src/Tests.cpp ****     t1->start();
 787              		.loc 2 63 5
  63:src/Tests.cpp ****     t1->start();
 788              		.loc 2 63 48 is_stmt 0
 789 0394 13050001 		li	a0,16
 790              	.LEHB0:
 791 0398 97000000 		call	_Znwm@plt
 791      E7800000 
 792              	.LVL71:
 793              	.LEHE0:
 794 03a0 93040500 		mv	s1,a0
 795 03a4 13060000 		li	a2,0
 796 03a8 97050000 		lla	a1,_Z15thread1FunctionPv
 796      93850500 
 797              	.LEHB1:
 798 03b0 97000000 		call	_ZN6ThreadC1EPFvPvES0_@plt
 798      E7800000 
 799              	.LVL72:
 800              	.LEHE1:
GAS LISTING /tmp/cchEysKF.s 			page 27


  64:src/Tests.cpp ****     Thread* t2 = new Thread(&thread2Function, 0);
 801              		.loc 2 64 5 is_stmt 1 discriminator 2
  64:src/Tests.cpp ****     Thread* t2 = new Thread(&thread2Function, 0);
 802              		.loc 2 64 14 is_stmt 0 discriminator 2
 803 03b8 13850400 		mv	a0,s1
 804              	.LEHB2:
 805 03bc 97000000 		call	_ZN6Thread5startEv@plt
 805      E7800000 
 806              	.LVL73:
  65:src/Tests.cpp ****     t2->start();
 807              		.loc 2 65 5 is_stmt 1 discriminator 2
  65:src/Tests.cpp ****     t2->start();
 808              		.loc 2 65 48 is_stmt 0 discriminator 2
 809 03c4 13050001 		li	a0,16
 810 03c8 97000000 		call	_Znwm@plt
 810      E7800000 
 811              	.LVL74:
 812              	.LEHE2:
 813 03d0 93040500 		mv	s1,a0
 814              	.LVL75:
 815 03d4 13060000 		li	a2,0
 816 03d8 97050000 		lla	a1,_Z15thread2FunctionPv
 816      93850500 
 817              	.LEHB3:
 818 03e0 97000000 		call	_ZN6ThreadC1EPFvPvES0_@plt
 818      E7800000 
 819              	.LVL76:
 820              	.LEHE3:
  66:src/Tests.cpp ****     Riscv::enableInterrupts();
 821              		.loc 2 66 5 is_stmt 1 discriminator 2
  66:src/Tests.cpp ****     Riscv::enableInterrupts();
 822              		.loc 2 66 14 is_stmt 0 discriminator 2
 823 03e8 13850400 		mv	a0,s1
 824              	.LEHB4:
 825 03ec 97000000 		call	_ZN6Thread5startEv@plt
 825      E7800000 
 826              	.LVL77:
  67:src/Tests.cpp ****     //while(((PCB*)(t1->myHandle))->getState() != PCB::FINISHED || ((PCB*)(t2->myHandle))->getState
 827              		.loc 2 67 5 is_stmt 1 discriminator 2
  67:src/Tests.cpp ****     //while(((PCB*)(t1->myHandle))->getState() != PCB::FINISHED || ((PCB*)(t2->myHandle))->getState
 828              		.loc 2 67 28 is_stmt 0 discriminator 2
 829 03f4 97000000 		call	_ZN5Riscv16enableInterruptsEv@plt
 829      E7800000 
 830              	.LVL78:
  74:src/Tests.cpp ****     Riscv::disableInterrupts();
 831              		.loc 2 74 5 is_stmt 1 discriminator 2
  74:src/Tests.cpp ****     Riscv::disableInterrupts();
 832              		.loc 2 74 23 is_stmt 0 discriminator 2
 833 03fc 17050000 		lla	a0,.LC6
 833      13050500 
 834 0404 97000000 		call	_ZN5Riscv11printStringEPKc@plt
 834      E7800000 
 835              	.LVL79:
  75:src/Tests.cpp **** }
 836              		.loc 2 75 5 is_stmt 1 discriminator 2
  75:src/Tests.cpp **** }
 837              		.loc 2 75 29 is_stmt 0 discriminator 2
GAS LISTING /tmp/cchEysKF.s 			page 28


 838 040c 97000000 		call	_ZN5Riscv17disableInterruptsEv@plt
 838      E7800000 
 839              	.LVL80:
 840              	.LEHE4:
  76:src/Tests.cpp **** 
 841              		.loc 2 76 1 discriminator 2
 842 0414 83308101 		ld	ra,24(sp)
 843              		.cfi_remember_state
 844              		.cfi_restore 1
 845 0418 03340101 		ld	s0,16(sp)
 846              		.cfi_restore 8
 847              		.cfi_def_cfa 2, 32
 848 041c 83348100 		ld	s1,8(sp)
 849              		.cfi_restore 9
 850              	.LVL81:
 851 0420 03390100 		ld	s2,0(sp)
 852              		.cfi_restore 18
 853 0424 13010102 		addi	sp,sp,32
 854              		.cfi_def_cfa_offset 0
 855 0428 67800000 		jr	ra
 856              	.L61:
 857              		.cfi_restore_state
 858 042c 13090500 		mv	s2,a0
  63:src/Tests.cpp ****     t1->start();
 859              		.loc 2 63 48
 860 0430 13850400 		mv	a0,s1
 861 0434 97000000 		call	_ZdlPv@plt
 861      E7800000 
 862              	.LVL82:
 863 043c 13050900 		mv	a0,s2
 864              	.LEHB5:
 865 0440 97000000 		call	_Unwind_Resume@plt
 865      E7800000 
 866              	.LVL83:
 867              	.LEHE5:
 868              	.L62:
 869 0448 13090500 		mv	s2,a0
  65:src/Tests.cpp ****     t2->start();
 870              		.loc 2 65 48
 871 044c 13850400 		mv	a0,s1
 872 0450 97000000 		call	_ZdlPv@plt
 872      E7800000 
 873              	.LVL84:
 874 0458 13050900 		mv	a0,s2
 875              	.LEHB6:
 876 045c 97000000 		call	_Unwind_Resume@plt
 876      E7800000 
 877              	.LVL85:
 878              	.LEHE6:
 879              		.cfi_endproc
 880              	.LFE27:
 881              		.globl	__gxx_personality_v0
 882              		.section	.gcc_except_table,"a",@progbits
 883              	.LLSDA27:
 884 0000 FF       		.byte	0xff
 885 0001 FF       		.byte	0xff
 886 0002 03       		.byte	0x3
GAS LISTING /tmp/cchEysKF.s 			page 29


 887 0003 5B       		.byte	0x5b
 888 0004 00000000 		.4byte	.LEHB0-.LFB27
 889 0008 00000000 		.4byte	.LEHE0-.LEHB0
 890 000c 00000000 		.4byte	0
 891 0010 00       		.byte	0
 892 0011 00000000 		.4byte	.LEHB1-.LFB27
 893 0015 00000000 		.4byte	.LEHE1-.LEHB1
 894 0019 00000000 		.4byte	.L61-.LFB27
 895 001d 00       		.byte	0
 896 001e 00000000 		.4byte	.LEHB2-.LFB27
 897 0022 00000000 		.4byte	.LEHE2-.LEHB2
 898 0026 00000000 		.4byte	0
 899 002a 00       		.byte	0
 900 002b 00000000 		.4byte	.LEHB3-.LFB27
 901 002f 00000000 		.4byte	.LEHE3-.LEHB3
 902 0033 00000000 		.4byte	.L62-.LFB27
 903 0037 00       		.byte	0
 904 0038 00000000 		.4byte	.LEHB4-.LFB27
 905 003c 00000000 		.4byte	.LEHE4-.LEHB4
 906 0040 00000000 		.4byte	0
 907 0044 00       		.byte	0
 908 0045 00000000 		.4byte	.LEHB5-.LFB27
 909 0049 00000000 		.4byte	.LEHE5-.LEHB5
 910 004d 00000000 		.4byte	0
 911 0051 00       		.byte	0
 912 0052 00000000 		.4byte	.LEHB6-.LFB27
 913 0056 00000000 		.4byte	.LEHE6-.LEHB6
 914 005a 00000000 		.4byte	0
 915 005e 00       		.byte	0
 916              		.text
 918              		.align	2
 919              		.globl	_Z11threadTest2v
 921              	_Z11threadTest2v:
 922              	.LFB28:
  79:src/Tests.cpp ****     Thread* idleThread = new Thread(&idle, 0);
 923              		.loc 2 79 1 is_stmt 1
 924              		.cfi_startproc
 925              		.cfi_personality 0x9b,DW.ref.__gxx_personality_v0
 926              		.cfi_lsda 0x1b,.LLSDA28
 927 0464 130101FE 		addi	sp,sp,-32
 928              		.cfi_def_cfa_offset 32
 929 0468 233C1100 		sd	ra,24(sp)
 930 046c 23388100 		sd	s0,16(sp)
 931 0470 23349100 		sd	s1,8(sp)
 932 0474 23302101 		sd	s2,0(sp)
 933              		.cfi_offset 1, -8
 934              		.cfi_offset 8, -16
 935              		.cfi_offset 9, -24
 936              		.cfi_offset 18, -32
 937 0478 13040102 		addi	s0,sp,32
 938              		.cfi_def_cfa 8, 0
  80:src/Tests.cpp ****     idleThread->start();
 939              		.loc 2 80 5
  80:src/Tests.cpp ****     idleThread->start();
 940              		.loc 2 80 45 is_stmt 0
 941 047c 13050001 		li	a0,16
 942              	.LEHB7:
GAS LISTING /tmp/cchEysKF.s 			page 30


 943 0480 97000000 		call	_Znwm@plt
 943      E7800000 
 944              	.LVL86:
 945              	.LEHE7:
 946 0488 93040500 		mv	s1,a0
 947 048c 13060000 		li	a2,0
 948 0490 97050000 		lla	a1,_Z4idlePv
 948      93850500 
 949              	.LEHB8:
 950 0498 97000000 		call	_ZN6ThreadC1EPFvPvES0_@plt
 950      E7800000 
 951              	.LVL87:
 952              	.LEHE8:
  81:src/Tests.cpp ****     Thread* t1 = new Thread(&thread1Function, 0);
 953              		.loc 2 81 5 is_stmt 1 discriminator 2
  81:src/Tests.cpp ****     Thread* t1 = new Thread(&thread1Function, 0);
 954              		.loc 2 81 22 is_stmt 0 discriminator 2
 955 04a0 13850400 		mv	a0,s1
 956              	.LEHB9:
 957 04a4 97000000 		call	_ZN6Thread5startEv@plt
 957      E7800000 
 958              	.LVL88:
  82:src/Tests.cpp ****     t1->start();
 959              		.loc 2 82 5 is_stmt 1 discriminator 2
  82:src/Tests.cpp ****     t1->start();
 960              		.loc 2 82 48 is_stmt 0 discriminator 2
 961 04ac 13050001 		li	a0,16
 962 04b0 97000000 		call	_Znwm@plt
 962      E7800000 
 963              	.LVL89:
 964              	.LEHE9:
 965 04b8 93040500 		mv	s1,a0
 966              	.LVL90:
 967 04bc 13060000 		li	a2,0
 968 04c0 97050000 		lla	a1,_Z15thread1FunctionPv
 968      93850500 
 969              	.LEHB10:
 970 04c8 97000000 		call	_ZN6ThreadC1EPFvPvES0_@plt
 970      E7800000 
 971              	.LVL91:
 972              	.LEHE10:
  83:src/Tests.cpp ****     Thread* t2  = new Thread(&thread2FunctionTest2, 0);
 973              		.loc 2 83 5 is_stmt 1 discriminator 2
  83:src/Tests.cpp ****     Thread* t2  = new Thread(&thread2FunctionTest2, 0);
 974              		.loc 2 83 14 is_stmt 0 discriminator 2
 975 04d0 13850400 		mv	a0,s1
 976              	.LEHB11:
 977 04d4 97000000 		call	_ZN6Thread5startEv@plt
 977      E7800000 
 978              	.LVL92:
  84:src/Tests.cpp ****     t2->start();
 979              		.loc 2 84 5 is_stmt 1 discriminator 2
  84:src/Tests.cpp ****     t2->start();
 980              		.loc 2 84 54 is_stmt 0 discriminator 2
 981 04dc 13050001 		li	a0,16
 982 04e0 97000000 		call	_Znwm@plt
 982      E7800000 
GAS LISTING /tmp/cchEysKF.s 			page 31


 983              	.LVL93:
 984              	.LEHE11:
 985 04e8 93040500 		mv	s1,a0
 986              	.LVL94:
 987 04ec 13060000 		li	a2,0
 988 04f0 97050000 		lla	a1,_Z20thread2FunctionTest2Pv
 988      93850500 
 989              	.LEHB12:
 990 04f8 97000000 		call	_ZN6ThreadC1EPFvPvES0_@plt
 990      E7800000 
 991              	.LVL95:
 992              	.LEHE12:
  85:src/Tests.cpp **** 
 993              		.loc 2 85 5 is_stmt 1 discriminator 2
  85:src/Tests.cpp **** 
 994              		.loc 2 85 14 is_stmt 0 discriminator 2
 995 0500 13850400 		mv	a0,s1
 996              	.LEHB13:
 997 0504 97000000 		call	_ZN6Thread5startEv@plt
 997      E7800000 
 998              	.LVL96:
  87:src/Tests.cpp **** 
 999              		.loc 2 87 5 is_stmt 1 discriminator 2
  87:src/Tests.cpp **** 
 1000              		.loc 2 87 28 is_stmt 0 discriminator 2
 1001 050c 97000000 		call	_ZN5Riscv16enableInterruptsEv@plt
 1001      E7800000 
 1002              	.LVL97:
  91:src/Tests.cpp **** 
 1003              		.loc 2 91 5 is_stmt 1 discriminator 2
  91:src/Tests.cpp **** 
 1004              		.loc 2 91 23 is_stmt 0 discriminator 2
 1005 0514 17050000 		lla	a0,.LC6
 1005      13050500 
 1006 051c 97000000 		call	_ZN5Riscv11printStringEPKc@plt
 1006      E7800000 
 1007              	.LVL98:
  93:src/Tests.cpp **** }
 1008              		.loc 2 93 5 is_stmt 1 discriminator 2
  93:src/Tests.cpp **** }
 1009              		.loc 2 93 29 is_stmt 0 discriminator 2
 1010 0524 97000000 		call	_ZN5Riscv17disableInterruptsEv@plt
 1010      E7800000 
 1011              	.LVL99:
 1012              	.LEHE13:
  94:src/Tests.cpp **** 
 1013              		.loc 2 94 1 discriminator 2
 1014 052c 83308101 		ld	ra,24(sp)
 1015              		.cfi_remember_state
 1016              		.cfi_restore 1
 1017 0530 03340101 		ld	s0,16(sp)
 1018              		.cfi_restore 8
 1019              		.cfi_def_cfa 2, 32
 1020 0534 83348100 		ld	s1,8(sp)
 1021              		.cfi_restore 9
 1022              	.LVL100:
 1023 0538 03390100 		ld	s2,0(sp)
GAS LISTING /tmp/cchEysKF.s 			page 32


 1024              		.cfi_restore 18
 1025 053c 13010102 		addi	sp,sp,32
 1026              		.cfi_def_cfa_offset 0
 1027 0540 67800000 		jr	ra
 1028              	.L69:
 1029              		.cfi_restore_state
 1030 0544 13090500 		mv	s2,a0
  80:src/Tests.cpp ****     idleThread->start();
 1031              		.loc 2 80 45
 1032 0548 13850400 		mv	a0,s1
 1033 054c 97000000 		call	_ZdlPv@plt
 1033      E7800000 
 1034              	.LVL101:
 1035 0554 13050900 		mv	a0,s2
 1036              	.LEHB14:
 1037 0558 97000000 		call	_Unwind_Resume@plt
 1037      E7800000 
 1038              	.LVL102:
 1039              	.LEHE14:
 1040              	.L70:
 1041 0560 13090500 		mv	s2,a0
  82:src/Tests.cpp ****     t1->start();
 1042              		.loc 2 82 48
 1043 0564 13850400 		mv	a0,s1
 1044 0568 97000000 		call	_ZdlPv@plt
 1044      E7800000 
 1045              	.LVL103:
 1046 0570 13050900 		mv	a0,s2
 1047              	.LEHB15:
 1048 0574 97000000 		call	_Unwind_Resume@plt
 1048      E7800000 
 1049              	.LVL104:
 1050              	.LEHE15:
 1051              	.L71:
 1052 057c 13090500 		mv	s2,a0
  84:src/Tests.cpp ****     t2->start();
 1053              		.loc 2 84 54
 1054 0580 13850400 		mv	a0,s1
 1055 0584 97000000 		call	_ZdlPv@plt
 1055      E7800000 
 1056              	.LVL105:
 1057 058c 13050900 		mv	a0,s2
 1058              	.LEHB16:
 1059 0590 97000000 		call	_Unwind_Resume@plt
 1059      E7800000 
 1060              	.LVL106:
 1061              	.LEHE16:
 1062              		.cfi_endproc
 1063              	.LFE28:
 1064              		.section	.gcc_except_table
 1065              	.LLSDA28:
 1066 005f FF       		.byte	0xff
 1067 0060 FF       		.byte	0xff
 1068 0061 03       		.byte	0x3
 1069 0062 8201     		.byte	0x82,0x1
 1070 0064 00000000 		.4byte	.LEHB7-.LFB28
 1071 0068 00000000 		.4byte	.LEHE7-.LEHB7
GAS LISTING /tmp/cchEysKF.s 			page 33


 1072 006c 00000000 		.4byte	0
 1073 0070 00       		.byte	0
 1074 0071 00000000 		.4byte	.LEHB8-.LFB28
 1075 0075 00000000 		.4byte	.LEHE8-.LEHB8
 1076 0079 00000000 		.4byte	.L69-.LFB28
 1077 007d 00       		.byte	0
 1078 007e 00000000 		.4byte	.LEHB9-.LFB28
 1079 0082 00000000 		.4byte	.LEHE9-.LEHB9
 1080 0086 00000000 		.4byte	0
 1081 008a 00       		.byte	0
 1082 008b 00000000 		.4byte	.LEHB10-.LFB28
 1083 008f 00000000 		.4byte	.LEHE10-.LEHB10
 1084 0093 00000000 		.4byte	.L70-.LFB28
 1085 0097 00       		.byte	0
 1086 0098 00000000 		.4byte	.LEHB11-.LFB28
 1087 009c 00000000 		.4byte	.LEHE11-.LEHB11
 1088 00a0 00000000 		.4byte	0
 1089 00a4 00       		.byte	0
 1090 00a5 00000000 		.4byte	.LEHB12-.LFB28
 1091 00a9 00000000 		.4byte	.LEHE12-.LEHB12
 1092 00ad 00000000 		.4byte	.L71-.LFB28
 1093 00b1 00       		.byte	0
 1094 00b2 00000000 		.4byte	.LEHB13-.LFB28
 1095 00b6 00000000 		.4byte	.LEHE13-.LEHB13
 1096 00ba 00000000 		.4byte	0
 1097 00be 00       		.byte	0
 1098 00bf 00000000 		.4byte	.LEHB14-.LFB28
 1099 00c3 00000000 		.4byte	.LEHE14-.LEHB14
 1100 00c7 00000000 		.4byte	0
 1101 00cb 00       		.byte	0
 1102 00cc 00000000 		.4byte	.LEHB15-.LFB28
 1103 00d0 00000000 		.4byte	.LEHE15-.LEHB15
 1104 00d4 00000000 		.4byte	0
 1105 00d8 00       		.byte	0
 1106 00d9 00000000 		.4byte	.LEHB16-.LFB28
 1107 00dd 00000000 		.4byte	.LEHE16-.LEHB16
 1108 00e1 00000000 		.4byte	0
 1109 00e5 00       		.byte	0
 1110              		.text
 1112              		.section	.rodata.str1.8
 1113              		.align	3
 1114              	.LC7:
 1115 0058 6D616C6C 		.string	"mallocFree\n"
 1115      6F634672 
 1115      65650A00 
 1116 0064 00000000 		.align	3
 1117              	.LC8:
 1118 0068 6E6F7420 		.string	"not OK\n"
 1118      4F4B0A00 
 1119              		.align	3
 1120              	.LC9:
 1121 0070 4F4B0A00 		.string	"OK\n"
 1122              		.text
 1123              		.align	2
 1124              		.globl	_Z10mallocFreev
 1126              	_Z10mallocFreev:
 1127              	.LFB31:
GAS LISTING /tmp/cchEysKF.s 			page 34


 117:src/Tests.cpp ****     Riscv::printString("mallocFree\n");
 1128              		.loc 2 117 1 is_stmt 1
 1129              		.cfi_startproc
 1130 0598 130101CC 		addi	sp,sp,-832
 1131              		.cfi_def_cfa_offset 832
 1132 059c 233C1132 		sd	ra,824(sp)
 1133 05a0 23388132 		sd	s0,816(sp)
 1134 05a4 23349132 		sd	s1,808(sp)
 1135              		.cfi_offset 1, -8
 1136              		.cfi_offset 8, -16
 1137              		.cfi_offset 9, -24
 1138 05a8 13040134 		addi	s0,sp,832
 1139              		.cfi_def_cfa 8, 0
 118:src/Tests.cpp ****     constexpr int num = 100;
 1140              		.loc 2 118 5
 118:src/Tests.cpp ****     constexpr int num = 100;
 1141              		.loc 2 118 23 is_stmt 0
 1142 05ac 17050000 		lla	a0,.LC7
 1142      13050500 
 1143 05b4 97000000 		call	_ZN5Riscv11printStringEPKc@plt
 1143      E7800000 
 1144              	.LVL107:
 1145              	.LBB26:
 121:src/Tests.cpp ****     {
 1146              		.loc 2 121 13
 1147 05bc 93040000 		li	s1,0
 1148 05c0 6F008000 		j	.L78
 1149              	.LVL108:
 1150              	.L76:
 121:src/Tests.cpp ****     {
 1151              		.loc 2 121 5 is_stmt 1 discriminator 2
 1152 05c4 9B841400 		addiw	s1,s1,1
 1153              	.LVL109:
 1154              	.L78:
 121:src/Tests.cpp ****     {
 1155              		.loc 2 121 22 discriminator 1
 1156 05c8 93073006 		li	a5,99
 1157 05cc 63C49704 		bgt	s1,a5,.L86
 123:src/Tests.cpp ****         if(addrs[i] == 0)
 1158              		.loc 2 123 9
 123:src/Tests.cpp ****         if(addrs[i] == 0)
 1159              		.loc 2 123 29 is_stmt 0
 1160 05d0 13054006 		li	a0,100
 1161 05d4 97000000 		call	mem_alloc@plt
 1161      E7800000 
 1162              	.LVL110:
 123:src/Tests.cpp ****         if(addrs[i] == 0)
 1163              		.loc 2 123 18
 1164 05dc 93973400 		slli	a5,s1,3
 1165 05e0 130704FE 		addi	a4,s0,-32
 1166 05e4 B307F700 		add	a5,a4,a5
 1167 05e8 23B0A7CE 		sd	a0,-800(a5)
 124:src/Tests.cpp ****         {
 1168              		.loc 2 124 9 is_stmt 1
 1169 05ec E31C05FC 		bnez	a0,.L76
 126:src/Tests.cpp ****             return;
 1170              		.loc 2 126 13
GAS LISTING /tmp/cchEysKF.s 			page 35


 126:src/Tests.cpp ****             return;
 1171              		.loc 2 126 31 is_stmt 0
 1172 05f0 17050000 		lla	a0,.LC8
 1172      13050500 
 1173 05f8 97000000 		call	_ZN5Riscv11printStringEPKc@plt
 1173      E7800000 
 1174              	.LVL111:
 127:src/Tests.cpp ****         }
 1175              		.loc 2 127 13 is_stmt 1
 1176              	.L74:
 1177              	.LBE26:
 163:src/Tests.cpp **** void bigMalloc()
 1178              		.loc 2 163 1 is_stmt 0
 1179 0600 83308133 		ld	ra,824(sp)
 1180              		.cfi_remember_state
 1181              		.cfi_restore 1
 1182 0604 03340133 		ld	s0,816(sp)
 1183              		.cfi_restore 8
 1184              		.cfi_def_cfa 2, 832
 1185 0608 83348132 		ld	s1,808(sp)
 1186              		.cfi_restore 9
 1187 060c 13010134 		addi	sp,sp,832
 1188              		.cfi_def_cfa_offset 0
 1189 0610 67800000 		jr	ra
 1190              	.LVL112:
 1191              	.L86:
 1192              		.cfi_restore_state
 1193              	.LBB27:
 132:src/Tests.cpp ****     {
 1194              		.loc 2 132 13
 1195 0614 93040000 		li	s1,0
 1196              	.LVL113:
 1197              	.L75:
 132:src/Tests.cpp ****     {
 1198              		.loc 2 132 23 is_stmt 1 discriminator 1
 1199 0618 93073006 		li	a5,99
 1200 061c 63CE9702 		bgt	s1,a5,.L87
 1201              	.LBB28:
 134:src/Tests.cpp ****         if(retval != 0)
 1202              		.loc 2 134 9
 134:src/Tests.cpp ****         if(retval != 0)
 1203              		.loc 2 134 30 is_stmt 0
 1204 0620 93973400 		slli	a5,s1,3
 1205 0624 130704FE 		addi	a4,s0,-32
 1206 0628 B307F700 		add	a5,a4,a5
 1207 062c 03B507CE 		ld	a0,-800(a5)
 1208 0630 97000000 		call	mem_free@plt
 1208      E7800000 
 1209              	.LVL114:
 135:src/Tests.cpp ****         {
 1210              		.loc 2 135 9 is_stmt 1
 1211 0638 63160500 		bnez	a0,.L90
 1212              	.LBE28:
 132:src/Tests.cpp ****     {
 1213              		.loc 2 132 5 discriminator 2
 132:src/Tests.cpp ****     {
 1214              		.loc 2 132 30 is_stmt 0 discriminator 2
GAS LISTING /tmp/cchEysKF.s 			page 36


 1215 063c 9B842400 		addiw	s1,s1,2
 1216              	.LVL115:
 132:src/Tests.cpp ****     {
 1217              		.loc 2 132 5 discriminator 2
 1218 0640 6FF09FFD 		j	.L75
 1219              	.LVL116:
 1220              	.L90:
 1221              	.LBB29:
 137:src/Tests.cpp ****             return;
 1222              		.loc 2 137 13 is_stmt 1
 137:src/Tests.cpp ****             return;
 1223              		.loc 2 137 31 is_stmt 0
 1224 0644 17050000 		lla	a0,.LC8
 1224      13050500 
 1225              	.LVL117:
 1226 064c 97000000 		call	_ZN5Riscv11printStringEPKc@plt
 1226      E7800000 
 1227              	.LVL118:
 138:src/Tests.cpp ****         }
 1228              		.loc 2 138 13 is_stmt 1
 1229 0654 6FF0DFFA 		j	.L74
 1230              	.L87:
 1231              	.LBE29:
 1232              	.LBE27:
 1233              	.LBB30:
 142:src/Tests.cpp ****     {
 1234              		.loc 2 142 13 is_stmt 0
 1235 0658 93040000 		li	s1,0
 1236              	.LVL119:
 1237 065c 6F008000 		j	.L79
 1238              	.LVL120:
 1239              	.L82:
 142:src/Tests.cpp ****     {
 1240              		.loc 2 142 5 is_stmt 1 discriminator 2
 142:src/Tests.cpp ****     {
 1241              		.loc 2 142 30 is_stmt 0 discriminator 2
 1242 0660 9B842400 		addiw	s1,s1,2
 1243              	.LVL121:
 1244              	.L79:
 142:src/Tests.cpp ****     {
 1245              		.loc 2 142 23 is_stmt 1 discriminator 1
 1246 0664 93073006 		li	a5,99
 1247 0668 63CC9702 		bgt	s1,a5,.L88
 144:src/Tests.cpp ****         if(addrs[i] == 0)
 1248              		.loc 2 144 9
 144:src/Tests.cpp ****         if(addrs[i] == 0)
 1249              		.loc 2 144 29 is_stmt 0
 1250 066c 13054001 		li	a0,20
 1251 0670 97000000 		call	mem_alloc@plt
 1251      E7800000 
 1252              	.LVL122:
 144:src/Tests.cpp ****         if(addrs[i] == 0)
 1253              		.loc 2 144 18
 1254 0678 93973400 		slli	a5,s1,3
 1255 067c 130704FE 		addi	a4,s0,-32
 1256 0680 B307F700 		add	a5,a4,a5
 1257 0684 23B0A7CE 		sd	a0,-800(a5)
GAS LISTING /tmp/cchEysKF.s 			page 37


 145:src/Tests.cpp ****         {
 1258              		.loc 2 145 9 is_stmt 1
 1259 0688 E31C05FC 		bnez	a0,.L82
 147:src/Tests.cpp ****             return;
 1260              		.loc 2 147 13
 147:src/Tests.cpp ****             return;
 1261              		.loc 2 147 31 is_stmt 0
 1262 068c 17050000 		lla	a0,.LC8
 1262      13050500 
 1263 0694 97000000 		call	_ZN5Riscv11printStringEPKc@plt
 1263      E7800000 
 1264              	.LVL123:
 148:src/Tests.cpp ****         }
 1265              		.loc 2 148 13 is_stmt 1
 1266 069c 6FF05FF6 		j	.L74
 1267              	.L88:
 1268              	.LBE30:
 1269              	.LBB31:
 152:src/Tests.cpp ****     {
 1270              		.loc 2 152 13 is_stmt 0
 1271 06a0 93040000 		li	s1,0
 1272              	.LVL124:
 1273              	.L81:
 152:src/Tests.cpp ****     {
 1274              		.loc 2 152 22 is_stmt 1 discriminator 1
 1275 06a4 93073006 		li	a5,99
 1276 06a8 63CE9702 		bgt	s1,a5,.L83
 1277              	.LBB32:
 154:src/Tests.cpp ****         if(retval != 0)
 1278              		.loc 2 154 9
 154:src/Tests.cpp ****         if(retval != 0)
 1279              		.loc 2 154 30 is_stmt 0
 1280 06ac 93973400 		slli	a5,s1,3
 1281 06b0 130704FE 		addi	a4,s0,-32
 1282 06b4 B307F700 		add	a5,a4,a5
 1283 06b8 03B507CE 		ld	a0,-800(a5)
 1284 06bc 97000000 		call	mem_free@plt
 1284      E7800000 
 1285              	.LVL125:
 155:src/Tests.cpp ****         {
 1286              		.loc 2 155 9 is_stmt 1
 1287 06c4 63160500 		bnez	a0,.L91
 1288              	.LBE32:
 152:src/Tests.cpp ****     {
 1289              		.loc 2 152 5 discriminator 2
 1290 06c8 9B841400 		addiw	s1,s1,1
 1291              	.LVL126:
 1292 06cc 6FF09FFD 		j	.L81
 1293              	.LVL127:
 1294              	.L91:
 1295              	.LBB33:
 157:src/Tests.cpp ****             return;
 1296              		.loc 2 157 13
 157:src/Tests.cpp ****             return;
 1297              		.loc 2 157 31 is_stmt 0
 1298 06d0 17050000 		lla	a0,.LC8
 1298      13050500 
GAS LISTING /tmp/cchEysKF.s 			page 38


 1299              	.LVL128:
 1300 06d8 97000000 		call	_ZN5Riscv11printStringEPKc@plt
 1300      E7800000 
 1301              	.LVL129:
 158:src/Tests.cpp ****         }
 1302              		.loc 2 158 13 is_stmt 1
 1303 06e0 6FF01FF2 		j	.L74
 1304              	.L83:
 1305              	.LBE33:
 1306              	.LBE31:
 162:src/Tests.cpp **** }
 1307              		.loc 2 162 5
 162:src/Tests.cpp **** }
 1308              		.loc 2 162 23 is_stmt 0
 1309 06e4 17050000 		lla	a0,.LC9
 1309      13050500 
 1310 06ec 97000000 		call	_ZN5Riscv11printStringEPKc@plt
 1310      E7800000 
 1311              	.LVL130:
 1312 06f4 6FF0DFF0 		j	.L74
 1313              		.cfi_endproc
 1314              	.LFE31:
 1316              		.section	.rodata.str1.8
 1317 0074 00000000 		.align	3
 1318              	.LC10:
 1319 0078 6269674D 		.string	"bigMalloc\n"
 1319      616C6C6F 
 1319      630A00
 1320              		.text
 1321              		.align	2
 1322              		.globl	_Z9bigMallocv
 1324              	_Z9bigMallocv:
 1325              	.LFB32:
 165:src/Tests.cpp ****     Riscv::printString("bigMalloc\n");
 1326              		.loc 2 165 1 is_stmt 1
 1327              		.cfi_startproc
 1328 06f8 130101FF 		addi	sp,sp,-16
 1329              		.cfi_def_cfa_offset 16
 1330 06fc 23341100 		sd	ra,8(sp)
 1331 0700 23308100 		sd	s0,0(sp)
 1332              		.cfi_offset 1, -8
 1333              		.cfi_offset 8, -16
 1334 0704 13040101 		addi	s0,sp,16
 1335              		.cfi_def_cfa 8, 0
 166:src/Tests.cpp ****     uint64 x = (uint64)HEAP_END_ADDR - (uint64)HEAP_START_ADDR + 100UL;
 1336              		.loc 2 166 5
 166:src/Tests.cpp ****     uint64 x = (uint64)HEAP_END_ADDR - (uint64)HEAP_START_ADDR + 100UL;
 1337              		.loc 2 166 23 is_stmt 0
 1338 0708 17050000 		lla	a0,.LC10
 1338      13050500 
 1339 0710 97000000 		call	_ZN5Riscv11printStringEPKc@plt
 1339      E7800000 
 1340              	.LVL131:
 167:src/Tests.cpp ****     void* p = mem_alloc(x);
 1341              		.loc 2 167 5 is_stmt 1
 167:src/Tests.cpp ****     void* p = mem_alloc(x);
 1342              		.loc 2 167 38 is_stmt 0
GAS LISTING /tmp/cchEysKF.s 			page 39


 1343 0718 97070000 		la	a5,HEAP_END_ADDR
 1343      83B70700 
 1344 0720 03B50700 		ld	a0,0(a5)
 1345 0724 97070000 		la	a5,HEAP_START_ADDR
 1345      83B70700 
 1346 072c 83B70700 		ld	a5,0(a5)
 1347 0730 3305F540 		sub	a0,a0,a5
 1348              	.LVL132:
 168:src/Tests.cpp ****     if(p == 0)
 1349              		.loc 2 168 5 is_stmt 1
 168:src/Tests.cpp ****     if(p == 0)
 1350              		.loc 2 168 24 is_stmt 0
 1351 0734 13054506 		addi	a0,a0,100
 1352              	.LVL133:
 1353 0738 97000000 		call	mem_alloc@plt
 1353      E7800000 
 1354              	.LVL134:
 169:src/Tests.cpp ****         Riscv::printString("OK\n");
 1355              		.loc 2 169 5 is_stmt 1
 1356 0740 63020502 		beqz	a0,.L96
 172:src/Tests.cpp **** }
 1357              		.loc 2 172 9
 172:src/Tests.cpp **** }
 1358              		.loc 2 172 27 is_stmt 0
 1359 0744 17050000 		lla	a0,.LC8
 1359      13050500 
 1360              	.LVL135:
 1361 074c 97000000 		call	_ZN5Riscv11printStringEPKc@plt
 1361      E7800000 
 1362              	.LVL136:
 1363              	.L92:
 173:src/Tests.cpp **** 
 1364              		.loc 2 173 1
 1365 0754 83308100 		ld	ra,8(sp)
 1366              		.cfi_remember_state
 1367              		.cfi_restore 1
 1368 0758 03340100 		ld	s0,0(sp)
 1369              		.cfi_restore 8
 1370              		.cfi_def_cfa 2, 16
 1371 075c 13010101 		addi	sp,sp,16
 1372              		.cfi_def_cfa_offset 0
 1373 0760 67800000 		jr	ra
 1374              	.LVL137:
 1375              	.L96:
 1376              		.cfi_restore_state
 170:src/Tests.cpp ****     else
 1377              		.loc 2 170 9 is_stmt 1
 170:src/Tests.cpp ****     else
 1378              		.loc 2 170 27 is_stmt 0
 1379 0764 17050000 		lla	a0,.LC9
 1379      13050500 
 1380              	.LVL138:
 1381 076c 97000000 		call	_ZN5Riscv11printStringEPKc@plt
 1381      E7800000 
 1382              	.LVL139:
 1383 0774 6FF01FFE 		j	.L92
 1384              		.cfi_endproc
GAS LISTING /tmp/cchEysKF.s 			page 40


 1385              	.LFE32:
 1387              		.section	.rodata.str1.8
 1388 0083 00000000 		.align	3
 1388      00
 1389              	.LC11:
 1390 0088 6C6F744F 		.string	"lotOfSmallMallocs\n"
 1390      66536D61 
 1390      6C6C4D61 
 1390      6C6C6F63 
 1390      730A00
 1391              		.text
 1392              		.align	2
 1393              		.globl	_Z17lotOfSmallMallocsv
 1395              	_Z17lotOfSmallMallocsv:
 1396              	.LFB33:
 176:src/Tests.cpp ****     Riscv::printString("lotOfSmallMallocs\n");
 1397              		.loc 2 176 1 is_stmt 1
 1398              		.cfi_startproc
 1399 0778 130101FD 		addi	sp,sp,-48
 1400              		.cfi_def_cfa_offset 48
 1401 077c 23341102 		sd	ra,40(sp)
 1402 0780 23308102 		sd	s0,32(sp)
 1403 0784 233C9100 		sd	s1,24(sp)
 1404 0788 23382101 		sd	s2,16(sp)
 1405 078c 23343101 		sd	s3,8(sp)
 1406              		.cfi_offset 1, -8
 1407              		.cfi_offset 8, -16
 1408              		.cfi_offset 9, -24
 1409              		.cfi_offset 18, -32
 1410              		.cfi_offset 19, -40
 1411 0790 13040103 		addi	s0,sp,48
 1412              		.cfi_def_cfa 8, 0
 177:src/Tests.cpp ****     uint64 cnt = 0;
 1413              		.loc 2 177 5
 177:src/Tests.cpp ****     uint64 cnt = 0;
 1414              		.loc 2 177 23 is_stmt 0
 1415 0794 17050000 		lla	a0,.LC11
 1415      13050500 
 1416 079c 97000000 		call	_ZN5Riscv11printStringEPKc@plt
 1416      E7800000 
 1417              	.LVL140:
 178:src/Tests.cpp ****     uint64 sum = 0;
 1418              		.loc 2 178 5 is_stmt 1
 179:src/Tests.cpp ****     uint64 N = 10000UL;
 1419              		.loc 2 179 5
 180:src/Tests.cpp ****     uint64 X = 10UL;
 1420              		.loc 2 180 5
 181:src/Tests.cpp ****     for(uint64 i = 0; i < N;i++)
 1421              		.loc 2 181 5
 182:src/Tests.cpp ****     {
 1422              		.loc 2 182 5
 1423              	.LBB34:
 182:src/Tests.cpp ****     {
 1424              		.loc 2 182 16 is_stmt 0
 1425 07a4 93040000 		li	s1,0
 1426              	.LBE34:
 179:src/Tests.cpp ****     uint64 N = 10000UL;
GAS LISTING /tmp/cchEysKF.s 			page 41


 1427              		.loc 2 179 12
 1428 07a8 93090000 		li	s3,0
 178:src/Tests.cpp ****     uint64 sum = 0;
 1429              		.loc 2 178 12
 1430 07ac 13090000 		li	s2,0
 1431 07b0 6F008001 		j	.L99
 1432              	.LVL141:
 1433              	.L103:
 1434              	.LBB37:
 1435              	.LBB35:
 187:src/Tests.cpp ****         sum+=t->a;
 1436              		.loc 2 187 9 is_stmt 1 discriminator 2
 187:src/Tests.cpp ****         sum+=t->a;
 1437              		.loc 2 187 14 is_stmt 0 discriminator 2
 1438 07b4 9307A000 		li	a5,10
 1439 07b8 2330F500 		sd	a5,0(a0)
 188:src/Tests.cpp ****         cnt++;
 1440              		.loc 2 188 9 is_stmt 1 discriminator 2
 188:src/Tests.cpp ****         cnt++;
 1441              		.loc 2 188 12 is_stmt 0 discriminator 2
 1442 07bc 9389A900 		addi	s3,s3,10
 1443              	.LVL142:
 189:src/Tests.cpp ****     }
 1444              		.loc 2 189 9 is_stmt 1 discriminator 2
 189:src/Tests.cpp ****     }
 1445              		.loc 2 189 12 is_stmt 0 discriminator 2
 1446 07c0 13091900 		addi	s2,s2,1
 1447              	.LVL143:
 1448              	.LBE35:
 182:src/Tests.cpp ****     {
 1449              		.loc 2 182 5 is_stmt 1 discriminator 2
 1450 07c4 93841400 		addi	s1,s1,1
 1451              	.LVL144:
 1452              	.L99:
 182:src/Tests.cpp ****     {
 1453              		.loc 2 182 25 discriminator 1
 1454 07c8 B7270000 		li	a5,8192
 1455 07cc 9387F770 		addi	a5,a5,1807
 1456 07d0 63EA9700 		bgtu	s1,a5,.L98
 1457              	.LBB36:
 184:src/Tests.cpp ****         if(t == 0)
 1458              		.loc 2 184 9
 184:src/Tests.cpp ****         if(t == 0)
 1459              		.loc 2 184 35 is_stmt 0
 1460 07d4 13058000 		li	a0,8
 1461 07d8 97000000 		call	mem_alloc@plt
 1461      E7800000 
 1462              	.LVL145:
 185:src/Tests.cpp ****             break;
 1463              		.loc 2 185 9 is_stmt 1
 1464 07e0 E31A05FC 		bnez	a0,.L103
 1465              	.LVL146:
 1466              	.L98:
 1467              	.LBE36:
 1468              	.LBE37:
 191:src/Tests.cpp ****     Riscv::printString("\n");
 1469              		.loc 2 191 5
GAS LISTING /tmp/cchEysKF.s 			page 42


 191:src/Tests.cpp ****     Riscv::printString("\n");
 1470              		.loc 2 191 24 is_stmt 0
 1471 07e4 13050900 		mv	a0,s2
 1472 07e8 97000000 		call	_ZN5Riscv12printIntegerEm@plt
 1472      E7800000 
 1473              	.LVL147:
 192:src/Tests.cpp ****     if(sum == X*cnt)
 1474              		.loc 2 192 5 is_stmt 1
 192:src/Tests.cpp ****     if(sum == X*cnt)
 1475              		.loc 2 192 23 is_stmt 0
 1476 07f0 17050000 		lla	a0,.LC3
 1476      13050500 
 1477 07f8 97000000 		call	_ZN5Riscv11printStringEPKc@plt
 1477      E7800000 
 1478              	.LVL148:
 193:src/Tests.cpp ****         Riscv::printString("OK\n");
 1479              		.loc 2 193 5 is_stmt 1
 193:src/Tests.cpp ****         Riscv::printString("OK\n");
 1480              		.loc 2 193 16 is_stmt 0
 1481 0800 93172900 		slli	a5,s2,2
 1482 0804 33892701 		add	s2,a5,s2
 1483              	.LVL149:
 1484 0808 13191900 		slli	s2,s2,1
 193:src/Tests.cpp ****         Riscv::printString("OK\n");
 1485              		.loc 2 193 5
 1486 080c 63083903 		beq	s2,s3,.L104
 196:src/Tests.cpp **** }
 1487              		.loc 2 196 9 is_stmt 1
 196:src/Tests.cpp **** }
 1488              		.loc 2 196 27 is_stmt 0
 1489 0810 17050000 		lla	a0,.LC8
 1489      13050500 
 1490 0818 97000000 		call	_ZN5Riscv11printStringEPKc@plt
 1490      E7800000 
 1491              	.LVL150:
 1492              	.L97:
 197:src/Tests.cpp **** void badFree()
 1493              		.loc 2 197 1
 1494 0820 83308102 		ld	ra,40(sp)
 1495              		.cfi_remember_state
 1496              		.cfi_restore 1
 1497 0824 03340102 		ld	s0,32(sp)
 1498              		.cfi_restore 8
 1499              		.cfi_def_cfa 2, 48
 1500 0828 83348101 		ld	s1,24(sp)
 1501              		.cfi_restore 9
 1502              	.LVL151:
 1503 082c 03390101 		ld	s2,16(sp)
 1504              		.cfi_restore 18
 1505 0830 83398100 		ld	s3,8(sp)
 1506              		.cfi_restore 19
 1507              	.LVL152:
 1508 0834 13010103 		addi	sp,sp,48
 1509              		.cfi_def_cfa_offset 0
 1510 0838 67800000 		jr	ra
 1511              	.LVL153:
 1512              	.L104:
GAS LISTING /tmp/cchEysKF.s 			page 43


 1513              		.cfi_restore_state
 194:src/Tests.cpp ****     else
 1514              		.loc 2 194 9 is_stmt 1
 194:src/Tests.cpp ****     else
 1515              		.loc 2 194 27 is_stmt 0
 1516 083c 17050000 		lla	a0,.LC9
 1516      13050500 
 1517 0844 97000000 		call	_ZN5Riscv11printStringEPKc@plt
 1517      E7800000 
 1518              	.LVL154:
 1519 084c 6FF05FFD 		j	.L97
 1520              		.cfi_endproc
 1521              	.LFE33:
 1523              		.section	.rodata.str1.8
 1524 009b 00000000 		.align	3
 1524      00
 1525              	.LC12:
 1526 00a0 62616446 		.string	"badFree\n"
 1526      7265650A 
 1526      00
 1527              		.text
 1528              		.align	2
 1529              		.globl	_Z7badFreev
 1531              	_Z7badFreev:
 1532              	.LFB34:
 199:src/Tests.cpp ****     Riscv::printString("badFree\n");
 1533              		.loc 2 199 1 is_stmt 1
 1534              		.cfi_startproc
 1535 0850 130101FF 		addi	sp,sp,-16
 1536              		.cfi_def_cfa_offset 16
 1537 0854 23341100 		sd	ra,8(sp)
 1538 0858 23308100 		sd	s0,0(sp)
 1539              		.cfi_offset 1, -8
 1540              		.cfi_offset 8, -16
 1541 085c 13040101 		addi	s0,sp,16
 1542              		.cfi_def_cfa 8, 0
 200:src/Tests.cpp ****     Test* t = (Test*)mem_alloc(sizeof(Test));
 1543              		.loc 2 200 5
 200:src/Tests.cpp ****     Test* t = (Test*)mem_alloc(sizeof(Test));
 1544              		.loc 2 200 23 is_stmt 0
 1545 0860 17050000 		lla	a0,.LC12
 1545      13050500 
 1546 0868 97000000 		call	_ZN5Riscv11printStringEPKc@plt
 1546      E7800000 
 1547              	.LVL155:
 201:src/Tests.cpp ****     uint64 retval = mem_free((char*)t + 2);
 1548              		.loc 2 201 5 is_stmt 1
 201:src/Tests.cpp ****     uint64 retval = mem_free((char*)t + 2);
 1549              		.loc 2 201 31 is_stmt 0
 1550 0870 13058000 		li	a0,8
 1551 0874 97000000 		call	mem_alloc@plt
 1551      E7800000 
 1552              	.LVL156:
 202:src/Tests.cpp ****     if(retval == 0)
 1553              		.loc 2 202 5 is_stmt 1
 202:src/Tests.cpp ****     if(retval == 0)
 1554              		.loc 2 202 29 is_stmt 0
GAS LISTING /tmp/cchEysKF.s 			page 44


 1555 087c 13052500 		addi	a0,a0,2
 1556              	.LVL157:
 1557 0880 97000000 		call	mem_free@plt
 1557      E7800000 
 1558              	.LVL158:
 203:src/Tests.cpp ****         Riscv::printString("not OK\n");
 1559              		.loc 2 203 5 is_stmt 1
 1560 0888 63120502 		bnez	a0,.L106
 204:src/Tests.cpp ****     else
 1561              		.loc 2 204 9
 204:src/Tests.cpp ****     else
 1562              		.loc 2 204 27 is_stmt 0
 1563 088c 17050000 		lla	a0,.LC8
 1563      13050500 
 1564              	.LVL159:
 1565 0894 97000000 		call	_ZN5Riscv11printStringEPKc@plt
 1565      E7800000 
 1566              	.LVL160:
 1567              	.L105:
 207:src/Tests.cpp **** 
 1568              		.loc 2 207 1
 1569 089c 83308100 		ld	ra,8(sp)
 1570              		.cfi_remember_state
 1571              		.cfi_restore 1
 1572 08a0 03340100 		ld	s0,0(sp)
 1573              		.cfi_restore 8
 1574              		.cfi_def_cfa 2, 16
 1575 08a4 13010101 		addi	sp,sp,16
 1576              		.cfi_def_cfa_offset 0
 1577 08a8 67800000 		jr	ra
 1578              	.LVL161:
 1579              	.L106:
 1580              		.cfi_restore_state
 206:src/Tests.cpp **** }
 1581              		.loc 2 206 9 is_stmt 1
 206:src/Tests.cpp **** }
 1582              		.loc 2 206 27 is_stmt 0
 1583 08ac 17050000 		lla	a0,.LC9
 1583      13050500 
 1584              	.LVL162:
 1585 08b4 97000000 		call	_ZN5Riscv11printStringEPKc@plt
 1585      E7800000 
 1586              	.LVL163:
 207:src/Tests.cpp **** 
 1587              		.loc 2 207 1
 1588 08bc 6FF01FFE 		j	.L105
 1589              		.cfi_endproc
 1590              	.LFE34:
 1592              		.section	.rodata.str1.8
 1593 00a9 00000000 		.align	3
 1593      000000
 1594              	.LC13:
 1595 00b0 73747265 		.string	"stressTesting\n"
 1595      73735465 
 1595      7374696E 
 1595      670A00
 1596 00bf 00       		.align	3
GAS LISTING /tmp/cchEysKF.s 			page 45


 1597              	.LC14:
 1598 00c0 6E6F7420 		.string	"not Ok\n"
 1598      4F6B0A00 
 1599              		.text
 1600              		.align	2
 1601              		.globl	_Z13stressTestingv
 1603              	_Z13stressTestingv:
 1604              	.LFB35:
 210:src/Tests.cpp ****     Riscv::printString("stressTesting\n");
 1605              		.loc 2 210 1 is_stmt 1
 1606              		.cfi_startproc
 1607 08c0 130101CC 		addi	sp,sp,-832
 1608              		.cfi_def_cfa_offset 832
 1609 08c4 233C1132 		sd	ra,824(sp)
 1610 08c8 23388132 		sd	s0,816(sp)
 1611 08cc 23349132 		sd	s1,808(sp)
 1612 08d0 23302133 		sd	s2,800(sp)
 1613              		.cfi_offset 1, -8
 1614              		.cfi_offset 8, -16
 1615              		.cfi_offset 9, -24
 1616              		.cfi_offset 18, -32
 1617 08d4 13040134 		addi	s0,sp,832
 1618              		.cfi_def_cfa 8, 0
 211:src/Tests.cpp ****     constexpr int num = 100;
 1619              		.loc 2 211 5
 211:src/Tests.cpp ****     constexpr int num = 100;
 1620              		.loc 2 211 23 is_stmt 0
 1621 08d8 17050000 		lla	a0,.LC13
 1621      13050500 
 1622 08e0 97000000 		call	_ZN5Riscv11printStringEPKc@plt
 1622      E7800000 
 1623              	.LVL164:
 1624              	.LBB38:
 214:src/Tests.cpp ****     {
 1625              		.loc 2 214 13
 1626 08e8 93040000 		li	s1,0
 1627 08ec 6F008000 		j	.L113
 1628              	.LVL165:
 1629              	.L111:
 214:src/Tests.cpp ****     {
 1630              		.loc 2 214 5 is_stmt 1 discriminator 2
 1631 08f0 9B841400 		addiw	s1,s1,1
 1632              	.LVL166:
 1633              	.L113:
 214:src/Tests.cpp ****     {
 1634              		.loc 2 214 22 discriminator 1
 1635 08f4 93073006 		li	a5,99
 1636 08f8 63C69704 		bgt	s1,a5,.L123
 216:src/Tests.cpp ****         if(addrs[i] == 0)
 1637              		.loc 2 216 9
 216:src/Tests.cpp ****         if(addrs[i] == 0)
 1638              		.loc 2 216 29 is_stmt 0
 1639 08fc 13051000 		li	a0,1
 1640 0900 97000000 		call	mem_alloc@plt
 1640      E7800000 
 1641              	.LVL167:
 216:src/Tests.cpp ****         if(addrs[i] == 0)
GAS LISTING /tmp/cchEysKF.s 			page 46


 1642              		.loc 2 216 18
 1643 0908 93973400 		slli	a5,s1,3
 1644 090c 130704FE 		addi	a4,s0,-32
 1645 0910 B307F700 		add	a5,a4,a5
 1646 0914 23B0A7CE 		sd	a0,-800(a5)
 217:src/Tests.cpp ****         {
 1647              		.loc 2 217 9 is_stmt 1
 1648 0918 E31C05FC 		bnez	a0,.L111
 219:src/Tests.cpp ****             return;
 1649              		.loc 2 219 13
 219:src/Tests.cpp ****             return;
 1650              		.loc 2 219 31 is_stmt 0
 1651 091c 17050000 		lla	a0,.LC8
 1651      13050500 
 1652 0924 97000000 		call	_ZN5Riscv11printStringEPKc@plt
 1652      E7800000 
 1653              	.LVL168:
 220:src/Tests.cpp ****         }
 1654              		.loc 2 220 13 is_stmt 1
 1655              	.L109:
 1656              	.LBE38:
 264:src/Tests.cpp **** 
 1657              		.loc 2 264 1 is_stmt 0
 1658 092c 83308133 		ld	ra,824(sp)
 1659              		.cfi_remember_state
 1660              		.cfi_restore 1
 1661 0930 03340133 		ld	s0,816(sp)
 1662              		.cfi_restore 8
 1663              		.cfi_def_cfa 2, 832
 1664 0934 83348132 		ld	s1,808(sp)
 1665              		.cfi_restore 9
 1666 0938 03390132 		ld	s2,800(sp)
 1667              		.cfi_restore 18
 1668 093c 13010134 		addi	sp,sp,832
 1669              		.cfi_def_cfa_offset 0
 1670 0940 67800000 		jr	ra
 1671              	.LVL169:
 1672              	.L123:
 1673              		.cfi_restore_state
 224:src/Tests.cpp ****     while(sz > 0)
 1674              		.loc 2 224 9
 1675 0944 1309C012 		li	s2,300
 1676              	.LVL170:
 1677              	.L110:
 225:src/Tests.cpp ****     {
 1678              		.loc 2 225 5 is_stmt 1
 225:src/Tests.cpp ****     {
 1679              		.loc 2 225 14
 1680 0948 63522011 		blez	s2,.L114
 1681              	.LBB39:
 1682              	.LBB40:
 227:src/Tests.cpp ****         {
 1683              		.loc 2 227 17 is_stmt 0
 1684 094c 93040000 		li	s1,0
 1685              	.L118:
 1686              	.LVL171:
 227:src/Tests.cpp ****         {
GAS LISTING /tmp/cchEysKF.s 			page 47


 1687              		.loc 2 227 27 is_stmt 1 discriminator 1
 1688 0950 93073006 		li	a5,99
 1689 0954 63CC9706 		bgt	s1,a5,.L124
 1690              	.LBB41:
 229:src/Tests.cpp ****             if(retval != 0)
 1691              		.loc 2 229 13
 229:src/Tests.cpp ****             if(retval != 0)
 1692              		.loc 2 229 34 is_stmt 0
 1693 0958 93973400 		slli	a5,s1,3
 1694 095c 130704FE 		addi	a4,s0,-32
 1695 0960 B307F700 		add	a5,a4,a5
 1696 0964 03B507CE 		ld	a0,-800(a5)
 1697 0968 97000000 		call	mem_free@plt
 1697      E7800000 
 1698              	.LVL172:
 230:src/Tests.cpp ****             {
 1699              		.loc 2 230 13 is_stmt 1
 1700 0970 631A0502 		bnez	a0,.L126
 235:src/Tests.cpp ****             if(addrs[i] == 0)
 1701              		.loc 2 235 13
 235:src/Tests.cpp ****             if(addrs[i] == 0)
 1702              		.loc 2 235 36 is_stmt 0
 1703 0974 1B55F901 		srliw	a0,s2,31
 1704              	.LVL173:
 1705 0978 3B052501 		addw	a0,a0,s2
 235:src/Tests.cpp ****             if(addrs[i] == 0)
 1706              		.loc 2 235 33
 1707 097c 1B551540 		sraiw	a0,a0,1
 1708 0980 97000000 		call	mem_alloc@plt
 1708      E7800000 
 1709              	.LVL174:
 235:src/Tests.cpp ****             if(addrs[i] == 0)
 1710              		.loc 2 235 22
 1711 0988 93973400 		slli	a5,s1,3
 1712 098c 130704FE 		addi	a4,s0,-32
 1713 0990 B307F700 		add	a5,a4,a5
 1714 0994 23B0A7CE 		sd	a0,-800(a5)
 236:src/Tests.cpp ****             {
 1715              		.loc 2 236 13 is_stmt 1
 1716 0998 63000502 		beqz	a0,.L127
 1717              	.LBE41:
 227:src/Tests.cpp ****         {
 1718              		.loc 2 227 9 discriminator 2
 227:src/Tests.cpp ****         {
 1719              		.loc 2 227 34 is_stmt 0 discriminator 2
 1720 099c 9B842400 		addiw	s1,s1,2
 1721              	.LVL175:
 227:src/Tests.cpp ****         {
 1722              		.loc 2 227 9 discriminator 2
 1723 09a0 6FF01FFB 		j	.L118
 1724              	.LVL176:
 1725              	.L126:
 1726              	.LBB42:
 232:src/Tests.cpp ****                 return;
 1727              		.loc 2 232 17 is_stmt 1
 232:src/Tests.cpp ****                 return;
 1728              		.loc 2 232 35 is_stmt 0
GAS LISTING /tmp/cchEysKF.s 			page 48


 1729 09a4 17050000 		lla	a0,.LC8
 1729      13050500 
 1730              	.LVL177:
 1731 09ac 97000000 		call	_ZN5Riscv11printStringEPKc@plt
 1731      E7800000 
 1732              	.LVL178:
 233:src/Tests.cpp ****             }
 1733              		.loc 2 233 17 is_stmt 1
 1734 09b4 6FF09FF7 		j	.L109
 1735              	.L127:
 238:src/Tests.cpp ****                 return;
 1736              		.loc 2 238 17
 238:src/Tests.cpp ****                 return;
 1737              		.loc 2 238 35 is_stmt 0
 1738 09b8 17050000 		lla	a0,.LC14
 1738      13050500 
 1739 09c0 97000000 		call	_ZN5Riscv11printStringEPKc@plt
 1739      E7800000 
 1740              	.LVL179:
 239:src/Tests.cpp ****             }
 1741              		.loc 2 239 17 is_stmt 1
 1742 09c8 6FF05FF6 		j	.L109
 1743              	.L124:
 1744              	.LBE42:
 1745              	.LBE40:
 1746              	.LBB43:
 244:src/Tests.cpp ****         {
 1747              		.loc 2 244 17 is_stmt 0
 1748 09cc 93041000 		li	s1,1
 1749              	.LVL180:
 1750              	.L115:
 244:src/Tests.cpp ****         {
 1751              		.loc 2 244 27 is_stmt 1 discriminator 1
 1752 09d0 93073006 		li	a5,99
 1753 09d4 63C89706 		bgt	s1,a5,.L119
 1754              	.LBB44:
 246:src/Tests.cpp ****             if(retval != 0)
 1755              		.loc 2 246 13
 246:src/Tests.cpp ****             if(retval != 0)
 1756              		.loc 2 246 34 is_stmt 0
 1757 09d8 93973400 		slli	a5,s1,3
 1758 09dc 130704FE 		addi	a4,s0,-32
 1759 09e0 B307F700 		add	a5,a4,a5
 1760 09e4 03B507CE 		ld	a0,-800(a5)
 1761 09e8 97000000 		call	mem_free@plt
 1761      E7800000 
 1762              	.LVL181:
 247:src/Tests.cpp ****             {
 1763              		.loc 2 247 13 is_stmt 1
 1764 09f0 63160502 		bnez	a0,.L128
 252:src/Tests.cpp ****             if(addrs[i] == 0)
 1765              		.loc 2 252 13
 252:src/Tests.cpp ****             if(addrs[i] == 0)
 1766              		.loc 2 252 33 is_stmt 0
 1767 09f4 13050900 		mv	a0,s2
 1768              	.LVL182:
 1769 09f8 97000000 		call	mem_alloc@plt
GAS LISTING /tmp/cchEysKF.s 			page 49


 1769      E7800000 
 1770              	.LVL183:
 252:src/Tests.cpp ****             if(addrs[i] == 0)
 1771              		.loc 2 252 22
 1772 0a00 93973400 		slli	a5,s1,3
 1773 0a04 130704FE 		addi	a4,s0,-32
 1774 0a08 B307F700 		add	a5,a4,a5
 1775 0a0c 23B0A7CE 		sd	a0,-800(a5)
 253:src/Tests.cpp ****             {
 1776              		.loc 2 253 13 is_stmt 1
 1777 0a10 63000502 		beqz	a0,.L129
 1778              	.LBE44:
 244:src/Tests.cpp ****         {
 1779              		.loc 2 244 9 discriminator 2
 244:src/Tests.cpp ****         {
 1780              		.loc 2 244 34 is_stmt 0 discriminator 2
 1781 0a14 9B842400 		addiw	s1,s1,2
 1782              	.LVL184:
 244:src/Tests.cpp ****         {
 1783              		.loc 2 244 9 discriminator 2
 1784 0a18 6FF09FFB 		j	.L115
 1785              	.LVL185:
 1786              	.L128:
 1787              	.LBB45:
 249:src/Tests.cpp ****                 return;
 1788              		.loc 2 249 17 is_stmt 1
 249:src/Tests.cpp ****                 return;
 1789              		.loc 2 249 35 is_stmt 0
 1790 0a1c 17050000 		lla	a0,.LC8
 1790      13050500 
 1791              	.LVL186:
 1792 0a24 97000000 		call	_ZN5Riscv11printStringEPKc@plt
 1792      E7800000 
 1793              	.LVL187:
 250:src/Tests.cpp ****             }
 1794              		.loc 2 250 17 is_stmt 1
 1795 0a2c 6FF01FF0 		j	.L109
 1796              	.L129:
 255:src/Tests.cpp ****                 return;
 1797              		.loc 2 255 17
 255:src/Tests.cpp ****                 return;
 1798              		.loc 2 255 35 is_stmt 0
 1799 0a30 17050000 		lla	a0,.LC14
 1799      13050500 
 1800 0a38 97000000 		call	_ZN5Riscv11printStringEPKc@plt
 1800      E7800000 
 1801              	.LVL188:
 256:src/Tests.cpp ****             }
 1802              		.loc 2 256 17 is_stmt 1
 1803 0a40 6FF0DFEE 		j	.L109
 1804              	.L119:
 1805              	.LBE45:
 1806              	.LBE43:
 260:src/Tests.cpp ****     }
 1807              		.loc 2 260 9
 260:src/Tests.cpp ****     }
 1808              		.loc 2 260 11 is_stmt 0
GAS LISTING /tmp/cchEysKF.s 			page 50


 1809 0a44 1B0969FF 		addiw	s2,s2,-10
 1810              	.LVL189:
 1811              	.LBE39:
 225:src/Tests.cpp ****     {
 1812              		.loc 2 225 5
 1813 0a48 6FF01FF0 		j	.L110
 1814              	.LVL190:
 1815              	.L114:
 263:src/Tests.cpp **** }
 1816              		.loc 2 263 5 is_stmt 1
 263:src/Tests.cpp **** }
 1817              		.loc 2 263 23 is_stmt 0
 1818 0a4c 17050000 		lla	a0,.LC9
 1818      13050500 
 1819 0a54 97000000 		call	_ZN5Riscv11printStringEPKc@plt
 1819      E7800000 
 1820              	.LVL191:
 1821 0a5c 6FF01FED 		j	.L109
 1822              		.cfi_endproc
 1823              	.LFE35:
 1825              		.align	2
 1826              		.globl	_ZN12TestPeriodicC2Em
 1828              	_ZN12TestPeriodicC2Em:
 1829              	.LFB44:
 290:src/Tests.cpp **** 
 1830              		.loc 2 290 1 is_stmt 1
 1831              		.cfi_startproc
 1832              	.LVL192:
 1833 0a60 130101FE 		addi	sp,sp,-32
 1834              		.cfi_def_cfa_offset 32
 1835 0a64 233C1100 		sd	ra,24(sp)
 1836 0a68 23388100 		sd	s0,16(sp)
 1837 0a6c 23349100 		sd	s1,8(sp)
 1838              		.cfi_offset 1, -8
 1839              		.cfi_offset 8, -16
 1840              		.cfi_offset 9, -24
 1841 0a70 13040102 		addi	s0,sp,32
 1842              		.cfi_def_cfa 8, 0
 1843 0a74 93040500 		mv	s1,a0
 1844              	.LBB46:
 290:src/Tests.cpp **** 
 1845              		.loc 2 290 62 is_stmt 0
 1846 0a78 97000000 		call	_ZN14PeriodicThreadC2Em@plt
 1846      E7800000 
 1847              	.LVL193:
 1848 0a80 97070000 		lla	a5,_ZTV12TestPeriodic+16
 1848      93870700 
 1849 0a88 23B0F400 		sd	a5,0(s1)
 1850              	.LBE46:
 292:src/Tests.cpp **** 
 1851              		.loc 2 292 1
 1852 0a8c 83308101 		ld	ra,24(sp)
 1853              		.cfi_restore 1
 1854 0a90 03340101 		ld	s0,16(sp)
 1855              		.cfi_restore 8
 1856              		.cfi_def_cfa 2, 32
 1857 0a94 83348100 		ld	s1,8(sp)
GAS LISTING /tmp/cchEysKF.s 			page 51


 1858              		.cfi_restore 9
 1859              	.LVL194:
 1860 0a98 13010102 		addi	sp,sp,32
 1861              		.cfi_def_cfa_offset 0
 1862 0a9c 67800000 		jr	ra
 1863              		.cfi_endproc
 1864              	.LFE44:
 1866              		.globl	_ZN12TestPeriodicC1Em
 1867              		.set	_ZN12TestPeriodicC1Em,_ZN12TestPeriodicC2Em
 1868              		.align	2
 1869              		.globl	_Z11threadTest3v
 1871              	_Z11threadTest3v:
 1872              	.LFB29:
  98:src/Tests.cpp ****     Thread* t = new TestPeriodic(50);
 1873              		.loc 2 98 1 is_stmt 1
 1874              		.cfi_startproc
 1875              		.cfi_personality 0x9b,DW.ref.__gxx_personality_v0
 1876              		.cfi_lsda 0x1b,.LLSDA29
 1877 0aa0 130101FE 		addi	sp,sp,-32
 1878              		.cfi_def_cfa_offset 32
 1879 0aa4 233C1100 		sd	ra,24(sp)
 1880 0aa8 23388100 		sd	s0,16(sp)
 1881 0aac 23349100 		sd	s1,8(sp)
 1882 0ab0 23302101 		sd	s2,0(sp)
 1883              		.cfi_offset 1, -8
 1884              		.cfi_offset 8, -16
 1885              		.cfi_offset 9, -24
 1886              		.cfi_offset 18, -32
 1887 0ab4 13040102 		addi	s0,sp,32
 1888              		.cfi_def_cfa 8, 0
  99:src/Tests.cpp ****     t->start();
 1889              		.loc 2 99 5
  99:src/Tests.cpp ****     t->start();
 1890              		.loc 2 99 36 is_stmt 0
 1891 0ab8 13050001 		li	a0,16
 1892              	.LEHB17:
 1893 0abc 97000000 		call	_Znwm@plt
 1893      E7800000 
 1894              	.LVL195:
 1895              	.LEHE17:
 1896 0ac4 13090500 		mv	s2,a0
 1897 0ac8 93052003 		li	a1,50
 1898              	.LEHB18:
 1899 0acc 97000000 		call	_ZN12TestPeriodicC1Em
 1899      E7800000 
 1900              	.LVL196:
 1901              	.LEHE18:
 100:src/Tests.cpp ****     while(true)
 1902              		.loc 2 100 5 is_stmt 1 discriminator 2
 100:src/Tests.cpp ****     while(true)
 1903              		.loc 2 100 13 is_stmt 0 discriminator 2
 1904 0ad4 13050900 		mv	a0,s2
 1905              	.LEHB19:
 1906 0ad8 97000000 		call	_ZN6Thread5startEv@plt
 1906      E7800000 
 1907              	.LVL197:
 1908              	.LEHE19:
GAS LISTING /tmp/cchEysKF.s 			page 52


 1909              	.L133:
 101:src/Tests.cpp ****     {
 1910              		.loc 2 101 5 is_stmt 1 discriminator 1
 101:src/Tests.cpp ****     {
 1911              		.loc 2 101 5 discriminator 1
 1912 0ae0 6F000000 		j	.L133
 1913              	.LVL198:
 1914              	.L135:
 1915 0ae4 93040500 		mv	s1,a0
  99:src/Tests.cpp ****     t->start();
 1916              		.loc 2 99 36 is_stmt 0
 1917 0ae8 13050900 		mv	a0,s2
 1918 0aec 97000000 		call	_ZdlPv@plt
 1918      E7800000 
 1919              	.LVL199:
 1920 0af4 13850400 		mv	a0,s1
 1921              	.LEHB20:
 1922 0af8 97000000 		call	_Unwind_Resume@plt
 1922      E7800000 
 1923              	.LVL200:
 1924              	.LEHE20:
 1925              		.cfi_endproc
 1926              	.LFE29:
 1927              		.section	.gcc_except_table
 1928              	.LLSDA29:
 1929 00e6 FF       		.byte	0xff
 1930 00e7 FF       		.byte	0xff
 1931 00e8 03       		.byte	0x3
 1932 00e9 34       		.byte	0x34
 1933 00ea 00000000 		.4byte	.LEHB17-.LFB29
 1934 00ee 00000000 		.4byte	.LEHE17-.LEHB17
 1935 00f2 00000000 		.4byte	0
 1936 00f6 00       		.byte	0
 1937 00f7 00000000 		.4byte	.LEHB18-.LFB29
 1938 00fb 00000000 		.4byte	.LEHE18-.LEHB18
 1939 00ff 00000000 		.4byte	.L135-.LFB29
 1940 0103 00       		.byte	0
 1941 0104 00000000 		.4byte	.LEHB19-.LFB29
 1942 0108 00000000 		.4byte	.LEHE19-.LEHB19
 1943 010c 00000000 		.4byte	0
 1944 0110 00       		.byte	0
 1945 0111 00000000 		.4byte	.LEHB20-.LFB29
 1946 0115 00000000 		.4byte	.LEHE20-.LEHB20
 1947 0119 00000000 		.4byte	0
 1948 011d 00       		.byte	0
 1949              		.text
 1951              		.align	2
 1952              		.globl	_Z11threadTestsv
 1954              	_Z11threadTestsv:
 1955              	.LFB30:
 108:src/Tests.cpp ****     //threadTest1();
 1956              		.loc 2 108 1 is_stmt 1
 1957              		.cfi_startproc
 1958 0b00 130101FF 		addi	sp,sp,-16
 1959              		.cfi_def_cfa_offset 16
 1960 0b04 23341100 		sd	ra,8(sp)
 1961 0b08 23308100 		sd	s0,0(sp)
GAS LISTING /tmp/cchEysKF.s 			page 53


 1962              		.cfi_offset 1, -8
 1963              		.cfi_offset 8, -16
 1964 0b0c 13040101 		addi	s0,sp,16
 1965              		.cfi_def_cfa 8, 0
 111:src/Tests.cpp **** }
 1966              		.loc 2 111 5
 111:src/Tests.cpp **** }
 1967              		.loc 2 111 16 is_stmt 0
 1968 0b10 97000000 		call	_Z11threadTest3v
 1968      E7800000 
 1969              	.LVL201:
 1970              		.cfi_endproc
 1971              	.LFE30:
 1973              		.section	.rodata.str1.8
 1974              		.align	3
 1975              	.LC15:
 1976 00c8 54657374 		.string	"Testing a few mallocs and frees\n\n"
 1976      696E6720 
 1976      61206665 
 1976      77206D61 
 1976      6C6C6F63 
 1977 00ea 00000000 		.align	3
 1977      0000
 1978              	.LC16:
 1979 00f0 53554343 		.string	"SUCCESSFUL: Testing a few mallocs and frees\n\n"
 1979      45535346 
 1979      554C3A20 
 1979      54657374 
 1979      696E6720 
 1980              		.text
 1981              		.align	2
 1982              		.globl	_Z10mallocTestv
 1984              	_Z10mallocTestv:
 1985              	.LFB47:
 304:src/Tests.cpp ****     Riscv::printString("Testing a few mallocs and frees\n\n");
 1986              		.loc 2 304 1 is_stmt 1
 1987              		.cfi_startproc
 1988 0b18 130101FC 		addi	sp,sp,-64
 1989              		.cfi_def_cfa_offset 64
 1990 0b1c 233C1102 		sd	ra,56(sp)
 1991 0b20 23388102 		sd	s0,48(sp)
 1992 0b24 23349102 		sd	s1,40(sp)
 1993 0b28 23302103 		sd	s2,32(sp)
 1994 0b2c 233C3101 		sd	s3,24(sp)
 1995 0b30 23384101 		sd	s4,16(sp)
 1996 0b34 23345101 		sd	s5,8(sp)
 1997 0b38 23306101 		sd	s6,0(sp)
 1998              		.cfi_offset 1, -8
 1999              		.cfi_offset 8, -16
 2000              		.cfi_offset 9, -24
 2001              		.cfi_offset 18, -32
 2002              		.cfi_offset 19, -40
 2003              		.cfi_offset 20, -48
 2004              		.cfi_offset 21, -56
 2005              		.cfi_offset 22, -64
 2006 0b3c 13040104 		addi	s0,sp,64
 2007              		.cfi_def_cfa 8, 0
GAS LISTING /tmp/cchEysKF.s 			page 54


 305:src/Tests.cpp **** 
 2008              		.loc 2 305 5
 305:src/Tests.cpp **** 
 2009              		.loc 2 305 23 is_stmt 0
 2010 0b40 17050000 		lla	a0,.LC15
 2010      13050500 
 2011 0b48 97000000 		call	_ZN5Riscv11printStringEPKc@plt
 2011      E7800000 
 2012              	.LVL202:
 307:src/Tests.cpp ****     o->a = 3;
 2013              		.loc 2 307 5 is_stmt 1
 307:src/Tests.cpp ****     o->a = 3;
 2014              		.loc 2 307 21 is_stmt 0
 2015 0b50 1305C002 		li	a0,44
 2016 0b54 97000000 		call	_Znwm@plt
 2016      E7800000 
 2017              	.LVL203:
 2018 0b5c 93040500 		mv	s1,a0
 2019              	.LVL204:
 308:src/Tests.cpp ****     void* m1 = mem_alloc(10);
 2020              		.loc 2 308 5 is_stmt 1
 308:src/Tests.cpp ****     void* m1 = mem_alloc(10);
 2021              		.loc 2 308 10 is_stmt 0
 2022 0b60 93073000 		li	a5,3
 2023 0b64 2320F500 		sw	a5,0(a0)
 309:src/Tests.cpp ****     void* m2 = mem_alloc(100);
 2024              		.loc 2 309 5 is_stmt 1
 309:src/Tests.cpp ****     void* m2 = mem_alloc(100);
 2025              		.loc 2 309 25 is_stmt 0
 2026 0b68 1305A000 		li	a0,10
 2027 0b6c 97000000 		call	mem_alloc@plt
 2027      E7800000 
 2028              	.LVL205:
 2029 0b74 13090500 		mv	s2,a0
 2030              	.LVL206:
 310:src/Tests.cpp ****     void* m3 = mem_alloc(1000);
 2031              		.loc 2 310 5 is_stmt 1
 310:src/Tests.cpp ****     void* m3 = mem_alloc(1000);
 2032              		.loc 2 310 25 is_stmt 0
 2033 0b78 13054006 		li	a0,100
 2034              	.LVL207:
 2035 0b7c 97000000 		call	mem_alloc@plt
 2035      E7800000 
 2036              	.LVL208:
 2037 0b84 93090500 		mv	s3,a0
 2038              	.LVL209:
 311:src/Tests.cpp ****     void* m4 = mem_alloc(10000);
 2039              		.loc 2 311 5 is_stmt 1
 311:src/Tests.cpp ****     void* m4 = mem_alloc(10000);
 2040              		.loc 2 311 25 is_stmt 0
 2041 0b88 1305803E 		li	a0,1000
 2042              	.LVL210:
 2043 0b8c 97000000 		call	mem_alloc@plt
 2043      E7800000 
 2044              	.LVL211:
 2045 0b94 130A0500 		mv	s4,a0
 2046              	.LVL212:
GAS LISTING /tmp/cchEysKF.s 			page 55


 312:src/Tests.cpp ****     void* m5 = mem_alloc(1);
 2047              		.loc 2 312 5 is_stmt 1
 312:src/Tests.cpp ****     void* m5 = mem_alloc(1);
 2048              		.loc 2 312 25 is_stmt 0
 2049 0b98 37250000 		li	a0,8192
 2050              	.LVL213:
 2051 0b9c 13050571 		addi	a0,a0,1808
 2052 0ba0 97000000 		call	mem_alloc@plt
 2052      E7800000 
 2053              	.LVL214:
 2054 0ba8 930A0500 		mv	s5,a0
 2055              	.LVL215:
 313:src/Tests.cpp **** 
 2056              		.loc 2 313 5 is_stmt 1
 313:src/Tests.cpp **** 
 2057              		.loc 2 313 25 is_stmt 0
 2058 0bac 13051000 		li	a0,1
 2059              	.LVL216:
 2060 0bb0 97000000 		call	mem_alloc@plt
 2060      E7800000 
 2061              	.LVL217:
 315:src/Tests.cpp ****         Riscv::printString("not OK\n");
 2062              		.loc 2 315 5 is_stmt 1
 2063 0bb8 630C0906 		beqz	s2,.L140
 2064 0bbc 130B0500 		mv	s6,a0
 315:src/Tests.cpp ****         Riscv::printString("not OK\n");
 2065              		.loc 2 315 12 is_stmt 0 discriminator 1
 2066 0bc0 63880906 		beqz	s3,.L140
 315:src/Tests.cpp ****         Riscv::printString("not OK\n");
 2067              		.loc 2 315 19 discriminator 2
 2068 0bc4 63060A06 		beqz	s4,.L140
 315:src/Tests.cpp ****         Riscv::printString("not OK\n");
 2069              		.loc 2 315 26 discriminator 3
 2070 0bc8 63840A06 		beqz	s5,.L140
 315:src/Tests.cpp ****         Riscv::printString("not OK\n");
 2071              		.loc 2 315 33 discriminator 4
 2072 0bcc 63020506 		beqz	a0,.L140
 320:src/Tests.cpp ****     delete (uint64*)m3;
 2073              		.loc 2 320 5 is_stmt 1 discriminator 1
 320:src/Tests.cpp ****     delete (uint64*)m3;
 2074              		.loc 2 320 21 is_stmt 0 discriminator 1
 2075 0bd0 13050900 		mv	a0,s2
 2076              	.LVL218:
 2077 0bd4 97000000 		call	_ZdlPv@plt
 2077      E7800000 
 2078              	.LVL219:
 321:src/Tests.cpp ****     delete (uint64*)m4;
 2079              		.loc 2 321 5 is_stmt 1 discriminator 1
 321:src/Tests.cpp ****     delete (uint64*)m4;
 2080              		.loc 2 321 21 is_stmt 0 discriminator 1
 2081 0bdc 13050A00 		mv	a0,s4
 2082 0be0 97000000 		call	_ZdlPv@plt
 2082      E7800000 
 2083              	.LVL220:
 322:src/Tests.cpp ****     delete (uint64*)m2;
 2084              		.loc 2 322 5 is_stmt 1 discriminator 1
 322:src/Tests.cpp ****     delete (uint64*)m2;
GAS LISTING /tmp/cchEysKF.s 			page 56


 2085              		.loc 2 322 21 is_stmt 0 discriminator 1
 2086 0be8 13850A00 		mv	a0,s5
 2087 0bec 97000000 		call	_ZdlPv@plt
 2087      E7800000 
 2088              	.LVL221:
 323:src/Tests.cpp ****     delete (uint64*)m5;
 2089              		.loc 2 323 5 is_stmt 1 discriminator 1
 323:src/Tests.cpp ****     delete (uint64*)m5;
 2090              		.loc 2 323 21 is_stmt 0 discriminator 1
 2091 0bf4 13850900 		mv	a0,s3
 2092 0bf8 97000000 		call	_ZdlPv@plt
 2092      E7800000 
 2093              	.LVL222:
 324:src/Tests.cpp ****     delete o;
 2094              		.loc 2 324 5 is_stmt 1 discriminator 1
 324:src/Tests.cpp ****     delete o;
 2095              		.loc 2 324 21 is_stmt 0 discriminator 1
 2096 0c00 13050B00 		mv	a0,s6
 2097 0c04 97000000 		call	_ZdlPv@plt
 2097      E7800000 
 2098              	.LVL223:
 325:src/Tests.cpp **** 
 2099              		.loc 2 325 5 is_stmt 1 discriminator 1
 325:src/Tests.cpp **** 
 2100              		.loc 2 325 13 is_stmt 0 discriminator 1
 2101 0c0c 63880400 		beqz	s1,.L143
 325:src/Tests.cpp **** 
 2102              		.loc 2 325 12 discriminator 1
 2103 0c10 13850400 		mv	a0,s1
 2104 0c14 97000000 		call	_ZdlPv@plt
 2104      E7800000 
 2105              	.LVL224:
 2106              	.L143:
 327:src/Tests.cpp **** }
 2107              		.loc 2 327 5 is_stmt 1
 327:src/Tests.cpp **** }
 2108              		.loc 2 327 23 is_stmt 0
 2109 0c1c 17050000 		lla	a0,.LC16
 2109      13050500 
 2110 0c24 97000000 		call	_ZN5Riscv11printStringEPKc@plt
 2110      E7800000 
 2111              	.LVL225:
 2112 0c2c 6F004001 		j	.L139
 2113              	.LVL226:
 2114              	.L140:
 316:src/Tests.cpp ****         return;
 2115              		.loc 2 316 9 is_stmt 1
 316:src/Tests.cpp ****         return;
 2116              		.loc 2 316 27 is_stmt 0
 2117 0c30 17050000 		lla	a0,.LC8
 2117      13050500 
 2118              	.LVL227:
 2119 0c38 97000000 		call	_ZN5Riscv11printStringEPKc@plt
 2119      E7800000 
 2120              	.LVL228:
 317:src/Tests.cpp ****     }
 2121              		.loc 2 317 9 is_stmt 1
GAS LISTING /tmp/cchEysKF.s 			page 57


 2122              	.L139:
 328:src/Tests.cpp **** 
 2123              		.loc 2 328 1 is_stmt 0
 2124 0c40 83308103 		ld	ra,56(sp)
 2125              		.cfi_restore 1
 2126 0c44 03340103 		ld	s0,48(sp)
 2127              		.cfi_restore 8
 2128              		.cfi_def_cfa 2, 64
 2129 0c48 83348102 		ld	s1,40(sp)
 2130              		.cfi_restore 9
 2131              	.LVL229:
 2132 0c4c 03390102 		ld	s2,32(sp)
 2133              		.cfi_restore 18
 2134              	.LVL230:
 2135 0c50 83398101 		ld	s3,24(sp)
 2136              		.cfi_restore 19
 2137              	.LVL231:
 2138 0c54 033A0101 		ld	s4,16(sp)
 2139              		.cfi_restore 20
 2140              	.LVL232:
 2141 0c58 833A8100 		ld	s5,8(sp)
 2142              		.cfi_restore 21
 2143              	.LVL233:
 2144 0c5c 033B0100 		ld	s6,0(sp)
 2145              		.cfi_restore 22
 2146 0c60 13010104 		addi	sp,sp,64
 2147              		.cfi_def_cfa_offset 0
 2148 0c64 67800000 		jr	ra
 2149              		.cfi_endproc
 2150              	.LFE47:
 2152              		.section	.rodata.str1.8
 2153 011e 0000     		.align	3
 2154              	.LC17:
 2155 0120 54657374 		.string	"Testing allocating whole address space\n\n"
 2155      696E6720 
 2155      616C6C6F 
 2155      63617469 
 2155      6E672077 
 2156 0149 00000000 		.align	3
 2156      000000
 2157              	.LC18:
 2158 0150 53554343 		.string	"SUCCESSFUL: Testing allocating whole address space\n\n"
 2158      45535346 
 2158      554C3A20 
 2158      54657374 
 2158      696E6720 
 2159              		.text
 2160              		.align	2
 2161              		.globl	_Z16mallocEverythingv
 2163              	_Z16mallocEverythingv:
 2164              	.LFB48:
 331:src/Tests.cpp ****     Riscv::printString("Testing allocating whole address space\n\n");
 2165              		.loc 2 331 1 is_stmt 1
 2166              		.cfi_startproc
 2167 0c68 130101FE 		addi	sp,sp,-32
 2168              		.cfi_def_cfa_offset 32
 2169 0c6c 233C1100 		sd	ra,24(sp)
GAS LISTING /tmp/cchEysKF.s 			page 58


 2170 0c70 23388100 		sd	s0,16(sp)
 2171 0c74 23349100 		sd	s1,8(sp)
 2172              		.cfi_offset 1, -8
 2173              		.cfi_offset 8, -16
 2174              		.cfi_offset 9, -24
 2175 0c78 13040102 		addi	s0,sp,32
 2176              		.cfi_def_cfa 8, 0
 332:src/Tests.cpp **** 
 2177              		.loc 2 332 5
 332:src/Tests.cpp **** 
 2178              		.loc 2 332 23 is_stmt 0
 2179 0c7c 17050000 		lla	a0,.LC17
 2179      13050500 
 2180 0c84 97000000 		call	_ZN5Riscv11printStringEPKc@plt
 2180      E7800000 
 2181              	.LVL234:
 334:src/Tests.cpp **** 
 2182              		.loc 2 334 5 is_stmt 1
 334:src/Tests.cpp **** 
 2183              		.loc 2 334 47 is_stmt 0
 2184 0c8c 97070000 		la	a5,HEAP_START_ADDR
 2184      83B70700 
 2185 0c94 03B50700 		ld	a0,0(a5)
 2186 0c98 97070000 		la	a5,HEAP_END_ADDR
 2186      83B70700 
 2187 0ca0 83B70700 		ld	a5,0(a5)
 2188 0ca4 3305F540 		sub	a0,a0,a5
 2189              	.LVL235:
 336:src/Tests.cpp **** 
 2190              		.loc 2 336 5 is_stmt 1
 336:src/Tests.cpp **** 
 2191              		.loc 2 336 24 is_stmt 0
 2192 0ca8 130505FF 		addi	a0,a0,-16
 2193              	.LVL236:
 2194 0cac 97000000 		call	mem_alloc@plt
 2194      E7800000 
 2195              	.LVL237:
 338:src/Tests.cpp ****         Riscv::printString("not OK\n");
 2196              		.loc 2 338 5 is_stmt 1
 2197 0cb4 63040502 		beqz	a0,.L146
 339:src/Tests.cpp ****         return;
 2198              		.loc 2 339 9
 339:src/Tests.cpp ****         return;
 2199              		.loc 2 339 27 is_stmt 0
 2200 0cb8 17050000 		lla	a0,.LC8
 2200      13050500 
 2201              	.LVL238:
 2202 0cc0 97000000 		call	_ZN5Riscv11printStringEPKc@plt
 2202      E7800000 
 2203              	.LVL239:
 340:src/Tests.cpp ****     }
 2204              		.loc 2 340 9 is_stmt 1
 2205              	.L145:
 373:src/Tests.cpp **** 
 2206              		.loc 2 373 1 is_stmt 0
 2207 0cc8 83308101 		ld	ra,24(sp)
 2208              		.cfi_remember_state
GAS LISTING /tmp/cchEysKF.s 			page 59


 2209              		.cfi_restore 1
 2210 0ccc 03340101 		ld	s0,16(sp)
 2211              		.cfi_restore 8
 2212              		.cfi_def_cfa 2, 32
 2213 0cd0 83348100 		ld	s1,8(sp)
 2214              		.cfi_restore 9
 2215 0cd4 13010102 		addi	sp,sp,32
 2216              		.cfi_def_cfa_offset 0
 2217 0cd8 67800000 		jr	ra
 2218              	.LVL240:
 2219              	.L146:
 2220              		.cfi_restore_state
 343:src/Tests.cpp **** 
 2221              		.loc 2 343 5 is_stmt 1
 343:src/Tests.cpp **** 
 2222              		.loc 2 343 48 is_stmt 0
 2223 0cdc 97070000 		la	a5,HEAP_END_ADDR
 2223      83B70700 
 2224 0ce4 03B50700 		ld	a0,0(a5)
 2225              	.LVL241:
 2226 0ce8 97070000 		la	a5,HEAP_START_ADDR
 2226      83B70700 
 2227 0cf0 83B70700 		ld	a5,0(a5)
 2228 0cf4 3305F540 		sub	a0,a0,a5
 343:src/Tests.cpp **** 
 2229              		.loc 2 343 74
 2230 0cf8 130505FF 		addi	a0,a0,-16
 343:src/Tests.cpp **** 
 2231              		.loc 2 343 113
 2232 0cfc 13556500 		srli	a0,a0,6
 343:src/Tests.cpp **** 
 2233              		.loc 2 343 12
 2234 0d00 130545ED 		addi	a0,a0,-300
 2235              	.LVL242:
 345:src/Tests.cpp **** 
 2236              		.loc 2 345 5 is_stmt 1
 345:src/Tests.cpp **** 
 2237              		.loc 2 345 18 is_stmt 0
 2238 0d04 13156500 		slli	a0,a0,6
 2239              	.LVL243:
 2240 0d08 97000000 		call	mem_alloc@plt
 2240      E7800000 
 2241              	.LVL244:
 2242 0d10 93040500 		mv	s1,a0
 2243              	.LVL245:
 347:src/Tests.cpp ****         Riscv::printString("not OK\n");
 2244              		.loc 2 347 5 is_stmt 1
 2245 0d14 630A0502 		beqz	a0,.L151
 362:src/Tests.cpp **** 
 2246              		.loc 2 362 5
 362:src/Tests.cpp **** 
 2247              		.loc 2 362 34 is_stmt 0
 2248 0d18 13051000 		li	a0,1
 2249 0d1c 97000000 		call	mem_alloc@plt
 2249      E7800000 
 2250              	.LVL246:
 364:src/Tests.cpp ****         Riscv::printString("not OK\n");
GAS LISTING /tmp/cchEysKF.s 			page 60


 2251              		.loc 2 364 5 is_stmt 1
 2252 0d24 630C0502 		beqz	a0,.L152
 369:src/Tests.cpp ****     //delete (uint64*)small_chunk;
 2253              		.loc 2 369 5 discriminator 1
 369:src/Tests.cpp ****     //delete (uint64*)small_chunk;
 2254              		.loc 2 369 21 is_stmt 0 discriminator 1
 2255 0d28 13850400 		mv	a0,s1
 2256              	.LVL247:
 2257 0d2c 97000000 		call	_ZdlPv@plt
 2257      E7800000 
 2258              	.LVL248:
 372:src/Tests.cpp **** }
 2259              		.loc 2 372 5 is_stmt 1 discriminator 1
 372:src/Tests.cpp **** }
 2260              		.loc 2 372 23 is_stmt 0 discriminator 1
 2261 0d34 17050000 		lla	a0,.LC18
 2261      13050500 
 2262 0d3c 97000000 		call	_ZN5Riscv11printStringEPKc@plt
 2262      E7800000 
 2263              	.LVL249:
 2264 0d44 6FF05FF8 		j	.L145
 2265              	.L151:
 348:src/Tests.cpp ****         return;
 2266              		.loc 2 348 9 is_stmt 1
 348:src/Tests.cpp ****         return;
 2267              		.loc 2 348 27 is_stmt 0
 2268 0d48 17050000 		lla	a0,.LC8
 2268      13050500 
 2269 0d50 97000000 		call	_ZN5Riscv11printStringEPKc@plt
 2269      E7800000 
 2270              	.LVL250:
 349:src/Tests.cpp ****     }
 2271              		.loc 2 349 9 is_stmt 1
 2272 0d58 6FF01FF7 		j	.L145
 2273              	.LVL251:
 2274              	.L152:
 365:src/Tests.cpp ****         return;
 2275              		.loc 2 365 9
 365:src/Tests.cpp ****         return;
 2276              		.loc 2 365 27 is_stmt 0
 2277 0d5c 17050000 		lla	a0,.LC8
 2277      13050500 
 2278              	.LVL252:
 2279 0d64 97000000 		call	_ZN5Riscv11printStringEPKc@plt
 2279      E7800000 
 2280              	.LVL253:
 366:src/Tests.cpp ****     }
 2281              		.loc 2 366 9 is_stmt 1
 2282 0d6c 6FF0DFF5 		j	.L145
 2283              		.cfi_endproc
 2284              	.LFE48:
 2286              		.section	.rodata.str1.8
 2287 0185 000000   		.align	3
 2288              	.LC19:
 2289 0188 54657374 		.string	"Testing gap filling and chunk merge after multiple mallocs and frees\n\n"
 2289      696E6720 
 2289      67617020 
GAS LISTING /tmp/cchEysKF.s 			page 61


 2289      66696C6C 
 2289      696E6720 
 2290 01cf 00       		.align	3
 2291              	.LC20:
 2292 01d0 53554343 		.string	"SUCCESSFUL: Testing gap filling and chunk merge after multiple mallocs and frees\n\n"
 2292      45535346 
 2292      554C3A20 
 2292      54657374 
 2292      696E6720 
 2293              		.text
 2294              		.align	2
 2295              		.globl	_Z17mallocGapFillTestv
 2297              	_Z17mallocGapFillTestv:
 2298              	.LFB49:
 376:src/Tests.cpp ****     Riscv::printString("Testing gap filling and chunk merge after multiple mallocs and frees\n\n");
 2299              		.loc 2 376 1
 2300              		.cfi_startproc
 2301 0d70 130101F6 		addi	sp,sp,-160
 2302              		.cfi_def_cfa_offset 160
 2303 0d74 233C1108 		sd	ra,152(sp)
 2304 0d78 23388108 		sd	s0,144(sp)
 2305 0d7c 23349108 		sd	s1,136(sp)
 2306 0d80 23302109 		sd	s2,128(sp)
 2307 0d84 233C3107 		sd	s3,120(sp)
 2308 0d88 23384107 		sd	s4,112(sp)
 2309 0d8c 23345107 		sd	s5,104(sp)
 2310 0d90 23306107 		sd	s6,96(sp)
 2311 0d94 233C7105 		sd	s7,88(sp)
 2312 0d98 23388105 		sd	s8,80(sp)
 2313              		.cfi_offset 1, -8
 2314              		.cfi_offset 8, -16
 2315              		.cfi_offset 9, -24
 2316              		.cfi_offset 18, -32
 2317              		.cfi_offset 19, -40
 2318              		.cfi_offset 20, -48
 2319              		.cfi_offset 21, -56
 2320              		.cfi_offset 22, -64
 2321              		.cfi_offset 23, -72
 2322              		.cfi_offset 24, -80
 2323 0d9c 1304010A 		addi	s0,sp,160
 2324              		.cfi_def_cfa 8, 0
 377:src/Tests.cpp **** 
 2325              		.loc 2 377 5
 377:src/Tests.cpp **** 
 2326              		.loc 2 377 23 is_stmt 0
 2327 0da0 17050000 		lla	a0,.LC19
 2327      13050500 
 2328 0da8 97000000 		call	_ZN5Riscv11printStringEPKc@plt
 2328      E7800000 
 2329              	.LVL254:
 2330              	.LBB47:
 383:src/Tests.cpp ****     {
 2331              		.loc 2 383 13
 2332 0db0 93040000 		li	s1,0
 2333              	.L157:
 2334              	.LVL255:
 383:src/Tests.cpp ****     {
GAS LISTING /tmp/cchEysKF.s 			page 62


 2335              		.loc 2 383 18 is_stmt 1 discriminator 1
 2336 0db4 93079000 		li	a5,9
 2337 0db8 63C89706 		bgt	s1,a5,.L154
 385:src/Tests.cpp ****         if(m[i] == nullptr){
 2338              		.loc 2 385 9
 385:src/Tests.cpp ****         if(m[i] == nullptr){
 2339              		.loc 2 385 28 is_stmt 0
 2340 0dbc 1B956400 		slliw	a0,s1,6
 385:src/Tests.cpp ****         if(m[i] == nullptr){
 2341              		.loc 2 385 25
 2342 0dc0 1B051500 		addiw	a0,a0,1
 2343 0dc4 97000000 		call	mem_alloc@plt
 2343      E7800000 
 2344              	.LVL256:
 385:src/Tests.cpp ****         if(m[i] == nullptr){
 2345              		.loc 2 385 14
 2346 0dcc 93973400 		slli	a5,s1,3
 2347 0dd0 130704FB 		addi	a4,s0,-80
 2348 0dd4 B307F700 		add	a5,a4,a5
 2349 0dd8 23B8A7FA 		sd	a0,-80(a5)
 386:src/Tests.cpp ****             Riscv::printString("not OK\n");
 2350              		.loc 2 386 9 is_stmt 1
 2351 0ddc 63060500 		beqz	a0,.L174
 383:src/Tests.cpp ****     {
 2352              		.loc 2 383 5 discriminator 2
 2353 0de0 9B841400 		addiw	s1,s1,1
 2354              	.LVL257:
 2355 0de4 6FF01FFD 		j	.L157
 2356              	.LVL258:
 2357              	.L174:
 387:src/Tests.cpp ****             return;
 2358              		.loc 2 387 13
 387:src/Tests.cpp ****             return;
 2359              		.loc 2 387 31 is_stmt 0
 2360 0de8 17050000 		lla	a0,.LC8
 2360      13050500 
 2361 0df0 97000000 		call	_ZN5Riscv11printStringEPKc@plt
 2361      E7800000 
 2362              	.LVL259:
 388:src/Tests.cpp ****         }
 2363              		.loc 2 388 13 is_stmt 1
 2364              	.L153:
 2365              	.LBE47:
 449:src/Tests.cpp **** 
 2366              		.loc 2 449 1 is_stmt 0
 2367 0df8 83308109 		ld	ra,152(sp)
 2368              		.cfi_remember_state
 2369              		.cfi_restore 1
 2370 0dfc 03340109 		ld	s0,144(sp)
 2371              		.cfi_restore 8
 2372              		.cfi_def_cfa 2, 160
 2373 0e00 83348108 		ld	s1,136(sp)
 2374              		.cfi_restore 9
 2375 0e04 03390108 		ld	s2,128(sp)
 2376              		.cfi_restore 18
 2377 0e08 83398107 		ld	s3,120(sp)
 2378              		.cfi_restore 19
GAS LISTING /tmp/cchEysKF.s 			page 63


 2379 0e0c 033A0107 		ld	s4,112(sp)
 2380              		.cfi_restore 20
 2381 0e10 833A8106 		ld	s5,104(sp)
 2382              		.cfi_restore 21
 2383 0e14 033B0106 		ld	s6,96(sp)
 2384              		.cfi_restore 22
 2385 0e18 833B8105 		ld	s7,88(sp)
 2386              		.cfi_restore 23
 2387 0e1c 033C0105 		ld	s8,80(sp)
 2388              		.cfi_restore 24
 2389 0e20 1301010A 		addi	sp,sp,160
 2390              		.cfi_def_cfa_offset 0
 2391 0e24 67800000 		jr	ra
 2392              	.LVL260:
 2393              	.L154:
 2394              		.cfi_restore_state
 392:src/Tests.cpp **** 
 2395              		.loc 2 392 5 is_stmt 1
 392:src/Tests.cpp **** 
 2396              		.loc 2 392 24 is_stmt 0
 2397 0e28 033504F7 		ld	a0,-144(s0)
 392:src/Tests.cpp **** 
 2398              		.loc 2 392 25
 2399 0e2c 63060500 		beqz	a0,.L158
 392:src/Tests.cpp **** 
 2400              		.loc 2 392 24 discriminator 1
 2401 0e30 97000000 		call	_ZdlPv@plt
 2401      E7800000 
 2402              	.LVL261:
 2403              	.L158:
 394:src/Tests.cpp ****     void* tmp2 = mem_alloc(1);
 2404              		.loc 2 394 5 is_stmt 1
 394:src/Tests.cpp ****     void* tmp2 = mem_alloc(1);
 2405              		.loc 2 394 27 is_stmt 0
 2406 0e38 13051000 		li	a0,1
 2407 0e3c 97000000 		call	mem_alloc@plt
 2407      E7800000 
 2408              	.LVL262:
 2409 0e44 93040500 		mv	s1,a0
 2410              	.LVL263:
 395:src/Tests.cpp ****     void* tmp3 = mem_alloc(1);
 2411              		.loc 2 395 5 is_stmt 1
 395:src/Tests.cpp ****     void* tmp3 = mem_alloc(1);
 2412              		.loc 2 395 27 is_stmt 0
 2413 0e48 13051000 		li	a0,1
 2414 0e4c 97000000 		call	mem_alloc@plt
 2414      E7800000 
 2415              	.LVL264:
 2416 0e54 13090500 		mv	s2,a0
 2417              	.LVL265:
 396:src/Tests.cpp **** 
 2418              		.loc 2 396 5 is_stmt 1
 396:src/Tests.cpp **** 
 2419              		.loc 2 396 27 is_stmt 0
 2420 0e58 13051000 		li	a0,1
 2421              	.LVL266:
 2422 0e5c 97000000 		call	mem_alloc@plt
GAS LISTING /tmp/cchEysKF.s 			page 64


 2422      E7800000 
 2423              	.LVL267:
 2424 0e64 93090500 		mv	s3,a0
 2425              	.LVL268:
 398:src/Tests.cpp ****     {
 2426              		.loc 2 398 5 is_stmt 1
 2427 0e68 63880408 		beqz	s1,.L159
 398:src/Tests.cpp ****     {
 2428              		.loc 2 398 14 is_stmt 0 discriminator 1
 2429 0e6c 63060908 		beqz	s2,.L159
 398:src/Tests.cpp ****     {
 2430              		.loc 2 398 23 discriminator 2
 2431 0e70 63040508 		beqz	a0,.L159
 404:src/Tests.cpp ****     uint64 im3 = (uint64)m[3];
 2432              		.loc 2 404 5 is_stmt 1
 404:src/Tests.cpp ****     uint64 im3 = (uint64)m[3];
 2433              		.loc 2 404 29 is_stmt 0
 2434 0e74 833784F6 		ld	a5,-152(s0)
 2435              	.LVL269:
 405:src/Tests.cpp ****     uint64 im5 = (uint64)m[5];
 2436              		.loc 2 405 5 is_stmt 1
 405:src/Tests.cpp ****     uint64 im5 = (uint64)m[5];
 2437              		.loc 2 405 29 is_stmt 0
 2438 0e78 033584F7 		ld	a0,-136(s0)
 2439              	.LVL270:
 406:src/Tests.cpp ****     uint64 imN = (uint64)m[N];
 2440              		.loc 2 406 5 is_stmt 1
 406:src/Tests.cpp ****     uint64 imN = (uint64)m[N];
 2441              		.loc 2 406 29 is_stmt 0
 2442 0e7c 033B84F8 		ld	s6,-120(s0)
 2443              	.LVL271:
 407:src/Tests.cpp **** 
 2444              		.loc 2 407 5 is_stmt 1
 407:src/Tests.cpp **** 
 2445              		.loc 2 407 29 is_stmt 0
 2446 0e80 033604FB 		ld	a2,-80(s0)
 2447              	.LVL272:
 409:src/Tests.cpp ****     uint64 itmp2 = (uint64)tmp2;
 2448              		.loc 2 409 5 is_stmt 1
 410:src/Tests.cpp ****     uint64 itmp3 = (uint64)tmp3;
 2449              		.loc 2 410 5
 410:src/Tests.cpp ****     uint64 itmp3 = (uint64)tmp3;
 2450              		.loc 2 410 12 is_stmt 0
 2451 0e84 130A0900 		mv	s4,s2
 2452              	.LVL273:
 411:src/Tests.cpp **** 
 2453              		.loc 2 411 5 is_stmt 1
 411:src/Tests.cpp **** 
 2454              		.loc 2 411 12 is_stmt 0
 2455 0e88 938A0900 		mv	s5,s3
 2456              	.LVL274:
 413:src/Tests.cpp ****     {
 2457              		.loc 2 413 5 is_stmt 1
 2458 0e8c 63F09708 		bgeu	a5,s1,.L161
 413:src/Tests.cpp ****     {
 2459              		.loc 2 413 20 is_stmt 0 discriminator 1
 2460 0e90 63FEA406 		bleu	a0,s1,.L161
GAS LISTING /tmp/cchEysKF.s 			page 65


 413:src/Tests.cpp ****     {
 2461              		.loc 2 413 33 discriminator 2
 2462 0e94 63FC2707 		bgeu	a5,s2,.L161
 413:src/Tests.cpp ****     {
 2463              		.loc 2 413 46 discriminator 3
 2464 0e98 637AA906 		bleu	a0,s2,.L161
 413:src/Tests.cpp ****     {
 2465              		.loc 2 413 8 discriminator 4
 2466 0e9c 63783607 		bgeu	a2,s3,.L161
 419:src/Tests.cpp ****     delete (uint64*)m[4];
 2467              		.loc 2 419 5 is_stmt 1
 419:src/Tests.cpp ****     delete (uint64*)m[4];
 2468              		.loc 2 419 25 is_stmt 0
 2469 0ea0 63060500 		beqz	a0,.L163
 419:src/Tests.cpp ****     delete (uint64*)m[4];
 2470              		.loc 2 419 24 discriminator 1
 2471 0ea4 97000000 		call	_ZdlPv@plt
 2471      E7800000 
 2472              	.LVL275:
 2473              	.L163:
 420:src/Tests.cpp **** 
 2474              		.loc 2 420 5 is_stmt 1
 420:src/Tests.cpp **** 
 2475              		.loc 2 420 24 is_stmt 0
 2476 0eac 033504F8 		ld	a0,-128(s0)
 420:src/Tests.cpp **** 
 2477              		.loc 2 420 25
 2478 0eb0 63060500 		beqz	a0,.L164
 420:src/Tests.cpp **** 
 2479              		.loc 2 420 24 discriminator 1
 2480 0eb4 97000000 		call	_ZdlPv@plt
 2480      E7800000 
 2481              	.LVL276:
 2482              	.L164:
 422:src/Tests.cpp ****     void* tmp5 = mem_alloc(576);
 2483              		.loc 2 422 5 is_stmt 1
 422:src/Tests.cpp ****     void* tmp5 = mem_alloc(576);
 2484              		.loc 2 422 27 is_stmt 0
 2485 0ebc 13050028 		li	a0,640
 2486 0ec0 97000000 		call	mem_alloc@plt
 2486      E7800000 
 2487              	.LVL277:
 2488 0ec8 130C0500 		mv	s8,a0
 2489              	.LVL278:
 423:src/Tests.cpp **** 
 2490              		.loc 2 423 5 is_stmt 1
 423:src/Tests.cpp **** 
 2491              		.loc 2 423 27 is_stmt 0
 2492 0ecc 13050024 		li	a0,576
 2493              	.LVL279:
 2494 0ed0 97000000 		call	mem_alloc@plt
 2494      E7800000 
 2495              	.LVL280:
 2496 0ed8 930B0500 		mv	s7,a0
 2497              	.LVL281:
 425:src/Tests.cpp ****         Riscv::printString("not OK\n");
 2498              		.loc 2 425 5 is_stmt 1
GAS LISTING /tmp/cchEysKF.s 			page 66


 2499 0edc 63020C04 		beqz	s8,.L165
 425:src/Tests.cpp ****         Riscv::printString("not OK\n");
 2500              		.loc 2 425 14 is_stmt 0 discriminator 1
 2501 0ee0 63000504 		beqz	a0,.L165
 430:src/Tests.cpp ****     uint64 itmp5 = (uint64)tmp5;
 2502              		.loc 2 430 5 is_stmt 1
 2503              	.LVL282:
 431:src/Tests.cpp **** 
 2504              		.loc 2 431 5
 433:src/Tests.cpp ****         Riscv::printString("not OK\n");
 2505              		.loc 2 433 5
 2506 0ee4 6378AA04 		bgeu	s4,a0,.L167
 433:src/Tests.cpp ****         Riscv::printString("not OK\n");
 2507              		.loc 2 433 22 is_stmt 0 discriminator 1
 2508 0ee8 6376AB04 		bgeu	s6,a0,.L167
 433:src/Tests.cpp ****         Riscv::printString("not OK\n");
 2509              		.loc 2 433 8 discriminator 2
 2510 0eec 63745C05 		bleu	s5,s8,.L167
 2511              	.LBB48:
 438:src/Tests.cpp ****         delete (uint64*)m[i];
 2512              		.loc 2 438 13
 2513 0ef0 130A0000 		li	s4,0
 2514 0ef4 6F008005 		j	.L168
 2515              	.LVL283:
 2516              	.L159:
 2517              	.LBE48:
 400:src/Tests.cpp ****         return;
 2518              		.loc 2 400 9 is_stmt 1
 400:src/Tests.cpp ****         return;
 2519              		.loc 2 400 27 is_stmt 0
 2520 0ef8 17050000 		lla	a0,.LC8
 2520      13050500 
 2521              	.LVL284:
 2522 0f00 97000000 		call	_ZN5Riscv11printStringEPKc@plt
 2522      E7800000 
 2523              	.LVL285:
 401:src/Tests.cpp ****     }
 2524              		.loc 2 401 9 is_stmt 1
 2525 0f08 6FF01FEF 		j	.L153
 2526              	.LVL286:
 2527              	.L161:
 415:src/Tests.cpp ****         return;
 2528              		.loc 2 415 9
 415:src/Tests.cpp ****         return;
 2529              		.loc 2 415 27 is_stmt 0
 2530 0f0c 17050000 		lla	a0,.LC8
 2530      13050500 
 2531              	.LVL287:
 2532 0f14 97000000 		call	_ZN5Riscv11printStringEPKc@plt
 2532      E7800000 
 2533              	.LVL288:
 416:src/Tests.cpp ****     }
 2534              		.loc 2 416 9 is_stmt 1
 2535 0f1c 6FF0DFED 		j	.L153
 2536              	.LVL289:
 2537              	.L165:
 426:src/Tests.cpp ****         return;
GAS LISTING /tmp/cchEysKF.s 			page 67


 2538              		.loc 2 426 9
 426:src/Tests.cpp ****         return;
 2539              		.loc 2 426 27 is_stmt 0
 2540 0f20 17050000 		lla	a0,.LC8
 2540      13050500 
 2541              	.LVL290:
 2542 0f28 97000000 		call	_ZN5Riscv11printStringEPKc@plt
 2542      E7800000 
 2543              	.LVL291:
 427:src/Tests.cpp ****     }
 2544              		.loc 2 427 9 is_stmt 1
 2545 0f30 6FF09FEC 		j	.L153
 2546              	.LVL292:
 2547              	.L167:
 434:src/Tests.cpp ****         return;
 2548              		.loc 2 434 9
 434:src/Tests.cpp ****         return;
 2549              		.loc 2 434 27 is_stmt 0
 2550 0f34 17050000 		lla	a0,.LC8
 2550      13050500 
 2551              	.LVL293:
 2552 0f3c 97000000 		call	_ZN5Riscv11printStringEPKc@plt
 2552      E7800000 
 2553              	.LVL294:
 435:src/Tests.cpp ****     }
 2554              		.loc 2 435 9 is_stmt 1
 2555 0f44 6FF05FEB 		j	.L153
 2556              	.LVL295:
 2557              	.L170:
 2558              	.LBB49:
 438:src/Tests.cpp ****         delete (uint64*)m[i];
 2559              		.loc 2 438 5 discriminator 2
 2560 0f48 1B0A1A00 		addiw	s4,s4,1
 2561              	.LVL296:
 2562              	.L168:
 438:src/Tests.cpp ****         delete (uint64*)m[i];
 2563              		.loc 2 438 18 discriminator 1
 2564 0f4c 93079000 		li	a5,9
 2565 0f50 63C24703 		bgt	s4,a5,.L169
 439:src/Tests.cpp ****     }
 2566              		.loc 2 439 9
 439:src/Tests.cpp ****     }
 2567              		.loc 2 439 28 is_stmt 0
 2568 0f54 93173A00 		slli	a5,s4,3
 2569 0f58 130704FB 		addi	a4,s0,-80
 2570              	.LVL297:
 2571 0f5c B307F700 		add	a5,a4,a5
 2572 0f60 03B507FB 		ld	a0,-80(a5)
 439:src/Tests.cpp ****     }
 2573              		.loc 2 439 29
 2574 0f64 E30205FE 		beqz	a0,.L170
 439:src/Tests.cpp ****     }
 2575              		.loc 2 439 28 discriminator 1
 2576 0f68 97000000 		call	_ZdlPv@plt
 2576      E7800000 
 2577              	.LVL298:
 2578 0f70 6FF09FFD 		j	.L170
GAS LISTING /tmp/cchEysKF.s 			page 68


 2579              	.L169:
 2580              	.LBE49:
 442:src/Tests.cpp ****     delete (uint64*)tmp2;
 2581              		.loc 2 442 5 is_stmt 1 discriminator 1
 442:src/Tests.cpp ****     delete (uint64*)tmp2;
 2582              		.loc 2 442 21 is_stmt 0 discriminator 1
 2583 0f74 13850400 		mv	a0,s1
 2584 0f78 97000000 		call	_ZdlPv@plt
 2584      E7800000 
 2585              	.LVL299:
 443:src/Tests.cpp ****     delete (uint64*)tmp3;
 2586              		.loc 2 443 5 is_stmt 1 discriminator 1
 443:src/Tests.cpp ****     delete (uint64*)tmp3;
 2587              		.loc 2 443 21 is_stmt 0 discriminator 1
 2588 0f80 13050900 		mv	a0,s2
 2589 0f84 97000000 		call	_ZdlPv@plt
 2589      E7800000 
 2590              	.LVL300:
 444:src/Tests.cpp ****     delete (uint64*)tmp4;
 2591              		.loc 2 444 5 is_stmt 1 discriminator 1
 444:src/Tests.cpp ****     delete (uint64*)tmp4;
 2592              		.loc 2 444 21 is_stmt 0 discriminator 1
 2593 0f8c 13850900 		mv	a0,s3
 2594 0f90 97000000 		call	_ZdlPv@plt
 2594      E7800000 
 2595              	.LVL301:
 445:src/Tests.cpp ****     delete (uint64*)tmp5;
 2596              		.loc 2 445 5 is_stmt 1 discriminator 1
 445:src/Tests.cpp ****     delete (uint64*)tmp5;
 2597              		.loc 2 445 21 is_stmt 0 discriminator 1
 2598 0f98 13050C00 		mv	a0,s8
 2599 0f9c 97000000 		call	_ZdlPv@plt
 2599      E7800000 
 2600              	.LVL302:
 446:src/Tests.cpp **** 
 2601              		.loc 2 446 5 is_stmt 1 discriminator 1
 446:src/Tests.cpp **** 
 2602              		.loc 2 446 21 is_stmt 0 discriminator 1
 2603 0fa4 13850B00 		mv	a0,s7
 2604 0fa8 97000000 		call	_ZdlPv@plt
 2604      E7800000 
 2605              	.LVL303:
 448:src/Tests.cpp **** }
 2606              		.loc 2 448 5 is_stmt 1 discriminator 1
 448:src/Tests.cpp **** }
 2607              		.loc 2 448 23 is_stmt 0 discriminator 1
 2608 0fb0 17050000 		lla	a0,.LC20
 2608      13050500 
 2609 0fb8 97000000 		call	_ZN5Riscv11printStringEPKc@plt
 2609      E7800000 
 2610              	.LVL304:
 2611 0fc0 6FF09FE3 		j	.L153
 2612              		.cfi_endproc
 2613              	.LFE49:
 2615              		.align	2
 2616              		.globl	_Z21memoryAllocationTestsv
 2618              	_Z21memoryAllocationTestsv:
GAS LISTING /tmp/cchEysKF.s 			page 69


 2619              	.LFB36:
 267:src/Tests.cpp ****     //bigMalloc();
 2620              		.loc 2 267 1 is_stmt 1
 2621              		.cfi_startproc
 2622 0fc4 130101FF 		addi	sp,sp,-16
 2623              		.cfi_def_cfa_offset 16
 2624 0fc8 23341100 		sd	ra,8(sp)
 2625 0fcc 23308100 		sd	s0,0(sp)
 2626              		.cfi_offset 1, -8
 2627              		.cfi_offset 8, -16
 2628 0fd0 13040101 		addi	s0,sp,16
 2629              		.cfi_def_cfa 8, 0
 275:src/Tests.cpp **** }
 2630              		.loc 2 275 5
 275:src/Tests.cpp **** }
 2631              		.loc 2 275 22 is_stmt 0
 2632 0fd4 97000000 		call	_Z17mallocGapFillTestv
 2632      E7800000 
 2633              	.LVL305:
 276:src/Tests.cpp **** 
 2634              		.loc 2 276 1
 2635 0fdc 83308100 		ld	ra,8(sp)
 2636              		.cfi_restore 1
 2637 0fe0 03340100 		ld	s0,0(sp)
 2638              		.cfi_restore 8
 2639              		.cfi_def_cfa 2, 16
 2640 0fe4 13010101 		addi	sp,sp,16
 2641              		.cfi_def_cfa_offset 0
 2642 0fe8 67800000 		jr	ra
 2643              		.cfi_endproc
 2644              	.LFE36:
 2646              		.align	2
 2647              		.globl	_Z8semTest1v
 2649              	_Z8semTest1v:
 2650              	.LFB52:
 476:src/Tests.cpp **** 
 477:src/Tests.cpp **** void semTest1()
 478:src/Tests.cpp **** {
 2651              		.loc 2 478 1 is_stmt 1
 2652              		.cfi_startproc
 2653 0fec 130101FE 		addi	sp,sp,-32
 2654              		.cfi_def_cfa_offset 32
 2655 0ff0 233C1100 		sd	ra,24(sp)
 2656 0ff4 23388100 		sd	s0,16(sp)
 2657              		.cfi_offset 1, -8
 2658              		.cfi_offset 8, -16
 2659 0ff8 13040102 		addi	s0,sp,32
 2660              		.cfi_def_cfa 8, 0
 479:src/Tests.cpp ****     sem_open(&spaceAvailable, 10);
 2661              		.loc 2 479 5
 2662              		.loc 2 479 13 is_stmt 0
 2663 0ffc 9305A000 		li	a1,10
 2664 1000 17050000 		lla	a0,.LANCHOR0+32
 2664      13050500 
 2665 1008 97000000 		call	sem_open@plt
 2665      E7800000 
 2666              	.LVL306:
GAS LISTING /tmp/cchEysKF.s 			page 70


 480:src/Tests.cpp **** 
 481:src/Tests.cpp ****     sem_open(&itemAvailable, 0);
 2667              		.loc 2 481 5 is_stmt 1
 2668              		.loc 2 481 13 is_stmt 0
 2669 1010 93050000 		li	a1,0
 2670 1014 17050000 		lla	a0,.LANCHOR0+8
 2670      13050500 
 2671 101c 97000000 		call	sem_open@plt
 2671      E7800000 
 2672              	.LVL307:
 482:src/Tests.cpp **** 
 483:src/Tests.cpp ****     thread_t threadA, threadB;
 2673              		.loc 2 483 5 is_stmt 1
 484:src/Tests.cpp **** 
 485:src/Tests.cpp ****     thread_create(&threadA, producerA, nullptr);
 2674              		.loc 2 485 5
 2675              		.loc 2 485 18 is_stmt 0
 2676 1024 13060000 		li	a2,0
 2677 1028 97050000 		lla	a1,_Z9producerAPv
 2677      93850500 
 2678 1030 130584FE 		addi	a0,s0,-24
 2679 1034 97000000 		call	thread_create@plt
 2679      E7800000 
 2680              	.LVL308:
 486:src/Tests.cpp **** 
 487:src/Tests.cpp ****     thread_create(&threadB, consumerA, nullptr);
 2681              		.loc 2 487 5 is_stmt 1
 2682              		.loc 2 487 18 is_stmt 0
 2683 103c 13060000 		li	a2,0
 2684 1040 97050000 		lla	a1,_Z9consumerAPv
 2684      93850500 
 2685 1048 130504FE 		addi	a0,s0,-32
 2686 104c 97000000 		call	thread_create@plt
 2686      E7800000 
 2687              	.LVL309:
 2688 1054 6F00C000 		j	.L180
 2689              	.L178:
 488:src/Tests.cpp **** 
 489:src/Tests.cpp ****     while(!((PCB*)threadA)->isFinished() || !((PCB*)threadA)->isFinished())
 490:src/Tests.cpp ****         thread_dispatch();
 2690              		.loc 2 490 9 is_stmt 1 discriminator 5
 2691              		.loc 2 490 24 is_stmt 0 discriminator 5
 2692 1058 97000000 		call	thread_dispatch@plt
 2692      E7800000 
 2693              	.LVL310:
 2694              	.L180:
 489:src/Tests.cpp ****         thread_dispatch();
 2695              		.loc 2 489 5 is_stmt 1
 489:src/Tests.cpp ****         thread_dispatch();
 2696              		.loc 2 489 42
 489:src/Tests.cpp ****         thread_dispatch();
 2697              		.loc 2 489 39 is_stmt 0
 2698 1060 033584FE 		ld	a0,-24(s0)
 2699 1064 97000000 		call	_ZN3PCB10isFinishedEv@plt
 2699      E7800000 
 2700              	.LVL311:
 489:src/Tests.cpp ****         thread_dispatch();
GAS LISTING /tmp/cchEysKF.s 			page 71


 2701              		.loc 2 489 42
 2702 106c E30605FE 		beqz	a0,.L178
 489:src/Tests.cpp ****         thread_dispatch();
 2703              		.loc 2 489 73 discriminator 3
 2704 1070 033584FE 		ld	a0,-24(s0)
 2705 1074 97000000 		call	_ZN3PCB10isFinishedEv@plt
 2705      E7800000 
 2706              	.LVL312:
 489:src/Tests.cpp ****         thread_dispatch();
 2707              		.loc 2 489 42 discriminator 3
 2708 107c E30E05FC 		beqz	a0,.L178
 491:src/Tests.cpp **** 
 492:src/Tests.cpp **** }
 2709              		.loc 2 492 1
 2710 1080 83308101 		ld	ra,24(sp)
 2711              		.cfi_restore 1
 2712 1084 03340101 		ld	s0,16(sp)
 2713              		.cfi_restore 8
 2714              		.cfi_def_cfa 2, 32
 2715 1088 13010102 		addi	sp,sp,32
 2716              		.cfi_def_cfa_offset 0
 2717 108c 67800000 		jr	ra
 2718              		.cfi_endproc
 2719              	.LFE52:
 2721              		.align	2
 2722              		.globl	_Z14semaphoreTestsv
 2724              	_Z14semaphoreTestsv:
 2725              	.LFB37:
 279:src/Tests.cpp ****     semTest1();
 2726              		.loc 2 279 1 is_stmt 1
 2727              		.cfi_startproc
 2728 1090 130101FF 		addi	sp,sp,-16
 2729              		.cfi_def_cfa_offset 16
 2730 1094 23341100 		sd	ra,8(sp)
 2731 1098 23308100 		sd	s0,0(sp)
 2732              		.cfi_offset 1, -8
 2733              		.cfi_offset 8, -16
 2734 109c 13040101 		addi	s0,sp,16
 2735              		.cfi_def_cfa 8, 0
 280:src/Tests.cpp **** }
 2736              		.loc 2 280 5
 280:src/Tests.cpp **** }
 2737              		.loc 2 280 13 is_stmt 0
 2738 10a0 97000000 		call	_Z8semTest1v
 2738      E7800000 
 2739              	.LVL313:
 281:src/Tests.cpp **** 
 2740              		.loc 2 281 1
 2741 10a8 83308100 		ld	ra,8(sp)
 2742              		.cfi_restore 1
 2743 10ac 03340100 		ld	s0,0(sp)
 2744              		.cfi_restore 8
 2745              		.cfi_def_cfa 2, 16
 2746 10b0 13010101 		addi	sp,sp,16
 2747              		.cfi_def_cfa_offset 0
 2748 10b4 67800000 		jr	ra
 2749              		.cfi_endproc
GAS LISTING /tmp/cchEysKF.s 			page 72


 2750              	.LFE37:
 2752              		.align	2
 2753              		.globl	_Z7myTestsv
 2755              	_Z7myTestsv:
 2756              	.LFB38:
 284:src/Tests.cpp ****     //memoryAllocationTests();
 2757              		.loc 2 284 1 is_stmt 1
 2758              		.cfi_startproc
 2759 10b8 130101FF 		addi	sp,sp,-16
 2760              		.cfi_def_cfa_offset 16
 2761 10bc 23341100 		sd	ra,8(sp)
 2762 10c0 23308100 		sd	s0,0(sp)
 2763              		.cfi_offset 1, -8
 2764              		.cfi_offset 8, -16
 2765 10c4 13040101 		addi	s0,sp,16
 2766              		.cfi_def_cfa 8, 0
 287:src/Tests.cpp **** }
 2767              		.loc 2 287 5
 287:src/Tests.cpp **** }
 2768              		.loc 2 287 19 is_stmt 0
 2769 10c8 97000000 		call	_Z14semaphoreTestsv
 2769      E7800000 
 2770              	.LVL314:
 288:src/Tests.cpp **** 
 2771              		.loc 2 288 1
 2772 10d0 83308100 		ld	ra,8(sp)
 2773              		.cfi_restore 1
 2774 10d4 03340100 		ld	s0,0(sp)
 2775              		.cfi_restore 8
 2776              		.cfi_def_cfa 2, 16
 2777 10d8 13010101 		addi	sp,sp,16
 2778              		.cfi_def_cfa_offset 0
 2779 10dc 67800000 		jr	ra
 2780              		.cfi_endproc
 2781              	.LFE38:
 2783              		.weak	_ZTV14PeriodicThread
 2784              		.section	.data.rel.ro.local._ZTV14PeriodicThread,"awG",@progbits,_ZTV14PeriodicThread,comdat
 2785              		.align	3
 2788              	_ZTV14PeriodicThread:
 2789 0000 00000000 		.dword	0
 2789      00000000 
 2790 0008 00000000 		.dword	0
 2790      00000000 
 2791 0010 00000000 		.dword	_ZN14PeriodicThreadD1Ev
 2791      00000000 
 2792 0018 00000000 		.dword	_ZN14PeriodicThreadD0Ev
 2792      00000000 
 2793 0020 00000000 		.dword	_ZN6Thread3runEv
 2793      00000000 
 2794 0028 00000000 		.dword	_ZN14PeriodicThread18periodicActivationEv
 2794      00000000 
 2795              		.weak	_ZTV12TestPeriodic
 2796              		.section	.data.rel.ro.local._ZTV12TestPeriodic,"awG",@progbits,_ZTV12TestPeriodic,comdat
 2797              		.align	3
 2800              	_ZTV12TestPeriodic:
 2801 0000 00000000 		.dword	0
 2801      00000000 
GAS LISTING /tmp/cchEysKF.s 			page 73


 2802 0008 00000000 		.dword	0
 2802      00000000 
 2803 0010 00000000 		.dword	_ZN12TestPeriodicD1Ev
 2803      00000000 
 2804 0018 00000000 		.dword	_ZN12TestPeriodicD0Ev
 2804      00000000 
 2805 0020 00000000 		.dword	_ZN6Thread3runEv
 2805      00000000 
 2806 0028 00000000 		.dword	_ZN12TestPeriodic18periodicActivationEv
 2806      00000000 
 2807              		.globl	string
 2808              		.globl	itemAvailable
 2809              		.globl	spaceAvailable
 2810              		.globl	tail
 2811              		.globl	head
 2812              		.globl	buffer
 2813              		.data
 2814              		.align	3
 2815              		.set	.LANCHOR1,. + 0
 2818              	string:
 2819 0000 74686973 		.string	"this is ni"
 2819      20697320 
 2819      6E6900
 2820              		.bss
 2821              		.align	3
 2822              		.set	.LANCHOR0,. + 0
 2825              	head:
 2826 0000 00000000 		.zero	4
 2827 0004 00000000 		.zero	4
 2830              	itemAvailable:
 2831 0008 00000000 		.zero	8
 2831      00000000 
 2834              	buffer:
 2835 0010 00000000 		.zero	10
 2835      00000000 
 2835      0000
 2836 001a 00000000 		.zero	6
 2836      0000
 2839              	spaceAvailable:
 2840 0020 00000000 		.zero	8
 2840      00000000 
 2843              	tail:
 2844 0028 00000000 		.zero	4
 2845              		.text
 2846              	.Letext0:
 2847              		.file 4 "src/../h/../lib/hw.h"
 2848              		.file 5 "src/../h/Riscv.hpp"
 2849              		.file 6 "src/../h/PCB.hpp"
 2850              		.file 7 "src/../h/syscall_c.h"
 2851              		.file 8 "src/../lib/console.h"
 10077              		.align	3
 10080              	DW.ref.__gxx_personality_v0:
 10081 0000 00000000 		.dword	__gxx_personality_v0
 10081      00000000 
 10082              		.ident	"GCC: (Ubuntu 9.3.0-17ubuntu1~20.04) 9.3.0"
 10083              		.section	.note.GNU-stack,"",@progbits
GAS LISTING /tmp/cchEysKF.s 			page 74


DEFINED SYMBOLS
                            *ABS*:0000000000000000 Tests.cpp
     /tmp/cchEysKF.s:10     .text._ZN6Thread3runEv:0000000000000000 _ZN6Thread3runEv
     /tmp/cchEysKF.s:14     .text._ZN6Thread3runEv:0000000000000000 .L0 
     /tmp/cchEysKF.s:16     .text._ZN6Thread3runEv:0000000000000000 .L0 
     /tmp/cchEysKF.s:17     .text._ZN6Thread3runEv:0000000000000004 .L0 
     /tmp/cchEysKF.s:19     .text._ZN6Thread3runEv:0000000000000008 .L0 
     /tmp/cchEysKF.s:21     .text._ZN6Thread3runEv:000000000000000c .L0 
     /tmp/cchEysKF.s:23     .text._ZN6Thread3runEv:000000000000000c .L0 
     /tmp/cchEysKF.s:24     .text._ZN6Thread3runEv:0000000000000010 .L0 
     /tmp/cchEysKF.s:25     .text._ZN6Thread3runEv:0000000000000010 .L0 
     /tmp/cchEysKF.s:27     .text._ZN6Thread3runEv:0000000000000014 .L0 
     /tmp/cchEysKF.s:29     .text._ZN6Thread3runEv:0000000000000018 .L0 
     /tmp/cchEysKF.s:36     .text._ZN14PeriodicThread18periodicActivationEv:0000000000000000 _ZN14PeriodicThread18periodicActivationEv
     /tmp/cchEysKF.s:39     .text._ZN14PeriodicThread18periodicActivationEv:0000000000000000 .L0 
     /tmp/cchEysKF.s:41     .text._ZN14PeriodicThread18periodicActivationEv:0000000000000000 .L0 
     /tmp/cchEysKF.s:42     .text._ZN14PeriodicThread18periodicActivationEv:0000000000000004 .L0 
     /tmp/cchEysKF.s:44     .text._ZN14PeriodicThread18periodicActivationEv:0000000000000008 .L0 
     /tmp/cchEysKF.s:46     .text._ZN14PeriodicThread18periodicActivationEv:000000000000000c .L0 
     /tmp/cchEysKF.s:48     .text._ZN14PeriodicThread18periodicActivationEv:000000000000000c .L0 
     /tmp/cchEysKF.s:49     .text._ZN14PeriodicThread18periodicActivationEv:0000000000000010 .L0 
     /tmp/cchEysKF.s:50     .text._ZN14PeriodicThread18periodicActivationEv:0000000000000010 .L0 
     /tmp/cchEysKF.s:52     .text._ZN14PeriodicThread18periodicActivationEv:0000000000000014 .L0 
     /tmp/cchEysKF.s:54     .text._ZN14PeriodicThread18periodicActivationEv:0000000000000018 .L0 
     /tmp/cchEysKF.s:65     .text:0000000000000000 _Z4idlePv
     /tmp/cchEysKF.s:69     .text:0000000000000000 .L0 
     /tmp/cchEysKF.s:71     .text:0000000000000000 .L0 
     /tmp/cchEysKF.s:72     .text:0000000000000004 .L0 
     /tmp/cchEysKF.s:75     .text:000000000000000c .L0 
     /tmp/cchEysKF.s:76     .text:000000000000000c .L0 
     /tmp/cchEysKF.s:78     .text:0000000000000010 .L0 
     /tmp/cchEysKF.s:82     .text:0000000000000010 .L0 
     /tmp/cchEysKF.s:83     .text:0000000000000010 .L0 
     /tmp/cchEysKF.s:84     .text:0000000000000010 .L0 
     /tmp/cchEysKF.s:88     .text:0000000000000020 .L0 
     /tmp/cchEysKF.s:89     .text:0000000000000020 .L0 
     /tmp/cchEysKF.s:92     .text:0000000000000028 .L0 
     /tmp/cchEysKF.s:93     .text:000000000000002c .L0 
     /tmp/cchEysKF.s:110    .text:000000000000002c _Z15thread1FunctionPv
     /tmp/cchEysKF.s:113    .text:000000000000002c .L0 
     /tmp/cchEysKF.s:115    .text:000000000000002c .L0 
     /tmp/cchEysKF.s:116    .text:0000000000000030 .L0 
     /tmp/cchEysKF.s:120    .text:000000000000003c .L0 
     /tmp/cchEysKF.s:121    .text:000000000000003c .L0 
     /tmp/cchEysKF.s:122    .text:000000000000003c .L0 
     /tmp/cchEysKF.s:124    .text:0000000000000040 .L0 
     /tmp/cchEysKF.s:126    .text:0000000000000040 .L0 
     /tmp/cchEysKF.s:127    .text:0000000000000040 .L0 
     /tmp/cchEysKF.s:132    .text:0000000000000050 .L0 
     /tmp/cchEysKF.s:134    .text:0000000000000050 .L0 
     /tmp/cchEysKF.s:135    .text:0000000000000050 .L0 
     /tmp/cchEysKF.s:140    .text:0000000000000058 .L0 
     /tmp/cchEysKF.s:141    .text:0000000000000058 .L0 
     /tmp/cchEysKF.s:145    .text:0000000000000060 .L0 
     /tmp/cchEysKF.s:146    .text:0000000000000060 .L0 
     /tmp/cchEysKF.s:150    .text:0000000000000070 .L0 
     /tmp/cchEysKF.s:151    .text:0000000000000070 .L0 
GAS LISTING /tmp/cchEysKF.s 			page 75


     /tmp/cchEysKF.s:155    .text:000000000000007c .L0 
     /tmp/cchEysKF.s:156    .text:000000000000007c .L0 
     /tmp/cchEysKF.s:160    .text:000000000000008c .L0 
     /tmp/cchEysKF.s:164    .text:0000000000000090 .L0 
     /tmp/cchEysKF.s:168    .text:000000000000009c .L0 
     /tmp/cchEysKF.s:169    .text:000000000000009c .L0 
     /tmp/cchEysKF.s:172    .text:00000000000000a4 .L0 
     /tmp/cchEysKF.s:174    .text:00000000000000a8 .L0 
     /tmp/cchEysKF.s:179    .text:00000000000000b0 .L0 
     /tmp/cchEysKF.s:180    .text:00000000000000b4 .L0 
     /tmp/cchEysKF.s:182    .text:00000000000000b8 .L0 
     /tmp/cchEysKF.s:183    .text:00000000000000b8 .L0 
     /tmp/cchEysKF.s:185    .text:00000000000000bc .L0 
     /tmp/cchEysKF.s:188    .text:00000000000000c0 .L0 
     /tmp/cchEysKF.s:190    .text:00000000000000c4 .L0 
     /tmp/cchEysKF.s:204    .text:00000000000000c4 _Z15thread2FunctionPv
     /tmp/cchEysKF.s:207    .text:00000000000000c4 .L0 
     /tmp/cchEysKF.s:209    .text:00000000000000c4 .L0 
     /tmp/cchEysKF.s:210    .text:00000000000000c8 .L0 
     /tmp/cchEysKF.s:214    .text:00000000000000d4 .L0 
     /tmp/cchEysKF.s:215    .text:00000000000000d4 .L0 
     /tmp/cchEysKF.s:216    .text:00000000000000d4 .L0 
     /tmp/cchEysKF.s:218    .text:00000000000000d8 .L0 
     /tmp/cchEysKF.s:220    .text:00000000000000d8 .L0 
     /tmp/cchEysKF.s:221    .text:00000000000000d8 .L0 
     /tmp/cchEysKF.s:226    .text:00000000000000e8 .L0 
     /tmp/cchEysKF.s:228    .text:00000000000000e8 .L0 
     /tmp/cchEysKF.s:229    .text:00000000000000e8 .L0 
     /tmp/cchEysKF.s:234    .text:00000000000000f0 .L0 
     /tmp/cchEysKF.s:235    .text:00000000000000f0 .L0 
     /tmp/cchEysKF.s:239    .text:00000000000000f8 .L0 
     /tmp/cchEysKF.s:240    .text:00000000000000f8 .L0 
     /tmp/cchEysKF.s:244    .text:0000000000000108 .L0 
     /tmp/cchEysKF.s:245    .text:0000000000000108 .L0 
     /tmp/cchEysKF.s:249    .text:0000000000000114 .L0 
     /tmp/cchEysKF.s:250    .text:0000000000000114 .L0 
     /tmp/cchEysKF.s:254    .text:0000000000000124 .L0 
     /tmp/cchEysKF.s:258    .text:0000000000000128 .L0 
     /tmp/cchEysKF.s:262    .text:0000000000000134 .L0 
     /tmp/cchEysKF.s:263    .text:0000000000000134 .L0 
     /tmp/cchEysKF.s:266    .text:000000000000013c .L0 
     /tmp/cchEysKF.s:268    .text:0000000000000140 .L0 
     /tmp/cchEysKF.s:273    .text:0000000000000148 .L0 
     /tmp/cchEysKF.s:274    .text:000000000000014c .L0 
     /tmp/cchEysKF.s:276    .text:0000000000000150 .L0 
     /tmp/cchEysKF.s:277    .text:0000000000000150 .L0 
     /tmp/cchEysKF.s:279    .text:0000000000000154 .L0 
     /tmp/cchEysKF.s:282    .text:0000000000000158 .L0 
     /tmp/cchEysKF.s:284    .text:000000000000015c .L0 
     /tmp/cchEysKF.s:290    .text:000000000000015c _ZN12TestPeriodic18periodicActivationEv
     /tmp/cchEysKF.s:293    .text:000000000000015c .L0 
     /tmp/cchEysKF.s:295    .text:000000000000015c .L0 
     /tmp/cchEysKF.s:296    .text:0000000000000160 .L0 
     /tmp/cchEysKF.s:300    .text:000000000000016c .L0 
     /tmp/cchEysKF.s:301    .text:000000000000016c .L0 
     /tmp/cchEysKF.s:302    .text:000000000000016c .L0 
     /tmp/cchEysKF.s:304    .text:0000000000000170 .L0 
GAS LISTING /tmp/cchEysKF.s 			page 76


     /tmp/cchEysKF.s:308    .text:0000000000000170 .L0 
     /tmp/cchEysKF.s:309    .text:0000000000000170 .L0 
     /tmp/cchEysKF.s:313    .text:0000000000000174 .L0 
     /tmp/cchEysKF.s:317    .text:0000000000000180 .L0 
     /tmp/cchEysKF.s:318    .text:0000000000000180 .L0 
     /tmp/cchEysKF.s:322    .text:0000000000000190 .L0 
     /tmp/cchEysKF.s:323    .text:0000000000000190 .L0 
     /tmp/cchEysKF.s:327    .text:000000000000019c .L0 
     /tmp/cchEysKF.s:334    .text:00000000000001a4 .L0 
     /tmp/cchEysKF.s:335    .text:00000000000001a8 .L0 
     /tmp/cchEysKF.s:337    .text:00000000000001ac .L0 
     /tmp/cchEysKF.s:338    .text:00000000000001ac .L0 
     /tmp/cchEysKF.s:340    .text:00000000000001b0 .L0 
     /tmp/cchEysKF.s:343    .text:00000000000001b4 .L0 
     /tmp/cchEysKF.s:345    .text:00000000000001b8 .L0 
     /tmp/cchEysKF.s:351    .text:00000000000001b8 _Z20thread2FunctionTest2Pv
     /tmp/cchEysKF.s:354    .text:00000000000001b8 .L0 
     /tmp/cchEysKF.s:356    .text:00000000000001b8 .L0 
     /tmp/cchEysKF.s:357    .text:00000000000001bc .L0 
     /tmp/cchEysKF.s:361    .text:00000000000001c8 .L0 
     /tmp/cchEysKF.s:362    .text:00000000000001c8 .L0 
     /tmp/cchEysKF.s:363    .text:00000000000001c8 .L0 
     /tmp/cchEysKF.s:365    .text:00000000000001cc .L0 
     /tmp/cchEysKF.s:367    .text:00000000000001cc .L0 
     /tmp/cchEysKF.s:368    .text:00000000000001cc .L0 
     /tmp/cchEysKF.s:373    .text:00000000000001dc .L0 
     /tmp/cchEysKF.s:375    .text:00000000000001dc .L0 
     /tmp/cchEysKF.s:376    .text:00000000000001dc .L0 
     /tmp/cchEysKF.s:381    .text:00000000000001e4 .L0 
     /tmp/cchEysKF.s:382    .text:00000000000001e4 .L0 
     /tmp/cchEysKF.s:387    .text:00000000000001f0 .L0 
     /tmp/cchEysKF.s:388    .text:00000000000001f0 .L0 
     /tmp/cchEysKF.s:392    .text:00000000000001f8 .L0 
     /tmp/cchEysKF.s:393    .text:00000000000001f8 .L0 
     /tmp/cchEysKF.s:397    .text:0000000000000208 .L0 
     /tmp/cchEysKF.s:398    .text:0000000000000208 .L0 
     /tmp/cchEysKF.s:402    .text:0000000000000214 .L0 
     /tmp/cchEysKF.s:403    .text:0000000000000214 .L0 
     /tmp/cchEysKF.s:407    .text:0000000000000224 .L0 
     /tmp/cchEysKF.s:411    .text:0000000000000228 .L0 
     /tmp/cchEysKF.s:415    .text:0000000000000234 .L0 
     /tmp/cchEysKF.s:419    .text:000000000000023c .L0 
     /tmp/cchEysKF.s:420    .text:000000000000023c .L0 
     /tmp/cchEysKF.s:423    .text:0000000000000244 .L0 
     /tmp/cchEysKF.s:425    .text:0000000000000248 .L0 
     /tmp/cchEysKF.s:430    .text:0000000000000250 .L0 
     /tmp/cchEysKF.s:431    .text:0000000000000254 .L0 
     /tmp/cchEysKF.s:433    .text:0000000000000258 .L0 
     /tmp/cchEysKF.s:434    .text:0000000000000258 .L0 
     /tmp/cchEysKF.s:436    .text:000000000000025c .L0 
     /tmp/cchEysKF.s:439    .text:0000000000000260 .L0 
     /tmp/cchEysKF.s:441    .text:0000000000000264 .L0 
     /tmp/cchEysKF.s:447    .text:0000000000000264 _Z9consumerAPv
     /tmp/cchEysKF.s:450    .text:0000000000000264 .L0 
     /tmp/cchEysKF.s:452    .text:0000000000000264 .L0 
     /tmp/cchEysKF.s:453    .text:0000000000000264 .L0 
     /tmp/cchEysKF.s:454    .text:0000000000000264 .L0 
GAS LISTING /tmp/cchEysKF.s 			page 77


     /tmp/cchEysKF.s:458    .text:0000000000000274 .L0 
     /tmp/cchEysKF.s:459    .text:0000000000000278 .L0 
     /tmp/cchEysKF.s:463    .text:0000000000000284 .L0 
     /tmp/cchEysKF.s:464    .text:0000000000000284 .L0 
     /tmp/cchEysKF.s:465    .text:0000000000000284 .L0 
     /tmp/cchEysKF.s:467    .text:0000000000000288 .L0 
     /tmp/cchEysKF.s:471    .text:0000000000000288 .L0 
     /tmp/cchEysKF.s:472    .text:0000000000000288 .L0 
     /tmp/cchEysKF.s:477    .text:000000000000029c .L0 
     /tmp/cchEysKF.s:478    .text:000000000000029c .L0 
     /tmp/cchEysKF.s:482    .text:00000000000002a8 .L0 
     /tmp/cchEysKF.s:487    .text:00000000000002b8 .L0 
     /tmp/cchEysKF.s:488    .text:00000000000002b8 .L0 
     /tmp/cchEysKF.s:492    .text:00000000000002c4 .L0 
     /tmp/cchEysKF.s:493    .text:00000000000002c4 .L0 
     /tmp/cchEysKF.s:497    .text:00000000000002d4 .L0 
     /tmp/cchEysKF.s:498    .text:00000000000002d8 .L0 
     /tmp/cchEysKF.s:500    .text:00000000000002dc .L0 
     /tmp/cchEysKF.s:501    .text:00000000000002dc .L0 
     /tmp/cchEysKF.s:503    .text:00000000000002e0 .L0 
     /tmp/cchEysKF.s:505    .text:00000000000002e4 .L0 
     /tmp/cchEysKF.s:510    .text:00000000000002ec .L0 
     /tmp/cchEysKF.s:516    .text:00000000000002ec _Z9producerAPv
     /tmp/cchEysKF.s:519    .text:00000000000002ec .L0 
     /tmp/cchEysKF.s:521    .text:00000000000002ec .L0 
     /tmp/cchEysKF.s:522    .text:00000000000002ec .L0 
     /tmp/cchEysKF.s:523    .text:00000000000002ec .L0 
     /tmp/cchEysKF.s:527    .text:00000000000002fc .L0 
     /tmp/cchEysKF.s:528    .text:0000000000000300 .L0 
     /tmp/cchEysKF.s:532    .text:000000000000030c .L0 
     /tmp/cchEysKF.s:533    .text:000000000000030c .L0 
     /tmp/cchEysKF.s:534    .text:000000000000030c .L0 
     /tmp/cchEysKF.s:536    .text:0000000000000310 .L0 
     /tmp/cchEysKF.s:540    .text:0000000000000310 .L0 
     /tmp/cchEysKF.s:541    .text:0000000000000310 .L0 
     /tmp/cchEysKF.s:546    .text:0000000000000324 .L0 
     /tmp/cchEysKF.s:547    .text:0000000000000324 .L0 
     /tmp/cchEysKF.s:552    .text:0000000000000338 .L0 
     /tmp/cchEysKF.s:555    .text:0000000000000340 .L0 
     /tmp/cchEysKF.s:556    .text:0000000000000340 .L0 
     /tmp/cchEysKF.s:559    .text:0000000000000348 .L0 
     /tmp/cchEysKF.s:560    .text:0000000000000348 .L0 
     /tmp/cchEysKF.s:564    .text:0000000000000354 .L0 
     /tmp/cchEysKF.s:565    .text:0000000000000354 .L0 
     /tmp/cchEysKF.s:569    .text:0000000000000364 .L0 
     /tmp/cchEysKF.s:570    .text:0000000000000368 .L0 
     /tmp/cchEysKF.s:572    .text:000000000000036c .L0 
     /tmp/cchEysKF.s:573    .text:000000000000036c .L0 
     /tmp/cchEysKF.s:575    .text:0000000000000370 .L0 
     /tmp/cchEysKF.s:577    .text:0000000000000374 .L0 
     /tmp/cchEysKF.s:582    .text:000000000000037c .L0 
     /tmp/cchEysKF.s:589    .text._ZN14PeriodicThreadD2Ev:0000000000000000 _ZN14PeriodicThreadD2Ev
     /tmp/cchEysKF.s:592    .text._ZN14PeriodicThreadD2Ev:0000000000000000 .L0 
     /tmp/cchEysKF.s:594    .text._ZN14PeriodicThreadD2Ev:0000000000000000 .L0 
     /tmp/cchEysKF.s:595    .text._ZN14PeriodicThreadD2Ev:0000000000000004 .L0 
     /tmp/cchEysKF.s:598    .text._ZN14PeriodicThreadD2Ev:000000000000000c .L0 
     /tmp/cchEysKF.s:599    .text._ZN14PeriodicThreadD2Ev:000000000000000c .L0 
GAS LISTING /tmp/cchEysKF.s 			page 78


     /tmp/cchEysKF.s:601    .text._ZN14PeriodicThreadD2Ev:0000000000000010 .L0 
     /tmp/cchEysKF.s:2788   .data.rel.ro.local._ZTV14PeriodicThread:0000000000000000 _ZTV14PeriodicThread
     /tmp/cchEysKF.s:604    .text._ZN14PeriodicThreadD2Ev:0000000000000010 .L0 
     /tmp/cchEysKF.s:610    .text._ZN14PeriodicThreadD2Ev:0000000000000028 .L0 
     /tmp/cchEysKF.s:612    .text._ZN14PeriodicThreadD2Ev:000000000000002c .L0 
     /tmp/cchEysKF.s:613    .text._ZN14PeriodicThreadD2Ev:000000000000002c .L0 
     /tmp/cchEysKF.s:615    .text._ZN14PeriodicThreadD2Ev:0000000000000030 .L0 
     /tmp/cchEysKF.s:617    .text._ZN14PeriodicThreadD2Ev:0000000000000034 .L0 
     /tmp/cchEysKF.s:589    .text._ZN14PeriodicThreadD2Ev:0000000000000000 _ZN14PeriodicThreadD1Ev
     /tmp/cchEysKF.s:626    .text._ZN14PeriodicThreadD0Ev:0000000000000000 _ZN14PeriodicThreadD0Ev
     /tmp/cchEysKF.s:629    .text._ZN14PeriodicThreadD0Ev:0000000000000000 .L0 
     /tmp/cchEysKF.s:631    .text._ZN14PeriodicThreadD0Ev:0000000000000000 .L0 
     /tmp/cchEysKF.s:632    .text._ZN14PeriodicThreadD0Ev:0000000000000004 .L0 
     /tmp/cchEysKF.s:636    .text._ZN14PeriodicThreadD0Ev:0000000000000010 .L0 
     /tmp/cchEysKF.s:637    .text._ZN14PeriodicThreadD0Ev:0000000000000010 .L0 
     /tmp/cchEysKF.s:638    .text._ZN14PeriodicThreadD0Ev:0000000000000010 .L0 
     /tmp/cchEysKF.s:640    .text._ZN14PeriodicThreadD0Ev:0000000000000014 .L0 
     /tmp/cchEysKF.s:646    .text._ZN14PeriodicThreadD0Ev:0000000000000018 .L0 
     /tmp/cchEysKF.s:656    .text._ZN14PeriodicThreadD0Ev:000000000000003c .L0 
     /tmp/cchEysKF.s:658    .text._ZN14PeriodicThreadD0Ev:0000000000000040 .L0 
     /tmp/cchEysKF.s:659    .text._ZN14PeriodicThreadD0Ev:0000000000000040 .L0 
     /tmp/cchEysKF.s:661    .text._ZN14PeriodicThreadD0Ev:0000000000000044 .L0 
     /tmp/cchEysKF.s:664    .text._ZN14PeriodicThreadD0Ev:0000000000000048 .L0 
     /tmp/cchEysKF.s:666    .text._ZN14PeriodicThreadD0Ev:000000000000004c .L0 
     /tmp/cchEysKF.s:673    .text._ZN12TestPeriodicD2Ev:0000000000000000 _ZN12TestPeriodicD2Ev
     /tmp/cchEysKF.s:677    .text._ZN12TestPeriodicD2Ev:0000000000000000 .L0 
     /tmp/cchEysKF.s:679    .text._ZN12TestPeriodicD2Ev:0000000000000000 .L0 
     /tmp/cchEysKF.s:680    .text._ZN12TestPeriodicD2Ev:0000000000000004 .L0 
     /tmp/cchEysKF.s:683    .text._ZN12TestPeriodicD2Ev:000000000000000c .L0 
     /tmp/cchEysKF.s:684    .text._ZN12TestPeriodicD2Ev:000000000000000c .L0 
     /tmp/cchEysKF.s:686    .text._ZN12TestPeriodicD2Ev:0000000000000010 .L0 
     /tmp/cchEysKF.s:691    .text._ZN12TestPeriodicD2Ev:0000000000000010 .L0 
     /tmp/cchEysKF.s:698    .text._ZN12TestPeriodicD2Ev:0000000000000024 .L0 
     /tmp/cchEysKF.s:699    .text._ZN12TestPeriodicD2Ev:0000000000000028 .L0 
     /tmp/cchEysKF.s:701    .text._ZN12TestPeriodicD2Ev:000000000000002c .L0 
     /tmp/cchEysKF.s:702    .text._ZN12TestPeriodicD2Ev:000000000000002c .L0 
     /tmp/cchEysKF.s:704    .text._ZN12TestPeriodicD2Ev:0000000000000030 .L0 
     /tmp/cchEysKF.s:706    .text._ZN12TestPeriodicD2Ev:0000000000000034 .L0 
     /tmp/cchEysKF.s:673    .text._ZN12TestPeriodicD2Ev:0000000000000000 _ZN12TestPeriodicD1Ev
     /tmp/cchEysKF.s:715    .text._ZN12TestPeriodicD0Ev:0000000000000000 _ZN12TestPeriodicD0Ev
     /tmp/cchEysKF.s:718    .text._ZN12TestPeriodicD0Ev:0000000000000000 .L0 
     /tmp/cchEysKF.s:720    .text._ZN12TestPeriodicD0Ev:0000000000000000 .L0 
     /tmp/cchEysKF.s:721    .text._ZN12TestPeriodicD0Ev:0000000000000004 .L0 
     /tmp/cchEysKF.s:725    .text._ZN12TestPeriodicD0Ev:0000000000000010 .L0 
     /tmp/cchEysKF.s:726    .text._ZN12TestPeriodicD0Ev:0000000000000010 .L0 
     /tmp/cchEysKF.s:727    .text._ZN12TestPeriodicD0Ev:0000000000000010 .L0 
     /tmp/cchEysKF.s:729    .text._ZN12TestPeriodicD0Ev:0000000000000014 .L0 
     /tmp/cchEysKF.s:736    .text._ZN12TestPeriodicD0Ev:0000000000000018 .L0 
     /tmp/cchEysKF.s:744    .text._ZN12TestPeriodicD0Ev:000000000000002c .L0 
     /tmp/cchEysKF.s:748    .text._ZN12TestPeriodicD0Ev:000000000000003c .L0 
     /tmp/cchEysKF.s:750    .text._ZN12TestPeriodicD0Ev:0000000000000040 .L0 
     /tmp/cchEysKF.s:751    .text._ZN12TestPeriodicD0Ev:0000000000000040 .L0 
     /tmp/cchEysKF.s:753    .text._ZN12TestPeriodicD0Ev:0000000000000044 .L0 
     /tmp/cchEysKF.s:756    .text._ZN12TestPeriodicD0Ev:0000000000000048 .L0 
     /tmp/cchEysKF.s:758    .text._ZN12TestPeriodicD0Ev:000000000000004c .L0 
     /tmp/cchEysKF.s:769    .text:000000000000037c _Z11threadTest1v
     /tmp/cchEysKF.s:772    .text:000000000000037c .L0 
GAS LISTING /tmp/cchEysKF.s 			page 79


     /tmp/cchEysKF.s:10080  .data.rel.local.DW.ref.__gxx_personality_v0:0000000000000000 DW.ref.__gxx_personality_v0
     /tmp/cchEysKF.s:775    .text:000000000000037c .L0 
     /tmp/cchEysKF.s:776    .text:0000000000000380 .L0 
     /tmp/cchEysKF.s:781    .text:0000000000000390 .L0 
     /tmp/cchEysKF.s:782    .text:0000000000000390 .L0 
     /tmp/cchEysKF.s:783    .text:0000000000000390 .L0 
     /tmp/cchEysKF.s:784    .text:0000000000000390 .L0 
     /tmp/cchEysKF.s:786    .text:0000000000000394 .L0 
     /tmp/cchEysKF.s:788    .text:0000000000000394 .L0 
     /tmp/cchEysKF.s:789    .text:0000000000000394 .L0 
     /tmp/cchEysKF.s:802    .text:00000000000003b8 .L0 
     /tmp/cchEysKF.s:803    .text:00000000000003b8 .L0 
     /tmp/cchEysKF.s:808    .text:00000000000003c4 .L0 
     /tmp/cchEysKF.s:809    .text:00000000000003c4 .L0 
     /tmp/cchEysKF.s:822    .text:00000000000003e8 .L0 
     /tmp/cchEysKF.s:823    .text:00000000000003e8 .L0 
     /tmp/cchEysKF.s:828    .text:00000000000003f4 .L0 
     /tmp/cchEysKF.s:829    .text:00000000000003f4 .L0 
     /tmp/cchEysKF.s:832    .text:00000000000003fc .L0 
     /tmp/cchEysKF.s:833    .text:00000000000003fc .L0 
     /tmp/cchEysKF.s:837    .text:000000000000040c .L0 
     /tmp/cchEysKF.s:838    .text:000000000000040c .L0 
     /tmp/cchEysKF.s:842    .text:0000000000000414 .L0 
     /tmp/cchEysKF.s:843    .text:0000000000000418 .L0 
     /tmp/cchEysKF.s:844    .text:0000000000000418 .L0 
     /tmp/cchEysKF.s:846    .text:000000000000041c .L0 
     /tmp/cchEysKF.s:847    .text:000000000000041c .L0 
     /tmp/cchEysKF.s:849    .text:0000000000000420 .L0 
     /tmp/cchEysKF.s:852    .text:0000000000000424 .L0 
     /tmp/cchEysKF.s:854    .text:0000000000000428 .L0 
     /tmp/cchEysKF.s:857    .text:000000000000042c .L0 
     /tmp/cchEysKF.s:860    .text:0000000000000430 .L0 
     /tmp/cchEysKF.s:871    .text:000000000000044c .L0 
     /tmp/cchEysKF.s:879    .text:0000000000000464 .L0 
     /tmp/cchEysKF.s:921    .text:0000000000000464 _Z11threadTest2v
     /tmp/cchEysKF.s:924    .text:0000000000000464 .L0 
     /tmp/cchEysKF.s:927    .text:0000000000000464 .L0 
     /tmp/cchEysKF.s:928    .text:0000000000000468 .L0 
     /tmp/cchEysKF.s:933    .text:0000000000000478 .L0 
     /tmp/cchEysKF.s:934    .text:0000000000000478 .L0 
     /tmp/cchEysKF.s:935    .text:0000000000000478 .L0 
     /tmp/cchEysKF.s:936    .text:0000000000000478 .L0 
     /tmp/cchEysKF.s:938    .text:000000000000047c .L0 
     /tmp/cchEysKF.s:940    .text:000000000000047c .L0 
     /tmp/cchEysKF.s:941    .text:000000000000047c .L0 
     /tmp/cchEysKF.s:954    .text:00000000000004a0 .L0 
     /tmp/cchEysKF.s:955    .text:00000000000004a0 .L0 
     /tmp/cchEysKF.s:960    .text:00000000000004ac .L0 
     /tmp/cchEysKF.s:961    .text:00000000000004ac .L0 
     /tmp/cchEysKF.s:974    .text:00000000000004d0 .L0 
     /tmp/cchEysKF.s:975    .text:00000000000004d0 .L0 
     /tmp/cchEysKF.s:980    .text:00000000000004dc .L0 
     /tmp/cchEysKF.s:981    .text:00000000000004dc .L0 
     /tmp/cchEysKF.s:994    .text:0000000000000500 .L0 
     /tmp/cchEysKF.s:995    .text:0000000000000500 .L0 
     /tmp/cchEysKF.s:1000   .text:000000000000050c .L0 
     /tmp/cchEysKF.s:1001   .text:000000000000050c .L0 
GAS LISTING /tmp/cchEysKF.s 			page 80


     /tmp/cchEysKF.s:1004   .text:0000000000000514 .L0 
     /tmp/cchEysKF.s:1005   .text:0000000000000514 .L0 
     /tmp/cchEysKF.s:1009   .text:0000000000000524 .L0 
     /tmp/cchEysKF.s:1010   .text:0000000000000524 .L0 
     /tmp/cchEysKF.s:1014   .text:000000000000052c .L0 
     /tmp/cchEysKF.s:1015   .text:0000000000000530 .L0 
     /tmp/cchEysKF.s:1016   .text:0000000000000530 .L0 
     /tmp/cchEysKF.s:1018   .text:0000000000000534 .L0 
     /tmp/cchEysKF.s:1019   .text:0000000000000534 .L0 
     /tmp/cchEysKF.s:1021   .text:0000000000000538 .L0 
     /tmp/cchEysKF.s:1024   .text:000000000000053c .L0 
     /tmp/cchEysKF.s:1026   .text:0000000000000540 .L0 
     /tmp/cchEysKF.s:1029   .text:0000000000000544 .L0 
     /tmp/cchEysKF.s:1032   .text:0000000000000548 .L0 
     /tmp/cchEysKF.s:1043   .text:0000000000000564 .L0 
     /tmp/cchEysKF.s:1054   .text:0000000000000580 .L0 
     /tmp/cchEysKF.s:1062   .text:0000000000000598 .L0 
     /tmp/cchEysKF.s:1126   .text:0000000000000598 _Z10mallocFreev
     /tmp/cchEysKF.s:1129   .text:0000000000000598 .L0 
     /tmp/cchEysKF.s:1130   .text:0000000000000598 .L0 
     /tmp/cchEysKF.s:1131   .text:000000000000059c .L0 
     /tmp/cchEysKF.s:1135   .text:00000000000005a8 .L0 
     /tmp/cchEysKF.s:1136   .text:00000000000005a8 .L0 
     /tmp/cchEysKF.s:1137   .text:00000000000005a8 .L0 
     /tmp/cchEysKF.s:1139   .text:00000000000005ac .L0 
     /tmp/cchEysKF.s:1141   .text:00000000000005ac .L0 
     /tmp/cchEysKF.s:1142   .text:00000000000005ac .L0 
     /tmp/cchEysKF.s:1147   .text:00000000000005bc .L0 
     /tmp/cchEysKF.s:1152   .text:00000000000005c4 .L0 
     /tmp/cchEysKF.s:1156   .text:00000000000005c8 .L0 
     /tmp/cchEysKF.s:1159   .text:00000000000005d0 .L0 
     /tmp/cchEysKF.s:1160   .text:00000000000005d0 .L0 
     /tmp/cchEysKF.s:1164   .text:00000000000005dc .L0 
     /tmp/cchEysKF.s:1169   .text:00000000000005ec .L0 
     /tmp/cchEysKF.s:1171   .text:00000000000005f0 .L0 
     /tmp/cchEysKF.s:1172   .text:00000000000005f0 .L0 
     /tmp/cchEysKF.s:1178   .text:0000000000000600 .L0 
     /tmp/cchEysKF.s:1179   .text:0000000000000600 .L0 
     /tmp/cchEysKF.s:1180   .text:0000000000000604 .L0 
     /tmp/cchEysKF.s:1181   .text:0000000000000604 .L0 
     /tmp/cchEysKF.s:1183   .text:0000000000000608 .L0 
     /tmp/cchEysKF.s:1184   .text:0000000000000608 .L0 
     /tmp/cchEysKF.s:1186   .text:000000000000060c .L0 
     /tmp/cchEysKF.s:1188   .text:0000000000000610 .L0 
     /tmp/cchEysKF.s:1192   .text:0000000000000614 .L0 
     /tmp/cchEysKF.s:1195   .text:0000000000000614 .L0 
     /tmp/cchEysKF.s:1199   .text:0000000000000618 .L0 
     /tmp/cchEysKF.s:1203   .text:0000000000000620 .L0 
     /tmp/cchEysKF.s:1204   .text:0000000000000620 .L0 
     /tmp/cchEysKF.s:1211   .text:0000000000000638 .L0 
     /tmp/cchEysKF.s:1214   .text:000000000000063c .L0 
     /tmp/cchEysKF.s:1215   .text:000000000000063c .L0 
     /tmp/cchEysKF.s:1218   .text:0000000000000640 .L0 
     /tmp/cchEysKF.s:1223   .text:0000000000000644 .L0 
     /tmp/cchEysKF.s:1224   .text:0000000000000644 .L0 
     /tmp/cchEysKF.s:1229   .text:0000000000000654 .L0 
     /tmp/cchEysKF.s:1235   .text:0000000000000658 .L0 
GAS LISTING /tmp/cchEysKF.s 			page 81


     /tmp/cchEysKF.s:1241   .text:0000000000000660 .L0 
     /tmp/cchEysKF.s:1242   .text:0000000000000660 .L0 
     /tmp/cchEysKF.s:1246   .text:0000000000000664 .L0 
     /tmp/cchEysKF.s:1249   .text:000000000000066c .L0 
     /tmp/cchEysKF.s:1250   .text:000000000000066c .L0 
     /tmp/cchEysKF.s:1254   .text:0000000000000678 .L0 
     /tmp/cchEysKF.s:1259   .text:0000000000000688 .L0 
     /tmp/cchEysKF.s:1261   .text:000000000000068c .L0 
     /tmp/cchEysKF.s:1262   .text:000000000000068c .L0 
     /tmp/cchEysKF.s:1266   .text:000000000000069c .L0 
     /tmp/cchEysKF.s:1271   .text:00000000000006a0 .L0 
     /tmp/cchEysKF.s:1275   .text:00000000000006a4 .L0 
     /tmp/cchEysKF.s:1279   .text:00000000000006ac .L0 
     /tmp/cchEysKF.s:1280   .text:00000000000006ac .L0 
     /tmp/cchEysKF.s:1287   .text:00000000000006c4 .L0 
     /tmp/cchEysKF.s:1290   .text:00000000000006c8 .L0 
     /tmp/cchEysKF.s:1297   .text:00000000000006d0 .L0 
     /tmp/cchEysKF.s:1298   .text:00000000000006d0 .L0 
     /tmp/cchEysKF.s:1303   .text:00000000000006e0 .L0 
     /tmp/cchEysKF.s:1308   .text:00000000000006e4 .L0 
     /tmp/cchEysKF.s:1309   .text:00000000000006e4 .L0 
     /tmp/cchEysKF.s:1313   .text:00000000000006f8 .L0 
     /tmp/cchEysKF.s:1324   .text:00000000000006f8 _Z9bigMallocv
     /tmp/cchEysKF.s:1327   .text:00000000000006f8 .L0 
     /tmp/cchEysKF.s:1328   .text:00000000000006f8 .L0 
     /tmp/cchEysKF.s:1329   .text:00000000000006fc .L0 
     /tmp/cchEysKF.s:1332   .text:0000000000000704 .L0 
     /tmp/cchEysKF.s:1333   .text:0000000000000704 .L0 
     /tmp/cchEysKF.s:1335   .text:0000000000000708 .L0 
     /tmp/cchEysKF.s:1337   .text:0000000000000708 .L0 
     /tmp/cchEysKF.s:1338   .text:0000000000000708 .L0 
     /tmp/cchEysKF.s:1342   .text:0000000000000718 .L0 
     /tmp/cchEysKF.s:1343   .text:0000000000000718 .L0 
     /tmp/cchEysKF.s:1350   .text:0000000000000734 .L0 
     /tmp/cchEysKF.s:1351   .text:0000000000000734 .L0 
     /tmp/cchEysKF.s:1356   .text:0000000000000740 .L0 
     /tmp/cchEysKF.s:1358   .text:0000000000000744 .L0 
     /tmp/cchEysKF.s:1359   .text:0000000000000744 .L0 
     /tmp/cchEysKF.s:1365   .text:0000000000000754 .L0 
     /tmp/cchEysKF.s:1366   .text:0000000000000758 .L0 
     /tmp/cchEysKF.s:1367   .text:0000000000000758 .L0 
     /tmp/cchEysKF.s:1369   .text:000000000000075c .L0 
     /tmp/cchEysKF.s:1370   .text:000000000000075c .L0 
     /tmp/cchEysKF.s:1372   .text:0000000000000760 .L0 
     /tmp/cchEysKF.s:1376   .text:0000000000000764 .L0 
     /tmp/cchEysKF.s:1378   .text:0000000000000764 .L0 
     /tmp/cchEysKF.s:1379   .text:0000000000000764 .L0 
     /tmp/cchEysKF.s:1384   .text:0000000000000778 .L0 
     /tmp/cchEysKF.s:1395   .text:0000000000000778 _Z17lotOfSmallMallocsv
     /tmp/cchEysKF.s:1398   .text:0000000000000778 .L0 
     /tmp/cchEysKF.s:1399   .text:0000000000000778 .L0 
     /tmp/cchEysKF.s:1400   .text:000000000000077c .L0 
     /tmp/cchEysKF.s:1406   .text:0000000000000790 .L0 
     /tmp/cchEysKF.s:1407   .text:0000000000000790 .L0 
     /tmp/cchEysKF.s:1408   .text:0000000000000790 .L0 
     /tmp/cchEysKF.s:1409   .text:0000000000000790 .L0 
     /tmp/cchEysKF.s:1410   .text:0000000000000790 .L0 
GAS LISTING /tmp/cchEysKF.s 			page 82


     /tmp/cchEysKF.s:1412   .text:0000000000000794 .L0 
     /tmp/cchEysKF.s:1414   .text:0000000000000794 .L0 
     /tmp/cchEysKF.s:1415   .text:0000000000000794 .L0 
     /tmp/cchEysKF.s:1419   .text:00000000000007a4 .L0 
     /tmp/cchEysKF.s:1420   .text:00000000000007a4 .L0 
     /tmp/cchEysKF.s:1421   .text:00000000000007a4 .L0 
     /tmp/cchEysKF.s:1422   .text:00000000000007a4 .L0 
     /tmp/cchEysKF.s:1424   .text:00000000000007a4 .L0 
     /tmp/cchEysKF.s:1425   .text:00000000000007a4 .L0 
     /tmp/cchEysKF.s:1428   .text:00000000000007a8 .L0 
     /tmp/cchEysKF.s:1430   .text:00000000000007ac .L0 
     /tmp/cchEysKF.s:1437   .text:00000000000007b4 .L0 
     /tmp/cchEysKF.s:1438   .text:00000000000007b4 .L0 
     /tmp/cchEysKF.s:1441   .text:00000000000007bc .L0 
     /tmp/cchEysKF.s:1442   .text:00000000000007bc .L0 
     /tmp/cchEysKF.s:1445   .text:00000000000007c0 .L0 
     /tmp/cchEysKF.s:1446   .text:00000000000007c0 .L0 
     /tmp/cchEysKF.s:1450   .text:00000000000007c4 .L0 
     /tmp/cchEysKF.s:1454   .text:00000000000007c8 .L0 
     /tmp/cchEysKF.s:1459   .text:00000000000007d4 .L0 
     /tmp/cchEysKF.s:1460   .text:00000000000007d4 .L0 
     /tmp/cchEysKF.s:1464   .text:00000000000007e0 .L0 
     /tmp/cchEysKF.s:1470   .text:00000000000007e4 .L0 
     /tmp/cchEysKF.s:1471   .text:00000000000007e4 .L0 
     /tmp/cchEysKF.s:1475   .text:00000000000007f0 .L0 
     /tmp/cchEysKF.s:1476   .text:00000000000007f0 .L0 
     /tmp/cchEysKF.s:1480   .text:0000000000000800 .L0 
     /tmp/cchEysKF.s:1481   .text:0000000000000800 .L0 
     /tmp/cchEysKF.s:1486   .text:000000000000080c .L0 
     /tmp/cchEysKF.s:1488   .text:0000000000000810 .L0 
     /tmp/cchEysKF.s:1489   .text:0000000000000810 .L0 
     /tmp/cchEysKF.s:1494   .text:0000000000000820 .L0 
     /tmp/cchEysKF.s:1495   .text:0000000000000824 .L0 
     /tmp/cchEysKF.s:1496   .text:0000000000000824 .L0 
     /tmp/cchEysKF.s:1498   .text:0000000000000828 .L0 
     /tmp/cchEysKF.s:1499   .text:0000000000000828 .L0 
     /tmp/cchEysKF.s:1501   .text:000000000000082c .L0 
     /tmp/cchEysKF.s:1504   .text:0000000000000830 .L0 
     /tmp/cchEysKF.s:1506   .text:0000000000000834 .L0 
     /tmp/cchEysKF.s:1509   .text:0000000000000838 .L0 
     /tmp/cchEysKF.s:1513   .text:000000000000083c .L0 
     /tmp/cchEysKF.s:1515   .text:000000000000083c .L0 
     /tmp/cchEysKF.s:1516   .text:000000000000083c .L0 
     /tmp/cchEysKF.s:1520   .text:0000000000000850 .L0 
     /tmp/cchEysKF.s:1531   .text:0000000000000850 _Z7badFreev
     /tmp/cchEysKF.s:1534   .text:0000000000000850 .L0 
     /tmp/cchEysKF.s:1535   .text:0000000000000850 .L0 
     /tmp/cchEysKF.s:1536   .text:0000000000000854 .L0 
     /tmp/cchEysKF.s:1539   .text:000000000000085c .L0 
     /tmp/cchEysKF.s:1540   .text:000000000000085c .L0 
     /tmp/cchEysKF.s:1542   .text:0000000000000860 .L0 
     /tmp/cchEysKF.s:1544   .text:0000000000000860 .L0 
     /tmp/cchEysKF.s:1545   .text:0000000000000860 .L0 
     /tmp/cchEysKF.s:1549   .text:0000000000000870 .L0 
     /tmp/cchEysKF.s:1550   .text:0000000000000870 .L0 
     /tmp/cchEysKF.s:1554   .text:000000000000087c .L0 
     /tmp/cchEysKF.s:1555   .text:000000000000087c .L0 
GAS LISTING /tmp/cchEysKF.s 			page 83


     /tmp/cchEysKF.s:1560   .text:0000000000000888 .L0 
     /tmp/cchEysKF.s:1562   .text:000000000000088c .L0 
     /tmp/cchEysKF.s:1563   .text:000000000000088c .L0 
     /tmp/cchEysKF.s:1569   .text:000000000000089c .L0 
     /tmp/cchEysKF.s:1570   .text:00000000000008a0 .L0 
     /tmp/cchEysKF.s:1571   .text:00000000000008a0 .L0 
     /tmp/cchEysKF.s:1573   .text:00000000000008a4 .L0 
     /tmp/cchEysKF.s:1574   .text:00000000000008a4 .L0 
     /tmp/cchEysKF.s:1576   .text:00000000000008a8 .L0 
     /tmp/cchEysKF.s:1580   .text:00000000000008ac .L0 
     /tmp/cchEysKF.s:1582   .text:00000000000008ac .L0 
     /tmp/cchEysKF.s:1583   .text:00000000000008ac .L0 
     /tmp/cchEysKF.s:1588   .text:00000000000008bc .L0 
     /tmp/cchEysKF.s:1589   .text:00000000000008c0 .L0 
     /tmp/cchEysKF.s:1603   .text:00000000000008c0 _Z13stressTestingv
     /tmp/cchEysKF.s:1606   .text:00000000000008c0 .L0 
     /tmp/cchEysKF.s:1607   .text:00000000000008c0 .L0 
     /tmp/cchEysKF.s:1608   .text:00000000000008c4 .L0 
     /tmp/cchEysKF.s:1613   .text:00000000000008d4 .L0 
     /tmp/cchEysKF.s:1614   .text:00000000000008d4 .L0 
     /tmp/cchEysKF.s:1615   .text:00000000000008d4 .L0 
     /tmp/cchEysKF.s:1616   .text:00000000000008d4 .L0 
     /tmp/cchEysKF.s:1618   .text:00000000000008d8 .L0 
     /tmp/cchEysKF.s:1620   .text:00000000000008d8 .L0 
     /tmp/cchEysKF.s:1621   .text:00000000000008d8 .L0 
     /tmp/cchEysKF.s:1626   .text:00000000000008e8 .L0 
     /tmp/cchEysKF.s:1631   .text:00000000000008f0 .L0 
     /tmp/cchEysKF.s:1635   .text:00000000000008f4 .L0 
     /tmp/cchEysKF.s:1638   .text:00000000000008fc .L0 
     /tmp/cchEysKF.s:1639   .text:00000000000008fc .L0 
     /tmp/cchEysKF.s:1643   .text:0000000000000908 .L0 
     /tmp/cchEysKF.s:1648   .text:0000000000000918 .L0 
     /tmp/cchEysKF.s:1650   .text:000000000000091c .L0 
     /tmp/cchEysKF.s:1651   .text:000000000000091c .L0 
     /tmp/cchEysKF.s:1657   .text:000000000000092c .L0 
     /tmp/cchEysKF.s:1658   .text:000000000000092c .L0 
     /tmp/cchEysKF.s:1659   .text:0000000000000930 .L0 
     /tmp/cchEysKF.s:1660   .text:0000000000000930 .L0 
     /tmp/cchEysKF.s:1662   .text:0000000000000934 .L0 
     /tmp/cchEysKF.s:1663   .text:0000000000000934 .L0 
     /tmp/cchEysKF.s:1665   .text:0000000000000938 .L0 
     /tmp/cchEysKF.s:1667   .text:000000000000093c .L0 
     /tmp/cchEysKF.s:1669   .text:0000000000000940 .L0 
     /tmp/cchEysKF.s:1673   .text:0000000000000944 .L0 
     /tmp/cchEysKF.s:1675   .text:0000000000000944 .L0 
     /tmp/cchEysKF.s:1679   .text:0000000000000948 .L0 
     /tmp/cchEysKF.s:1680   .text:0000000000000948 .L0 
     /tmp/cchEysKF.s:1684   .text:000000000000094c .L0 
     /tmp/cchEysKF.s:1688   .text:0000000000000950 .L0 
     /tmp/cchEysKF.s:1692   .text:0000000000000958 .L0 
     /tmp/cchEysKF.s:1693   .text:0000000000000958 .L0 
     /tmp/cchEysKF.s:1700   .text:0000000000000970 .L0 
     /tmp/cchEysKF.s:1702   .text:0000000000000974 .L0 
     /tmp/cchEysKF.s:1703   .text:0000000000000974 .L0 
     /tmp/cchEysKF.s:1707   .text:000000000000097c .L0 
     /tmp/cchEysKF.s:1711   .text:0000000000000988 .L0 
     /tmp/cchEysKF.s:1716   .text:0000000000000998 .L0 
GAS LISTING /tmp/cchEysKF.s 			page 84


     /tmp/cchEysKF.s:1719   .text:000000000000099c .L0 
     /tmp/cchEysKF.s:1720   .text:000000000000099c .L0 
     /tmp/cchEysKF.s:1723   .text:00000000000009a0 .L0 
     /tmp/cchEysKF.s:1728   .text:00000000000009a4 .L0 
     /tmp/cchEysKF.s:1729   .text:00000000000009a4 .L0 
     /tmp/cchEysKF.s:1734   .text:00000000000009b4 .L0 
     /tmp/cchEysKF.s:1737   .text:00000000000009b8 .L0 
     /tmp/cchEysKF.s:1738   .text:00000000000009b8 .L0 
     /tmp/cchEysKF.s:1742   .text:00000000000009c8 .L0 
     /tmp/cchEysKF.s:1748   .text:00000000000009cc .L0 
     /tmp/cchEysKF.s:1752   .text:00000000000009d0 .L0 
     /tmp/cchEysKF.s:1756   .text:00000000000009d8 .L0 
     /tmp/cchEysKF.s:1757   .text:00000000000009d8 .L0 
     /tmp/cchEysKF.s:1764   .text:00000000000009f0 .L0 
     /tmp/cchEysKF.s:1766   .text:00000000000009f4 .L0 
     /tmp/cchEysKF.s:1767   .text:00000000000009f4 .L0 
     /tmp/cchEysKF.s:1772   .text:0000000000000a00 .L0 
     /tmp/cchEysKF.s:1777   .text:0000000000000a10 .L0 
     /tmp/cchEysKF.s:1780   .text:0000000000000a14 .L0 
     /tmp/cchEysKF.s:1781   .text:0000000000000a14 .L0 
     /tmp/cchEysKF.s:1784   .text:0000000000000a18 .L0 
     /tmp/cchEysKF.s:1789   .text:0000000000000a1c .L0 
     /tmp/cchEysKF.s:1790   .text:0000000000000a1c .L0 
     /tmp/cchEysKF.s:1795   .text:0000000000000a2c .L0 
     /tmp/cchEysKF.s:1798   .text:0000000000000a30 .L0 
     /tmp/cchEysKF.s:1799   .text:0000000000000a30 .L0 
     /tmp/cchEysKF.s:1803   .text:0000000000000a40 .L0 
     /tmp/cchEysKF.s:1808   .text:0000000000000a44 .L0 
     /tmp/cchEysKF.s:1809   .text:0000000000000a44 .L0 
     /tmp/cchEysKF.s:1813   .text:0000000000000a48 .L0 
     /tmp/cchEysKF.s:1817   .text:0000000000000a4c .L0 
     /tmp/cchEysKF.s:1818   .text:0000000000000a4c .L0 
     /tmp/cchEysKF.s:1822   .text:0000000000000a60 .L0 
     /tmp/cchEysKF.s:1828   .text:0000000000000a60 _ZN12TestPeriodicC2Em
     /tmp/cchEysKF.s:1831   .text:0000000000000a60 .L0 
     /tmp/cchEysKF.s:1833   .text:0000000000000a60 .L0 
     /tmp/cchEysKF.s:1834   .text:0000000000000a64 .L0 
     /tmp/cchEysKF.s:1838   .text:0000000000000a70 .L0 
     /tmp/cchEysKF.s:1839   .text:0000000000000a70 .L0 
     /tmp/cchEysKF.s:1840   .text:0000000000000a70 .L0 
     /tmp/cchEysKF.s:1842   .text:0000000000000a74 .L0 
     /tmp/cchEysKF.s:1846   .text:0000000000000a78 .L0 
     /tmp/cchEysKF.s:2800   .data.rel.ro.local._ZTV12TestPeriodic:0000000000000000 _ZTV12TestPeriodic
     /tmp/cchEysKF.s:1852   .text:0000000000000a8c .L0 
     /tmp/cchEysKF.s:1853   .text:0000000000000a90 .L0 
     /tmp/cchEysKF.s:1855   .text:0000000000000a94 .L0 
     /tmp/cchEysKF.s:1856   .text:0000000000000a94 .L0 
     /tmp/cchEysKF.s:1858   .text:0000000000000a98 .L0 
     /tmp/cchEysKF.s:1861   .text:0000000000000a9c .L0 
     /tmp/cchEysKF.s:1863   .text:0000000000000aa0 .L0 
     /tmp/cchEysKF.s:1828   .text:0000000000000a60 _ZN12TestPeriodicC1Em
     /tmp/cchEysKF.s:1871   .text:0000000000000aa0 _Z11threadTest3v
     /tmp/cchEysKF.s:1874   .text:0000000000000aa0 .L0 
     /tmp/cchEysKF.s:1877   .text:0000000000000aa0 .L0 
     /tmp/cchEysKF.s:1878   .text:0000000000000aa4 .L0 
     /tmp/cchEysKF.s:1883   .text:0000000000000ab4 .L0 
     /tmp/cchEysKF.s:1884   .text:0000000000000ab4 .L0 
GAS LISTING /tmp/cchEysKF.s 			page 85


     /tmp/cchEysKF.s:1885   .text:0000000000000ab4 .L0 
     /tmp/cchEysKF.s:1886   .text:0000000000000ab4 .L0 
     /tmp/cchEysKF.s:1888   .text:0000000000000ab8 .L0 
     /tmp/cchEysKF.s:1890   .text:0000000000000ab8 .L0 
     /tmp/cchEysKF.s:1891   .text:0000000000000ab8 .L0 
     /tmp/cchEysKF.s:1903   .text:0000000000000ad4 .L0 
     /tmp/cchEysKF.s:1904   .text:0000000000000ad4 .L0 
     /tmp/cchEysKF.s:1911   .text:0000000000000ae0 .L0 
     /tmp/cchEysKF.s:1912   .text:0000000000000ae0 .L0 
     /tmp/cchEysKF.s:1917   .text:0000000000000ae8 .L0 
     /tmp/cchEysKF.s:1925   .text:0000000000000b00 .L0 
     /tmp/cchEysKF.s:1954   .text:0000000000000b00 _Z11threadTestsv
     /tmp/cchEysKF.s:1957   .text:0000000000000b00 .L0 
     /tmp/cchEysKF.s:1958   .text:0000000000000b00 .L0 
     /tmp/cchEysKF.s:1959   .text:0000000000000b04 .L0 
     /tmp/cchEysKF.s:1962   .text:0000000000000b0c .L0 
     /tmp/cchEysKF.s:1963   .text:0000000000000b0c .L0 
     /tmp/cchEysKF.s:1965   .text:0000000000000b10 .L0 
     /tmp/cchEysKF.s:1967   .text:0000000000000b10 .L0 
     /tmp/cchEysKF.s:1968   .text:0000000000000b10 .L0 
     /tmp/cchEysKF.s:1970   .text:0000000000000b18 .L0 
     /tmp/cchEysKF.s:1984   .text:0000000000000b18 _Z10mallocTestv
     /tmp/cchEysKF.s:1987   .text:0000000000000b18 .L0 
     /tmp/cchEysKF.s:1988   .text:0000000000000b18 .L0 
     /tmp/cchEysKF.s:1989   .text:0000000000000b1c .L0 
     /tmp/cchEysKF.s:1998   .text:0000000000000b3c .L0 
     /tmp/cchEysKF.s:1999   .text:0000000000000b3c .L0 
     /tmp/cchEysKF.s:2000   .text:0000000000000b3c .L0 
     /tmp/cchEysKF.s:2001   .text:0000000000000b3c .L0 
     /tmp/cchEysKF.s:2002   .text:0000000000000b3c .L0 
     /tmp/cchEysKF.s:2003   .text:0000000000000b3c .L0 
     /tmp/cchEysKF.s:2004   .text:0000000000000b3c .L0 
     /tmp/cchEysKF.s:2005   .text:0000000000000b3c .L0 
     /tmp/cchEysKF.s:2007   .text:0000000000000b40 .L0 
     /tmp/cchEysKF.s:2009   .text:0000000000000b40 .L0 
     /tmp/cchEysKF.s:2010   .text:0000000000000b40 .L0 
     /tmp/cchEysKF.s:2014   .text:0000000000000b50 .L0 
     /tmp/cchEysKF.s:2015   .text:0000000000000b50 .L0 
     /tmp/cchEysKF.s:2021   .text:0000000000000b60 .L0 
     /tmp/cchEysKF.s:2022   .text:0000000000000b60 .L0 
     /tmp/cchEysKF.s:2025   .text:0000000000000b68 .L0 
     /tmp/cchEysKF.s:2026   .text:0000000000000b68 .L0 
     /tmp/cchEysKF.s:2032   .text:0000000000000b78 .L0 
     /tmp/cchEysKF.s:2033   .text:0000000000000b78 .L0 
     /tmp/cchEysKF.s:2040   .text:0000000000000b88 .L0 
     /tmp/cchEysKF.s:2041   .text:0000000000000b88 .L0 
     /tmp/cchEysKF.s:2048   .text:0000000000000b98 .L0 
     /tmp/cchEysKF.s:2049   .text:0000000000000b98 .L0 
     /tmp/cchEysKF.s:2057   .text:0000000000000bac .L0 
     /tmp/cchEysKF.s:2058   .text:0000000000000bac .L0 
     /tmp/cchEysKF.s:2063   .text:0000000000000bb8 .L0 
     /tmp/cchEysKF.s:2066   .text:0000000000000bc0 .L0 
     /tmp/cchEysKF.s:2068   .text:0000000000000bc4 .L0 
     /tmp/cchEysKF.s:2070   .text:0000000000000bc8 .L0 
     /tmp/cchEysKF.s:2072   .text:0000000000000bcc .L0 
     /tmp/cchEysKF.s:2074   .text:0000000000000bd0 .L0 
     /tmp/cchEysKF.s:2075   .text:0000000000000bd0 .L0 
GAS LISTING /tmp/cchEysKF.s 			page 86


     /tmp/cchEysKF.s:2080   .text:0000000000000bdc .L0 
     /tmp/cchEysKF.s:2081   .text:0000000000000bdc .L0 
     /tmp/cchEysKF.s:2085   .text:0000000000000be8 .L0 
     /tmp/cchEysKF.s:2086   .text:0000000000000be8 .L0 
     /tmp/cchEysKF.s:2090   .text:0000000000000bf4 .L0 
     /tmp/cchEysKF.s:2091   .text:0000000000000bf4 .L0 
     /tmp/cchEysKF.s:2095   .text:0000000000000c00 .L0 
     /tmp/cchEysKF.s:2096   .text:0000000000000c00 .L0 
     /tmp/cchEysKF.s:2100   .text:0000000000000c0c .L0 
     /tmp/cchEysKF.s:2101   .text:0000000000000c0c .L0 
     /tmp/cchEysKF.s:2103   .text:0000000000000c10 .L0 
     /tmp/cchEysKF.s:2108   .text:0000000000000c1c .L0 
     /tmp/cchEysKF.s:2109   .text:0000000000000c1c .L0 
     /tmp/cchEysKF.s:2116   .text:0000000000000c30 .L0 
     /tmp/cchEysKF.s:2117   .text:0000000000000c30 .L0 
     /tmp/cchEysKF.s:2123   .text:0000000000000c40 .L0 
     /tmp/cchEysKF.s:2124   .text:0000000000000c40 .L0 
     /tmp/cchEysKF.s:2125   .text:0000000000000c44 .L0 
     /tmp/cchEysKF.s:2127   .text:0000000000000c48 .L0 
     /tmp/cchEysKF.s:2128   .text:0000000000000c48 .L0 
     /tmp/cchEysKF.s:2130   .text:0000000000000c4c .L0 
     /tmp/cchEysKF.s:2133   .text:0000000000000c50 .L0 
     /tmp/cchEysKF.s:2136   .text:0000000000000c54 .L0 
     /tmp/cchEysKF.s:2139   .text:0000000000000c58 .L0 
     /tmp/cchEysKF.s:2142   .text:0000000000000c5c .L0 
     /tmp/cchEysKF.s:2145   .text:0000000000000c60 .L0 
     /tmp/cchEysKF.s:2147   .text:0000000000000c64 .L0 
     /tmp/cchEysKF.s:2149   .text:0000000000000c68 .L0 
     /tmp/cchEysKF.s:2163   .text:0000000000000c68 _Z16mallocEverythingv
     /tmp/cchEysKF.s:2166   .text:0000000000000c68 .L0 
     /tmp/cchEysKF.s:2167   .text:0000000000000c68 .L0 
     /tmp/cchEysKF.s:2168   .text:0000000000000c6c .L0 
     /tmp/cchEysKF.s:2172   .text:0000000000000c78 .L0 
     /tmp/cchEysKF.s:2173   .text:0000000000000c78 .L0 
     /tmp/cchEysKF.s:2174   .text:0000000000000c78 .L0 
     /tmp/cchEysKF.s:2176   .text:0000000000000c7c .L0 
     /tmp/cchEysKF.s:2178   .text:0000000000000c7c .L0 
     /tmp/cchEysKF.s:2179   .text:0000000000000c7c .L0 
     /tmp/cchEysKF.s:2183   .text:0000000000000c8c .L0 
     /tmp/cchEysKF.s:2184   .text:0000000000000c8c .L0 
     /tmp/cchEysKF.s:2191   .text:0000000000000ca8 .L0 
     /tmp/cchEysKF.s:2192   .text:0000000000000ca8 .L0 
     /tmp/cchEysKF.s:2197   .text:0000000000000cb4 .L0 
     /tmp/cchEysKF.s:2199   .text:0000000000000cb8 .L0 
     /tmp/cchEysKF.s:2200   .text:0000000000000cb8 .L0 
     /tmp/cchEysKF.s:2206   .text:0000000000000cc8 .L0 
     /tmp/cchEysKF.s:2207   .text:0000000000000cc8 .L0 
     /tmp/cchEysKF.s:2208   .text:0000000000000ccc .L0 
     /tmp/cchEysKF.s:2209   .text:0000000000000ccc .L0 
     /tmp/cchEysKF.s:2211   .text:0000000000000cd0 .L0 
     /tmp/cchEysKF.s:2212   .text:0000000000000cd0 .L0 
     /tmp/cchEysKF.s:2214   .text:0000000000000cd4 .L0 
     /tmp/cchEysKF.s:2216   .text:0000000000000cd8 .L0 
     /tmp/cchEysKF.s:2220   .text:0000000000000cdc .L0 
     /tmp/cchEysKF.s:2222   .text:0000000000000cdc .L0 
     /tmp/cchEysKF.s:2223   .text:0000000000000cdc .L0 
     /tmp/cchEysKF.s:2230   .text:0000000000000cf8 .L0 
GAS LISTING /tmp/cchEysKF.s 			page 87


     /tmp/cchEysKF.s:2232   .text:0000000000000cfc .L0 
     /tmp/cchEysKF.s:2234   .text:0000000000000d00 .L0 
     /tmp/cchEysKF.s:2237   .text:0000000000000d04 .L0 
     /tmp/cchEysKF.s:2238   .text:0000000000000d04 .L0 
     /tmp/cchEysKF.s:2245   .text:0000000000000d14 .L0 
     /tmp/cchEysKF.s:2247   .text:0000000000000d18 .L0 
     /tmp/cchEysKF.s:2248   .text:0000000000000d18 .L0 
     /tmp/cchEysKF.s:2252   .text:0000000000000d24 .L0 
     /tmp/cchEysKF.s:2254   .text:0000000000000d28 .L0 
     /tmp/cchEysKF.s:2255   .text:0000000000000d28 .L0 
     /tmp/cchEysKF.s:2260   .text:0000000000000d34 .L0 
     /tmp/cchEysKF.s:2261   .text:0000000000000d34 .L0 
     /tmp/cchEysKF.s:2267   .text:0000000000000d48 .L0 
     /tmp/cchEysKF.s:2268   .text:0000000000000d48 .L0 
     /tmp/cchEysKF.s:2272   .text:0000000000000d58 .L0 
     /tmp/cchEysKF.s:2276   .text:0000000000000d5c .L0 
     /tmp/cchEysKF.s:2277   .text:0000000000000d5c .L0 
     /tmp/cchEysKF.s:2282   .text:0000000000000d6c .L0 
     /tmp/cchEysKF.s:2283   .text:0000000000000d70 .L0 
     /tmp/cchEysKF.s:2297   .text:0000000000000d70 _Z17mallocGapFillTestv
     /tmp/cchEysKF.s:2300   .text:0000000000000d70 .L0 
     /tmp/cchEysKF.s:2301   .text:0000000000000d70 .L0 
     /tmp/cchEysKF.s:2302   .text:0000000000000d74 .L0 
     /tmp/cchEysKF.s:2313   .text:0000000000000d9c .L0 
     /tmp/cchEysKF.s:2314   .text:0000000000000d9c .L0 
     /tmp/cchEysKF.s:2315   .text:0000000000000d9c .L0 
     /tmp/cchEysKF.s:2316   .text:0000000000000d9c .L0 
     /tmp/cchEysKF.s:2317   .text:0000000000000d9c .L0 
     /tmp/cchEysKF.s:2318   .text:0000000000000d9c .L0 
     /tmp/cchEysKF.s:2319   .text:0000000000000d9c .L0 
     /tmp/cchEysKF.s:2320   .text:0000000000000d9c .L0 
     /tmp/cchEysKF.s:2321   .text:0000000000000d9c .L0 
     /tmp/cchEysKF.s:2322   .text:0000000000000d9c .L0 
     /tmp/cchEysKF.s:2324   .text:0000000000000da0 .L0 
     /tmp/cchEysKF.s:2326   .text:0000000000000da0 .L0 
     /tmp/cchEysKF.s:2327   .text:0000000000000da0 .L0 
     /tmp/cchEysKF.s:2332   .text:0000000000000db0 .L0 
     /tmp/cchEysKF.s:2336   .text:0000000000000db4 .L0 
     /tmp/cchEysKF.s:2339   .text:0000000000000dbc .L0 
     /tmp/cchEysKF.s:2340   .text:0000000000000dbc .L0 
     /tmp/cchEysKF.s:2342   .text:0000000000000dc0 .L0 
     /tmp/cchEysKF.s:2346   .text:0000000000000dcc .L0 
     /tmp/cchEysKF.s:2351   .text:0000000000000ddc .L0 
     /tmp/cchEysKF.s:2353   .text:0000000000000de0 .L0 
     /tmp/cchEysKF.s:2359   .text:0000000000000de8 .L0 
     /tmp/cchEysKF.s:2360   .text:0000000000000de8 .L0 
     /tmp/cchEysKF.s:2366   .text:0000000000000df8 .L0 
     /tmp/cchEysKF.s:2367   .text:0000000000000df8 .L0 
     /tmp/cchEysKF.s:2368   .text:0000000000000dfc .L0 
     /tmp/cchEysKF.s:2369   .text:0000000000000dfc .L0 
     /tmp/cchEysKF.s:2371   .text:0000000000000e00 .L0 
     /tmp/cchEysKF.s:2372   .text:0000000000000e00 .L0 
     /tmp/cchEysKF.s:2374   .text:0000000000000e04 .L0 
     /tmp/cchEysKF.s:2376   .text:0000000000000e08 .L0 
     /tmp/cchEysKF.s:2378   .text:0000000000000e0c .L0 
     /tmp/cchEysKF.s:2380   .text:0000000000000e10 .L0 
     /tmp/cchEysKF.s:2382   .text:0000000000000e14 .L0 
GAS LISTING /tmp/cchEysKF.s 			page 88


     /tmp/cchEysKF.s:2384   .text:0000000000000e18 .L0 
     /tmp/cchEysKF.s:2386   .text:0000000000000e1c .L0 
     /tmp/cchEysKF.s:2388   .text:0000000000000e20 .L0 
     /tmp/cchEysKF.s:2390   .text:0000000000000e24 .L0 
     /tmp/cchEysKF.s:2394   .text:0000000000000e28 .L0 
     /tmp/cchEysKF.s:2396   .text:0000000000000e28 .L0 
     /tmp/cchEysKF.s:2397   .text:0000000000000e28 .L0 
     /tmp/cchEysKF.s:2399   .text:0000000000000e2c .L0 
     /tmp/cchEysKF.s:2401   .text:0000000000000e30 .L0 
     /tmp/cchEysKF.s:2405   .text:0000000000000e38 .L0 
     /tmp/cchEysKF.s:2406   .text:0000000000000e38 .L0 
     /tmp/cchEysKF.s:2412   .text:0000000000000e48 .L0 
     /tmp/cchEysKF.s:2413   .text:0000000000000e48 .L0 
     /tmp/cchEysKF.s:2419   .text:0000000000000e58 .L0 
     /tmp/cchEysKF.s:2420   .text:0000000000000e58 .L0 
     /tmp/cchEysKF.s:2427   .text:0000000000000e68 .L0 
     /tmp/cchEysKF.s:2429   .text:0000000000000e6c .L0 
     /tmp/cchEysKF.s:2431   .text:0000000000000e70 .L0 
     /tmp/cchEysKF.s:2433   .text:0000000000000e74 .L0 
     /tmp/cchEysKF.s:2434   .text:0000000000000e74 .L0 
     /tmp/cchEysKF.s:2437   .text:0000000000000e78 .L0 
     /tmp/cchEysKF.s:2438   .text:0000000000000e78 .L0 
     /tmp/cchEysKF.s:2441   .text:0000000000000e7c .L0 
     /tmp/cchEysKF.s:2442   .text:0000000000000e7c .L0 
     /tmp/cchEysKF.s:2445   .text:0000000000000e80 .L0 
     /tmp/cchEysKF.s:2446   .text:0000000000000e80 .L0 
     /tmp/cchEysKF.s:2449   .text:0000000000000e84 .L0 
     /tmp/cchEysKF.s:2450   .text:0000000000000e84 .L0 
     /tmp/cchEysKF.s:2451   .text:0000000000000e84 .L0 
     /tmp/cchEysKF.s:2454   .text:0000000000000e88 .L0 
     /tmp/cchEysKF.s:2455   .text:0000000000000e88 .L0 
     /tmp/cchEysKF.s:2458   .text:0000000000000e8c .L0 
     /tmp/cchEysKF.s:2460   .text:0000000000000e90 .L0 
     /tmp/cchEysKF.s:2462   .text:0000000000000e94 .L0 
     /tmp/cchEysKF.s:2464   .text:0000000000000e98 .L0 
     /tmp/cchEysKF.s:2466   .text:0000000000000e9c .L0 
     /tmp/cchEysKF.s:2468   .text:0000000000000ea0 .L0 
     /tmp/cchEysKF.s:2469   .text:0000000000000ea0 .L0 
     /tmp/cchEysKF.s:2471   .text:0000000000000ea4 .L0 
     /tmp/cchEysKF.s:2475   .text:0000000000000eac .L0 
     /tmp/cchEysKF.s:2476   .text:0000000000000eac .L0 
     /tmp/cchEysKF.s:2478   .text:0000000000000eb0 .L0 
     /tmp/cchEysKF.s:2480   .text:0000000000000eb4 .L0 
     /tmp/cchEysKF.s:2484   .text:0000000000000ebc .L0 
     /tmp/cchEysKF.s:2485   .text:0000000000000ebc .L0 
     /tmp/cchEysKF.s:2491   .text:0000000000000ecc .L0 
     /tmp/cchEysKF.s:2492   .text:0000000000000ecc .L0 
     /tmp/cchEysKF.s:2499   .text:0000000000000edc .L0 
     /tmp/cchEysKF.s:2501   .text:0000000000000ee0 .L0 
     /tmp/cchEysKF.s:2504   .text:0000000000000ee4 .L0 
     /tmp/cchEysKF.s:2505   .text:0000000000000ee4 .L0 
     /tmp/cchEysKF.s:2506   .text:0000000000000ee4 .L0 
     /tmp/cchEysKF.s:2508   .text:0000000000000ee8 .L0 
     /tmp/cchEysKF.s:2510   .text:0000000000000eec .L0 
     /tmp/cchEysKF.s:2513   .text:0000000000000ef0 .L0 
     /tmp/cchEysKF.s:2519   .text:0000000000000ef8 .L0 
     /tmp/cchEysKF.s:2520   .text:0000000000000ef8 .L0 
GAS LISTING /tmp/cchEysKF.s 			page 89


     /tmp/cchEysKF.s:2525   .text:0000000000000f08 .L0 
     /tmp/cchEysKF.s:2529   .text:0000000000000f0c .L0 
     /tmp/cchEysKF.s:2530   .text:0000000000000f0c .L0 
     /tmp/cchEysKF.s:2535   .text:0000000000000f1c .L0 
     /tmp/cchEysKF.s:2539   .text:0000000000000f20 .L0 
     /tmp/cchEysKF.s:2540   .text:0000000000000f20 .L0 
     /tmp/cchEysKF.s:2545   .text:0000000000000f30 .L0 
     /tmp/cchEysKF.s:2549   .text:0000000000000f34 .L0 
     /tmp/cchEysKF.s:2550   .text:0000000000000f34 .L0 
     /tmp/cchEysKF.s:2555   .text:0000000000000f44 .L0 
     /tmp/cchEysKF.s:2560   .text:0000000000000f48 .L0 
     /tmp/cchEysKF.s:2564   .text:0000000000000f4c .L0 
     /tmp/cchEysKF.s:2567   .text:0000000000000f54 .L0 
     /tmp/cchEysKF.s:2568   .text:0000000000000f54 .L0 
     /tmp/cchEysKF.s:2574   .text:0000000000000f64 .L0 
     /tmp/cchEysKF.s:2576   .text:0000000000000f68 .L0 
     /tmp/cchEysKF.s:2582   .text:0000000000000f74 .L0 
     /tmp/cchEysKF.s:2583   .text:0000000000000f74 .L0 
     /tmp/cchEysKF.s:2587   .text:0000000000000f80 .L0 
     /tmp/cchEysKF.s:2588   .text:0000000000000f80 .L0 
     /tmp/cchEysKF.s:2592   .text:0000000000000f8c .L0 
     /tmp/cchEysKF.s:2593   .text:0000000000000f8c .L0 
     /tmp/cchEysKF.s:2597   .text:0000000000000f98 .L0 
     /tmp/cchEysKF.s:2598   .text:0000000000000f98 .L0 
     /tmp/cchEysKF.s:2602   .text:0000000000000fa4 .L0 
     /tmp/cchEysKF.s:2603   .text:0000000000000fa4 .L0 
     /tmp/cchEysKF.s:2607   .text:0000000000000fb0 .L0 
     /tmp/cchEysKF.s:2608   .text:0000000000000fb0 .L0 
     /tmp/cchEysKF.s:2612   .text:0000000000000fc4 .L0 
     /tmp/cchEysKF.s:2618   .text:0000000000000fc4 _Z21memoryAllocationTestsv
     /tmp/cchEysKF.s:2621   .text:0000000000000fc4 .L0 
     /tmp/cchEysKF.s:2622   .text:0000000000000fc4 .L0 
     /tmp/cchEysKF.s:2623   .text:0000000000000fc8 .L0 
     /tmp/cchEysKF.s:2626   .text:0000000000000fd0 .L0 
     /tmp/cchEysKF.s:2627   .text:0000000000000fd0 .L0 
     /tmp/cchEysKF.s:2629   .text:0000000000000fd4 .L0 
     /tmp/cchEysKF.s:2631   .text:0000000000000fd4 .L0 
     /tmp/cchEysKF.s:2632   .text:0000000000000fd4 .L0 
     /tmp/cchEysKF.s:2635   .text:0000000000000fdc .L0 
     /tmp/cchEysKF.s:2636   .text:0000000000000fe0 .L0 
     /tmp/cchEysKF.s:2638   .text:0000000000000fe4 .L0 
     /tmp/cchEysKF.s:2639   .text:0000000000000fe4 .L0 
     /tmp/cchEysKF.s:2641   .text:0000000000000fe8 .L0 
     /tmp/cchEysKF.s:2643   .text:0000000000000fec .L0 
     /tmp/cchEysKF.s:2649   .text:0000000000000fec _Z8semTest1v
     /tmp/cchEysKF.s:2652   .text:0000000000000fec .L0 
     /tmp/cchEysKF.s:2653   .text:0000000000000fec .L0 
     /tmp/cchEysKF.s:2654   .text:0000000000000ff0 .L0 
     /tmp/cchEysKF.s:2657   .text:0000000000000ff8 .L0 
     /tmp/cchEysKF.s:2658   .text:0000000000000ff8 .L0 
     /tmp/cchEysKF.s:2660   .text:0000000000000ffc .L0 
     /tmp/cchEysKF.s:2662   .text:0000000000000ffc .L0 
     /tmp/cchEysKF.s:2663   .text:0000000000000ffc .L0 
     /tmp/cchEysKF.s:2668   .text:0000000000001010 .L0 
     /tmp/cchEysKF.s:2669   .text:0000000000001010 .L0 
     /tmp/cchEysKF.s:2674   .text:0000000000001024 .L0 
     /tmp/cchEysKF.s:2675   .text:0000000000001024 .L0 
GAS LISTING /tmp/cchEysKF.s 			page 90


     /tmp/cchEysKF.s:2676   .text:0000000000001024 .L0 
     /tmp/cchEysKF.s:2682   .text:000000000000103c .L0 
     /tmp/cchEysKF.s:2683   .text:000000000000103c .L0 
     /tmp/cchEysKF.s:2691   .text:0000000000001058 .L0 
     /tmp/cchEysKF.s:2692   .text:0000000000001058 .L0 
     /tmp/cchEysKF.s:2696   .text:0000000000001060 .L0 
     /tmp/cchEysKF.s:2697   .text:0000000000001060 .L0 
     /tmp/cchEysKF.s:2698   .text:0000000000001060 .L0 
     /tmp/cchEysKF.s:2702   .text:000000000000106c .L0 
     /tmp/cchEysKF.s:2704   .text:0000000000001070 .L0 
     /tmp/cchEysKF.s:2708   .text:000000000000107c .L0 
     /tmp/cchEysKF.s:2710   .text:0000000000001080 .L0 
     /tmp/cchEysKF.s:2711   .text:0000000000001084 .L0 
     /tmp/cchEysKF.s:2713   .text:0000000000001088 .L0 
     /tmp/cchEysKF.s:2714   .text:0000000000001088 .L0 
     /tmp/cchEysKF.s:2716   .text:000000000000108c .L0 
     /tmp/cchEysKF.s:2718   .text:0000000000001090 .L0 
     /tmp/cchEysKF.s:2724   .text:0000000000001090 _Z14semaphoreTestsv
     /tmp/cchEysKF.s:2727   .text:0000000000001090 .L0 
     /tmp/cchEysKF.s:2728   .text:0000000000001090 .L0 
     /tmp/cchEysKF.s:2729   .text:0000000000001094 .L0 
     /tmp/cchEysKF.s:2732   .text:000000000000109c .L0 
     /tmp/cchEysKF.s:2733   .text:000000000000109c .L0 
     /tmp/cchEysKF.s:2735   .text:00000000000010a0 .L0 
     /tmp/cchEysKF.s:2737   .text:00000000000010a0 .L0 
     /tmp/cchEysKF.s:2738   .text:00000000000010a0 .L0 
     /tmp/cchEysKF.s:2741   .text:00000000000010a8 .L0 
     /tmp/cchEysKF.s:2742   .text:00000000000010ac .L0 
     /tmp/cchEysKF.s:2744   .text:00000000000010b0 .L0 
     /tmp/cchEysKF.s:2745   .text:00000000000010b0 .L0 
     /tmp/cchEysKF.s:2747   .text:00000000000010b4 .L0 
     /tmp/cchEysKF.s:2749   .text:00000000000010b8 .L0 
     /tmp/cchEysKF.s:2755   .text:00000000000010b8 _Z7myTestsv
     /tmp/cchEysKF.s:2758   .text:00000000000010b8 .L0 
     /tmp/cchEysKF.s:2759   .text:00000000000010b8 .L0 
     /tmp/cchEysKF.s:2760   .text:00000000000010bc .L0 
     /tmp/cchEysKF.s:2763   .text:00000000000010c4 .L0 
     /tmp/cchEysKF.s:2764   .text:00000000000010c4 .L0 
     /tmp/cchEysKF.s:2766   .text:00000000000010c8 .L0 
     /tmp/cchEysKF.s:2768   .text:00000000000010c8 .L0 
     /tmp/cchEysKF.s:2769   .text:00000000000010c8 .L0 
     /tmp/cchEysKF.s:2772   .text:00000000000010d0 .L0 
     /tmp/cchEysKF.s:2773   .text:00000000000010d4 .L0 
     /tmp/cchEysKF.s:2775   .text:00000000000010d8 .L0 
     /tmp/cchEysKF.s:2776   .text:00000000000010d8 .L0 
     /tmp/cchEysKF.s:2778   .text:00000000000010dc .L0 
     /tmp/cchEysKF.s:2780   .text:00000000000010e0 .L0 
     /tmp/cchEysKF.s:2818   .data:0000000000000000 string
     /tmp/cchEysKF.s:2830   .bss:0000000000000008 itemAvailable
     /tmp/cchEysKF.s:2839   .bss:0000000000000020 spaceAvailable
     /tmp/cchEysKF.s:2843   .bss:0000000000000028 tail
     /tmp/cchEysKF.s:2825   .bss:0000000000000000 head
     /tmp/cchEysKF.s:2834   .bss:0000000000000010 buffer
     /tmp/cchEysKF.s:2815   .data:0000000000000000 .LANCHOR1
     /tmp/cchEysKF.s:2822   .bss:0000000000000000 .LANCHOR0
     /tmp/cchEysKF.s:32     .text._ZN6Thread3runEv:0000000000000018 .L0 
     /tmp/cchEysKF.s:57     .text._ZN14PeriodicThread18periodicActivationEv:0000000000000018 .L0 
GAS LISTING /tmp/cchEysKF.s 			page 91


     /tmp/cchEysKF.s:2852   .text:00000000000010e0 .L0 
     /tmp/cchEysKF.s:622    .text._ZN14PeriodicThreadD2Ev:0000000000000034 .L0 
     /tmp/cchEysKF.s:669    .text._ZN14PeriodicThreadD0Ev:000000000000004c .L0 
     /tmp/cchEysKF.s:711    .text._ZN12TestPeriodicD2Ev:0000000000000034 .L0 
     /tmp/cchEysKF.s:761    .text._ZN12TestPeriodicD0Ev:000000000000004c .L0 
     /tmp/cchEysKF.s:59     .rodata.str1.8:0000000000000000 .LC0
     /tmp/cchEysKF.s:84     .text:0000000000000010 .L0 
     /tmp/cchEysKF.s:98     .rodata.str1.8:0000000000000008 .LC1
     /tmp/cchEysKF.s:127    .text:0000000000000040 .L0 
     /tmp/cchEysKF.s:101    .rodata.str1.8:0000000000000020 .LC2
     /tmp/cchEysKF.s:146    .text:0000000000000060 .L0 
     /tmp/cchEysKF.s:104    .rodata.str1.8:0000000000000028 .LC3
     /tmp/cchEysKF.s:156    .text:000000000000007c .L0 
     /tmp/cchEysKF.s:195    .rodata.str1.8:0000000000000030 .LC4
     /tmp/cchEysKF.s:221    .text:00000000000000d8 .L0 
     /tmp/cchEysKF.s:198    .rodata.str1.8:0000000000000048 .LC5
     /tmp/cchEysKF.s:240    .text:00000000000000f8 .L0 
     /tmp/cchEysKF.s:250    .text:0000000000000114 .L0 
     /tmp/cchEysKF.s:318    .text:0000000000000180 .L0 
     /tmp/cchEysKF.s:368    .text:00000000000001cc .L0 
     /tmp/cchEysKF.s:393    .text:00000000000001f8 .L0 
     /tmp/cchEysKF.s:403    .text:0000000000000214 .L0 
     /tmp/cchEysKF.s:454    .text:0000000000000264 .L0 
     /tmp/cchEysKF.s:472    .text:0000000000000288 .L0 
     /tmp/cchEysKF.s:493    .text:00000000000002c4 .L0 
     /tmp/cchEysKF.s:523    .text:00000000000002ec .L0 
     /tmp/cchEysKF.s:541    .text:0000000000000310 .L0 
     /tmp/cchEysKF.s:548    .text:0000000000000328 .L0 
     /tmp/cchEysKF.s:565    .text:0000000000000354 .L0 
     /tmp/cchEysKF.s:796    .text:00000000000003a8 .L0 
     /tmp/cchEysKF.s:816    .text:00000000000003d8 .L0 
     /tmp/cchEysKF.s:763    .rodata.str1.8:0000000000000050 .LC6
     /tmp/cchEysKF.s:833    .text:00000000000003fc .L0 
     /tmp/cchEysKF.s:948    .text:0000000000000490 .L0 
     /tmp/cchEysKF.s:968    .text:00000000000004c0 .L0 
     /tmp/cchEysKF.s:988    .text:00000000000004f0 .L0 
     /tmp/cchEysKF.s:1005   .text:0000000000000514 .L0 
     /tmp/cchEysKF.s:1114   .rodata.str1.8:0000000000000058 .LC7
     /tmp/cchEysKF.s:1142   .text:00000000000005ac .L0 
     /tmp/cchEysKF.s:1117   .rodata.str1.8:0000000000000068 .LC8
     /tmp/cchEysKF.s:1172   .text:00000000000005f0 .L0 
     /tmp/cchEysKF.s:1224   .text:0000000000000644 .L0 
     /tmp/cchEysKF.s:1262   .text:000000000000068c .L0 
     /tmp/cchEysKF.s:1298   .text:00000000000006d0 .L0 
     /tmp/cchEysKF.s:1120   .rodata.str1.8:0000000000000070 .LC9
     /tmp/cchEysKF.s:1309   .text:00000000000006e4 .L0 
     /tmp/cchEysKF.s:1318   .rodata.str1.8:0000000000000078 .LC10
     /tmp/cchEysKF.s:1338   .text:0000000000000708 .L0 
     /tmp/cchEysKF.s:1343   .text:0000000000000718 .L0 
     /tmp/cchEysKF.s:1345   .text:0000000000000724 .L0 
     /tmp/cchEysKF.s:1359   .text:0000000000000744 .L0 
     /tmp/cchEysKF.s:1379   .text:0000000000000764 .L0 
     /tmp/cchEysKF.s:1389   .rodata.str1.8:0000000000000088 .LC11
     /tmp/cchEysKF.s:1415   .text:0000000000000794 .L0 
     /tmp/cchEysKF.s:1476   .text:00000000000007f0 .L0 
     /tmp/cchEysKF.s:1489   .text:0000000000000810 .L0 
     /tmp/cchEysKF.s:1516   .text:000000000000083c .L0 
GAS LISTING /tmp/cchEysKF.s 			page 92


     /tmp/cchEysKF.s:1525   .rodata.str1.8:00000000000000a0 .LC12
     /tmp/cchEysKF.s:1545   .text:0000000000000860 .L0 
     /tmp/cchEysKF.s:1563   .text:000000000000088c .L0 
     /tmp/cchEysKF.s:1583   .text:00000000000008ac .L0 
     /tmp/cchEysKF.s:1594   .rodata.str1.8:00000000000000b0 .LC13
     /tmp/cchEysKF.s:1621   .text:00000000000008d8 .L0 
     /tmp/cchEysKF.s:1651   .text:000000000000091c .L0 
     /tmp/cchEysKF.s:1729   .text:00000000000009a4 .L0 
     /tmp/cchEysKF.s:1597   .rodata.str1.8:00000000000000c0 .LC14
     /tmp/cchEysKF.s:1738   .text:00000000000009b8 .L0 
     /tmp/cchEysKF.s:1790   .text:0000000000000a1c .L0 
     /tmp/cchEysKF.s:1799   .text:0000000000000a30 .L0 
     /tmp/cchEysKF.s:1818   .text:0000000000000a4c .L0 
     /tmp/cchEysKF.s:1848   .text:0000000000000a80 .L0 
     /tmp/cchEysKF.s:1975   .rodata.str1.8:00000000000000c8 .LC15
     /tmp/cchEysKF.s:2010   .text:0000000000000b40 .L0 
     /tmp/cchEysKF.s:1978   .rodata.str1.8:00000000000000f0 .LC16
     /tmp/cchEysKF.s:2109   .text:0000000000000c1c .L0 
     /tmp/cchEysKF.s:2117   .text:0000000000000c30 .L0 
     /tmp/cchEysKF.s:2154   .rodata.str1.8:0000000000000120 .LC17
     /tmp/cchEysKF.s:2179   .text:0000000000000c7c .L0 
     /tmp/cchEysKF.s:2184   .text:0000000000000c8c .L0 
     /tmp/cchEysKF.s:2186   .text:0000000000000c98 .L0 
     /tmp/cchEysKF.s:2200   .text:0000000000000cb8 .L0 
     /tmp/cchEysKF.s:2223   .text:0000000000000cdc .L0 
     /tmp/cchEysKF.s:2226   .text:0000000000000ce8 .L0 
     /tmp/cchEysKF.s:2157   .rodata.str1.8:0000000000000150 .LC18
     /tmp/cchEysKF.s:2261   .text:0000000000000d34 .L0 
     /tmp/cchEysKF.s:2268   .text:0000000000000d48 .L0 
     /tmp/cchEysKF.s:2277   .text:0000000000000d5c .L0 
     /tmp/cchEysKF.s:2288   .rodata.str1.8:0000000000000188 .LC19
     /tmp/cchEysKF.s:2327   .text:0000000000000da0 .L0 
     /tmp/cchEysKF.s:2360   .text:0000000000000de8 .L0 
     /tmp/cchEysKF.s:2520   .text:0000000000000ef8 .L0 
     /tmp/cchEysKF.s:2530   .text:0000000000000f0c .L0 
     /tmp/cchEysKF.s:2540   .text:0000000000000f20 .L0 
     /tmp/cchEysKF.s:2550   .text:0000000000000f34 .L0 
     /tmp/cchEysKF.s:2291   .rodata.str1.8:00000000000001d0 .LC20
     /tmp/cchEysKF.s:2608   .text:0000000000000fb0 .L0 
     /tmp/cchEysKF.s:2664   .text:0000000000001000 .L0 
     /tmp/cchEysKF.s:2670   .text:0000000000001014 .L0 
     /tmp/cchEysKF.s:2677   .text:0000000000001028 .L0 
     /tmp/cchEysKF.s:2684   .text:0000000000001040 .L0 
     /tmp/cchEysKF.s:80     .text:0000000000000010 .L6
     /tmp/cchEysKF.s:162    .text:0000000000000090 .L11
     /tmp/cchEysKF.s:176    .text:00000000000000b0 .L8
     /tmp/cchEysKF.s:143    .text:0000000000000060 .L10
     /tmp/cchEysKF.s:138    .text:0000000000000058 .L13
     /tmp/cchEysKF.s:256    .text:0000000000000128 .L17
     /tmp/cchEysKF.s:270    .text:0000000000000148 .L14
     /tmp/cchEysKF.s:237    .text:00000000000000f8 .L16
     /tmp/cchEysKF.s:232    .text:00000000000000f0 .L19
     /tmp/cchEysKF.s:331    .text:00000000000001a4 .L20
     /tmp/cchEysKF.s:311    .text:0000000000000174 .L22
     /tmp/cchEysKF.s:409    .text:0000000000000228 .L28
     /tmp/cchEysKF.s:417    .text:000000000000023c .L26
     /tmp/cchEysKF.s:427    .text:0000000000000250 .L24
GAS LISTING /tmp/cchEysKF.s 			page 93


     /tmp/cchEysKF.s:379    .text:00000000000001e4 .L30
     /tmp/cchEysKF.s:390    .text:00000000000001f8 .L27
     /tmp/cchEysKF.s:385    .text:00000000000001f0 .L31
     /tmp/cchEysKF.s:508    .text:00000000000002e8 .L40
     /tmp/cchEysKF.s:469    .text:0000000000000288 .L37
     /tmp/cchEysKF.s:580    .text:0000000000000378 .L49
     /tmp/cchEysKF.s:538    .text:0000000000000310 .L46
     /tmp/cchEysKF.s:1154   .text:00000000000005c8 .L78
     /tmp/cchEysKF.s:1191   .text:0000000000000614 .L86
     /tmp/cchEysKF.s:1150   .text:00000000000005c4 .L76
     /tmp/cchEysKF.s:1230   .text:0000000000000658 .L87
     /tmp/cchEysKF.s:1220   .text:0000000000000644 .L90
     /tmp/cchEysKF.s:1197   .text:0000000000000618 .L75
     /tmp/cchEysKF.s:1176   .text:0000000000000600 .L74
     /tmp/cchEysKF.s:1244   .text:0000000000000664 .L79
     /tmp/cchEysKF.s:1267   .text:00000000000006a0 .L88
     /tmp/cchEysKF.s:1239   .text:0000000000000660 .L82
     /tmp/cchEysKF.s:1304   .text:00000000000006e4 .L83
     /tmp/cchEysKF.s:1294   .text:00000000000006d0 .L91
     /tmp/cchEysKF.s:1273   .text:00000000000006a4 .L81
     /tmp/cchEysKF.s:1375   .text:0000000000000764 .L96
     /tmp/cchEysKF.s:1363   .text:0000000000000754 .L92
     /tmp/cchEysKF.s:1452   .text:00000000000007c8 .L99
     /tmp/cchEysKF.s:1466   .text:00000000000007e4 .L98
     /tmp/cchEysKF.s:1433   .text:00000000000007b4 .L103
     /tmp/cchEysKF.s:1512   .text:000000000000083c .L104
     /tmp/cchEysKF.s:1492   .text:0000000000000820 .L97
     /tmp/cchEysKF.s:1579   .text:00000000000008ac .L106
     /tmp/cchEysKF.s:1567   .text:000000000000089c .L105
     /tmp/cchEysKF.s:1633   .text:00000000000008f4 .L113
     /tmp/cchEysKF.s:1672   .text:0000000000000944 .L123
     /tmp/cchEysKF.s:1629   .text:00000000000008f0 .L111
     /tmp/cchEysKF.s:1815   .text:0000000000000a4c .L114
     /tmp/cchEysKF.s:1743   .text:00000000000009cc .L124
     /tmp/cchEysKF.s:1725   .text:00000000000009a4 .L126
     /tmp/cchEysKF.s:1735   .text:00000000000009b8 .L127
     /tmp/cchEysKF.s:1685   .text:0000000000000950 .L118
     /tmp/cchEysKF.s:1655   .text:000000000000092c .L109
     /tmp/cchEysKF.s:1804   .text:0000000000000a44 .L119
     /tmp/cchEysKF.s:1786   .text:0000000000000a1c .L128
     /tmp/cchEysKF.s:1796   .text:0000000000000a30 .L129
     /tmp/cchEysKF.s:1750   .text:00000000000009d0 .L115
     /tmp/cchEysKF.s:1677   .text:0000000000000948 .L110
     /tmp/cchEysKF.s:1909   .text:0000000000000ae0 .L133
     /tmp/cchEysKF.s:2114   .text:0000000000000c30 .L140
     /tmp/cchEysKF.s:2106   .text:0000000000000c1c .L143
     /tmp/cchEysKF.s:2122   .text:0000000000000c40 .L139
     /tmp/cchEysKF.s:2219   .text:0000000000000cdc .L146
     /tmp/cchEysKF.s:2265   .text:0000000000000d48 .L151
     /tmp/cchEysKF.s:2274   .text:0000000000000d5c .L152
     /tmp/cchEysKF.s:2205   .text:0000000000000cc8 .L145
     /tmp/cchEysKF.s:2393   .text:0000000000000e28 .L154
     /tmp/cchEysKF.s:2357   .text:0000000000000de8 .L174
     /tmp/cchEysKF.s:2333   .text:0000000000000db4 .L157
     /tmp/cchEysKF.s:2403   .text:0000000000000e38 .L158
     /tmp/cchEysKF.s:2516   .text:0000000000000ef8 .L159
     /tmp/cchEysKF.s:2527   .text:0000000000000f0c .L161
GAS LISTING /tmp/cchEysKF.s 			page 94


     /tmp/cchEysKF.s:2473   .text:0000000000000eac .L163
     /tmp/cchEysKF.s:2482   .text:0000000000000ebc .L164
     /tmp/cchEysKF.s:2537   .text:0000000000000f20 .L165
     /tmp/cchEysKF.s:2547   .text:0000000000000f34 .L167
     /tmp/cchEysKF.s:2562   .text:0000000000000f4c .L168
     /tmp/cchEysKF.s:2364   .text:0000000000000df8 .L153
     /tmp/cchEysKF.s:2579   .text:0000000000000f74 .L169
     /tmp/cchEysKF.s:2557   .text:0000000000000f48 .L170
     /tmp/cchEysKF.s:2694   .text:0000000000001060 .L180
     /tmp/cchEysKF.s:2689   .text:0000000000001058 .L178
     /tmp/cchEysKF.s:604    .text._ZN14PeriodicThreadD2Ev:0000000000000010 .L0 
     /tmp/cchEysKF.s:646    .text._ZN14PeriodicThreadD0Ev:0000000000000018 .L0 
     /tmp/cchEysKF.s:691    .text._ZN12TestPeriodicD2Ev:0000000000000010 .L0 
     /tmp/cchEysKF.s:736    .text._ZN12TestPeriodicD0Ev:0000000000000018 .L0 
     /tmp/cchEysKF.s:790    .text:0000000000000398 .LEHB0
     /tmp/cchEysKF.s:770    .text:000000000000037c .LFB27
     /tmp/cchEysKF.s:793    .text:00000000000003a0 .LEHE0
     /tmp/cchEysKF.s:797    .text:00000000000003b0 .LEHB1
     /tmp/cchEysKF.s:800    .text:00000000000003b8 .LEHE1
     /tmp/cchEysKF.s:856    .text:000000000000042c .L61
     /tmp/cchEysKF.s:804    .text:00000000000003bc .LEHB2
     /tmp/cchEysKF.s:812    .text:00000000000003d0 .LEHE2
     /tmp/cchEysKF.s:817    .text:00000000000003e0 .LEHB3
     /tmp/cchEysKF.s:820    .text:00000000000003e8 .LEHE3
     /tmp/cchEysKF.s:868    .text:0000000000000448 .L62
     /tmp/cchEysKF.s:824    .text:00000000000003ec .LEHB4
     /tmp/cchEysKF.s:840    .text:0000000000000414 .LEHE4
     /tmp/cchEysKF.s:864    .text:0000000000000440 .LEHB5
     /tmp/cchEysKF.s:867    .text:0000000000000448 .LEHE5
     /tmp/cchEysKF.s:875    .text:000000000000045c .LEHB6
     /tmp/cchEysKF.s:878    .text:0000000000000464 .LEHE6
     /tmp/cchEysKF.s:942    .text:0000000000000480 .LEHB7
     /tmp/cchEysKF.s:922    .text:0000000000000464 .LFB28
     /tmp/cchEysKF.s:945    .text:0000000000000488 .LEHE7
     /tmp/cchEysKF.s:949    .text:0000000000000498 .LEHB8
     /tmp/cchEysKF.s:952    .text:00000000000004a0 .LEHE8
     /tmp/cchEysKF.s:1028   .text:0000000000000544 .L69
     /tmp/cchEysKF.s:956    .text:00000000000004a4 .LEHB9
     /tmp/cchEysKF.s:964    .text:00000000000004b8 .LEHE9
     /tmp/cchEysKF.s:969    .text:00000000000004c8 .LEHB10
     /tmp/cchEysKF.s:972    .text:00000000000004d0 .LEHE10
     /tmp/cchEysKF.s:1040   .text:0000000000000560 .L70
     /tmp/cchEysKF.s:976    .text:00000000000004d4 .LEHB11
     /tmp/cchEysKF.s:984    .text:00000000000004e8 .LEHE11
     /tmp/cchEysKF.s:989    .text:00000000000004f8 .LEHB12
     /tmp/cchEysKF.s:992    .text:0000000000000500 .LEHE12
     /tmp/cchEysKF.s:1051   .text:000000000000057c .L71
     /tmp/cchEysKF.s:996    .text:0000000000000504 .LEHB13
     /tmp/cchEysKF.s:1012   .text:000000000000052c .LEHE13
     /tmp/cchEysKF.s:1036   .text:0000000000000558 .LEHB14
     /tmp/cchEysKF.s:1039   .text:0000000000000560 .LEHE14
     /tmp/cchEysKF.s:1047   .text:0000000000000574 .LEHB15
     /tmp/cchEysKF.s:1050   .text:000000000000057c .LEHE15
     /tmp/cchEysKF.s:1058   .text:0000000000000590 .LEHB16
     /tmp/cchEysKF.s:1061   .text:0000000000000598 .LEHE16
     /tmp/cchEysKF.s:1892   .text:0000000000000abc .LEHB17
     /tmp/cchEysKF.s:1872   .text:0000000000000aa0 .LFB29
GAS LISTING /tmp/cchEysKF.s 			page 95


     /tmp/cchEysKF.s:1895   .text:0000000000000ac4 .LEHE17
     /tmp/cchEysKF.s:1898   .text:0000000000000acc .LEHB18
     /tmp/cchEysKF.s:1901   .text:0000000000000ad4 .LEHE18
     /tmp/cchEysKF.s:1914   .text:0000000000000ae4 .L135
     /tmp/cchEysKF.s:1905   .text:0000000000000ad8 .LEHB19
     /tmp/cchEysKF.s:1908   .text:0000000000000ae0 .LEHE19
     /tmp/cchEysKF.s:1921   .text:0000000000000af8 .LEHB20
     /tmp/cchEysKF.s:1924   .text:0000000000000b00 .LEHE20
     /tmp/cchEysKF.s:7075   .debug_abbrev:0000000000000000 .Ldebug_abbrev0
     /tmp/cchEysKF.s:9858   .debug_str:0000000000000a12 .LASF261
     /tmp/cchEysKF.s:9784   .debug_str:00000000000007ee .LASF262
     /tmp/cchEysKF.s:9566   .debug_str:000000000000012e .LASF263
     /tmp/cchEysKF.s:9460   .debug_ranges:0000000000000000 .Ldebug_ranges0
     /tmp/cchEysKF.s:9520   .debug_line:0000000000000000 .Ldebug_line0
     /tmp/cchEysKF.s:9576   .debug_str:00000000000001ae .LASF0
     /tmp/cchEysKF.s:10028  .debug_str:0000000000000f80 .LASF1
     /tmp/cchEysKF.s:9960   .debug_str:0000000000000d8e .LASF2
     /tmp/cchEysKF.s:9932   .debug_str:0000000000000cd5 .LASF4
     /tmp/cchEysKF.s:9940   .debug_str:0000000000000d12 .LASF3
     /tmp/cchEysKF.s:9686   .debug_str:000000000000051f .LASF5
     /tmp/cchEysKF.s:9758   .debug_str:0000000000000710 .LASF6
     /tmp/cchEysKF.s:9732   .debug_str:0000000000000656 .LASF7
     /tmp/cchEysKF.s:9868   .debug_str:0000000000000af4 .LASF8
     /tmp/cchEysKF.s:9598   .debug_str:000000000000024c .LASF9
     /tmp/cchEysKF.s:10010  .debug_str:0000000000000f08 .LASF10
     /tmp/cchEysKF.s:9694   .debug_str:0000000000000554 .LASF11
     /tmp/cchEysKF.s:9632   .debug_str:0000000000000383 .LASF12
     /tmp/cchEysKF.s:9760   .debug_str:0000000000000717 .LASF13
     /tmp/cchEysKF.s:9700   .debug_str:0000000000000579 .LASF14
     /tmp/cchEysKF.s:9918   .debug_str:0000000000000c91 .LASF15
     /tmp/cchEysKF.s:9702   .debug_str:0000000000000589 .LASF16
     /tmp/cchEysKF.s:9670   .debug_str:00000000000004b5 .LASF17
     /tmp/cchEysKF.s:9622   .debug_str:0000000000000327 .LASF86
     /tmp/cchEysKF.s:9904   .debug_str:0000000000000c2e .LASF18
     /tmp/cchEysKF.s:9570   .debug_str:000000000000016f .LASF20
     /tmp/cchEysKF.s:9866   .debug_str:0000000000000ae9 .LASF19
     /tmp/cchEysKF.s:9984   .debug_str:0000000000000e38 .LASF21
     /tmp/cchEysKF.s:9990   .debug_str:0000000000000e74 .LASF22
     /tmp/cchEysKF.s:9688   .debug_str:0000000000000526 .LASF23
     /tmp/cchEysKF.s:9660   .debug_str:0000000000000479 .LASF28
     /tmp/cchEysKF.s:9780   .debug_str:00000000000007c7 .LASF30
     /tmp/cchEysKF.s:10072  .debug_str:00000000000010ff .LASF24
     /tmp/cchEysKF.s:9880   .debug_str:0000000000000b59 .LASF25
     /tmp/cchEysKF.s:9726   .debug_str:0000000000000632 .LASF26
     /tmp/cchEysKF.s:9778   .debug_str:00000000000007a8 .LASF27
     /tmp/cchEysKF.s:9874   .debug_str:0000000000000b34 .LASF29
     /tmp/cchEysKF.s:9862   .debug_str:0000000000000ac6 .LASF31
     /tmp/cchEysKF.s:10064  .debug_str:00000000000010cc .LASF32
     /tmp/cchEysKF.s:9836   .debug_str:0000000000000981 .LASF33
     /tmp/cchEysKF.s:9624   .debug_str:000000000000032d .LASF34
     /tmp/cchEysKF.s:9790   .debug_str:0000000000000809 .LASF35
     /tmp/cchEysKF.s:9752   .debug_str:00000000000006e8 .LASF36
     /tmp/cchEysKF.s:9978   .debug_str:0000000000000e03 .LASF37
     /tmp/cchEysKF.s:10054  .debug_str:0000000000001070 .LASF40
     /tmp/cchEysKF.s:10008  .debug_str:0000000000000ef3 .LASF42
     /tmp/cchEysKF.s:9900   .debug_str:0000000000000c19 .LASF38
     /tmp/cchEysKF.s:9594   .debug_str:000000000000022b .LASF39
GAS LISTING /tmp/cchEysKF.s 			page 96


     /tmp/cchEysKF.s:9652   .debug_str:0000000000000441 .LASF41
     /tmp/cchEysKF.s:9708   .debug_str:00000000000005af .LASF43
     /tmp/cchEysKF.s:9682   .debug_str:000000000000050b .LASF44
     /tmp/cchEysKF.s:9590   .debug_str:000000000000020d .LASF45
     /tmp/cchEysKF.s:10032  .debug_str:0000000000000fb1 .LASF46
     /tmp/cchEysKF.s:9914   .debug_str:0000000000000c64 .LASF47
     /tmp/cchEysKF.s:9906   .debug_str:0000000000000c39 .LASF48
     /tmp/cchEysKF.s:9616   .debug_str:00000000000002f7 .LASF49
     /tmp/cchEysKF.s:9860   .debug_str:0000000000000abe .LASF50
     /tmp/cchEysKF.s:9526   .debug_str:0000000000000015 .LASF51
     /tmp/cchEysKF.s:9776   .debug_str:00000000000007a0 .LASF52
     /tmp/cchEysKF.s:9742   .debug_str:0000000000000691 .LASF53
     /tmp/cchEysKF.s:9972   .debug_str:0000000000000de7 .LASF54
     /tmp/cchEysKF.s:9822   .debug_str:000000000000090c .LASF55
     /tmp/cchEysKF.s:9734   .debug_str:0000000000000669 .LASF56
     /tmp/cchEysKF.s:9958   .debug_str:0000000000000d7b .LASF57
     /tmp/cchEysKF.s:9800   .debug_str:0000000000000876 .LASF58
     /tmp/cchEysKF.s:10044  .debug_str:0000000000001011 .LASF59
     /tmp/cchEysKF.s:9942   .debug_str:0000000000000d24 .LASF60
     /tmp/cchEysKF.s:9852   .debug_str:00000000000009e3 .LASF61
     /tmp/cchEysKF.s:9884   .debug_str:0000000000000b86 .LASF62
     /tmp/cchEysKF.s:9630   .debug_str:000000000000036b .LASF63
     /tmp/cchEysKF.s:9592   .debug_str:0000000000000220 .LASF64
     /tmp/cchEysKF.s:10066  .debug_str:00000000000010d9 .LASF65
     /tmp/cchEysKF.s:9698   .debug_str:000000000000056f .LASF66
     /tmp/cchEysKF.s:9664   .debug_str:000000000000048e .LASF67
     /tmp/cchEysKF.s:9930   .debug_str:0000000000000ccb .LASF68
     /tmp/cchEysKF.s:9748   .debug_str:00000000000006cd .LASF69
     /tmp/cchEysKF.s:9872   .debug_str:0000000000000b29 .LASF70
     /tmp/cchEysKF.s:10002  .debug_str:0000000000000ebe .LASF71
     /tmp/cchEysKF.s:9890   .debug_str:0000000000000bc4 .LASF72
     /tmp/cchEysKF.s:9638   .debug_str:00000000000003c0 .LASF73
     /tmp/cchEysKF.s:9578   .debug_str:00000000000001bb .LASF74
     /tmp/cchEysKF.s:9870   .debug_str:0000000000000b07 .LASF75
     /tmp/cchEysKF.s:9548   .debug_str:000000000000008d .LASF76
     /tmp/cchEysKF.s:9956   .debug_str:0000000000000d73 .LASF77
     /tmp/cchEysKF.s:9824   .debug_str:000000000000091f .LASF78
     /tmp/cchEysKF.s:9854   .debug_str:00000000000009f5 .LASF79
     /tmp/cchEysKF.s:9736   .debug_str:0000000000000670 .LASF80
     /tmp/cchEysKF.s:10018  .debug_str:0000000000000f32 .LASF81
     /tmp/cchEysKF.s:9552   .debug_str:00000000000000a4 .LASF82
     /tmp/cchEysKF.s:9646   .debug_str:000000000000040a .LASF83
     /tmp/cchEysKF.s:9608   .debug_str:00000000000002c0 .LASF84
     /tmp/cchEysKF.s:9728   .debug_str:0000000000000644 .LASF85
     /tmp/cchEysKF.s:9602   .debug_str:000000000000027b .LASF264
     /tmp/cchEysKF.s:9786   .debug_str:00000000000007fc .LASF87
     /tmp/cchEysKF.s:9830   .debug_str:000000000000094e .LASF88
     /tmp/cchEysKF.s:9944   .debug_str:0000000000000d2a .LASF89
     /tmp/cchEysKF.s:9724   .debug_str:0000000000000629 .LASF90
     /tmp/cchEysKF.s:9718   .debug_str:0000000000000603 .LASF91
     /tmp/cchEysKF.s:10068  .debug_str:00000000000010f1 .LASF92
     /tmp/cchEysKF.s:9864   .debug_str:0000000000000ae1 .LASF153
     /tmp/cchEysKF.s:9668   .debug_str:00000000000004af .LASF93
     /tmp/cchEysKF.s:10016  .debug_str:0000000000000f27 .LASF102
     /tmp/cchEysKF.s:9792   .debug_str:0000000000000824 .LASF265
     /tmp/cchEysKF.s:10012  .debug_str:0000000000000f16 .LASF266
     /tmp/cchEysKF.s:9704   .debug_str:000000000000059f .LASF94
GAS LISTING /tmp/cchEysKF.s 			page 97


     /tmp/cchEysKF.s:9696   .debug_str:0000000000000563 .LASF96
     /tmp/cchEysKF.s:9926   .debug_str:0000000000000cbb .LASF95
     /tmp/cchEysKF.s:9744   .debug_str:00000000000006a5 .LASF97
     /tmp/cchEysKF.s:9770   .debug_str:0000000000000775 .LASF98
     /tmp/cchEysKF.s:9720   .debug_str:000000000000060b .LASF99
     /tmp/cchEysKF.s:9992   .debug_str:0000000000000e7e .LASF100
     /tmp/cchEysKF.s:9612   .debug_str:00000000000002da .LASF101
     /tmp/cchEysKF.s:10046  .debug_str:0000000000001023 .LASF103
     /tmp/cchEysKF.s:9968   .debug_str:0000000000000dca .LASF104
     /tmp/cchEysKF.s:9614   .debug_str:00000000000002ea .LASF109
     /tmp/cchEysKF.s:9746   .debug_str:00000000000006b5 .LASF111
     /tmp/cchEysKF.s:9842   .debug_str:00000000000009b0 .LASF105
     /tmp/cchEysKF.s:9596   .debug_str:0000000000000240 .LASF106
     /tmp/cchEysKF.s:9838   .debug_str:000000000000099b .LASF107
     /tmp/cchEysKF.s:9876   .debug_str:0000000000000b40 .LASF108
     /tmp/cchEysKF.s:9846   .debug_str:00000000000009c9 .LASF110
     /tmp/cchEysKF.s:9606   .debug_str:00000000000002ad .LASF112
     /tmp/cchEysKF.s:10038  .debug_str:0000000000000fd9 .LASF113
     /tmp/cchEysKF.s:9556   .debug_str:00000000000000cf .LASF114
     /tmp/cchEysKF.s:9766   .debug_str:000000000000074b .LASF115
     /tmp/cchEysKF.s:9714   .debug_str:00000000000005e1 .LASF116
     /tmp/cchEysKF.s:9882   .debug_str:0000000000000b77 .LASF117
     /tmp/cchEysKF.s:9798   .debug_str:000000000000085c .LASF118
     /tmp/cchEysKF.s:9966   .debug_str:0000000000000dbc .LASF119
     /tmp/cchEysKF.s:9970   .debug_str:0000000000000ddb .LASF120
     /tmp/cchEysKF.s:9892   .debug_str:0000000000000bd3 .LASF121
     /tmp/cchEysKF.s:9656   .debug_str:000000000000045e .LASF122
     /tmp/cchEysKF.s:9684   .debug_str:0000000000000512 .LASF123
     /tmp/cchEysKF.s:9532   .debug_str:0000000000000039 .LASF124
     /tmp/cchEysKF.s:9730   .debug_str:0000000000000649 .LASF129
     /tmp/cchEysKF.s:9888   .debug_str:0000000000000bb9 .LASF125
     /tmp/cchEysKF.s:9994   .debug_str:0000000000000e84 .LASF126
     /tmp/cchEysKF.s:9722   .debug_str:000000000000061e .LASF127
     /tmp/cchEysKF.s:9588   .debug_str:00000000000001f7 .LASF128
     /tmp/cchEysKF.s:9998   .debug_str:0000000000000ea0 .LASF130
     /tmp/cchEysKF.s:9812   .debug_str:00000000000008c5 .LASF131
     /tmp/cchEysKF.s:9600   .debug_str:000000000000025c .LASF132
     /tmp/cchEysKF.s:9898   .debug_str:0000000000000c07 .LASF133
     /tmp/cchEysKF.s:10048  .debug_str:000000000000102b .LASF134
     /tmp/cchEysKF.s:9810   .debug_str:00000000000008af .LASF135
     /tmp/cchEysKF.s:10040  .debug_str:0000000000000fe2 .LASF136
     /tmp/cchEysKF.s:9642   .debug_str:00000000000003e9 .LASF137
     /tmp/cchEysKF.s:10030  .debug_str:0000000000000f93 .LASF138
     /tmp/cchEysKF.s:9908   .debug_str:0000000000000c41 .LASF139
     /tmp/cchEysKF.s:9568   .debug_str:0000000000000151 .LASF140
     /tmp/cchEysKF.s:9988   .debug_str:0000000000000e5f .LASF141
     /tmp/cchEysKF.s:10056  .debug_str:0000000000001079 .LASF142
     /tmp/cchEysKF.s:9620   .debug_str:000000000000031d .LASF143
     /tmp/cchEysKF.s:9948   .debug_str:0000000000000d39 .LASF144
     /tmp/cchEysKF.s:10006  .debug_str:0000000000000ee5 .LASF145
     /tmp/cchEysKF.s:9564   .debug_str:0000000000000106 .LASF147
     /tmp/cchEysKF.s:9712   .debug_str:00000000000005cc .LASF146
     /tmp/cchEysKF.s:9604   .debug_str:0000000000000281 .LASF148
     /tmp/cchEysKF.s:9804   .debug_str:0000000000000883 .LASF175
     /tmp/cchEysKF.s:10062  .debug_str:00000000000010bb .LASF267
     /tmp/cchEysKF.s:9946   .debug_str:0000000000000d34 .LASF149
     /tmp/cchEysKF.s:9840   .debug_str:00000000000009ab .LASF150
GAS LISTING /tmp/cchEysKF.s 			page 98


     /tmp/cchEysKF.s:9582   .debug_str:00000000000001d9 .LASF151
     /tmp/cchEysKF.s:9996   .debug_str:0000000000000e9a .LASF152
     /tmp/cchEysKF.s:9828   .debug_str:0000000000000946 .LASF154
     /tmp/cchEysKF.s:9794   .debug_str:000000000000083c .LASF155
     /tmp/cchEysKF.s:9676   .debug_str:00000000000004e6 .LASF156
     /tmp/cchEysKF.s:9974   .debug_str:0000000000000dee .LASF157
     /tmp/cchEysKF.s:9920   .debug_str:0000000000000c9d .LASF158
     /tmp/cchEysKF.s:9562   .debug_str:00000000000000ff .LASF159
     /tmp/cchEysKF.s:9560   .debug_str:00000000000000f8 .LASF160
     /tmp/cchEysKF.s:9662   .debug_str:0000000000000489 .LASF161
     /tmp/cchEysKF.s:9980   .debug_str:0000000000000e1d .LASF162
     /tmp/cchEysKF.s:9754   .debug_str:00000000000006f5 .LASF163
     /tmp/cchEysKF.s:9938   .debug_str:0000000000000d04 .LASF164
     /tmp/cchEysKF.s:9738   .debug_str:0000000000000683 .LASF165
     /tmp/cchEysKF.s:9640   .debug_str:00000000000003dc .LASF166
     /tmp/cchEysKF.s:9826   .debug_str:000000000000092e .LASF167
     /tmp/cchEysKF.s:9916   .debug_str:0000000000000c78 .LASF168
     /tmp/cchEysKF.s:9546   .debug_str:0000000000000077 .LASF268
     /tmp/cchEysKF.s:9574   .debug_str:000000000000019b .LASF174
     /tmp/cchEysKF.s:9886   .debug_str:0000000000000b91 .LASF269
     /tmp/cchEysKF.s:9814   .debug_str:00000000000008d9 .LASF169
     /tmp/cchEysKF.s:9834   .debug_str:000000000000096b .LASF178
     /tmp/cchEysKF.s:10004  .debug_str:0000000000000ed6 .LASF170
     /tmp/cchEysKF.s:9762   .debug_str:0000000000000727 .LASF171
     /tmp/cchEysKF.s:9768   .debug_str:000000000000075a .LASF172
     /tmp/cchEysKF.s:9628   .debug_str:0000000000000353 .LASF173
     /tmp/cchEysKF.s:10020  .debug_str:0000000000000f44 .LASF270
     /tmp/cchEysKF.s:9636   .debug_str:00000000000003a2 .LASF176
     /tmp/cchEysKF.s:9584   .debug_str:00000000000001e1 .LASF177
     /tmp/cchEysKF.s:9936   .debug_str:0000000000000cec .LASF179
     /tmp/cchEysKF.s:9740   .debug_str:000000000000068a .LASF271
     /tmp/cchEysKF.s:10052  .debug_str:000000000000105f .LASF272
     /tmp/cchEysKF.s:9896   .debug_str:0000000000000bf4 .LASF249
     /tmp/cchEysKF.s:9850   .debug_str:00000000000009de .LASF180
     /tmp/cchEysKF.s:9928   .debug_str:0000000000000cc1 .LASF181
     /tmp/cchEysKF.s:9544   .debug_str:0000000000000061 .LASF182
     /tmp/cchEysKF.s:716    .text._ZN12TestPeriodicD0Ev:0000000000000000 .LFB56
     /tmp/cchEysKF.s:759    .text._ZN12TestPeriodicD0Ev:000000000000004c .LFE56
     /tmp/cchEysKF.s:8526   .debug_loc:0000000000000000 .LLST16
     /tmp/cchEysKF.s:732    .text._ZN12TestPeriodicD0Ev:0000000000000018 .LBB23
     /tmp/cchEysKF.s:742    .text._ZN12TestPeriodicD0Ev:000000000000002c .LBE23
     /tmp/cchEysKF.s:8544   .debug_loc:000000000000004c .LLST17
     /tmp/cchEysKF.s:733    .text._ZN12TestPeriodicD0Ev:0000000000000018 .LBB24
     /tmp/cchEysKF.s:741    .text._ZN12TestPeriodicD0Ev:000000000000002c .LBE24
     /tmp/cchEysKF.s:739    .text._ZN12TestPeriodicD0Ev:000000000000002c .LVL68
     /tmp/cchEysKF.s:746    .text._ZN12TestPeriodicD0Ev:0000000000000038 .LVL69
     /tmp/cchEysKF.s:9950   .debug_str:0000000000000d45 .LASF183
     /tmp/cchEysKF.s:674    .text._ZN12TestPeriodicD2Ev:0000000000000000 .LFB54
     /tmp/cchEysKF.s:707    .text._ZN12TestPeriodicD2Ev:0000000000000034 .LFE54
     /tmp/cchEysKF.s:8555   .debug_loc:0000000000000082 .LLST14
     /tmp/cchEysKF.s:688    .text._ZN12TestPeriodicD2Ev:0000000000000010 .LBB21
     /tmp/cchEysKF.s:696    .text._ZN12TestPeriodicD2Ev:0000000000000024 .LBE21
     /tmp/cchEysKF.s:8569   .debug_loc:00000000000000bb .LLST15
     /tmp/cchEysKF.s:694    .text._ZN12TestPeriodicD2Ev:0000000000000024 .LVL65
     /tmp/cchEysKF.s:9924   .debug_str:0000000000000cb2 .LASF184
     /tmp/cchEysKF.s:9558   .debug_str:00000000000000eb .LASF188
     /tmp/cchEysKF.s:2650   .text:0000000000000fec .LFB52
GAS LISTING /tmp/cchEysKF.s 			page 99


     /tmp/cchEysKF.s:2719   .text:0000000000001090 .LFE52
     /tmp/cchEysKF.s:9910   .debug_str:0000000000000c54 .LASF185
     /tmp/cchEysKF.s:9912   .debug_str:0000000000000c5c .LASF186
     /tmp/cchEysKF.s:2666   .text:0000000000001010 .LVL306
     /tmp/cchEysKF.s:2672   .text:0000000000001024 .LVL307
     /tmp/cchEysKF.s:2680   .text:000000000000103c .LVL308
     /tmp/cchEysKF.s:2687   .text:0000000000001054 .LVL309
     /tmp/cchEysKF.s:2693   .text:0000000000001060 .LVL310
     /tmp/cchEysKF.s:2700   .text:000000000000106c .LVL311
     /tmp/cchEysKF.s:2706   .text:000000000000107c .LVL312
     /tmp/cchEysKF.s:10058  .debug_str:0000000000001099 .LASF187
     /tmp/cchEysKF.s:9976   .debug_str:0000000000000df4 .LASF189
     /tmp/cchEysKF.s:517    .text:00000000000002ec .LFB51
     /tmp/cchEysKF.s:583    .text:000000000000037c .LFE51
     /tmp/cchEysKF.s:8583   .debug_loc:00000000000000f4 .LLST10
     /tmp/cchEysKF.s:544    .text:0000000000000324 .LVL53
     /tmp/cchEysKF.s:562    .text:0000000000000354 .LVL54
     /tmp/cchEysKF.s:9710   .debug_str:00000000000005c2 .LASF190
     /tmp/cchEysKF.s:10034  .debug_str:0000000000000fb9 .LASF191
     /tmp/cchEysKF.s:448    .text:0000000000000264 .LFB50
     /tmp/cchEysKF.s:511    .text:00000000000002ec .LFE50
     /tmp/cchEysKF.s:8601   .debug_loc:0000000000000140 .LLST9
     /tmp/cchEysKF.s:475    .text:000000000000029c .LVL47
     /tmp/cchEysKF.s:485    .text:00000000000002b8 .LVL48
     /tmp/cchEysKF.s:490    .text:00000000000002c4 .LVL49
     /tmp/cchEysKF.s:9618   .debug_str:000000000000030b .LASF192
     /tmp/cchEysKF.s:10050  .debug_str:0000000000001048 .LASF193
     /tmp/cchEysKF.s:2298   .text:0000000000000d70 .LFB49
     /tmp/cchEysKF.s:2613   .text:0000000000000fc4 .LFE49
     /tmp/cchEysKF.s:9750   .debug_str:00000000000006e3 .LASF194
     /tmp/cchEysKF.s:9534   .debug_str:0000000000000044 .LASF195
     /tmp/cchEysKF.s:8619   .debug_loc:000000000000018c .LLST57
     /tmp/cchEysKF.s:9536   .debug_str:0000000000000049 .LASF196
     /tmp/cchEysKF.s:8630   .debug_loc:00000000000001c2 .LLST58
     /tmp/cchEysKF.s:8649   .debug_loc:000000000000021e .LLST59
     /tmp/cchEysKF.s:8670   .debug_loc:000000000000027e .LLST60
     /tmp/cchEysKF.s:8691   .debug_loc:00000000000002de .LLST61
     /tmp/cchEysKF.s:8702   .debug_loc:0000000000000314 .LLST62
     /tmp/cchEysKF.s:9586   .debug_str:00000000000001f1 .LASF197
     /tmp/cchEysKF.s:8733   .debug_loc:000000000000039d .LLST63
     /tmp/cchEysKF.s:9528   .debug_str:0000000000000029 .LASF198
     /tmp/cchEysKF.s:8744   .debug_loc:00000000000003d3 .LLST64
     /tmp/cchEysKF.s:10022  .debug_str:0000000000000f6e .LASF199
     /tmp/cchEysKF.s:8755   .debug_loc:0000000000000409 .LLST65
     /tmp/cchEysKF.s:9538   .debug_str:000000000000004e .LASF200
     /tmp/cchEysKF.s:8766   .debug_loc:000000000000043f .LLST66
     /tmp/cchEysKF.s:9540   .debug_str:0000000000000053 .LASF201
     /tmp/cchEysKF.s:8781   .debug_loc:0000000000000488 .LLST67
     /tmp/cchEysKF.s:10024  .debug_str:0000000000000f74 .LASF202
     /tmp/cchEysKF.s:8804   .debug_loc:00000000000004f7 .LLST68
     /tmp/cchEysKF.s:10026  .debug_str:0000000000000f7a .LASF203
     /tmp/cchEysKF.s:8815   .debug_loc:000000000000052d .LLST69
     /tmp/cchEysKF.s:2330   .text:0000000000000db0 .LBB47
     /tmp/cchEysKF.s:2365   .text:0000000000000df8 .LBE47
     /tmp/cchEysKF.s:8830   .debug_loc:0000000000000576 .LLST70
     /tmp/cchEysKF.s:2344   .text:0000000000000dcc .LVL256
     /tmp/cchEysKF.s:2362   .text:0000000000000df8 .LVL259
GAS LISTING /tmp/cchEysKF.s 			page 100


     /tmp/cchEysKF.s:2577   .text:0000000000000f70 .LVL298
     /tmp/cchEysKF.s:2329   .text:0000000000000db0 .LVL254
     /tmp/cchEysKF.s:2402   .text:0000000000000e38 .LVL261
     /tmp/cchEysKF.s:2408   .text:0000000000000e44 .LVL262
     /tmp/cchEysKF.s:2415   .text:0000000000000e54 .LVL264
     /tmp/cchEysKF.s:2423   .text:0000000000000e64 .LVL267
     /tmp/cchEysKF.s:2472   .text:0000000000000eac .LVL275
     /tmp/cchEysKF.s:2481   .text:0000000000000ebc .LVL276
     /tmp/cchEysKF.s:2487   .text:0000000000000ec8 .LVL277
     /tmp/cchEysKF.s:2495   .text:0000000000000ed8 .LVL280
     /tmp/cchEysKF.s:2523   .text:0000000000000f08 .LVL285
     /tmp/cchEysKF.s:2533   .text:0000000000000f1c .LVL288
     /tmp/cchEysKF.s:2543   .text:0000000000000f30 .LVL291
     /tmp/cchEysKF.s:2553   .text:0000000000000f44 .LVL294
     /tmp/cchEysKF.s:2585   .text:0000000000000f80 .LVL299
     /tmp/cchEysKF.s:2590   .text:0000000000000f8c .LVL300
     /tmp/cchEysKF.s:2595   .text:0000000000000f98 .LVL301
     /tmp/cchEysKF.s:2600   .text:0000000000000fa4 .LVL302
     /tmp/cchEysKF.s:2605   .text:0000000000000fb0 .LVL303
     /tmp/cchEysKF.s:2610   .text:0000000000000fc0 .LVL304
     /tmp/cchEysKF.s:9962   .debug_str:0000000000000d9c .LASF204
     /tmp/cchEysKF.s:9674   .debug_str:00000000000004d0 .LASF205
     /tmp/cchEysKF.s:2164   .text:0000000000000c68 .LFB48
     /tmp/cchEysKF.s:2284   .text:0000000000000d70 .LFE48
     /tmp/cchEysKF.s:9580   .debug_str:00000000000001d0 .LASF206
     /tmp/cchEysKF.s:8845   .debug_loc:00000000000005bf .LLST53
     /tmp/cchEysKF.s:8858   .debug_loc:00000000000005f7 .LLST54
     /tmp/cchEysKF.s:9818   .debug_str:00000000000008f0 .LASF207
     /tmp/cchEysKF.s:8873   .debug_loc:0000000000000640 .LLST55
     /tmp/cchEysKF.s:9902   .debug_str:0000000000000c22 .LASF208
     /tmp/cchEysKF.s:8880   .debug_loc:0000000000000663 .LLST56
     /tmp/cchEysKF.s:2181   .text:0000000000000c8c .LVL234
     /tmp/cchEysKF.s:2195   .text:0000000000000cb4 .LVL237
     /tmp/cchEysKF.s:2203   .text:0000000000000cc8 .LVL239
     /tmp/cchEysKF.s:2241   .text:0000000000000d10 .LVL244
     /tmp/cchEysKF.s:2250   .text:0000000000000d24 .LVL246
     /tmp/cchEysKF.s:2258   .text:0000000000000d34 .LVL248
     /tmp/cchEysKF.s:2263   .text:0000000000000d44 .LVL249
     /tmp/cchEysKF.s:2270   .text:0000000000000d58 .LVL250
     /tmp/cchEysKF.s:2280   .text:0000000000000d6c .LVL253
     /tmp/cchEysKF.s:9666   .debug_str:00000000000004a4 .LASF209
     /tmp/cchEysKF.s:9952   .debug_str:0000000000000d5b .LASF210
     /tmp/cchEysKF.s:1985   .text:0000000000000b18 .LFB47
     /tmp/cchEysKF.s:2150   .text:0000000000000c68 .LFE47
     /tmp/cchEysKF.s:8891   .debug_loc:0000000000000699 .LLST47
     /tmp/cchEysKF.s:8898   .debug_loc:00000000000006bc .LLST48
     /tmp/cchEysKF.s:8909   .debug_loc:00000000000006f2 .LLST49
     /tmp/cchEysKF.s:8920   .debug_loc:0000000000000728 .LLST50
     /tmp/cchEysKF.s:8931   .debug_loc:000000000000075e .LLST51
     /tmp/cchEysKF.s:8942   .debug_loc:0000000000000794 .LLST52
     /tmp/cchEysKF.s:2012   .text:0000000000000b50 .LVL202
     /tmp/cchEysKF.s:2017   .text:0000000000000b5c .LVL203
     /tmp/cchEysKF.s:2028   .text:0000000000000b74 .LVL205
     /tmp/cchEysKF.s:2036   .text:0000000000000b84 .LVL208
     /tmp/cchEysKF.s:2044   .text:0000000000000b94 .LVL211
     /tmp/cchEysKF.s:2053   .text:0000000000000ba8 .LVL214
     /tmp/cchEysKF.s:2061   .text:0000000000000bb8 .LVL217
GAS LISTING /tmp/cchEysKF.s 			page 101


     /tmp/cchEysKF.s:2078   .text:0000000000000bdc .LVL219
     /tmp/cchEysKF.s:2083   .text:0000000000000be8 .LVL220
     /tmp/cchEysKF.s:2088   .text:0000000000000bf4 .LVL221
     /tmp/cchEysKF.s:2093   .text:0000000000000c00 .LVL222
     /tmp/cchEysKF.s:2098   .text:0000000000000c0c .LVL223
     /tmp/cchEysKF.s:2105   .text:0000000000000c1c .LVL224
     /tmp/cchEysKF.s:2111   .text:0000000000000c2c .LVL225
     /tmp/cchEysKF.s:2120   .text:0000000000000c40 .LVL228
     /tmp/cchEysKF.s:291    .text:000000000000015c .LFB46
     /tmp/cchEysKF.s:346    .text:00000000000001b8 .LFE46
     /tmp/cchEysKF.s:8957   .debug_loc:00000000000007dd .LLST5
     /tmp/cchEysKF.s:307    .text:0000000000000170 .LBB16
     /tmp/cchEysKF.s:332    .text:00000000000001a4 .LBE16
     /tmp/cchEysKF.s:8971   .debug_loc:0000000000000816 .LLST6
     /tmp/cchEysKF.s:320    .text:0000000000000190 .LVL29
     /tmp/cchEysKF.s:325    .text:000000000000019c .LVL30
     /tmp/cchEysKF.s:9672   .debug_str:00000000000004cb .LASF273
     /tmp/cchEysKF.s:9654   .debug_str:0000000000000448 .LASF211
     /tmp/cchEysKF.s:1829   .text:0000000000000a60 .LFB44
     /tmp/cchEysKF.s:1864   .text:0000000000000aa0 .LFE44
     /tmp/cchEysKF.s:8987   .debug_loc:0000000000000860 .LLST44
     /tmp/cchEysKF.s:9005   .debug_loc:00000000000008ac .LLST45
     /tmp/cchEysKF.s:1847   .text:0000000000000a80 .LVL193
     /tmp/cchEysKF.s:9626   .debug_str:000000000000033b .LASF212
     /tmp/cchEysKF.s:627    .text._ZN14PeriodicThreadD0Ev:0000000000000000 .LFB43
     /tmp/cchEysKF.s:667    .text._ZN14PeriodicThreadD0Ev:000000000000004c .LFE43
     /tmp/cchEysKF.s:9019   .debug_loc:00000000000008e5 .LLST12
     /tmp/cchEysKF.s:643    .text._ZN14PeriodicThreadD0Ev:0000000000000018 .LBB19
     /tmp/cchEysKF.s:651    .text._ZN14PeriodicThreadD0Ev:000000000000002c .LBE19
     /tmp/cchEysKF.s:9037   .debug_loc:0000000000000931 .LLST13
     /tmp/cchEysKF.s:649    .text._ZN14PeriodicThreadD0Ev:000000000000002c .LVL60
     /tmp/cchEysKF.s:654    .text._ZN14PeriodicThreadD0Ev:0000000000000038 .LVL61
     /tmp/cchEysKF.s:10060  .debug_str:00000000000010a3 .LASF213
     /tmp/cchEysKF.s:590    .text._ZN14PeriodicThreadD2Ev:0000000000000000 .LFB41
     /tmp/cchEysKF.s:618    .text._ZN14PeriodicThreadD2Ev:0000000000000034 .LFE41
     /tmp/cchEysKF.s:9048   .debug_loc:0000000000000967 .LLST11
     /tmp/cchEysKF.s:607    .text._ZN14PeriodicThreadD2Ev:0000000000000024 .LVL57
     /tmp/cchEysKF.s:9954   .debug_str:0000000000000d6b .LASF214
     /tmp/cchEysKF.s:9690   .debug_str:000000000000053c .LASF215
     /tmp/cchEysKF.s:2756   .text:00000000000010b8 .LFB38
     /tmp/cchEysKF.s:2781   .text:00000000000010e0 .LFE38
     /tmp/cchEysKF.s:2770   .text:00000000000010d0 .LVL314
     /tmp/cchEysKF.s:9986   .debug_str:0000000000000e50 .LASF216
     /tmp/cchEysKF.s:9572   .debug_str:0000000000000187 .LASF217
     /tmp/cchEysKF.s:2725   .text:0000000000001090 .LFB37
     /tmp/cchEysKF.s:2750   .text:00000000000010b8 .LFE37
     /tmp/cchEysKF.s:2739   .text:00000000000010a8 .LVL313
     /tmp/cchEysKF.s:9982   .debug_str:0000000000000e22 .LASF218
     /tmp/cchEysKF.s:9774   .debug_str:0000000000000785 .LASF219
     /tmp/cchEysKF.s:2619   .text:0000000000000fc4 .LFB36
     /tmp/cchEysKF.s:2644   .text:0000000000000fec .LFE36
     /tmp/cchEysKF.s:2633   .text:0000000000000fdc .LVL305
     /tmp/cchEysKF.s:9808   .debug_str:00000000000008a1 .LASF220
     /tmp/cchEysKF.s:9648   .debug_str:000000000000041d .LASF221
     /tmp/cchEysKF.s:1604   .text:00000000000008c0 .LFB35
     /tmp/cchEysKF.s:1823   .text:0000000000000a60 .LFE35
     /tmp/cchEysKF.s:9610   .debug_str:00000000000002d4 .LASF222
GAS LISTING /tmp/cchEysKF.s 			page 102


     /tmp/cchEysKF.s:9062   .debug_loc:00000000000009a0 .LLST38
     /tmp/cchEysKF.s:1624   .text:00000000000008e8 .LBB38
     /tmp/cchEysKF.s:1656   .text:000000000000092c .LBE38
     /tmp/cchEysKF.s:9073   .debug_loc:00000000000009d6 .LLST39
     /tmp/cchEysKF.s:1641   .text:0000000000000908 .LVL167
     /tmp/cchEysKF.s:1653   .text:000000000000092c .LVL168
     /tmp/cchEysKF.s:1682   .text:000000000000094c .LBB40
     /tmp/cchEysKF.s:1745   .text:00000000000009cc .LBE40
     /tmp/cchEysKF.s:9084   .debug_loc:0000000000000a0c .LLST40
     /tmp/cchEysKF.s:9772   .debug_str:000000000000077e .LASF223
     /tmp/cchEysKF.s:9095   .debug_loc:0000000000000a42 .LLST41
     /tmp/cchEysKF.s:1698   .text:0000000000000970 .LVL172
     /tmp/cchEysKF.s:1709   .text:0000000000000988 .LVL174
     /tmp/cchEysKF.s:1732   .text:00000000000009b4 .LVL178
     /tmp/cchEysKF.s:1740   .text:00000000000009c8 .LVL179
     /tmp/cchEysKF.s:1746   .text:00000000000009cc .LBB43
     /tmp/cchEysKF.s:1806   .text:0000000000000a44 .LBE43
     /tmp/cchEysKF.s:9106   .debug_loc:0000000000000a78 .LLST42
     /tmp/cchEysKF.s:9117   .debug_loc:0000000000000aae .LLST43
     /tmp/cchEysKF.s:1762   .text:00000000000009f0 .LVL181
     /tmp/cchEysKF.s:1770   .text:0000000000000a00 .LVL183
     /tmp/cchEysKF.s:1793   .text:0000000000000a2c .LVL187
     /tmp/cchEysKF.s:1801   .text:0000000000000a40 .LVL188
     /tmp/cchEysKF.s:1623   .text:00000000000008e8 .LVL164
     /tmp/cchEysKF.s:1820   .text:0000000000000a5c .LVL191
     /tmp/cchEysKF.s:9716   .debug_str:00000000000005fb .LASF224
     /tmp/cchEysKF.s:10014  .debug_str:0000000000000f1b .LASF225
     /tmp/cchEysKF.s:1532   .text:0000000000000850 .LFB34
     /tmp/cchEysKF.s:1590   .text:00000000000008c0 .LFE34
     /tmp/cchEysKF.s:9128   .debug_loc:0000000000000ae4 .LLST36
     /tmp/cchEysKF.s:9141   .debug_loc:0000000000000b1c .LLST37
     /tmp/cchEysKF.s:1547   .text:0000000000000870 .LVL155
     /tmp/cchEysKF.s:1552   .text:000000000000087c .LVL156
     /tmp/cchEysKF.s:1558   .text:0000000000000888 .LVL158
     /tmp/cchEysKF.s:1566   .text:000000000000089c .LVL160
     /tmp/cchEysKF.s:1586   .text:00000000000008bc .LVL163
     /tmp/cchEysKF.s:9820   .debug_str:00000000000008fa .LASF226
     /tmp/cchEysKF.s:9806   .debug_str:000000000000088a .LASF227
     /tmp/cchEysKF.s:1396   .text:0000000000000778 .LFB33
     /tmp/cchEysKF.s:1521   .text:0000000000000850 .LFE33
     /tmp/cchEysKF.s:9168   .debug_loc:0000000000000b62 .LLST32
     /tmp/cchEysKF.s:9180   .debug_loc:0000000000000b99 .LLST33
     /tmp/cchEysKF.s:9196   .debug_loc:0000000000000be3 .LLST34
     /tmp/cchEysKF.s:9212   .debug_loc:0000000000000c2d .LLST35
     /tmp/cchEysKF.s:1462   .text:00000000000007e0 .LVL145
     /tmp/cchEysKF.s:1417   .text:00000000000007a4 .LVL140
     /tmp/cchEysKF.s:1473   .text:00000000000007f0 .LVL147
     /tmp/cchEysKF.s:1478   .text:0000000000000800 .LVL148
     /tmp/cchEysKF.s:1491   .text:0000000000000820 .LVL150
     /tmp/cchEysKF.s:1518   .text:000000000000084c .LVL154
     /tmp/cchEysKF.s:9522   .debug_str:0000000000000000 .LASF228
     /tmp/cchEysKF.s:10042  .debug_str:0000000000001003 .LASF229
     /tmp/cchEysKF.s:1325   .text:00000000000006f8 .LFB32
     /tmp/cchEysKF.s:1385   .text:0000000000000778 .LFE32
     /tmp/cchEysKF.s:9223   .debug_loc:0000000000000c63 .LLST30
     /tmp/cchEysKF.s:9236   .debug_loc:0000000000000c9c .LLST31
     /tmp/cchEysKF.s:1340   .text:0000000000000718 .LVL131
GAS LISTING /tmp/cchEysKF.s 			page 103


     /tmp/cchEysKF.s:1354   .text:0000000000000740 .LVL134
     /tmp/cchEysKF.s:1362   .text:0000000000000754 .LVL136
     /tmp/cchEysKF.s:1382   .text:0000000000000774 .LVL139
     /tmp/cchEysKF.s:9524   .debug_str:000000000000000a .LASF230
     /tmp/cchEysKF.s:9634   .debug_str:0000000000000392 .LASF231
     /tmp/cchEysKF.s:1127   .text:0000000000000598 .LFB31
     /tmp/cchEysKF.s:1314   .text:00000000000006f8 .LFE31
     /tmp/cchEysKF.s:1145   .text:00000000000005bc .LBB26
     /tmp/cchEysKF.s:1177   .text:0000000000000600 .LBE26
     /tmp/cchEysKF.s:9247   .debug_loc:0000000000000cd2 .LLST24
     /tmp/cchEysKF.s:1162   .text:00000000000005dc .LVL110
     /tmp/cchEysKF.s:1174   .text:0000000000000600 .LVL111
     /tmp/cchEysKF.s:1193   .text:0000000000000614 .LBB27
     /tmp/cchEysKF.s:1232   .text:0000000000000658 .LBE27
     /tmp/cchEysKF.s:9258   .debug_loc:0000000000000d08 .LLST25
     /tmp/cchEysKF.s:9269   .debug_loc:0000000000000d3e .LLST26
     /tmp/cchEysKF.s:1209   .text:0000000000000638 .LVL114
     /tmp/cchEysKF.s:1227   .text:0000000000000654 .LVL118
     /tmp/cchEysKF.s:1233   .text:0000000000000658 .LBB30
     /tmp/cchEysKF.s:1268   .text:00000000000006a0 .LBE30
     /tmp/cchEysKF.s:9276   .debug_loc:0000000000000d61 .LLST27
     /tmp/cchEysKF.s:1252   .text:0000000000000678 .LVL122
     /tmp/cchEysKF.s:1264   .text:000000000000069c .LVL123
     /tmp/cchEysKF.s:1269   .text:00000000000006a0 .LBB31
     /tmp/cchEysKF.s:1306   .text:00000000000006e4 .LBE31
     /tmp/cchEysKF.s:9283   .debug_loc:0000000000000d84 .LLST28
     /tmp/cchEysKF.s:9294   .debug_loc:0000000000000dba .LLST29
     /tmp/cchEysKF.s:1285   .text:00000000000006c4 .LVL125
     /tmp/cchEysKF.s:1301   .text:00000000000006e0 .LVL129
     /tmp/cchEysKF.s:1144   .text:00000000000005bc .LVL107
     /tmp/cchEysKF.s:1311   .text:00000000000006f4 .LVL130
     /tmp/cchEysKF.s:9878   .debug_str:0000000000000b4d .LASF232
     /tmp/cchEysKF.s:10036  .debug_str:0000000000000fc8 .LASF233
     /tmp/cchEysKF.s:1955   .text:0000000000000b00 .LFB30
     /tmp/cchEysKF.s:1971   .text:0000000000000b18 .LFE30
     /tmp/cchEysKF.s:1969   .text:0000000000000b18 .LVL201
     /tmp/cchEysKF.s:9848   .debug_str:00000000000009d2 .LASF234
     /tmp/cchEysKF.s:9894   .debug_str:0000000000000be3 .LASF235
     /tmp/cchEysKF.s:1926   .text:0000000000000b00 .LFE29
     /tmp/cchEysKF.s:9301   .debug_loc:0000000000000ddd .LLST46
     /tmp/cchEysKF.s:1894   .text:0000000000000ac4 .LVL195
     /tmp/cchEysKF.s:1900   .text:0000000000000ad4 .LVL196
     /tmp/cchEysKF.s:1907   .text:0000000000000ae0 .LVL197
     /tmp/cchEysKF.s:1919   .text:0000000000000af4 .LVL199
     /tmp/cchEysKF.s:1923   .text:0000000000000b00 .LVL200
     /tmp/cchEysKF.s:9692   .debug_str:0000000000000548 .LASF236
     /tmp/cchEysKF.s:9856   .debug_str:0000000000000a01 .LASF237
     /tmp/cchEysKF.s:1063   .text:0000000000000598 .LFE28
     /tmp/cchEysKF.s:9658   .debug_str:000000000000046e .LASF238
     /tmp/cchEysKF.s:9308   .debug_loc:0000000000000e00 .LLST21
     /tmp/cchEysKF.s:9315   .debug_loc:0000000000000e23 .LLST22
     /tmp/cchEysKF.s:9322   .debug_loc:0000000000000e46 .LLST23
     /tmp/cchEysKF.s:944    .text:0000000000000488 .LVL86
     /tmp/cchEysKF.s:951    .text:00000000000004a0 .LVL87
     /tmp/cchEysKF.s:958    .text:00000000000004ac .LVL88
     /tmp/cchEysKF.s:963    .text:00000000000004b8 .LVL89
     /tmp/cchEysKF.s:971    .text:00000000000004d0 .LVL91
GAS LISTING /tmp/cchEysKF.s 			page 104


     /tmp/cchEysKF.s:978    .text:00000000000004dc .LVL92
     /tmp/cchEysKF.s:983    .text:00000000000004e8 .LVL93
     /tmp/cchEysKF.s:991    .text:0000000000000500 .LVL95
     /tmp/cchEysKF.s:998    .text:000000000000050c .LVL96
     /tmp/cchEysKF.s:1002   .text:0000000000000514 .LVL97
     /tmp/cchEysKF.s:1007   .text:0000000000000524 .LVL98
     /tmp/cchEysKF.s:1011   .text:000000000000052c .LVL99
     /tmp/cchEysKF.s:1034   .text:0000000000000554 .LVL101
     /tmp/cchEysKF.s:1038   .text:0000000000000560 .LVL102
     /tmp/cchEysKF.s:1045   .text:0000000000000570 .LVL103
     /tmp/cchEysKF.s:1049   .text:000000000000057c .LVL104
     /tmp/cchEysKF.s:1056   .text:000000000000058c .LVL105
     /tmp/cchEysKF.s:1060   .text:0000000000000598 .LVL106
     /tmp/cchEysKF.s:9844   .debug_str:00000000000009bd .LASF239
     /tmp/cchEysKF.s:9650   .debug_str:0000000000000430 .LASF240
     /tmp/cchEysKF.s:880    .text:0000000000000464 .LFE27
     /tmp/cchEysKF.s:9329   .debug_loc:0000000000000e69 .LLST19
     /tmp/cchEysKF.s:9336   .debug_loc:0000000000000e8c .LLST20
     /tmp/cchEysKF.s:792    .text:00000000000003a0 .LVL71
     /tmp/cchEysKF.s:799    .text:00000000000003b8 .LVL72
     /tmp/cchEysKF.s:806    .text:00000000000003c4 .LVL73
     /tmp/cchEysKF.s:811    .text:00000000000003d0 .LVL74
     /tmp/cchEysKF.s:819    .text:00000000000003e8 .LVL76
     /tmp/cchEysKF.s:826    .text:00000000000003f4 .LVL77
     /tmp/cchEysKF.s:830    .text:00000000000003fc .LVL78
     /tmp/cchEysKF.s:835    .text:000000000000040c .LVL79
     /tmp/cchEysKF.s:839    .text:0000000000000414 .LVL80
     /tmp/cchEysKF.s:862    .text:000000000000043c .LVL82
     /tmp/cchEysKF.s:866    .text:0000000000000448 .LVL83
     /tmp/cchEysKF.s:873    .text:0000000000000458 .LVL84
     /tmp/cchEysKF.s:877    .text:0000000000000464 .LVL85
     /tmp/cchEysKF.s:9832   .debug_str:0000000000000956 .LASF241
     /tmp/cchEysKF.s:9796   .debug_str:0000000000000841 .LASF242
     /tmp/cchEysKF.s:352    .text:00000000000001b8 .LFB26
     /tmp/cchEysKF.s:442    .text:0000000000000264 .LFE26
     /tmp/cchEysKF.s:9343   .debug_loc:0000000000000eaf .LLST7
     /tmp/cchEysKF.s:374    .text:00000000000001dc .LBB17
     /tmp/cchEysKF.s:428    .text:0000000000000250 .LBE17
     /tmp/cchEysKF.s:9357   .debug_loc:0000000000000ee8 .LLST8
     /tmp/cchEysKF.s:383    .text:00000000000001ec .LVL38
     /tmp/cchEysKF.s:389    .text:00000000000001f8 .LVL39
     /tmp/cchEysKF.s:395    .text:0000000000000208 .LVL40
     /tmp/cchEysKF.s:400    .text:0000000000000214 .LVL41
     /tmp/cchEysKF.s:405    .text:0000000000000224 .LVL42
     /tmp/cchEysKF.s:371    .text:00000000000001dc .LVL36
     /tmp/cchEysKF.s:9550   .debug_str:0000000000000094 .LASF243
     /tmp/cchEysKF.s:9680   .debug_str:00000000000004f5 .LASF244
     /tmp/cchEysKF.s:205    .text:00000000000000c4 .LFB25
     /tmp/cchEysKF.s:285    .text:000000000000015c .LFE25
     /tmp/cchEysKF.s:9369   .debug_loc:0000000000000f1f .LLST3
     /tmp/cchEysKF.s:227    .text:00000000000000e8 .LBB15
     /tmp/cchEysKF.s:271    .text:0000000000000148 .LBE15
     /tmp/cchEysKF.s:9383   .debug_loc:0000000000000f58 .LLST4
     /tmp/cchEysKF.s:236    .text:00000000000000f8 .LVL20
     /tmp/cchEysKF.s:242    .text:0000000000000108 .LVL21
     /tmp/cchEysKF.s:247    .text:0000000000000114 .LVL22
     /tmp/cchEysKF.s:252    .text:0000000000000124 .LVL23
GAS LISTING /tmp/cchEysKF.s 			page 105


     /tmp/cchEysKF.s:224    .text:00000000000000e8 .LVL18
     /tmp/cchEysKF.s:9922   .debug_str:0000000000000ca2 .LASF245
     /tmp/cchEysKF.s:10000  .debug_str:0000000000000ea8 .LASF246
     /tmp/cchEysKF.s:111    .text:000000000000002c .LFB24
     /tmp/cchEysKF.s:191    .text:00000000000000c4 .LFE24
     /tmp/cchEysKF.s:9395   .debug_loc:0000000000000f8f .LLST1
     /tmp/cchEysKF.s:133    .text:0000000000000050 .LBB14
     /tmp/cchEysKF.s:177    .text:00000000000000b0 .LBE14
     /tmp/cchEysKF.s:9409   .debug_loc:0000000000000fc8 .LLST2
     /tmp/cchEysKF.s:142    .text:0000000000000060 .LVL10
     /tmp/cchEysKF.s:148    .text:0000000000000070 .LVL11
     /tmp/cchEysKF.s:153    .text:000000000000007c .LVL12
     /tmp/cchEysKF.s:158    .text:000000000000008c .LVL13
     /tmp/cchEysKF.s:130    .text:0000000000000050 .LVL8
     /tmp/cchEysKF.s:10070  .debug_str:00000000000010fa .LASF247
     /tmp/cchEysKF.s:9764   .debug_str:0000000000000741 .LASF248
     /tmp/cchEysKF.s:66     .text:0000000000000000 .LFB23
     /tmp/cchEysKF.s:94     .text:000000000000002c .LFE23
     /tmp/cchEysKF.s:9421   .debug_loc:0000000000000fff .LLST0
     /tmp/cchEysKF.s:86     .text:0000000000000020 .LVL4
     /tmp/cchEysKF.s:90     .text:0000000000000028 .LVL5
     /tmp/cchEysKF.s:37     .text._ZN14PeriodicThread18periodicActivationEv:0000000000000000 .LFB22
     /tmp/cchEysKF.s:55     .text._ZN14PeriodicThread18periodicActivationEv:0000000000000018 .LFE22
     /tmp/cchEysKF.s:11     .text._ZN6Thread3runEv:0000000000000000 .LFB21
     /tmp/cchEysKF.s:30     .text._ZN6Thread3runEv:0000000000000018 .LFE21
     /tmp/cchEysKF.s:9788   .debug_str:0000000000000802 .LASF250
     /tmp/cchEysKF.s:9816   .debug_str:00000000000008e7 .LASF251
     /tmp/cchEysKF.s:9644   .debug_str:00000000000003fc .LASF252
     /tmp/cchEysKF.s:9934   .debug_str:0000000000000cdc .LASF253
     /tmp/cchEysKF.s:9782   .debug_str:00000000000007e5 .LASF254
     /tmp/cchEysKF.s:9706   .debug_str:00000000000005a4 .LASF255
     /tmp/cchEysKF.s:9802   .debug_str:000000000000087c .LASF256
     /tmp/cchEysKF.s:9530   .debug_str:000000000000002f .LASF257
     /tmp/cchEysKF.s:9678   .debug_str:00000000000004ef .LASF258
     /tmp/cchEysKF.s:9542   .debug_str:0000000000000058 .LASF259
     /tmp/cchEysKF.s:9964   .debug_str:0000000000000dad .LASF274
     /tmp/cchEysKF.s:9554   .debug_str:00000000000000b7 .LASF275
     /tmp/cchEysKF.s:9756   .debug_str:0000000000000704 .LASF260
     /tmp/cchEysKF.s:719    .text._ZN12TestPeriodicD0Ev:0000000000000000 .LVL66
     /tmp/cchEysKF.s:754    .text._ZN12TestPeriodicD0Ev:0000000000000044 .LVL70
     /tmp/cchEysKF.s:731    .text._ZN12TestPeriodicD0Ev:0000000000000018 .LVL67
     /tmp/cchEysKF.s:678    .text._ZN12TestPeriodicD2Ev:0000000000000000 .LVL63
     /tmp/cchEysKF.s:687    .text._ZN12TestPeriodicD2Ev:0000000000000010 .LVL64
     /tmp/cchEysKF.s:520    .text:00000000000002ec .LVL51
     /tmp/cchEysKF.s:537    .text:0000000000000310 .LVL52
     /tmp/cchEysKF.s:579    .text:0000000000000378 .LVL55
     /tmp/cchEysKF.s:451    .text:0000000000000264 .LVL45
     /tmp/cchEysKF.s:468    .text:0000000000000288 .LVL46
     /tmp/cchEysKF.s:507    .text:00000000000002e8 .LVL50
     /tmp/cchEysKF.s:2417   .text:0000000000000e58 .LVL265
     /tmp/cchEysKF.s:2421   .text:0000000000000e5c .LVL266
     /tmp/cchEysKF.s:2425   .text:0000000000000e68 .LVL268
     /tmp/cchEysKF.s:2439   .text:0000000000000e7c .LVL270
     /tmp/cchEysKF.s:2515   .text:0000000000000ef8 .LVL283
     /tmp/cchEysKF.s:2521   .text:0000000000000f00 .LVL284
     /tmp/cchEysKF.s:2435   .text:0000000000000e78 .LVL269
     /tmp/cchEysKF.s:2526   .text:0000000000000f0c .LVL286
GAS LISTING /tmp/cchEysKF.s 			page 106


     /tmp/cchEysKF.s:2531   .text:0000000000000f14 .LVL287
     /tmp/cchEysKF.s:2443   .text:0000000000000e80 .LVL271
     /tmp/cchEysKF.s:2447   .text:0000000000000e84 .LVL272
     /tmp/cchEysKF.s:2570   .text:0000000000000f5c .LVL297
     /tmp/cchEysKF.s:2452   .text:0000000000000e88 .LVL273
     /tmp/cchEysKF.s:2456   .text:0000000000000e8c .LVL274
     /tmp/cchEysKF.s:2489   .text:0000000000000ecc .LVL278
     /tmp/cchEysKF.s:2493   .text:0000000000000ed0 .LVL279
     /tmp/cchEysKF.s:2536   .text:0000000000000f20 .LVL289
     /tmp/cchEysKF.s:2497   .text:0000000000000edc .LVL281
     /tmp/cchEysKF.s:2541   .text:0000000000000f28 .LVL290
     /tmp/cchEysKF.s:2546   .text:0000000000000f34 .LVL292
     /tmp/cchEysKF.s:2551   .text:0000000000000f3c .LVL293
     /tmp/cchEysKF.s:2503   .text:0000000000000ee4 .LVL282
     /tmp/cchEysKF.s:2334   .text:0000000000000db4 .LVL255
     /tmp/cchEysKF.s:2354   .text:0000000000000de4 .LVL257
     /tmp/cchEysKF.s:2356   .text:0000000000000de8 .LVL258
     /tmp/cchEysKF.s:2392   .text:0000000000000e28 .LVL260
     /tmp/cchEysKF.s:2410   .text:0000000000000e48 .LVL263
     /tmp/cchEysKF.s:2189   .text:0000000000000ca8 .LVL235
     /tmp/cchEysKF.s:2193   .text:0000000000000cac .LVL236
     /tmp/cchEysKF.s:2201   .text:0000000000000cc0 .LVL238
     /tmp/cchEysKF.s:2218   .text:0000000000000cdc .LVL240
     /tmp/cchEysKF.s:2225   .text:0000000000000ce8 .LVL241
     /tmp/cchEysKF.s:2243   .text:0000000000000d14 .LVL245
     /tmp/cchEysKF.s:2235   .text:0000000000000d04 .LVL242
     /tmp/cchEysKF.s:2239   .text:0000000000000d08 .LVL243
     /tmp/cchEysKF.s:2256   .text:0000000000000d2c .LVL247
     /tmp/cchEysKF.s:2273   .text:0000000000000d5c .LVL251
     /tmp/cchEysKF.s:2278   .text:0000000000000d64 .LVL252
     /tmp/cchEysKF.s:2019   .text:0000000000000b60 .LVL204
     /tmp/cchEysKF.s:2131   .text:0000000000000c4c .LVL229
     /tmp/cchEysKF.s:2030   .text:0000000000000b78 .LVL206
     /tmp/cchEysKF.s:2034   .text:0000000000000b7c .LVL207
     /tmp/cchEysKF.s:2134   .text:0000000000000c50 .LVL230
     /tmp/cchEysKF.s:2038   .text:0000000000000b88 .LVL209
     /tmp/cchEysKF.s:2042   .text:0000000000000b8c .LVL210
     /tmp/cchEysKF.s:2137   .text:0000000000000c54 .LVL231
     /tmp/cchEysKF.s:2046   .text:0000000000000b98 .LVL212
     /tmp/cchEysKF.s:2050   .text:0000000000000b9c .LVL213
     /tmp/cchEysKF.s:2140   .text:0000000000000c58 .LVL232
     /tmp/cchEysKF.s:2055   .text:0000000000000bac .LVL215
     /tmp/cchEysKF.s:2059   .text:0000000000000bb0 .LVL216
     /tmp/cchEysKF.s:2143   .text:0000000000000c5c .LVL233
     /tmp/cchEysKF.s:2076   .text:0000000000000bd4 .LVL218
     /tmp/cchEysKF.s:2113   .text:0000000000000c30 .LVL226
     /tmp/cchEysKF.s:2118   .text:0000000000000c38 .LVL227
     /tmp/cchEysKF.s:294    .text:000000000000015c .LVL26
     /tmp/cchEysKF.s:310    .text:0000000000000174 .LVL28
     /tmp/cchEysKF.s:306    .text:0000000000000170 .LVL27
     /tmp/cchEysKF.s:328    .text:00000000000001a0 .LVL31
     /tmp/cchEysKF.s:330    .text:00000000000001a4 .LVL32
     /tmp/cchEysKF.s:341    .text:00000000000001b0 .LVL33
     /tmp/cchEysKF.s:1832   .text:0000000000000a60 .LVL192
     /tmp/cchEysKF.s:1859   .text:0000000000000a98 .LVL194
     /tmp/cchEysKF.s:630    .text._ZN14PeriodicThreadD0Ev:0000000000000000 .LVL58
     /tmp/cchEysKF.s:662    .text._ZN14PeriodicThreadD0Ev:0000000000000044 .LVL62
GAS LISTING /tmp/cchEysKF.s 			page 107


     /tmp/cchEysKF.s:642    .text._ZN14PeriodicThreadD0Ev:0000000000000018 .LVL59
     /tmp/cchEysKF.s:593    .text._ZN14PeriodicThreadD2Ev:0000000000000000 .LVL56
     /tmp/cchEysKF.s:1676   .text:0000000000000948 .LVL170
     /tmp/cchEysKF.s:1810   .text:0000000000000a48 .LVL189
     /tmp/cchEysKF.s:1814   .text:0000000000000a4c .LVL190
     /tmp/cchEysKF.s:1628   .text:00000000000008f0 .LVL165
     /tmp/cchEysKF.s:1671   .text:0000000000000944 .LVL169
     /tmp/cchEysKF.s:1686   .text:0000000000000950 .LVL171
     /tmp/cchEysKF.s:1721   .text:00000000000009a0 .LVL175
     /tmp/cchEysKF.s:1724   .text:00000000000009a4 .LVL176
     /tmp/cchEysKF.s:1749   .text:00000000000009d0 .LVL180
     /tmp/cchEysKF.s:1704   .text:0000000000000978 .LVL173
     /tmp/cchEysKF.s:1730   .text:00000000000009ac .LVL177
     /tmp/cchEysKF.s:1782   .text:0000000000000a18 .LVL184
     /tmp/cchEysKF.s:1785   .text:0000000000000a1c .LVL185
     /tmp/cchEysKF.s:1768   .text:00000000000009f8 .LVL182
     /tmp/cchEysKF.s:1791   .text:0000000000000a24 .LVL186
     /tmp/cchEysKF.s:1556   .text:0000000000000880 .LVL157
     /tmp/cchEysKF.s:1564   .text:0000000000000894 .LVL159
     /tmp/cchEysKF.s:1578   .text:00000000000008ac .LVL161
     /tmp/cchEysKF.s:1584   .text:00000000000008b4 .LVL162
     /tmp/cchEysKF.s:1432   .text:00000000000007b4 .LVL141
     /tmp/cchEysKF.s:1483   .text:0000000000000808 .LVL149
     /tmp/cchEysKF.s:1507   .text:0000000000000834 .LVL152
     /tmp/cchEysKF.s:1511   .text:000000000000083c .LVL153
     /tmp/cchEysKF.s:1502   .text:000000000000082c .LVL151
     /tmp/cchEysKF.s:1451   .text:00000000000007c8 .LVL144
     /tmp/cchEysKF.s:1465   .text:00000000000007e4 .LVL146
     /tmp/cchEysKF.s:1348   .text:0000000000000734 .LVL132
     /tmp/cchEysKF.s:1352   .text:0000000000000738 .LVL133
     /tmp/cchEysKF.s:1360   .text:000000000000074c .LVL135
     /tmp/cchEysKF.s:1374   .text:0000000000000764 .LVL137
     /tmp/cchEysKF.s:1380   .text:000000000000076c .LVL138
     /tmp/cchEysKF.s:1149   .text:00000000000005c4 .LVL108
     /tmp/cchEysKF.s:1190   .text:0000000000000614 .LVL112
     /tmp/cchEysKF.s:1196   .text:0000000000000618 .LVL113
     /tmp/cchEysKF.s:1216   .text:0000000000000640 .LVL115
     /tmp/cchEysKF.s:1219   .text:0000000000000644 .LVL116
     /tmp/cchEysKF.s:1236   .text:000000000000065c .LVL119
     /tmp/cchEysKF.s:1225   .text:000000000000064c .LVL117
     /tmp/cchEysKF.s:1238   .text:0000000000000660 .LVL120
     /tmp/cchEysKF.s:1272   .text:00000000000006a4 .LVL124
     /tmp/cchEysKF.s:1291   .text:00000000000006cc .LVL126
     /tmp/cchEysKF.s:1293   .text:00000000000006d0 .LVL127
     /tmp/cchEysKF.s:1299   .text:00000000000006d8 .LVL128
     /tmp/cchEysKF.s:1913   .text:0000000000000ae4 .LVL198
     /tmp/cchEysKF.s:966    .text:00000000000004bc .LVL90
     /tmp/cchEysKF.s:986    .text:00000000000004ec .LVL94
     /tmp/cchEysKF.s:1022   .text:0000000000000538 .LVL100
     /tmp/cchEysKF.s:814    .text:00000000000003d4 .LVL75
     /tmp/cchEysKF.s:850    .text:0000000000000420 .LVL81
     /tmp/cchEysKF.s:355    .text:00000000000001b8 .LVL34
     /tmp/cchEysKF.s:369    .text:00000000000001d4 .LVL35
     /tmp/cchEysKF.s:378    .text:00000000000001e4 .LVL37
     /tmp/cchEysKF.s:437    .text:000000000000025c .LVL44
     /tmp/cchEysKF.s:208    .text:00000000000000c4 .LVL16
     /tmp/cchEysKF.s:222    .text:00000000000000e0 .LVL17
GAS LISTING /tmp/cchEysKF.s 			page 108


     /tmp/cchEysKF.s:231    .text:00000000000000f0 .LVL19
     /tmp/cchEysKF.s:280    .text:0000000000000154 .LVL25
     /tmp/cchEysKF.s:114    .text:000000000000002c .LVL6
     /tmp/cchEysKF.s:128    .text:0000000000000048 .LVL7
     /tmp/cchEysKF.s:137    .text:0000000000000058 .LVL9
     /tmp/cchEysKF.s:186    .text:00000000000000bc .LVL15
     /tmp/cchEysKF.s:70     .text:0000000000000000 .LVL2
     /tmp/cchEysKF.s:79     .text:0000000000000010 .LVL3
     /tmp/cchEysKF.s:2853   .debug_info:0000000000000000 .Ldebug_info0
     /tmp/cchEysKF.s:5      .text:0000000000000000 .Ltext0
     /tmp/cchEysKF.s:2846   .text:00000000000010e0 .Letext0
     /tmp/cchEysKF.s:1201   .text:0000000000000620 .LBB28
     /tmp/cchEysKF.s:1212   .text:000000000000063c .LBE28
     /tmp/cchEysKF.s:1221   .text:0000000000000644 .LBB29
     /tmp/cchEysKF.s:1231   .text:0000000000000658 .LBE29
     /tmp/cchEysKF.s:1277   .text:00000000000006ac .LBB32
     /tmp/cchEysKF.s:1288   .text:00000000000006c8 .LBE32
     /tmp/cchEysKF.s:1295   .text:00000000000006d0 .LBB33
     /tmp/cchEysKF.s:1305   .text:00000000000006e4 .LBE33
     /tmp/cchEysKF.s:1423   .text:00000000000007a4 .LBB34
     /tmp/cchEysKF.s:1426   .text:00000000000007a8 .LBE34
     /tmp/cchEysKF.s:1434   .text:00000000000007b4 .LBB37
     /tmp/cchEysKF.s:1468   .text:00000000000007e4 .LBE37
     /tmp/cchEysKF.s:1435   .text:00000000000007b4 .LBB35
     /tmp/cchEysKF.s:1448   .text:00000000000007c4 .LBE35
     /tmp/cchEysKF.s:1457   .text:00000000000007d4 .LBB36
     /tmp/cchEysKF.s:1467   .text:00000000000007e4 .LBE36
     /tmp/cchEysKF.s:1690   .text:0000000000000958 .LBB41
     /tmp/cchEysKF.s:1717   .text:000000000000099c .LBE41
     /tmp/cchEysKF.s:1726   .text:00000000000009a4 .LBB42
     /tmp/cchEysKF.s:1744   .text:00000000000009cc .LBE42
     /tmp/cchEysKF.s:1754   .text:00000000000009d8 .LBB44
     /tmp/cchEysKF.s:1778   .text:0000000000000a14 .LBE44
     /tmp/cchEysKF.s:1787   .text:0000000000000a1c .LBB45
     /tmp/cchEysKF.s:1805   .text:0000000000000a44 .LBE45
     /tmp/cchEysKF.s:2511   .text:0000000000000ef0 .LBB48
     /tmp/cchEysKF.s:2517   .text:0000000000000ef8 .LBE48
     /tmp/cchEysKF.s:2558   .text:0000000000000f48 .LBB49
     /tmp/cchEysKF.s:2580   .text:0000000000000f74 .LBE49
     /tmp/cchEysKF.s:883    .gcc_except_table:0000000000000000 .LLSDA27
     /tmp/cchEysKF.s:1065   .gcc_except_table:000000000000005f .LLSDA28
     /tmp/cchEysKF.s:1928   .gcc_except_table:00000000000000e6 .LLSDA29
                           .group:0000000000000000 _ZN14PeriodicThreadD5Ev
                           .group:0000000000000000 _ZN12TestPeriodicD5Ev

UNDEFINED SYMBOLS
_ZN5Riscv11printStringEPKc
thread_dispatch
_ZN5Riscv12printIntegerEm
thread_exit
sem_wait
__putc
sem_signal
_ZN6ThreadD2Ev
_ZdlPv
_Znwm
_ZN6ThreadC1EPFvPvES0_
GAS LISTING /tmp/cchEysKF.s 			page 109


_ZN6Thread5startEv
_ZN5Riscv16enableInterruptsEv
_ZN5Riscv17disableInterruptsEv
_Unwind_Resume
__gxx_personality_v0
mem_alloc
mem_free
HEAP_END_ADDR
HEAP_START_ADDR
_ZN14PeriodicThreadC2Em
sem_open
thread_create
_ZN3PCB10isFinishedEv
