GAS LISTING /tmp/cc7kAHCC.s 			page 1


   1              		.file	"Tests.cpp"
   2              		.option pic
   3              		.option norelax
   4              		.text
   5              	.Ltext0:
   6              		.section	.text._ZN6Thread3runEv,"axG",@progbits,_ZN6Thread3runEv,comdat
   7              		.align	2
   8              		.weak	_ZN6Thread3runEv
  10              	_ZN6Thread3runEv:
  11              	.LFB24:
  12              		.file 1 "src/../h/syscall_cpp.hpp"
   1:src/../h/syscall_cpp.hpp **** //
   2:src/../h/syscall_cpp.hpp **** // Created by os on 4/8/22.
   3:src/../h/syscall_cpp.hpp **** //
   4:src/../h/syscall_cpp.hpp **** 
   5:src/../h/syscall_cpp.hpp **** #ifndef PROJECT_BASE_V1_0_SYSCALL_CPP_HPP
   6:src/../h/syscall_cpp.hpp **** #define PROJECT_BASE_V1_0_SYSCALL_CPP_HPP
   7:src/../h/syscall_cpp.hpp **** 
   8:src/../h/syscall_cpp.hpp **** #include "syscall_c.h"
   9:src/../h/syscall_cpp.hpp **** #include "PCB.hpp"
  10:src/../h/syscall_cpp.hpp **** #include "KSemaphore.hpp"
  11:src/../h/syscall_cpp.hpp **** 
  12:src/../h/syscall_cpp.hpp **** void * operator new(size_t size);
  13:src/../h/syscall_cpp.hpp **** 
  14:src/../h/syscall_cpp.hpp **** void operator delete(void * p);
  15:src/../h/syscall_cpp.hpp **** 
  16:src/../h/syscall_cpp.hpp **** class Thread
  17:src/../h/syscall_cpp.hpp **** {
  18:src/../h/syscall_cpp.hpp **** public:
  19:src/../h/syscall_cpp.hpp ****     Thread(void (*body)(void*), void* args);
  20:src/../h/syscall_cpp.hpp **** 
  21:src/../h/syscall_cpp.hpp ****     virtual ~Thread();
  22:src/../h/syscall_cpp.hpp **** 
  23:src/../h/syscall_cpp.hpp ****     int start();
  24:src/../h/syscall_cpp.hpp **** 
  25:src/../h/syscall_cpp.hpp ****     static void dispatch();
  26:src/../h/syscall_cpp.hpp **** 
  27:src/../h/syscall_cpp.hpp ****     static void sleep(time_t);
  28:src/../h/syscall_cpp.hpp **** 
  29:src/../h/syscall_cpp.hpp **** protected:
  30:src/../h/syscall_cpp.hpp ****     Thread();
  31:src/../h/syscall_cpp.hpp **** 
  32:src/../h/syscall_cpp.hpp ****     virtual void run() {}
  13              		.loc 1 32 18
  14              		.cfi_startproc
  15              	.LVL0:
  16 0000 130101FF 		addi	sp,sp,-16
  17              		.cfi_def_cfa_offset 16
  18 0004 23348100 		sd	s0,8(sp)
  19              		.cfi_offset 8, -8
  20 0008 13040101 		addi	s0,sp,16
  21              		.cfi_def_cfa 8, 0
  22              		.loc 1 32 25 is_stmt 0
  23 000c 03348100 		ld	s0,8(sp)
  24              		.cfi_restore 8
  25              		.cfi_def_cfa 2, 16
  26 0010 13010101 		addi	sp,sp,16
GAS LISTING /tmp/cc7kAHCC.s 			page 2


  27              		.cfi_def_cfa_offset 0
  28 0014 67800000 		jr	ra
  29              		.cfi_endproc
  30              	.LFE24:
  32              		.section	.text._ZN14PeriodicThread18periodicActivationEv,"axG",@progbits,_ZN14PeriodicThread18peri
  33              		.align	2
  34              		.weak	_ZN14PeriodicThread18periodicActivationEv
  36              	_ZN14PeriodicThread18periodicActivationEv:
  37              	.LFB25:
  33:src/../h/syscall_cpp.hpp **** private:
  34:src/../h/syscall_cpp.hpp ****     thread_t myHandle;
  35:src/../h/syscall_cpp.hpp ****     static void runner(void* t);
  36:src/../h/syscall_cpp.hpp **** };
  37:src/../h/syscall_cpp.hpp **** 
  38:src/../h/syscall_cpp.hpp **** class Semaphore
  39:src/../h/syscall_cpp.hpp **** {
  40:src/../h/syscall_cpp.hpp **** public:
  41:src/../h/syscall_cpp.hpp ****     Semaphore(unsigned init = 1);
  42:src/../h/syscall_cpp.hpp **** 
  43:src/../h/syscall_cpp.hpp ****     virtual ~Semaphore();
  44:src/../h/syscall_cpp.hpp **** 
  45:src/../h/syscall_cpp.hpp ****     int wait();
  46:src/../h/syscall_cpp.hpp ****     int signal();
  47:src/../h/syscall_cpp.hpp **** 
  48:src/../h/syscall_cpp.hpp **** private:
  49:src/../h/syscall_cpp.hpp ****     sem_t myHandle;
  50:src/../h/syscall_cpp.hpp **** };
  51:src/../h/syscall_cpp.hpp **** 
  52:src/../h/syscall_cpp.hpp **** class Console
  53:src/../h/syscall_cpp.hpp **** {
  54:src/../h/syscall_cpp.hpp **** public:
  55:src/../h/syscall_cpp.hpp ****     static char getc();
  56:src/../h/syscall_cpp.hpp ****     static void putc(char);
  57:src/../h/syscall_cpp.hpp **** };
  58:src/../h/syscall_cpp.hpp **** 
  59:src/../h/syscall_cpp.hpp **** class PeriodicThread : public Thread
  60:src/../h/syscall_cpp.hpp **** {
  61:src/../h/syscall_cpp.hpp **** protected:
  62:src/../h/syscall_cpp.hpp ****     PeriodicThread(time_t period);
  63:src/../h/syscall_cpp.hpp ****     virtual void periodicActivation() {};
  38              		.loc 1 63 18 is_stmt 1
  39              		.cfi_startproc
  40              	.LVL1:
  41 0000 130101FF 		addi	sp,sp,-16
  42              		.cfi_def_cfa_offset 16
  43 0004 23348100 		sd	s0,8(sp)
  44              		.cfi_offset 8, -8
  45 0008 13040101 		addi	s0,sp,16
  46              		.cfi_def_cfa 8, 0
  47              		.loc 1 63 40 is_stmt 0
  48 000c 03348100 		ld	s0,8(sp)
  49              		.cfi_restore 8
  50              		.cfi_def_cfa 2, 16
  51 0010 13010101 		addi	sp,sp,16
  52              		.cfi_def_cfa_offset 0
  53 0014 67800000 		jr	ra
  54              		.cfi_endproc
GAS LISTING /tmp/cc7kAHCC.s 			page 3


  55              	.LFE25:
  57              		.section	.rodata.str1.8,"aMS",@progbits,1
  58              		.align	3
  59              	.LC0:
  60 0000 49646C65 		.string	"Idle\n"
  60      0A00
  61              		.text
  62              		.align	2
  63              		.globl	_Z4idlePv
  65              	_Z4idlePv:
  66              	.LFB26:
  67              		.file 2 "src/Tests.cpp"
   1:src/Tests.cpp **** //
   2:src/Tests.cpp **** // Created by os on 5/5/22.
   3:src/Tests.cpp **** //
   4:src/Tests.cpp **** 
   5:src/Tests.cpp **** #include "../h/Tests.hpp"
   6:src/Tests.cpp **** #include "../lib/console.h"
   7:src/Tests.cpp **** #include "../test/printing.hpp"
   8:src/Tests.cpp **** 
   9:src/Tests.cpp **** void idle(void* args)
  10:src/Tests.cpp **** {
  68              		.loc 2 10 1 is_stmt 1
  69              		.cfi_startproc
  70              	.LVL2:
  71 0000 130101FF 		addi	sp,sp,-16
  72              		.cfi_def_cfa_offset 16
  73 0004 23341100 		sd	ra,8(sp)
  74 0008 23308100 		sd	s0,0(sp)
  75              		.cfi_offset 1, -8
  76              		.cfi_offset 8, -16
  77 000c 13040101 		addi	s0,sp,16
  78              		.cfi_def_cfa 8, 0
  79              	.LVL3:
  80              	.L6:
  11:src/Tests.cpp ****     while(true)
  81              		.loc 2 11 5 discriminator 1
  12:src/Tests.cpp ****     {
  13:src/Tests.cpp ****         printString("Idle\n");
  82              		.loc 2 13 9 discriminator 1
  83              		.loc 2 13 20 is_stmt 0 discriminator 1
  84 0010 17050000 		lla	a0,.LC0
  84      13050500 
  85 0018 97000000 		call	_Z11printStringPKc@plt
  85      E7800000 
  86              	.LVL4:
  14:src/Tests.cpp ****         thread_dispatch();
  87              		.loc 2 14 9 is_stmt 1 discriminator 1
  88              		.loc 2 14 24 is_stmt 0 discriminator 1
  89 0020 97000000 		call	thread_dispatch@plt
  89      E7800000 
  90              	.LVL5:
  11:src/Tests.cpp ****     while(true)
  91              		.loc 2 11 5 is_stmt 1 discriminator 1
  92 0028 6FF09FFE 		j	.L6
  93              		.cfi_endproc
  94              	.LFE26:
GAS LISTING /tmp/cc7kAHCC.s 			page 4


  96              		.section	.rodata.str1.8
  97 0006 0000     		.align	3
  98              	.LC1:
  99 0008 54687265 		.string	"Thread 1 started...\n"
  99      61642031 
  99      20737461 
  99      72746564 
  99      2E2E2E0A 
 100 001d 000000   		.align	3
 101              	.LC2:
 102 0020 69203A20 		.string	"i : "
 102      00
 103 0025 000000   		.align	3
 104              	.LC3:
 105 0028 0A00     		.string	"\n"
 106              		.text
 107              		.align	2
 108              		.globl	_Z15thread1FunctionPv
 110              	_Z15thread1FunctionPv:
 111              	.LFB27:
  15:src/Tests.cpp ****     }
  16:src/Tests.cpp **** }
  17:src/Tests.cpp **** 
  18:src/Tests.cpp **** void thread1Function(void* p)
  19:src/Tests.cpp **** {
 112              		.loc 2 19 1
 113              		.cfi_startproc
 114              	.LVL6:
 115 002c 130101FE 		addi	sp,sp,-32
 116              		.cfi_def_cfa_offset 32
 117 0030 233C1100 		sd	ra,24(sp)
 118 0034 23388100 		sd	s0,16(sp)
 119 0038 23349100 		sd	s1,8(sp)
 120              		.cfi_offset 1, -8
 121              		.cfi_offset 8, -16
 122              		.cfi_offset 9, -24
 123 003c 13040102 		addi	s0,sp,32
 124              		.cfi_def_cfa 8, 0
  20:src/Tests.cpp ****     printString("Thread 1 started...\n");
 125              		.loc 2 20 5
 126              		.loc 2 20 16 is_stmt 0
 127 0040 17050000 		lla	a0,.LC1
 127      13050500 
 128              	.LVL7:
 129 0048 97000000 		call	_Z11printStringPKc@plt
 129      E7800000 
 130              	.LVL8:
  21:src/Tests.cpp ****     uint64 num = 10000;
 131              		.loc 2 21 5 is_stmt 1
  22:src/Tests.cpp ****     for(uint64 i = 0; i < num;i++)
 132              		.loc 2 22 5
 133              	.LBB14:
 134              		.loc 2 22 16 is_stmt 0
 135 0050 93040000 		li	s1,0
 136 0054 6F004004 		j	.L11
 137              	.LVL9:
 138              	.L13:
GAS LISTING /tmp/cc7kAHCC.s 			page 5


  23:src/Tests.cpp ****     {
  24:src/Tests.cpp ****         if(i % 150 == 0 && i > 0)
  25:src/Tests.cpp ****             thread_dispatch();
 139              		.loc 2 25 13 is_stmt 1
 140              		.loc 2 25 28 is_stmt 0
 141 0058 97000000 		call	thread_dispatch@plt
 141      E7800000 
 142              	.LVL10:
 143              	.L10:
  26:src/Tests.cpp ****         printString("i : ");
 144              		.loc 2 26 9 is_stmt 1 discriminator 2
 145              		.loc 2 26 20 is_stmt 0 discriminator 2
 146 0060 17050000 		lla	a0,.LC2
 146      13050500 
 147 0068 97000000 		call	_Z11printStringPKc@plt
 147      E7800000 
 148              	.LVL11:
  27:src/Tests.cpp ****         printInt(i);
 149              		.loc 2 27 9 is_stmt 1 discriminator 2
 150              		.loc 2 27 17 is_stmt 0 discriminator 2
 151 0070 13060000 		li	a2,0
 152 0074 9305A000 		li	a1,10
 153 0078 1B850400 		sext.w	a0,s1
 154 007c 97000000 		call	_Z8printIntiii@plt
 154      E7800000 
 155              	.LVL12:
  28:src/Tests.cpp ****         printString("\n");
 156              		.loc 2 28 9 is_stmt 1 discriminator 2
 157              		.loc 2 28 20 is_stmt 0 discriminator 2
 158 0084 17050000 		lla	a0,.LC3
 158      13050500 
 159 008c 97000000 		call	_Z11printStringPKc@plt
 159      E7800000 
 160              	.LVL13:
  22:src/Tests.cpp ****     {
 161              		.loc 2 22 5 is_stmt 1 discriminator 2
 162 0094 93841400 		addi	s1,s1,1
 163              	.LVL14:
 164              	.L11:
  22:src/Tests.cpp ****     {
 165              		.loc 2 22 25 discriminator 1
 166 0098 B7270000 		li	a5,8192
 167 009c 9387F770 		addi	a5,a5,1807
 168 00a0 63EC9700 		bgtu	s1,a5,.L8
  24:src/Tests.cpp ****             thread_dispatch();
 169              		.loc 2 24 9
  24:src/Tests.cpp ****             thread_dispatch();
 170              		.loc 2 24 14 is_stmt 0
 171 00a4 93076009 		li	a5,150
 172 00a8 B3F7F402 		remu	a5,s1,a5
  24:src/Tests.cpp ****             thread_dispatch();
 173              		.loc 2 24 9
 174 00ac E39A07FA 		bnez	a5,.L10
  24:src/Tests.cpp ****             thread_dispatch();
 175              		.loc 2 24 25 discriminator 1
 176 00b0 E38804FA 		beqz	s1,.L10
 177 00b4 6FF05FFA 		j	.L13
GAS LISTING /tmp/cc7kAHCC.s 			page 6


 178              	.L8:
 179              	.LBE14:
  29:src/Tests.cpp ****     }
  30:src/Tests.cpp **** }
 180              		.loc 2 30 1
 181 00b8 83308101 		ld	ra,24(sp)
 182              		.cfi_restore 1
 183 00bc 03340101 		ld	s0,16(sp)
 184              		.cfi_restore 8
 185              		.cfi_def_cfa 2, 32
 186 00c0 83348100 		ld	s1,8(sp)
 187              		.cfi_restore 9
 188              	.LVL15:
 189 00c4 13010102 		addi	sp,sp,32
 190              		.cfi_def_cfa_offset 0
 191 00c8 67800000 		jr	ra
 192              		.cfi_endproc
 193              	.LFE27:
 195              		.section	.rodata.str1.8
 196 002a 00000000 		.align	3
 196      0000
 197              	.LC4:
 198 0030 54687265 		.string	"Thread 2 started...\n"
 198      61642032 
 198      20737461 
 198      72746564 
 198      2E2E2E0A 
 199 0045 000000   		.align	3
 200              	.LC5:
 201 0048 6A203A20 		.string	"j : "
 201      00
 202              		.text
 203              		.align	2
 204              		.globl	_Z15thread2FunctionPv
 206              	_Z15thread2FunctionPv:
 207              	.LFB28:
  31:src/Tests.cpp **** 
  32:src/Tests.cpp **** void thread2Function(void* p)
  33:src/Tests.cpp **** {
 208              		.loc 2 33 1 is_stmt 1
 209              		.cfi_startproc
 210              	.LVL16:
 211 00cc 130101FE 		addi	sp,sp,-32
 212              		.cfi_def_cfa_offset 32
 213 00d0 233C1100 		sd	ra,24(sp)
 214 00d4 23388100 		sd	s0,16(sp)
 215 00d8 23349100 		sd	s1,8(sp)
 216              		.cfi_offset 1, -8
 217              		.cfi_offset 8, -16
 218              		.cfi_offset 9, -24
 219 00dc 13040102 		addi	s0,sp,32
 220              		.cfi_def_cfa 8, 0
  34:src/Tests.cpp ****     printString("Thread 2 started...\n");
 221              		.loc 2 34 5
 222              		.loc 2 34 16 is_stmt 0
 223 00e0 17050000 		lla	a0,.LC4
 223      13050500 
GAS LISTING /tmp/cc7kAHCC.s 			page 7


 224              	.LVL17:
 225 00e8 97000000 		call	_Z11printStringPKc@plt
 225      E7800000 
 226              	.LVL18:
  35:src/Tests.cpp ****     uint64 num = 10000;
 227              		.loc 2 35 5 is_stmt 1
  36:src/Tests.cpp ****     for(uint64 j = 0; j < num;j++)
 228              		.loc 2 36 5
 229              	.LBB15:
 230              		.loc 2 36 16 is_stmt 0
 231 00f0 93040000 		li	s1,0
 232 00f4 6F004004 		j	.L17
 233              	.LVL19:
 234              	.L19:
  37:src/Tests.cpp ****     {
  38:src/Tests.cpp ****         if(j % 50 == 0 && j > 0)
  39:src/Tests.cpp ****             thread_dispatch();
 235              		.loc 2 39 13 is_stmt 1
 236              		.loc 2 39 28 is_stmt 0
 237 00f8 97000000 		call	thread_dispatch@plt
 237      E7800000 
 238              	.LVL20:
 239              	.L16:
  40:src/Tests.cpp ****         printString("j : ");
 240              		.loc 2 40 9 is_stmt 1 discriminator 2
 241              		.loc 2 40 20 is_stmt 0 discriminator 2
 242 0100 17050000 		lla	a0,.LC5
 242      13050500 
 243 0108 97000000 		call	_Z11printStringPKc@plt
 243      E7800000 
 244              	.LVL21:
  41:src/Tests.cpp ****         printInt(j);
 245              		.loc 2 41 9 is_stmt 1 discriminator 2
 246              		.loc 2 41 17 is_stmt 0 discriminator 2
 247 0110 13060000 		li	a2,0
 248 0114 9305A000 		li	a1,10
 249 0118 1B850400 		sext.w	a0,s1
 250 011c 97000000 		call	_Z8printIntiii@plt
 250      E7800000 
 251              	.LVL22:
  42:src/Tests.cpp ****         printString("\n");
 252              		.loc 2 42 9 is_stmt 1 discriminator 2
 253              		.loc 2 42 20 is_stmt 0 discriminator 2
 254 0124 17050000 		lla	a0,.LC3
 254      13050500 
 255 012c 97000000 		call	_Z11printStringPKc@plt
 255      E7800000 
 256              	.LVL23:
  36:src/Tests.cpp ****     {
 257              		.loc 2 36 5 is_stmt 1 discriminator 2
 258 0134 93841400 		addi	s1,s1,1
 259              	.LVL24:
 260              	.L17:
  36:src/Tests.cpp ****     {
 261              		.loc 2 36 25 discriminator 1
 262 0138 B7270000 		li	a5,8192
 263 013c 9387F770 		addi	a5,a5,1807
GAS LISTING /tmp/cc7kAHCC.s 			page 8


 264 0140 63EC9700 		bgtu	s1,a5,.L14
  38:src/Tests.cpp ****             thread_dispatch();
 265              		.loc 2 38 9
  38:src/Tests.cpp ****             thread_dispatch();
 266              		.loc 2 38 14 is_stmt 0
 267 0144 93072003 		li	a5,50
 268 0148 B3F7F402 		remu	a5,s1,a5
  38:src/Tests.cpp ****             thread_dispatch();
 269              		.loc 2 38 9
 270 014c E39A07FA 		bnez	a5,.L16
  38:src/Tests.cpp ****             thread_dispatch();
 271              		.loc 2 38 24 discriminator 1
 272 0150 E38804FA 		beqz	s1,.L16
 273 0154 6FF05FFA 		j	.L19
 274              	.L14:
 275              	.LBE15:
  43:src/Tests.cpp ****     }
  44:src/Tests.cpp **** }
 276              		.loc 2 44 1
 277 0158 83308101 		ld	ra,24(sp)
 278              		.cfi_restore 1
 279 015c 03340101 		ld	s0,16(sp)
 280              		.cfi_restore 8
 281              		.cfi_def_cfa 2, 32
 282 0160 83348100 		ld	s1,8(sp)
 283              		.cfi_restore 9
 284              	.LVL25:
 285 0164 13010102 		addi	sp,sp,32
 286              		.cfi_def_cfa_offset 0
 287 0168 67800000 		jr	ra
 288              		.cfi_endproc
 289              	.LFE28:
 291              		.align	2
 292              		.globl	_ZN12TestPeriodic18periodicActivationEv
 294              	_ZN12TestPeriodic18periodicActivationEv:
 295              	.LFB49:
  45:src/Tests.cpp **** 
  46:src/Tests.cpp **** void thread2FunctionTest2(void* p)
  47:src/Tests.cpp **** {
  48:src/Tests.cpp ****     printString("Thread 2 started...\n");
  49:src/Tests.cpp ****     uint64 num = 10000;
  50:src/Tests.cpp ****     for(uint64 j = 0; j < num;j++)
  51:src/Tests.cpp ****     {
  52:src/Tests.cpp ****         if(j == 200)
  53:src/Tests.cpp ****             thread_exit();
  54:src/Tests.cpp ****         if(j % 50 == 0 && j > 0)
  55:src/Tests.cpp ****             thread_dispatch();
  56:src/Tests.cpp ****         printString("j : ");
  57:src/Tests.cpp ****         printInt(j);
  58:src/Tests.cpp ****         printString("\n");
  59:src/Tests.cpp ****     }
  60:src/Tests.cpp **** }
  61:src/Tests.cpp **** 
  62:src/Tests.cpp **** void threadTest1()
  63:src/Tests.cpp **** {
  64:src/Tests.cpp ****     Thread* t1 = new Thread(&thread1Function, 0);
  65:src/Tests.cpp ****     t1->start();
GAS LISTING /tmp/cc7kAHCC.s 			page 9


  66:src/Tests.cpp ****     Thread* t2 = new Thread(&thread2Function, 0);
  67:src/Tests.cpp ****     t2->start();
  68:src/Tests.cpp ****     Riscv::enableInterrupts();
  69:src/Tests.cpp ****     //while(((PCB*)(t1->myHandle))->getState() != PCB::FINISHED || ((PCB*)(t2->myHandle))->getState
  70:src/Tests.cpp ****     //{
  71:src/Tests.cpp ****     //    Riscv::printString("Main thread\n");
  72:src/Tests.cpp ****     //    thread_dispatch();
  73:src/Tests.cpp ****     //}
  74:src/Tests.cpp **** 
  75:src/Tests.cpp ****     printString("End...\n");
  76:src/Tests.cpp ****     Riscv::disableInterrupts();
  77:src/Tests.cpp **** }
  78:src/Tests.cpp **** 
  79:src/Tests.cpp **** void threadTest2()
  80:src/Tests.cpp **** {
  81:src/Tests.cpp ****     Thread* idleThread = new Thread(&idle, 0);
  82:src/Tests.cpp ****     idleThread->start();
  83:src/Tests.cpp ****     Thread* t1 = new Thread(&thread1Function, 0);
  84:src/Tests.cpp ****     t1->start();
  85:src/Tests.cpp ****     Thread* t2  = new Thread(&thread2FunctionTest2, 0);
  86:src/Tests.cpp ****     t2->start();
  87:src/Tests.cpp **** 
  88:src/Tests.cpp ****     Riscv::enableInterrupts();
  89:src/Tests.cpp **** 
  90:src/Tests.cpp ****     //while(((PCB*)idleThread->myHandle)->getState() != PCB::FINISHED);
  91:src/Tests.cpp **** 
  92:src/Tests.cpp ****     printString("End...\n");
  93:src/Tests.cpp **** 
  94:src/Tests.cpp ****     Riscv::disableInterrupts();
  95:src/Tests.cpp **** }
  96:src/Tests.cpp **** 
  97:src/Tests.cpp **** 
  98:src/Tests.cpp **** void threadTest3()
  99:src/Tests.cpp **** {
 100:src/Tests.cpp ****     Thread* t = new TestPeriodic(50);
 101:src/Tests.cpp ****     t->start();
 102:src/Tests.cpp ****     while(true)
 103:src/Tests.cpp ****     {
 104:src/Tests.cpp ****         //thread_dispatch();
 105:src/Tests.cpp ****     }
 106:src/Tests.cpp **** }
 107:src/Tests.cpp **** 
 108:src/Tests.cpp **** void threadTests()
 109:src/Tests.cpp **** {
 110:src/Tests.cpp ****     //threadTest1();
 111:src/Tests.cpp ****     //threadTest2();
 112:src/Tests.cpp ****     threadTest3();
 113:src/Tests.cpp **** }
 114:src/Tests.cpp **** 
 115:src/Tests.cpp **** 
 116:src/Tests.cpp **** //memory (de)allocation tests
 117:src/Tests.cpp **** void mallocFree()
 118:src/Tests.cpp **** {
 119:src/Tests.cpp ****     printString("mallocFree\n");
 120:src/Tests.cpp ****     constexpr int num = 100;
 121:src/Tests.cpp ****     void* addrs[num];
 122:src/Tests.cpp ****     for(int i = 0; i < num;i++)
GAS LISTING /tmp/cc7kAHCC.s 			page 10


 123:src/Tests.cpp ****     {
 124:src/Tests.cpp ****         addrs[i] = mem_alloc(100);
 125:src/Tests.cpp ****         if(addrs[i] == 0)
 126:src/Tests.cpp ****         {
 127:src/Tests.cpp ****             printString("not OK\n");
 128:src/Tests.cpp ****             return;
 129:src/Tests.cpp ****         }
 130:src/Tests.cpp **** 
 131:src/Tests.cpp ****     }
 132:src/Tests.cpp **** 
 133:src/Tests.cpp ****     for(int i = 0 ; i < num;i+=2)
 134:src/Tests.cpp ****     {
 135:src/Tests.cpp ****         int retval = mem_free(addrs[i]);
 136:src/Tests.cpp ****         if(retval != 0)
 137:src/Tests.cpp ****         {
 138:src/Tests.cpp ****             printString("not OK\n");
 139:src/Tests.cpp ****             return;
 140:src/Tests.cpp ****         }
 141:src/Tests.cpp ****     }
 142:src/Tests.cpp **** 
 143:src/Tests.cpp ****     for(int i = 0 ; i < num;i+=2)
 144:src/Tests.cpp ****     {
 145:src/Tests.cpp ****         addrs[i] = mem_alloc(20);
 146:src/Tests.cpp ****         if(addrs[i] == 0)
 147:src/Tests.cpp ****         {
 148:src/Tests.cpp ****             printString("not OK\n");
 149:src/Tests.cpp ****             return;
 150:src/Tests.cpp ****         }
 151:src/Tests.cpp ****     }
 152:src/Tests.cpp **** 
 153:src/Tests.cpp ****     for(int i = 0; i < num;i++)
 154:src/Tests.cpp ****     {
 155:src/Tests.cpp ****         int retval = mem_free(addrs[i]);
 156:src/Tests.cpp ****         if(retval != 0)
 157:src/Tests.cpp ****         {
 158:src/Tests.cpp ****             printString("not OK\n");
 159:src/Tests.cpp ****             return;
 160:src/Tests.cpp ****         }
 161:src/Tests.cpp ****     }
 162:src/Tests.cpp **** 
 163:src/Tests.cpp ****     printString("OK\n");
 164:src/Tests.cpp **** }
 165:src/Tests.cpp **** void bigMalloc()
 166:src/Tests.cpp **** {
 167:src/Tests.cpp ****     printString("bigMalloc\n");
 168:src/Tests.cpp ****     uint64 x = (uint64)HEAP_END_ADDR - (uint64)HEAP_START_ADDR + 100UL;
 169:src/Tests.cpp ****     void* p = mem_alloc(x);
 170:src/Tests.cpp ****     if(p == 0)
 171:src/Tests.cpp ****         printString("OK\n");
 172:src/Tests.cpp ****     else
 173:src/Tests.cpp ****         printString("not OK\n");
 174:src/Tests.cpp **** }
 175:src/Tests.cpp **** 
 176:src/Tests.cpp **** void lotOfSmallMallocs()
 177:src/Tests.cpp **** {
 178:src/Tests.cpp ****     printString("lotOfSmallMallocs\n");
 179:src/Tests.cpp ****     uint64 cnt = 0;
GAS LISTING /tmp/cc7kAHCC.s 			page 11


 180:src/Tests.cpp ****     uint64 sum = 0;
 181:src/Tests.cpp ****     uint64 N = 10000UL;
 182:src/Tests.cpp ****     uint64 X = 10UL;
 183:src/Tests.cpp ****     for(uint64 i = 0; i < N;i++)
 184:src/Tests.cpp ****     {
 185:src/Tests.cpp ****         Test* t = (Test*)mem_alloc(sizeof(Test));
 186:src/Tests.cpp ****         if(t == 0)
 187:src/Tests.cpp ****             break;
 188:src/Tests.cpp ****         t->a = X;
 189:src/Tests.cpp ****         sum+=t->a;
 190:src/Tests.cpp ****         cnt++;
 191:src/Tests.cpp ****     }
 192:src/Tests.cpp ****     printInt(cnt);
 193:src/Tests.cpp ****     printString("\n");
 194:src/Tests.cpp ****     if(sum == X*cnt)
 195:src/Tests.cpp ****         printString("OK\n");
 196:src/Tests.cpp ****     else
 197:src/Tests.cpp ****         printString("not OK\n");
 198:src/Tests.cpp **** }
 199:src/Tests.cpp **** void badFree()
 200:src/Tests.cpp **** {
 201:src/Tests.cpp ****     printString("badFree\n");
 202:src/Tests.cpp ****     Test* t = (Test*)mem_alloc(sizeof(Test));
 203:src/Tests.cpp ****     uint64 retval = mem_free((char*)t + 2);
 204:src/Tests.cpp ****     if(retval == 0)
 205:src/Tests.cpp ****         printString("not OK\n");
 206:src/Tests.cpp ****     else
 207:src/Tests.cpp ****          printString("OK\n");
 208:src/Tests.cpp **** }
 209:src/Tests.cpp **** 
 210:src/Tests.cpp **** void stressTesting()
 211:src/Tests.cpp **** {
 212:src/Tests.cpp ****     printString("stressTesting\n");
 213:src/Tests.cpp ****     constexpr int num = 100;
 214:src/Tests.cpp ****     void* addrs[num];
 215:src/Tests.cpp ****     for(int i = 0; i < num;i++)
 216:src/Tests.cpp ****     {
 217:src/Tests.cpp ****         addrs[i] = mem_alloc(1);
 218:src/Tests.cpp ****         if(addrs[i] == 0)
 219:src/Tests.cpp ****         {
 220:src/Tests.cpp ****             printString("not OK\n");
 221:src/Tests.cpp ****             return;
 222:src/Tests.cpp ****         }
 223:src/Tests.cpp **** 
 224:src/Tests.cpp ****     }
 225:src/Tests.cpp ****     int sz = 300;
 226:src/Tests.cpp ****     while(sz > 0)
 227:src/Tests.cpp ****     {
 228:src/Tests.cpp ****         for(int i = 0 ; i < num;i+=2)
 229:src/Tests.cpp ****         {
 230:src/Tests.cpp ****             int retval = mem_free(addrs[i]);
 231:src/Tests.cpp ****             if(retval != 0)
 232:src/Tests.cpp ****             {
 233:src/Tests.cpp ****                 printString("not OK\n");
 234:src/Tests.cpp ****                 return;
 235:src/Tests.cpp ****             }
 236:src/Tests.cpp ****             addrs[i] = mem_alloc(sz/2);
GAS LISTING /tmp/cc7kAHCC.s 			page 12


 237:src/Tests.cpp ****             if(addrs[i] == 0)
 238:src/Tests.cpp ****             {
 239:src/Tests.cpp ****                 printString("not Ok\n");
 240:src/Tests.cpp ****                 return;
 241:src/Tests.cpp ****             }
 242:src/Tests.cpp **** 
 243:src/Tests.cpp ****         }
 244:src/Tests.cpp **** 
 245:src/Tests.cpp ****         for(int i = 1 ; i < num;i+=2)
 246:src/Tests.cpp ****         {
 247:src/Tests.cpp ****             int retval = mem_free(addrs[i]);
 248:src/Tests.cpp ****             if(retval != 0)
 249:src/Tests.cpp ****             {
 250:src/Tests.cpp ****                 printString("not OK\n");
 251:src/Tests.cpp ****                 return;
 252:src/Tests.cpp ****             }
 253:src/Tests.cpp ****             addrs[i] = mem_alloc(sz);
 254:src/Tests.cpp ****             if(addrs[i] == 0)
 255:src/Tests.cpp ****             {
 256:src/Tests.cpp ****                 printString("not Ok\n");
 257:src/Tests.cpp ****                 return;
 258:src/Tests.cpp ****             }
 259:src/Tests.cpp **** 
 260:src/Tests.cpp ****         }
 261:src/Tests.cpp ****         sz-=10;
 262:src/Tests.cpp ****     }
 263:src/Tests.cpp **** 
 264:src/Tests.cpp ****     printString("OK\n");
 265:src/Tests.cpp **** }
 266:src/Tests.cpp **** 
 267:src/Tests.cpp **** void memoryAllocationTests()
 268:src/Tests.cpp **** {
 269:src/Tests.cpp ****     //bigMalloc();
 270:src/Tests.cpp ****     //lotOfSmallMallocs();
 271:src/Tests.cpp ****     //mallocFree();
 272:src/Tests.cpp ****     //badFree();
 273:src/Tests.cpp ****     //stressTesting();
 274:src/Tests.cpp ****     //mallocTest();
 275:src/Tests.cpp ****     //mallocEverything();
 276:src/Tests.cpp ****     mallocGapFillTest();
 277:src/Tests.cpp **** }
 278:src/Tests.cpp **** 
 279:src/Tests.cpp **** void semaphoreTests()
 280:src/Tests.cpp **** {
 281:src/Tests.cpp ****     semTest1();
 282:src/Tests.cpp **** }
 283:src/Tests.cpp **** 
 284:src/Tests.cpp **** void myTests()
 285:src/Tests.cpp **** {
 286:src/Tests.cpp ****     //memoryAllocationTests();
 287:src/Tests.cpp ****     //threadTests();
 288:src/Tests.cpp ****     //semaphoreTests();
 289:src/Tests.cpp ****     consoleTests();
 290:src/Tests.cpp **** }
 291:src/Tests.cpp **** 
 292:src/Tests.cpp **** TestPeriodic::TestPeriodic(time_t time) : PeriodicThread(time) {
 293:src/Tests.cpp **** 
GAS LISTING /tmp/cc7kAHCC.s 			page 13


 294:src/Tests.cpp **** }
 295:src/Tests.cpp **** 
 296:src/Tests.cpp **** void TestPeriodic::periodicActivation()
 297:src/Tests.cpp **** {
 296              		.loc 2 297 1 is_stmt 1
 297              		.cfi_startproc
 298              	.LVL26:
 299 016c 130101FE 		addi	sp,sp,-32
 300              		.cfi_def_cfa_offset 32
 301 0170 233C1100 		sd	ra,24(sp)
 302 0174 23388100 		sd	s0,16(sp)
 303 0178 23349100 		sd	s1,8(sp)
 304              		.cfi_offset 1, -8
 305              		.cfi_offset 8, -16
 306              		.cfi_offset 9, -24
 307 017c 13040102 		addi	s0,sp,32
 308              		.cfi_def_cfa 8, 0
 298:src/Tests.cpp ****     for(int i = 0 ; i < 10000;i++)
 309              		.loc 2 298 5
 310              	.LVL27:
 311              	.LBB16:
 312              		.loc 2 298 13 is_stmt 0
 313 0180 93040000 		li	s1,0
 314              	.LVL28:
 315              	.L22:
 316              		.loc 2 298 23 is_stmt 1 discriminator 3
 317 0184 B7270000 		li	a5,8192
 318 0188 9387F770 		addi	a5,a5,1807
 319 018c 63C89702 		bgt	s1,a5,.L20
 299:src/Tests.cpp ****     {
 300:src/Tests.cpp ****         printString("i : ");
 320              		.loc 2 300 9 discriminator 2
 321              		.loc 2 300 20 is_stmt 0 discriminator 2
 322 0190 17050000 		lla	a0,.LC2
 322      13050500 
 323 0198 97000000 		call	_Z11printStringPKc@plt
 323      E7800000 
 324              	.LVL29:
 301:src/Tests.cpp ****         printInt(i);
 325              		.loc 2 301 9 is_stmt 1 discriminator 2
 326              		.loc 2 301 17 is_stmt 0 discriminator 2
 327 01a0 13060000 		li	a2,0
 328 01a4 9305A000 		li	a1,10
 329 01a8 13850400 		mv	a0,s1
 330 01ac 97000000 		call	_Z8printIntiii@plt
 330      E7800000 
 331              	.LVL30:
 298:src/Tests.cpp ****     for(int i = 0 ; i < 10000;i++)
 332              		.loc 2 298 5 is_stmt 1 discriminator 2
 333 01b4 9B841400 		addiw	s1,s1,1
 334              	.LVL31:
 335 01b8 6FF0DFFC 		j	.L22
 336              	.LVL32:
 337              	.L20:
 338              	.LBE16:
 302:src/Tests.cpp ****     }
 303:src/Tests.cpp **** }
GAS LISTING /tmp/cc7kAHCC.s 			page 14


 339              		.loc 2 303 1 is_stmt 0
 340 01bc 83308101 		ld	ra,24(sp)
 341              		.cfi_restore 1
 342 01c0 03340101 		ld	s0,16(sp)
 343              		.cfi_restore 8
 344              		.cfi_def_cfa 2, 32
 345 01c4 83348100 		ld	s1,8(sp)
 346              		.cfi_restore 9
 347              	.LVL33:
 348 01c8 13010102 		addi	sp,sp,32
 349              		.cfi_def_cfa_offset 0
 350 01cc 67800000 		jr	ra
 351              		.cfi_endproc
 352              	.LFE49:
 354              		.align	2
 355              		.globl	_Z20thread2FunctionTest2Pv
 357              	_Z20thread2FunctionTest2Pv:
 358              	.LFB29:
  47:src/Tests.cpp ****     printString("Thread 2 started...\n");
 359              		.loc 2 47 1 is_stmt 1
 360              		.cfi_startproc
 361              	.LVL34:
 362 01d0 130101FE 		addi	sp,sp,-32
 363              		.cfi_def_cfa_offset 32
 364 01d4 233C1100 		sd	ra,24(sp)
 365 01d8 23388100 		sd	s0,16(sp)
 366 01dc 23349100 		sd	s1,8(sp)
 367              		.cfi_offset 1, -8
 368              		.cfi_offset 8, -16
 369              		.cfi_offset 9, -24
 370 01e0 13040102 		addi	s0,sp,32
 371              		.cfi_def_cfa 8, 0
  48:src/Tests.cpp ****     uint64 num = 10000;
 372              		.loc 2 48 5
  48:src/Tests.cpp ****     uint64 num = 10000;
 373              		.loc 2 48 16 is_stmt 0
 374 01e4 17050000 		lla	a0,.LC4
 374      13050500 
 375              	.LVL35:
 376 01ec 97000000 		call	_Z11printStringPKc@plt
 376      E7800000 
 377              	.LVL36:
  49:src/Tests.cpp ****     for(uint64 j = 0; j < num;j++)
 378              		.loc 2 49 5 is_stmt 1
  50:src/Tests.cpp ****     {
 379              		.loc 2 50 5
 380              	.LBB17:
  50:src/Tests.cpp ****     {
 381              		.loc 2 50 16 is_stmt 0
 382 01f4 93040000 		li	s1,0
 383 01f8 6F000005 		j	.L28
 384              	.LVL37:
 385              	.L30:
  53:src/Tests.cpp ****         if(j % 50 == 0 && j > 0)
 386              		.loc 2 53 13 is_stmt 1
  53:src/Tests.cpp ****         if(j % 50 == 0 && j > 0)
 387              		.loc 2 53 24 is_stmt 0
GAS LISTING /tmp/cc7kAHCC.s 			page 15


 388 01fc 97000000 		call	thread_exit@plt
 388      E7800000 
 389              	.LVL38:
 390 0204 6F008005 		j	.L26
 391              	.L31:
  55:src/Tests.cpp ****         printString("j : ");
 392              		.loc 2 55 13 is_stmt 1
  55:src/Tests.cpp ****         printString("j : ");
 393              		.loc 2 55 28 is_stmt 0
 394 0208 97000000 		call	thread_dispatch@plt
 394      E7800000 
 395              	.LVL39:
 396              	.L27:
  56:src/Tests.cpp ****         printInt(j);
 397              		.loc 2 56 9 is_stmt 1 discriminator 2
  56:src/Tests.cpp ****         printInt(j);
 398              		.loc 2 56 20 is_stmt 0 discriminator 2
 399 0210 17050000 		lla	a0,.LC5
 399      13050500 
 400 0218 97000000 		call	_Z11printStringPKc@plt
 400      E7800000 
 401              	.LVL40:
  57:src/Tests.cpp ****         printString("\n");
 402              		.loc 2 57 9 is_stmt 1 discriminator 2
  57:src/Tests.cpp ****         printString("\n");
 403              		.loc 2 57 17 is_stmt 0 discriminator 2
 404 0220 13060000 		li	a2,0
 405 0224 9305A000 		li	a1,10
 406 0228 1B850400 		sext.w	a0,s1
 407 022c 97000000 		call	_Z8printIntiii@plt
 407      E7800000 
 408              	.LVL41:
  58:src/Tests.cpp ****     }
 409              		.loc 2 58 9 is_stmt 1 discriminator 2
  58:src/Tests.cpp ****     }
 410              		.loc 2 58 20 is_stmt 0 discriminator 2
 411 0234 17050000 		lla	a0,.LC3
 411      13050500 
 412 023c 97000000 		call	_Z11printStringPKc@plt
 412      E7800000 
 413              	.LVL42:
  50:src/Tests.cpp ****     {
 414              		.loc 2 50 5 is_stmt 1 discriminator 2
 415 0244 93841400 		addi	s1,s1,1
 416              	.LVL43:
 417              	.L28:
  50:src/Tests.cpp ****     {
 418              		.loc 2 50 25 discriminator 1
 419 0248 B7270000 		li	a5,8192
 420 024c 9387F770 		addi	a5,a5,1807
 421 0250 63E09702 		bgtu	s1,a5,.L24
  52:src/Tests.cpp ****             thread_exit();
 422              		.loc 2 52 9
 423 0254 9307800C 		li	a5,200
 424 0258 E382F4FA 		beq	s1,a5,.L30
 425              	.L26:
  54:src/Tests.cpp ****             thread_dispatch();
GAS LISTING /tmp/cc7kAHCC.s 			page 16


 426              		.loc 2 54 9
  54:src/Tests.cpp ****             thread_dispatch();
 427              		.loc 2 54 14 is_stmt 0
 428 025c 93072003 		li	a5,50
 429 0260 B3F7F402 		remu	a5,s1,a5
  54:src/Tests.cpp ****             thread_dispatch();
 430              		.loc 2 54 9
 431 0264 E39607FA 		bnez	a5,.L27
  54:src/Tests.cpp ****             thread_dispatch();
 432              		.loc 2 54 24 discriminator 1
 433 0268 E38404FA 		beqz	s1,.L27
 434 026c 6FF0DFF9 		j	.L31
 435              	.L24:
 436              	.LBE17:
  60:src/Tests.cpp **** 
 437              		.loc 2 60 1
 438 0270 83308101 		ld	ra,24(sp)
 439              		.cfi_restore 1
 440 0274 03340101 		ld	s0,16(sp)
 441              		.cfi_restore 8
 442              		.cfi_def_cfa 2, 32
 443 0278 83348100 		ld	s1,8(sp)
 444              		.cfi_restore 9
 445              	.LVL44:
 446 027c 13010102 		addi	sp,sp,32
 447              		.cfi_def_cfa_offset 0
 448 0280 67800000 		jr	ra
 449              		.cfi_endproc
 450              	.LFE29:
 452              		.align	2
 453              		.globl	_Z9consumerAPv
 455              	_Z9consumerAPv:
 456              	.LFB53:
 304:src/Tests.cpp **** 
 305:src/Tests.cpp **** void mallocTest()
 306:src/Tests.cpp **** {
 307:src/Tests.cpp ****     printString("Testing a few mallocs and frees\n\n");
 308:src/Tests.cpp **** 
 309:src/Tests.cpp ****     object* o = new object;
 310:src/Tests.cpp ****     o->a = 3;
 311:src/Tests.cpp ****     void* m1 = mem_alloc(10);
 312:src/Tests.cpp ****     void* m2 = mem_alloc(100);
 313:src/Tests.cpp ****     void* m3 = mem_alloc(1000);
 314:src/Tests.cpp ****     void* m4 = mem_alloc(10000);
 315:src/Tests.cpp ****     void* m5 = mem_alloc(1);
 316:src/Tests.cpp **** 
 317:src/Tests.cpp ****     if(!m1 || !m2 || !m3 || !m4 || !m5){
 318:src/Tests.cpp ****         printString("not OK\n");
 319:src/Tests.cpp ****         return;
 320:src/Tests.cpp ****     }
 321:src/Tests.cpp **** 
 322:src/Tests.cpp ****     delete (uint64*)m1;
 323:src/Tests.cpp ****     delete (uint64*)m3;
 324:src/Tests.cpp ****     delete (uint64*)m4;
 325:src/Tests.cpp ****     delete (uint64*)m2;
 326:src/Tests.cpp ****     delete (uint64*)m5;
 327:src/Tests.cpp ****     delete o;
GAS LISTING /tmp/cc7kAHCC.s 			page 17


 328:src/Tests.cpp **** 
 329:src/Tests.cpp ****     printString("SUCCESSFUL: Testing a few mallocs and frees\n\n");
 330:src/Tests.cpp **** }
 331:src/Tests.cpp **** 
 332:src/Tests.cpp **** void mallocEverything()
 333:src/Tests.cpp **** {
 334:src/Tests.cpp ****     printString("Testing allocating whole address space\n\n");
 335:src/Tests.cpp **** 
 336:src/Tests.cpp ****     uint64 neg_size = (uint64)HEAP_START_ADDR - (uint64)HEAP_END_ADDR -sizeof(MemoryAllocator::Bloc
 337:src/Tests.cpp **** 
 338:src/Tests.cpp ****     void* m = mem_alloc(neg_size);
 339:src/Tests.cpp **** 
 340:src/Tests.cpp ****     if(m!=nullptr){
 341:src/Tests.cpp ****         printString("not OK\n");
 342:src/Tests.cpp ****         return;
 343:src/Tests.cpp ****     }
 344:src/Tests.cpp **** 
 345:src/Tests.cpp ****     uint64 blockSize = (((uint64)HEAP_END_ADDR - (uint64)HEAP_START_ADDR - sizeof(MemoryAllocator::
 346:src/Tests.cpp **** 
 347:src/Tests.cpp ****     m = mem_alloc(blockSize<<6);
 348:src/Tests.cpp **** 
 349:src/Tests.cpp ****     if(m==nullptr){
 350:src/Tests.cpp ****         printString("not OK\n");
 351:src/Tests.cpp ****         return;
 352:src/Tests.cpp ****     }
 353:src/Tests.cpp **** 
 354:src/Tests.cpp **** //    there should be some space left still, depending on source file size and output buffer size
 355:src/Tests.cpp **** //    excess allocation should fail and small_chunk should succeed
 356:src/Tests.cpp **** 
 357:src/Tests.cpp **** //    void *excess = mem_alloc(100);
 358:src/Tests.cpp **** //
 359:src/Tests.cpp **** //    if(excess!=nullptr){
 360:src/Tests.cpp **** //        Riscv::printString("not OK\n");
 361:src/Tests.cpp **** //        return;
 362:src/Tests.cpp **** //    }
 363:src/Tests.cpp **** //
 364:src/Tests.cpp ****     void *small_chunk = mem_alloc(1);
 365:src/Tests.cpp **** 
 366:src/Tests.cpp ****     if(small_chunk == nullptr){
 367:src/Tests.cpp ****         printString("not OK\n");
 368:src/Tests.cpp ****         return;
 369:src/Tests.cpp ****     }
 370:src/Tests.cpp **** 
 371:src/Tests.cpp ****     delete (uint64*)m;
 372:src/Tests.cpp ****     //delete (uint64*)small_chunk;
 373:src/Tests.cpp **** 
 374:src/Tests.cpp ****     printString("SUCCESSFUL: Testing allocating whole address space\n\n");
 375:src/Tests.cpp **** }
 376:src/Tests.cpp **** 
 377:src/Tests.cpp **** void mallocGapFillTest()
 378:src/Tests.cpp **** {
 379:src/Tests.cpp ****     printString("Testing gap filling and chunk merge after multiple mallocs and frees\n\n");
 380:src/Tests.cpp **** 
 381:src/Tests.cpp ****     const int N = 10;
 382:src/Tests.cpp **** 
 383:src/Tests.cpp ****     void *m[N];
 384:src/Tests.cpp **** 
GAS LISTING /tmp/cc7kAHCC.s 			page 18


 385:src/Tests.cpp ****     for(int i=0;i<N;i++)
 386:src/Tests.cpp ****     {
 387:src/Tests.cpp ****         m[i] = mem_alloc((i<<6)+1);
 388:src/Tests.cpp ****         if(m[i] == nullptr){
 389:src/Tests.cpp ****             printString("not OK\n");
 390:src/Tests.cpp ****             return;
 391:src/Tests.cpp ****         }
 392:src/Tests.cpp ****     }
 393:src/Tests.cpp **** 
 394:src/Tests.cpp ****     delete (uint64*)m[2];
 395:src/Tests.cpp **** 
 396:src/Tests.cpp ****     void* tmp1 = mem_alloc(1);
 397:src/Tests.cpp ****     void* tmp2 = mem_alloc(1);
 398:src/Tests.cpp ****     void* tmp3 = mem_alloc(1);
 399:src/Tests.cpp **** 
 400:src/Tests.cpp ****     if(!tmp1 || !tmp2 || !tmp3)
 401:src/Tests.cpp ****     {
 402:src/Tests.cpp ****         printString("not OK\n");
 403:src/Tests.cpp ****         return;
 404:src/Tests.cpp ****     }
 405:src/Tests.cpp **** 
 406:src/Tests.cpp ****     uint64 im1 = (uint64)m[1];
 407:src/Tests.cpp ****     uint64 im3 = (uint64)m[3];
 408:src/Tests.cpp ****     uint64 im5 = (uint64)m[5];
 409:src/Tests.cpp ****     uint64 imN = (uint64)m[N];
 410:src/Tests.cpp **** 
 411:src/Tests.cpp ****     uint64 itmp1 = (uint64)tmp1;
 412:src/Tests.cpp ****     uint64 itmp2 = (uint64)tmp2;
 413:src/Tests.cpp ****     uint64 itmp3 = (uint64)tmp3;
 414:src/Tests.cpp **** 
 415:src/Tests.cpp ****     if(!(im1<itmp1 && itmp1<im3 && im1<itmp2 && itmp2<im3 && itmp3>imN))
 416:src/Tests.cpp ****     {
 417:src/Tests.cpp ****         printString("not OK\n");
 418:src/Tests.cpp ****         return;
 419:src/Tests.cpp ****     }
 420:src/Tests.cpp **** 
 421:src/Tests.cpp ****     delete (uint64*)m[3];
 422:src/Tests.cpp ****     delete (uint64*)m[4];
 423:src/Tests.cpp **** 
 424:src/Tests.cpp ****     void* tmp4 = mem_alloc(640);
 425:src/Tests.cpp ****     void* tmp5 = mem_alloc(576);
 426:src/Tests.cpp **** 
 427:src/Tests.cpp ****     if(!tmp4 || !tmp5){
 428:src/Tests.cpp ****         printString("not OK\n");
 429:src/Tests.cpp ****         return;
 430:src/Tests.cpp ****     }
 431:src/Tests.cpp **** 
 432:src/Tests.cpp ****     uint64 itmp4 = (uint64)tmp4;
 433:src/Tests.cpp ****     uint64 itmp5 = (uint64)tmp5;
 434:src/Tests.cpp **** 
 435:src/Tests.cpp ****     if(!(itmp5>itmp2 && itmp5>im5 && itmp4<itmp3)){
 436:src/Tests.cpp ****         printString("not OK\n");
 437:src/Tests.cpp ****         return;
 438:src/Tests.cpp ****     }
 439:src/Tests.cpp **** 
 440:src/Tests.cpp ****     for(int i=0;i<N;i++){
 441:src/Tests.cpp ****         delete (uint64*)m[i];
GAS LISTING /tmp/cc7kAHCC.s 			page 19


 442:src/Tests.cpp ****     }
 443:src/Tests.cpp **** 
 444:src/Tests.cpp ****     delete (uint64*)tmp1;
 445:src/Tests.cpp ****     delete (uint64*)tmp2;
 446:src/Tests.cpp ****     delete (uint64*)tmp3;
 447:src/Tests.cpp ****     delete (uint64*)tmp4;
 448:src/Tests.cpp ****     delete (uint64*)tmp5;
 449:src/Tests.cpp **** 
 450:src/Tests.cpp ****     printString("SUCCESSFUL: Testing gap filling and chunk merge after multiple mallocs and frees\n
 451:src/Tests.cpp **** }
 452:src/Tests.cpp **** 
 453:src/Tests.cpp **** char buffer[10];
 454:src/Tests.cpp **** int head = 0;
 455:src/Tests.cpp **** int tail = 0;
 456:src/Tests.cpp **** sem_t spaceAvailable, itemAvailable;
 457:src/Tests.cpp **** char string[11] = "this is ni";
 458:src/Tests.cpp **** 
 459:src/Tests.cpp **** void consumerA(void *arg)
 460:src/Tests.cpp **** {
 457              		.loc 2 460 1 is_stmt 1
 458              		.cfi_startproc
 459              	.LVL45:
 461:src/Tests.cpp ****     while(head!=10)
 460              		.loc 2 461 5
 461              		.loc 2 461 15
 462 0284 17070000 		lw	a4,.LANCHOR0
 462      03270700 
 463 028c 9307A000 		li	a5,10
 464 0290 630CF706 		beq	a4,a5,.L40
 460:src/Tests.cpp ****     while(head!=10)
 465              		.loc 2 460 1 is_stmt 0
 466 0294 130101FE 		addi	sp,sp,-32
 467              		.cfi_def_cfa_offset 32
 468 0298 233C1100 		sd	ra,24(sp)
 469 029c 23388100 		sd	s0,16(sp)
 470 02a0 23349100 		sd	s1,8(sp)
 471              		.cfi_offset 1, -8
 472              		.cfi_offset 8, -16
 473              		.cfi_offset 9, -24
 474 02a4 13040102 		addi	s0,sp,32
 475              		.cfi_def_cfa 8, 0
 476              	.LVL46:
 477              	.L37:
 462:src/Tests.cpp ****     {
 463:src/Tests.cpp ****         sem_wait(itemAvailable);
 478              		.loc 2 463 9 is_stmt 1
 479              		.loc 2 463 17 is_stmt 0
 480 02a8 97040000 		lla	s1,.LANCHOR0
 480      93840400 
 481 02b0 03B58400 		ld	a0,8(s1)
 482 02b4 97000000 		call	sem_wait@plt
 482      E7800000 
 483              	.LVL47:
 464:src/Tests.cpp ****         __putc(buffer[head++]);
 484              		.loc 2 464 9 is_stmt 1
 485              		.loc 2 464 27 is_stmt 0
 486 02bc 83A70400 		lw	a5,0(s1)
GAS LISTING /tmp/cc7kAHCC.s 			page 20


 487 02c0 1B871700 		addiw	a4,a5,1
 488 02c4 23A0E400 		sw	a4,0(s1)
 489              		.loc 2 464 15
 490 02c8 B387F400 		add	a5,s1,a5
 491 02cc 03C50701 		lbu	a0,16(a5)
 492 02d0 97000000 		call	__putc@plt
 492      E7800000 
 493              	.LVL48:
 465:src/Tests.cpp ****         sem_signal(spaceAvailable);
 494              		.loc 2 465 9 is_stmt 1
 495              		.loc 2 465 19 is_stmt 0
 496 02d8 03B50402 		ld	a0,32(s1)
 497 02dc 97000000 		call	sem_signal@plt
 497      E7800000 
 498              	.LVL49:
 461:src/Tests.cpp ****     {
 499              		.loc 2 461 5 is_stmt 1
 461:src/Tests.cpp ****     {
 500              		.loc 2 461 15
 501 02e4 17070000 		lw	a4,.LANCHOR0
 501      03270700 
 502 02ec 9307A000 		li	a5,10
 503 02f0 E31CF7FA 		bne	a4,a5,.L37
 466:src/Tests.cpp ****     }
 467:src/Tests.cpp **** }
 504              		.loc 2 467 1 is_stmt 0
 505 02f4 83308101 		ld	ra,24(sp)
 506              		.cfi_restore 1
 507 02f8 03340101 		ld	s0,16(sp)
 508              		.cfi_restore 8
 509              		.cfi_def_cfa 2, 32
 510 02fc 83348100 		ld	s1,8(sp)
 511              		.cfi_restore 9
 512 0300 13010102 		addi	sp,sp,32
 513              		.cfi_def_cfa_offset 0
 514 0304 67800000 		jr	ra
 515              	.LVL50:
 516              	.L40:
 517 0308 67800000 		ret
 518              		.cfi_endproc
 519              	.LFE53:
 521              		.align	2
 522              		.globl	_Z9producerAPv
 524              	_Z9producerAPv:
 525              	.LFB54:
 468:src/Tests.cpp **** 
 469:src/Tests.cpp **** void producerA(void *arg)
 470:src/Tests.cpp **** {
 526              		.loc 2 470 1 is_stmt 1
 527              		.cfi_startproc
 528              	.LVL51:
 471:src/Tests.cpp ****     while(tail!=10)
 529              		.loc 2 471 5
 530              		.loc 2 471 15
 531 030c 17070000 		lw	a4,.LANCHOR0+40
 531      03270700 
 532 0314 9307A000 		li	a5,10
GAS LISTING /tmp/cc7kAHCC.s 			page 21


 533 0318 6300F708 		beq	a4,a5,.L49
 470:src/Tests.cpp ****     while(tail!=10)
 534              		.loc 2 470 1 is_stmt 0
 535 031c 130101FE 		addi	sp,sp,-32
 536              		.cfi_def_cfa_offset 32
 537 0320 233C1100 		sd	ra,24(sp)
 538 0324 23388100 		sd	s0,16(sp)
 539 0328 23349100 		sd	s1,8(sp)
 540              		.cfi_offset 1, -8
 541              		.cfi_offset 8, -16
 542              		.cfi_offset 9, -24
 543 032c 13040102 		addi	s0,sp,32
 544              		.cfi_def_cfa 8, 0
 545              	.LVL52:
 546              	.L46:
 472:src/Tests.cpp ****     {
 473:src/Tests.cpp ****         sem_wait(spaceAvailable);
 547              		.loc 2 473 9 is_stmt 1
 548              		.loc 2 473 17 is_stmt 0
 549 0330 97040000 		lla	s1,.LANCHOR0
 549      93840400 
 550 0338 03B50402 		ld	a0,32(s1)
 551 033c 97000000 		call	sem_wait@plt
 551      E7800000 
 552              	.LVL53:
 474:src/Tests.cpp ****         buffer[tail] = string[tail];
 553              		.loc 2 474 9 is_stmt 1
 554              		.loc 2 474 35 is_stmt 0
 555 0344 83A78402 		lw	a5,40(s1)
 556 0348 17070000 		lla	a4,.LANCHOR1
 556      13070700 
 557 0350 3307F700 		add	a4,a4,a5
 558 0354 83460700 		lbu	a3,0(a4)
 559              		.loc 2 474 22
 560 0358 3387F400 		add	a4,s1,a5
 561 035c 2308D700 		sb	a3,16(a4)
 475:src/Tests.cpp ****         tail++;
 562              		.loc 2 475 9 is_stmt 1
 563              		.loc 2 475 13 is_stmt 0
 564 0360 9B871700 		addiw	a5,a5,1
 565 0364 23A4F402 		sw	a5,40(s1)
 476:src/Tests.cpp ****         sem_signal(itemAvailable);
 566              		.loc 2 476 9 is_stmt 1
 567              		.loc 2 476 19 is_stmt 0
 568 0368 03B58400 		ld	a0,8(s1)
 569 036c 97000000 		call	sem_signal@plt
 569      E7800000 
 570              	.LVL54:
 471:src/Tests.cpp ****     {
 571              		.loc 2 471 5 is_stmt 1
 471:src/Tests.cpp ****     {
 572              		.loc 2 471 15
 573 0374 17070000 		lw	a4,.LANCHOR0+40
 573      03270700 
 574 037c 9307A000 		li	a5,10
 575 0380 E318F7FA 		bne	a4,a5,.L46
 477:src/Tests.cpp ****     }
GAS LISTING /tmp/cc7kAHCC.s 			page 22


 478:src/Tests.cpp **** }
 576              		.loc 2 478 1 is_stmt 0
 577 0384 83308101 		ld	ra,24(sp)
 578              		.cfi_restore 1
 579 0388 03340101 		ld	s0,16(sp)
 580              		.cfi_restore 8
 581              		.cfi_def_cfa 2, 32
 582 038c 83348100 		ld	s1,8(sp)
 583              		.cfi_restore 9
 584 0390 13010102 		addi	sp,sp,32
 585              		.cfi_def_cfa_offset 0
 586 0394 67800000 		jr	ra
 587              	.LVL55:
 588              	.L49:
 589 0398 67800000 		ret
 590              		.cfi_endproc
 591              	.LFE54:
 593              		.section	.text._ZN14PeriodicThreadD2Ev,"axG",@progbits,_ZN14PeriodicThreadD5Ev,comdat
 594              		.align	2
 595              		.weak	_ZN14PeriodicThreadD2Ev
 597              	_ZN14PeriodicThreadD2Ev:
 598              	.LFB44:
  59:src/../h/syscall_cpp.hpp **** {
 599              		.loc 1 59 7 is_stmt 1
 600              		.cfi_startproc
 601              	.LVL56:
 602 0000 130101FF 		addi	sp,sp,-16
 603              		.cfi_def_cfa_offset 16
 604 0004 23341100 		sd	ra,8(sp)
 605 0008 23308100 		sd	s0,0(sp)
 606              		.cfi_offset 1, -8
 607              		.cfi_offset 8, -16
 608 000c 13040101 		addi	s0,sp,16
 609              		.cfi_def_cfa 8, 0
 610              	.LBB18:
  59:src/../h/syscall_cpp.hpp **** {
 611              		.loc 1 59 7 is_stmt 0
 612 0010 97070000 		lla	a5,_ZTV14PeriodicThread+16
 612      93870700 
 613 0018 2330F500 		sd	a5,0(a0)
 614 001c 97000000 		call	_ZN6ThreadD2Ev@plt
 614      E7800000 
 615              	.LVL57:
 616              	.LBE18:
 617 0024 83308100 		ld	ra,8(sp)
 618              		.cfi_restore 1
 619 0028 03340100 		ld	s0,0(sp)
 620              		.cfi_restore 8
 621              		.cfi_def_cfa 2, 16
 622 002c 13010101 		addi	sp,sp,16
 623              		.cfi_def_cfa_offset 0
 624 0030 67800000 		jr	ra
 625              		.cfi_endproc
 626              	.LFE44:
 628              		.weak	_ZN14PeriodicThreadD1Ev
 629              		.set	_ZN14PeriodicThreadD1Ev,_ZN14PeriodicThreadD2Ev
 630              		.section	.text._ZN14PeriodicThreadD0Ev,"axG",@progbits,_ZN14PeriodicThreadD5Ev,comdat
GAS LISTING /tmp/cc7kAHCC.s 			page 23


 631              		.align	2
 632              		.weak	_ZN14PeriodicThreadD0Ev
 634              	_ZN14PeriodicThreadD0Ev:
 635              	.LFB46:
  59:src/../h/syscall_cpp.hpp **** {
 636              		.loc 1 59 7 is_stmt 1
 637              		.cfi_startproc
 638              	.LVL58:
 639 0000 130101FE 		addi	sp,sp,-32
 640              		.cfi_def_cfa_offset 32
 641 0004 233C1100 		sd	ra,24(sp)
 642 0008 23388100 		sd	s0,16(sp)
 643 000c 23349100 		sd	s1,8(sp)
 644              		.cfi_offset 1, -8
 645              		.cfi_offset 8, -16
 646              		.cfi_offset 9, -24
 647 0010 13040102 		addi	s0,sp,32
 648              		.cfi_def_cfa 8, 0
 649 0014 93040500 		mv	s1,a0
 650              	.LVL59:
 651              	.LBB19:
 652              	.LBB20:
  59:src/../h/syscall_cpp.hpp **** {
 653              		.loc 1 59 7 is_stmt 0
 654 0018 97070000 		lla	a5,_ZTV14PeriodicThread+16
 654      93870700 
 655 0020 2330F500 		sd	a5,0(a0)
 656 0024 97000000 		call	_ZN6ThreadD2Ev@plt
 656      E7800000 
 657              	.LVL60:
 658              	.LBE20:
 659              	.LBE19:
 660 002c 13850400 		mv	a0,s1
 661 0030 97000000 		call	_ZdlPv@plt
 661      E7800000 
 662              	.LVL61:
 663 0038 83308101 		ld	ra,24(sp)
 664              		.cfi_restore 1
 665 003c 03340101 		ld	s0,16(sp)
 666              		.cfi_restore 8
 667              		.cfi_def_cfa 2, 32
 668 0040 83348100 		ld	s1,8(sp)
 669              		.cfi_restore 9
 670              	.LVL62:
 671 0044 13010102 		addi	sp,sp,32
 672              		.cfi_def_cfa_offset 0
 673 0048 67800000 		jr	ra
 674              		.cfi_endproc
 675              	.LFE46:
 677              		.section	.text._ZN12TestPeriodicD2Ev,"axG",@progbits,_ZN12TestPeriodicD5Ev,comdat
 678              		.align	2
 679              		.weak	_ZN12TestPeriodicD2Ev
 681              	_ZN12TestPeriodicD2Ev:
 682              	.LFB59:
 683              		.file 3 "src/../h/Tests.hpp"
   1:src/../h/Tests.hpp **** //
   2:src/../h/Tests.hpp **** // Created by os on 5/5/22.
GAS LISTING /tmp/cc7kAHCC.s 			page 24


   3:src/../h/Tests.hpp **** //
   4:src/../h/Tests.hpp **** 
   5:src/../h/Tests.hpp **** #ifndef PROJECT_BASE_V1_0_TESTS_HPP
   6:src/../h/Tests.hpp **** #define PROJECT_BASE_V1_0_TESTS_HPP
   7:src/../h/Tests.hpp **** 
   8:src/../h/Tests.hpp **** #include "Riscv.hpp"
   9:src/../h/Tests.hpp **** #include "PCB.hpp"
  10:src/../h/Tests.hpp **** #include "syscall_cpp.hpp"
  11:src/../h/Tests.hpp **** 
  12:src/../h/Tests.hpp **** class Test
  13:src/../h/Tests.hpp **** {
  14:src/../h/Tests.hpp **** public:
  15:src/../h/Tests.hpp ****     uint64 a;
  16:src/../h/Tests.hpp **** };
  17:src/../h/Tests.hpp **** struct object{
  18:src/../h/Tests.hpp ****     int a,b,c,d,e,f,g,h,i,j,k;
  19:src/../h/Tests.hpp **** };
  20:src/../h/Tests.hpp **** struct node{
  21:src/../h/Tests.hpp ****     object o1, o2, o3;
  22:src/../h/Tests.hpp ****     char id;
  23:src/../h/Tests.hpp ****     node *next, *prev;
  24:src/../h/Tests.hpp **** };
  25:src/../h/Tests.hpp **** 
  26:src/../h/Tests.hpp **** //memory (de)allocation tests
  27:src/../h/Tests.hpp **** void mallocFree();
  28:src/../h/Tests.hpp **** void bigMalloc();
  29:src/../h/Tests.hpp **** void lotOfSmallMallocs();
  30:src/../h/Tests.hpp **** void badFree();
  31:src/../h/Tests.hpp **** void stressTesting();
  32:src/../h/Tests.hpp **** void mallocTest();
  33:src/../h/Tests.hpp **** void mallocEverything();
  34:src/../h/Tests.hpp **** void mallocGapFillTest();
  35:src/../h/Tests.hpp **** void memoryAllocationTests();
  36:src/../h/Tests.hpp **** 
  37:src/../h/Tests.hpp **** //thread tests
  38:src/../h/Tests.hpp **** void thread1Function();
  39:src/../h/Tests.hpp **** void thread2Function();
  40:src/../h/Tests.hpp **** 
  41:src/../h/Tests.hpp **** void threadFunction3();
  42:src/../h/Tests.hpp **** 
  43:src/../h/Tests.hpp **** void threadTest1();
  44:src/../h/Tests.hpp **** void threadTest2();
  45:src/../h/Tests.hpp **** void threadTest3();
  46:src/../h/Tests.hpp **** 
  47:src/../h/Tests.hpp **** void threadTests();
  48:src/../h/Tests.hpp **** 
  49:src/../h/Tests.hpp **** class TestPeriodic : public PeriodicThread
 684              		.loc 3 49 7 is_stmt 1
 685              		.cfi_startproc
 686              	.LVL63:
 687 0000 130101FF 		addi	sp,sp,-16
 688              		.cfi_def_cfa_offset 16
 689 0004 23341100 		sd	ra,8(sp)
 690 0008 23308100 		sd	s0,0(sp)
 691              		.cfi_offset 1, -8
 692              		.cfi_offset 8, -16
 693 000c 13040101 		addi	s0,sp,16
GAS LISTING /tmp/cc7kAHCC.s 			page 25


 694              		.cfi_def_cfa 8, 0
 695              	.LVL64:
 696              	.LBB21:
 697              	.LBB22:
  59:src/../h/syscall_cpp.hpp **** {
 698              		.loc 1 59 7 is_stmt 0
 699 0010 97070000 		lla	a5,_ZTV14PeriodicThread+16
 699      93870700 
 700 0018 2330F500 		sd	a5,0(a0)
 701 001c 97000000 		call	_ZN6ThreadD2Ev@plt
 701      E7800000 
 702              	.LVL65:
 703              	.LBE22:
 704              	.LBE21:
 705              		.loc 3 49 7
 706 0024 83308100 		ld	ra,8(sp)
 707              		.cfi_restore 1
 708 0028 03340100 		ld	s0,0(sp)
 709              		.cfi_restore 8
 710              		.cfi_def_cfa 2, 16
 711 002c 13010101 		addi	sp,sp,16
 712              		.cfi_def_cfa_offset 0
 713 0030 67800000 		jr	ra
 714              		.cfi_endproc
 715              	.LFE59:
 717              		.weak	_ZN12TestPeriodicD1Ev
 718              		.set	_ZN12TestPeriodicD1Ev,_ZN12TestPeriodicD2Ev
 719              		.section	.text._ZN12TestPeriodicD0Ev,"axG",@progbits,_ZN12TestPeriodicD5Ev,comdat
 720              		.align	2
 721              		.weak	_ZN12TestPeriodicD0Ev
 723              	_ZN12TestPeriodicD0Ev:
 724              	.LFB61:
 725              		.loc 3 49 7 is_stmt 1
 726              		.cfi_startproc
 727              	.LVL66:
 728 0000 130101FE 		addi	sp,sp,-32
 729              		.cfi_def_cfa_offset 32
 730 0004 233C1100 		sd	ra,24(sp)
 731 0008 23388100 		sd	s0,16(sp)
 732 000c 23349100 		sd	s1,8(sp)
 733              		.cfi_offset 1, -8
 734              		.cfi_offset 8, -16
 735              		.cfi_offset 9, -24
 736 0010 13040102 		addi	s0,sp,32
 737              		.cfi_def_cfa 8, 0
 738 0014 93040500 		mv	s1,a0
 739              	.LVL67:
 740              	.LBB23:
 741              	.LBB24:
 742              	.LBB25:
  59:src/../h/syscall_cpp.hpp **** {
 743              		.loc 1 59 7 is_stmt 0
 744 0018 97070000 		lla	a5,_ZTV14PeriodicThread+16
 744      93870700 
 745 0020 2330F500 		sd	a5,0(a0)
 746 0024 97000000 		call	_ZN6ThreadD2Ev@plt
 746      E7800000 
GAS LISTING /tmp/cc7kAHCC.s 			page 26


 747              	.LVL68:
 748              	.LBE25:
 749              	.LBE24:
 750              	.LBE23:
 751              		.loc 3 49 7
 752 002c 13850400 		mv	a0,s1
 753 0030 97000000 		call	_ZdlPv@plt
 753      E7800000 
 754              	.LVL69:
 755 0038 83308101 		ld	ra,24(sp)
 756              		.cfi_restore 1
 757 003c 03340101 		ld	s0,16(sp)
 758              		.cfi_restore 8
 759              		.cfi_def_cfa 2, 32
 760 0040 83348100 		ld	s1,8(sp)
 761              		.cfi_restore 9
 762              	.LVL70:
 763 0044 13010102 		addi	sp,sp,32
 764              		.cfi_def_cfa_offset 0
 765 0048 67800000 		jr	ra
 766              		.cfi_endproc
 767              	.LFE61:
 769              		.section	.rodata.str1.8
 770 004d 000000   		.align	3
 771              	.LC6:
 772 0050 456E642E 		.string	"End...\n"
 772      2E2E0A00 
 773              		.text
 774              		.align	2
 775              		.globl	_Z11threadTest1v
 777              	_Z11threadTest1v:
 778              	.LFB30:
  63:src/Tests.cpp ****     Thread* t1 = new Thread(&thread1Function, 0);
 779              		.loc 2 63 1 is_stmt 1
 780              		.cfi_startproc
 781              		.cfi_personality 0x9b,DW.ref.__gxx_personality_v0
 782              		.cfi_lsda 0x1b,.LLSDA30
 783 039c 130101FE 		addi	sp,sp,-32
 784              		.cfi_def_cfa_offset 32
 785 03a0 233C1100 		sd	ra,24(sp)
 786 03a4 23388100 		sd	s0,16(sp)
 787 03a8 23349100 		sd	s1,8(sp)
 788 03ac 23302101 		sd	s2,0(sp)
 789              		.cfi_offset 1, -8
 790              		.cfi_offset 8, -16
 791              		.cfi_offset 9, -24
 792              		.cfi_offset 18, -32
 793 03b0 13040102 		addi	s0,sp,32
 794              		.cfi_def_cfa 8, 0
  64:src/Tests.cpp ****     t1->start();
 795              		.loc 2 64 5
  64:src/Tests.cpp ****     t1->start();
 796              		.loc 2 64 48 is_stmt 0
 797 03b4 13050001 		li	a0,16
 798              	.LEHB0:
 799 03b8 97000000 		call	_Znwm@plt
 799      E7800000 
GAS LISTING /tmp/cc7kAHCC.s 			page 27


 800              	.LVL71:
 801              	.LEHE0:
 802 03c0 93040500 		mv	s1,a0
 803 03c4 13060000 		li	a2,0
 804 03c8 97050000 		lla	a1,_Z15thread1FunctionPv
 804      93850500 
 805              	.LEHB1:
 806 03d0 97000000 		call	_ZN6ThreadC1EPFvPvES0_@plt
 806      E7800000 
 807              	.LVL72:
 808              	.LEHE1:
  65:src/Tests.cpp ****     Thread* t2 = new Thread(&thread2Function, 0);
 809              		.loc 2 65 5 is_stmt 1 discriminator 2
  65:src/Tests.cpp ****     Thread* t2 = new Thread(&thread2Function, 0);
 810              		.loc 2 65 14 is_stmt 0 discriminator 2
 811 03d8 13850400 		mv	a0,s1
 812              	.LEHB2:
 813 03dc 97000000 		call	_ZN6Thread5startEv@plt
 813      E7800000 
 814              	.LVL73:
  66:src/Tests.cpp ****     t2->start();
 815              		.loc 2 66 5 is_stmt 1 discriminator 2
  66:src/Tests.cpp ****     t2->start();
 816              		.loc 2 66 48 is_stmt 0 discriminator 2
 817 03e4 13050001 		li	a0,16
 818 03e8 97000000 		call	_Znwm@plt
 818      E7800000 
 819              	.LVL74:
 820              	.LEHE2:
 821 03f0 93040500 		mv	s1,a0
 822              	.LVL75:
 823 03f4 13060000 		li	a2,0
 824 03f8 97050000 		lla	a1,_Z15thread2FunctionPv
 824      93850500 
 825              	.LEHB3:
 826 0400 97000000 		call	_ZN6ThreadC1EPFvPvES0_@plt
 826      E7800000 
 827              	.LVL76:
 828              	.LEHE3:
  67:src/Tests.cpp ****     Riscv::enableInterrupts();
 829              		.loc 2 67 5 is_stmt 1 discriminator 2
  67:src/Tests.cpp ****     Riscv::enableInterrupts();
 830              		.loc 2 67 14 is_stmt 0 discriminator 2
 831 0408 13850400 		mv	a0,s1
 832              	.LEHB4:
 833 040c 97000000 		call	_ZN6Thread5startEv@plt
 833      E7800000 
 834              	.LVL77:
  68:src/Tests.cpp ****     //while(((PCB*)(t1->myHandle))->getState() != PCB::FINISHED || ((PCB*)(t2->myHandle))->getState
 835              		.loc 2 68 5 is_stmt 1 discriminator 2
  68:src/Tests.cpp ****     //while(((PCB*)(t1->myHandle))->getState() != PCB::FINISHED || ((PCB*)(t2->myHandle))->getState
 836              		.loc 2 68 28 is_stmt 0 discriminator 2
 837 0414 97000000 		call	_ZN5Riscv16enableInterruptsEv@plt
 837      E7800000 
 838              	.LVL78:
  75:src/Tests.cpp ****     Riscv::disableInterrupts();
 839              		.loc 2 75 5 is_stmt 1 discriminator 2
GAS LISTING /tmp/cc7kAHCC.s 			page 28


  75:src/Tests.cpp ****     Riscv::disableInterrupts();
 840              		.loc 2 75 16 is_stmt 0 discriminator 2
 841 041c 17050000 		lla	a0,.LC6
 841      13050500 
 842 0424 97000000 		call	_Z11printStringPKc@plt
 842      E7800000 
 843              	.LVL79:
  76:src/Tests.cpp **** }
 844              		.loc 2 76 5 is_stmt 1 discriminator 2
  76:src/Tests.cpp **** }
 845              		.loc 2 76 29 is_stmt 0 discriminator 2
 846 042c 97000000 		call	_ZN5Riscv17disableInterruptsEv@plt
 846      E7800000 
 847              	.LVL80:
 848              	.LEHE4:
  77:src/Tests.cpp **** 
 849              		.loc 2 77 1 discriminator 2
 850 0434 83308101 		ld	ra,24(sp)
 851              		.cfi_remember_state
 852              		.cfi_restore 1
 853 0438 03340101 		ld	s0,16(sp)
 854              		.cfi_restore 8
 855              		.cfi_def_cfa 2, 32
 856 043c 83348100 		ld	s1,8(sp)
 857              		.cfi_restore 9
 858              	.LVL81:
 859 0440 03390100 		ld	s2,0(sp)
 860              		.cfi_restore 18
 861 0444 13010102 		addi	sp,sp,32
 862              		.cfi_def_cfa_offset 0
 863 0448 67800000 		jr	ra
 864              	.L61:
 865              		.cfi_restore_state
 866 044c 13090500 		mv	s2,a0
  64:src/Tests.cpp ****     t1->start();
 867              		.loc 2 64 48
 868 0450 13850400 		mv	a0,s1
 869 0454 97000000 		call	_ZdlPv@plt
 869      E7800000 
 870              	.LVL82:
 871 045c 13050900 		mv	a0,s2
 872              	.LEHB5:
 873 0460 97000000 		call	_Unwind_Resume@plt
 873      E7800000 
 874              	.LVL83:
 875              	.LEHE5:
 876              	.L62:
 877 0468 13090500 		mv	s2,a0
  66:src/Tests.cpp ****     t2->start();
 878              		.loc 2 66 48
 879 046c 13850400 		mv	a0,s1
 880 0470 97000000 		call	_ZdlPv@plt
 880      E7800000 
 881              	.LVL84:
 882 0478 13050900 		mv	a0,s2
 883              	.LEHB6:
 884 047c 97000000 		call	_Unwind_Resume@plt
GAS LISTING /tmp/cc7kAHCC.s 			page 29


 884      E7800000 
 885              	.LVL85:
 886              	.LEHE6:
 887              		.cfi_endproc
 888              	.LFE30:
 889              		.globl	__gxx_personality_v0
 890              		.section	.gcc_except_table,"a",@progbits
 891              	.LLSDA30:
 892 0000 FF       		.byte	0xff
 893 0001 FF       		.byte	0xff
 894 0002 03       		.byte	0x3
 895 0003 5B       		.byte	0x5b
 896 0004 00000000 		.4byte	.LEHB0-.LFB30
 897 0008 00000000 		.4byte	.LEHE0-.LEHB0
 898 000c 00000000 		.4byte	0
 899 0010 00       		.byte	0
 900 0011 00000000 		.4byte	.LEHB1-.LFB30
 901 0015 00000000 		.4byte	.LEHE1-.LEHB1
 902 0019 00000000 		.4byte	.L61-.LFB30
 903 001d 00       		.byte	0
 904 001e 00000000 		.4byte	.LEHB2-.LFB30
 905 0022 00000000 		.4byte	.LEHE2-.LEHB2
 906 0026 00000000 		.4byte	0
 907 002a 00       		.byte	0
 908 002b 00000000 		.4byte	.LEHB3-.LFB30
 909 002f 00000000 		.4byte	.LEHE3-.LEHB3
 910 0033 00000000 		.4byte	.L62-.LFB30
 911 0037 00       		.byte	0
 912 0038 00000000 		.4byte	.LEHB4-.LFB30
 913 003c 00000000 		.4byte	.LEHE4-.LEHB4
 914 0040 00000000 		.4byte	0
 915 0044 00       		.byte	0
 916 0045 00000000 		.4byte	.LEHB5-.LFB30
 917 0049 00000000 		.4byte	.LEHE5-.LEHB5
 918 004d 00000000 		.4byte	0
 919 0051 00       		.byte	0
 920 0052 00000000 		.4byte	.LEHB6-.LFB30
 921 0056 00000000 		.4byte	.LEHE6-.LEHB6
 922 005a 00000000 		.4byte	0
 923 005e 00       		.byte	0
 924              		.text
 926              		.align	2
 927              		.globl	_Z11threadTest2v
 929              	_Z11threadTest2v:
 930              	.LFB31:
  80:src/Tests.cpp ****     Thread* idleThread = new Thread(&idle, 0);
 931              		.loc 2 80 1 is_stmt 1
 932              		.cfi_startproc
 933              		.cfi_personality 0x9b,DW.ref.__gxx_personality_v0
 934              		.cfi_lsda 0x1b,.LLSDA31
 935 0484 130101FE 		addi	sp,sp,-32
 936              		.cfi_def_cfa_offset 32
 937 0488 233C1100 		sd	ra,24(sp)
 938 048c 23388100 		sd	s0,16(sp)
 939 0490 23349100 		sd	s1,8(sp)
 940 0494 23302101 		sd	s2,0(sp)
 941              		.cfi_offset 1, -8
GAS LISTING /tmp/cc7kAHCC.s 			page 30


 942              		.cfi_offset 8, -16
 943              		.cfi_offset 9, -24
 944              		.cfi_offset 18, -32
 945 0498 13040102 		addi	s0,sp,32
 946              		.cfi_def_cfa 8, 0
  81:src/Tests.cpp ****     idleThread->start();
 947              		.loc 2 81 5
  81:src/Tests.cpp ****     idleThread->start();
 948              		.loc 2 81 45 is_stmt 0
 949 049c 13050001 		li	a0,16
 950              	.LEHB7:
 951 04a0 97000000 		call	_Znwm@plt
 951      E7800000 
 952              	.LVL86:
 953              	.LEHE7:
 954 04a8 93040500 		mv	s1,a0
 955 04ac 13060000 		li	a2,0
 956 04b0 97050000 		lla	a1,_Z4idlePv
 956      93850500 
 957              	.LEHB8:
 958 04b8 97000000 		call	_ZN6ThreadC1EPFvPvES0_@plt
 958      E7800000 
 959              	.LVL87:
 960              	.LEHE8:
  82:src/Tests.cpp ****     Thread* t1 = new Thread(&thread1Function, 0);
 961              		.loc 2 82 5 is_stmt 1 discriminator 2
  82:src/Tests.cpp ****     Thread* t1 = new Thread(&thread1Function, 0);
 962              		.loc 2 82 22 is_stmt 0 discriminator 2
 963 04c0 13850400 		mv	a0,s1
 964              	.LEHB9:
 965 04c4 97000000 		call	_ZN6Thread5startEv@plt
 965      E7800000 
 966              	.LVL88:
  83:src/Tests.cpp ****     t1->start();
 967              		.loc 2 83 5 is_stmt 1 discriminator 2
  83:src/Tests.cpp ****     t1->start();
 968              		.loc 2 83 48 is_stmt 0 discriminator 2
 969 04cc 13050001 		li	a0,16
 970 04d0 97000000 		call	_Znwm@plt
 970      E7800000 
 971              	.LVL89:
 972              	.LEHE9:
 973 04d8 93040500 		mv	s1,a0
 974              	.LVL90:
 975 04dc 13060000 		li	a2,0
 976 04e0 97050000 		lla	a1,_Z15thread1FunctionPv
 976      93850500 
 977              	.LEHB10:
 978 04e8 97000000 		call	_ZN6ThreadC1EPFvPvES0_@plt
 978      E7800000 
 979              	.LVL91:
 980              	.LEHE10:
  84:src/Tests.cpp ****     Thread* t2  = new Thread(&thread2FunctionTest2, 0);
 981              		.loc 2 84 5 is_stmt 1 discriminator 2
  84:src/Tests.cpp ****     Thread* t2  = new Thread(&thread2FunctionTest2, 0);
 982              		.loc 2 84 14 is_stmt 0 discriminator 2
 983 04f0 13850400 		mv	a0,s1
GAS LISTING /tmp/cc7kAHCC.s 			page 31


 984              	.LEHB11:
 985 04f4 97000000 		call	_ZN6Thread5startEv@plt
 985      E7800000 
 986              	.LVL92:
  85:src/Tests.cpp ****     t2->start();
 987              		.loc 2 85 5 is_stmt 1 discriminator 2
  85:src/Tests.cpp ****     t2->start();
 988              		.loc 2 85 54 is_stmt 0 discriminator 2
 989 04fc 13050001 		li	a0,16
 990 0500 97000000 		call	_Znwm@plt
 990      E7800000 
 991              	.LVL93:
 992              	.LEHE11:
 993 0508 93040500 		mv	s1,a0
 994              	.LVL94:
 995 050c 13060000 		li	a2,0
 996 0510 97050000 		lla	a1,_Z20thread2FunctionTest2Pv
 996      93850500 
 997              	.LEHB12:
 998 0518 97000000 		call	_ZN6ThreadC1EPFvPvES0_@plt
 998      E7800000 
 999              	.LVL95:
 1000              	.LEHE12:
  86:src/Tests.cpp **** 
 1001              		.loc 2 86 5 is_stmt 1 discriminator 2
  86:src/Tests.cpp **** 
 1002              		.loc 2 86 14 is_stmt 0 discriminator 2
 1003 0520 13850400 		mv	a0,s1
 1004              	.LEHB13:
 1005 0524 97000000 		call	_ZN6Thread5startEv@plt
 1005      E7800000 
 1006              	.LVL96:
  88:src/Tests.cpp **** 
 1007              		.loc 2 88 5 is_stmt 1 discriminator 2
  88:src/Tests.cpp **** 
 1008              		.loc 2 88 28 is_stmt 0 discriminator 2
 1009 052c 97000000 		call	_ZN5Riscv16enableInterruptsEv@plt
 1009      E7800000 
 1010              	.LVL97:
  92:src/Tests.cpp **** 
 1011              		.loc 2 92 5 is_stmt 1 discriminator 2
  92:src/Tests.cpp **** 
 1012              		.loc 2 92 16 is_stmt 0 discriminator 2
 1013 0534 17050000 		lla	a0,.LC6
 1013      13050500 
 1014 053c 97000000 		call	_Z11printStringPKc@plt
 1014      E7800000 
 1015              	.LVL98:
  94:src/Tests.cpp **** }
 1016              		.loc 2 94 5 is_stmt 1 discriminator 2
  94:src/Tests.cpp **** }
 1017              		.loc 2 94 29 is_stmt 0 discriminator 2
 1018 0544 97000000 		call	_ZN5Riscv17disableInterruptsEv@plt
 1018      E7800000 
 1019              	.LVL99:
 1020              	.LEHE13:
  95:src/Tests.cpp **** 
GAS LISTING /tmp/cc7kAHCC.s 			page 32


 1021              		.loc 2 95 1 discriminator 2
 1022 054c 83308101 		ld	ra,24(sp)
 1023              		.cfi_remember_state
 1024              		.cfi_restore 1
 1025 0550 03340101 		ld	s0,16(sp)
 1026              		.cfi_restore 8
 1027              		.cfi_def_cfa 2, 32
 1028 0554 83348100 		ld	s1,8(sp)
 1029              		.cfi_restore 9
 1030              	.LVL100:
 1031 0558 03390100 		ld	s2,0(sp)
 1032              		.cfi_restore 18
 1033 055c 13010102 		addi	sp,sp,32
 1034              		.cfi_def_cfa_offset 0
 1035 0560 67800000 		jr	ra
 1036              	.L69:
 1037              		.cfi_restore_state
 1038 0564 13090500 		mv	s2,a0
  81:src/Tests.cpp ****     idleThread->start();
 1039              		.loc 2 81 45
 1040 0568 13850400 		mv	a0,s1
 1041 056c 97000000 		call	_ZdlPv@plt
 1041      E7800000 
 1042              	.LVL101:
 1043 0574 13050900 		mv	a0,s2
 1044              	.LEHB14:
 1045 0578 97000000 		call	_Unwind_Resume@plt
 1045      E7800000 
 1046              	.LVL102:
 1047              	.LEHE14:
 1048              	.L70:
 1049 0580 13090500 		mv	s2,a0
  83:src/Tests.cpp ****     t1->start();
 1050              		.loc 2 83 48
 1051 0584 13850400 		mv	a0,s1
 1052 0588 97000000 		call	_ZdlPv@plt
 1052      E7800000 
 1053              	.LVL103:
 1054 0590 13050900 		mv	a0,s2
 1055              	.LEHB15:
 1056 0594 97000000 		call	_Unwind_Resume@plt
 1056      E7800000 
 1057              	.LVL104:
 1058              	.LEHE15:
 1059              	.L71:
 1060 059c 13090500 		mv	s2,a0
  85:src/Tests.cpp ****     t2->start();
 1061              		.loc 2 85 54
 1062 05a0 13850400 		mv	a0,s1
 1063 05a4 97000000 		call	_ZdlPv@plt
 1063      E7800000 
 1064              	.LVL105:
 1065 05ac 13050900 		mv	a0,s2
 1066              	.LEHB16:
 1067 05b0 97000000 		call	_Unwind_Resume@plt
 1067      E7800000 
 1068              	.LVL106:
GAS LISTING /tmp/cc7kAHCC.s 			page 33


 1069              	.LEHE16:
 1070              		.cfi_endproc
 1071              	.LFE31:
 1072              		.section	.gcc_except_table
 1073              	.LLSDA31:
 1074 005f FF       		.byte	0xff
 1075 0060 FF       		.byte	0xff
 1076 0061 03       		.byte	0x3
 1077 0062 8201     		.byte	0x82,0x1
 1078 0064 00000000 		.4byte	.LEHB7-.LFB31
 1079 0068 00000000 		.4byte	.LEHE7-.LEHB7
 1080 006c 00000000 		.4byte	0
 1081 0070 00       		.byte	0
 1082 0071 00000000 		.4byte	.LEHB8-.LFB31
 1083 0075 00000000 		.4byte	.LEHE8-.LEHB8
 1084 0079 00000000 		.4byte	.L69-.LFB31
 1085 007d 00       		.byte	0
 1086 007e 00000000 		.4byte	.LEHB9-.LFB31
 1087 0082 00000000 		.4byte	.LEHE9-.LEHB9
 1088 0086 00000000 		.4byte	0
 1089 008a 00       		.byte	0
 1090 008b 00000000 		.4byte	.LEHB10-.LFB31
 1091 008f 00000000 		.4byte	.LEHE10-.LEHB10
 1092 0093 00000000 		.4byte	.L70-.LFB31
 1093 0097 00       		.byte	0
 1094 0098 00000000 		.4byte	.LEHB11-.LFB31
 1095 009c 00000000 		.4byte	.LEHE11-.LEHB11
 1096 00a0 00000000 		.4byte	0
 1097 00a4 00       		.byte	0
 1098 00a5 00000000 		.4byte	.LEHB12-.LFB31
 1099 00a9 00000000 		.4byte	.LEHE12-.LEHB12
 1100 00ad 00000000 		.4byte	.L71-.LFB31
 1101 00b1 00       		.byte	0
 1102 00b2 00000000 		.4byte	.LEHB13-.LFB31
 1103 00b6 00000000 		.4byte	.LEHE13-.LEHB13
 1104 00ba 00000000 		.4byte	0
 1105 00be 00       		.byte	0
 1106 00bf 00000000 		.4byte	.LEHB14-.LFB31
 1107 00c3 00000000 		.4byte	.LEHE14-.LEHB14
 1108 00c7 00000000 		.4byte	0
 1109 00cb 00       		.byte	0
 1110 00cc 00000000 		.4byte	.LEHB15-.LFB31
 1111 00d0 00000000 		.4byte	.LEHE15-.LEHB15
 1112 00d4 00000000 		.4byte	0
 1113 00d8 00       		.byte	0
 1114 00d9 00000000 		.4byte	.LEHB16-.LFB31
 1115 00dd 00000000 		.4byte	.LEHE16-.LEHB16
 1116 00e1 00000000 		.4byte	0
 1117 00e5 00       		.byte	0
 1118              		.text
 1120              		.section	.rodata.str1.8
 1121              		.align	3
 1122              	.LC7:
 1123 0058 6D616C6C 		.string	"mallocFree\n"
 1123      6F634672 
 1123      65650A00 
 1124 0064 00000000 		.align	3
GAS LISTING /tmp/cc7kAHCC.s 			page 34


 1125              	.LC8:
 1126 0068 6E6F7420 		.string	"not OK\n"
 1126      4F4B0A00 
 1127              		.align	3
 1128              	.LC9:
 1129 0070 4F4B0A00 		.string	"OK\n"
 1130              		.text
 1131              		.align	2
 1132              		.globl	_Z10mallocFreev
 1134              	_Z10mallocFreev:
 1135              	.LFB34:
 118:src/Tests.cpp ****     printString("mallocFree\n");
 1136              		.loc 2 118 1 is_stmt 1
 1137              		.cfi_startproc
 1138 05b8 130101CC 		addi	sp,sp,-832
 1139              		.cfi_def_cfa_offset 832
 1140 05bc 233C1132 		sd	ra,824(sp)
 1141 05c0 23388132 		sd	s0,816(sp)
 1142 05c4 23349132 		sd	s1,808(sp)
 1143              		.cfi_offset 1, -8
 1144              		.cfi_offset 8, -16
 1145              		.cfi_offset 9, -24
 1146 05c8 13040134 		addi	s0,sp,832
 1147              		.cfi_def_cfa 8, 0
 119:src/Tests.cpp ****     constexpr int num = 100;
 1148              		.loc 2 119 5
 119:src/Tests.cpp ****     constexpr int num = 100;
 1149              		.loc 2 119 16 is_stmt 0
 1150 05cc 17050000 		lla	a0,.LC7
 1150      13050500 
 1151 05d4 97000000 		call	_Z11printStringPKc@plt
 1151      E7800000 
 1152              	.LVL107:
 1153              	.LBB26:
 122:src/Tests.cpp ****     {
 1154              		.loc 2 122 13
 1155 05dc 93040000 		li	s1,0
 1156 05e0 6F008000 		j	.L78
 1157              	.LVL108:
 1158              	.L76:
 122:src/Tests.cpp ****     {
 1159              		.loc 2 122 5 is_stmt 1 discriminator 2
 1160 05e4 9B841400 		addiw	s1,s1,1
 1161              	.LVL109:
 1162              	.L78:
 122:src/Tests.cpp ****     {
 1163              		.loc 2 122 22 discriminator 1
 1164 05e8 93073006 		li	a5,99
 1165 05ec 63C49704 		bgt	s1,a5,.L86
 124:src/Tests.cpp ****         if(addrs[i] == 0)
 1166              		.loc 2 124 9
 124:src/Tests.cpp ****         if(addrs[i] == 0)
 1167              		.loc 2 124 29 is_stmt 0
 1168 05f0 13054006 		li	a0,100
 1169 05f4 97000000 		call	mem_alloc@plt
 1169      E7800000 
 1170              	.LVL110:
GAS LISTING /tmp/cc7kAHCC.s 			page 35


 124:src/Tests.cpp ****         if(addrs[i] == 0)
 1171              		.loc 2 124 18
 1172 05fc 93973400 		slli	a5,s1,3
 1173 0600 130704FE 		addi	a4,s0,-32
 1174 0604 B307F700 		add	a5,a4,a5
 1175 0608 23B0A7CE 		sd	a0,-800(a5)
 125:src/Tests.cpp ****         {
 1176              		.loc 2 125 9 is_stmt 1
 1177 060c E31C05FC 		bnez	a0,.L76
 127:src/Tests.cpp ****             return;
 1178              		.loc 2 127 13
 127:src/Tests.cpp ****             return;
 1179              		.loc 2 127 24 is_stmt 0
 1180 0610 17050000 		lla	a0,.LC8
 1180      13050500 
 1181 0618 97000000 		call	_Z11printStringPKc@plt
 1181      E7800000 
 1182              	.LVL111:
 128:src/Tests.cpp ****         }
 1183              		.loc 2 128 13 is_stmt 1
 1184              	.L74:
 1185              	.LBE26:
 164:src/Tests.cpp **** void bigMalloc()
 1186              		.loc 2 164 1 is_stmt 0
 1187 0620 83308133 		ld	ra,824(sp)
 1188              		.cfi_remember_state
 1189              		.cfi_restore 1
 1190 0624 03340133 		ld	s0,816(sp)
 1191              		.cfi_restore 8
 1192              		.cfi_def_cfa 2, 832
 1193 0628 83348132 		ld	s1,808(sp)
 1194              		.cfi_restore 9
 1195 062c 13010134 		addi	sp,sp,832
 1196              		.cfi_def_cfa_offset 0
 1197 0630 67800000 		jr	ra
 1198              	.LVL112:
 1199              	.L86:
 1200              		.cfi_restore_state
 1201              	.LBB27:
 133:src/Tests.cpp ****     {
 1202              		.loc 2 133 13
 1203 0634 93040000 		li	s1,0
 1204              	.LVL113:
 1205              	.L75:
 133:src/Tests.cpp ****     {
 1206              		.loc 2 133 23 is_stmt 1 discriminator 1
 1207 0638 93073006 		li	a5,99
 1208 063c 63CE9702 		bgt	s1,a5,.L87
 1209              	.LBB28:
 135:src/Tests.cpp ****         if(retval != 0)
 1210              		.loc 2 135 9
 135:src/Tests.cpp ****         if(retval != 0)
 1211              		.loc 2 135 30 is_stmt 0
 1212 0640 93973400 		slli	a5,s1,3
 1213 0644 130704FE 		addi	a4,s0,-32
 1214 0648 B307F700 		add	a5,a4,a5
 1215 064c 03B507CE 		ld	a0,-800(a5)
GAS LISTING /tmp/cc7kAHCC.s 			page 36


 1216 0650 97000000 		call	mem_free@plt
 1216      E7800000 
 1217              	.LVL114:
 136:src/Tests.cpp ****         {
 1218              		.loc 2 136 9 is_stmt 1
 1219 0658 63160500 		bnez	a0,.L90
 1220              	.LBE28:
 133:src/Tests.cpp ****     {
 1221              		.loc 2 133 5 discriminator 2
 133:src/Tests.cpp ****     {
 1222              		.loc 2 133 30 is_stmt 0 discriminator 2
 1223 065c 9B842400 		addiw	s1,s1,2
 1224              	.LVL115:
 133:src/Tests.cpp ****     {
 1225              		.loc 2 133 5 discriminator 2
 1226 0660 6FF09FFD 		j	.L75
 1227              	.LVL116:
 1228              	.L90:
 1229              	.LBB29:
 138:src/Tests.cpp ****             return;
 1230              		.loc 2 138 13 is_stmt 1
 138:src/Tests.cpp ****             return;
 1231              		.loc 2 138 24 is_stmt 0
 1232 0664 17050000 		lla	a0,.LC8
 1232      13050500 
 1233              	.LVL117:
 1234 066c 97000000 		call	_Z11printStringPKc@plt
 1234      E7800000 
 1235              	.LVL118:
 139:src/Tests.cpp ****         }
 1236              		.loc 2 139 13 is_stmt 1
 1237 0674 6FF0DFFA 		j	.L74
 1238              	.L87:
 1239              	.LBE29:
 1240              	.LBE27:
 1241              	.LBB30:
 143:src/Tests.cpp ****     {
 1242              		.loc 2 143 13 is_stmt 0
 1243 0678 93040000 		li	s1,0
 1244              	.LVL119:
 1245 067c 6F008000 		j	.L79
 1246              	.LVL120:
 1247              	.L82:
 143:src/Tests.cpp ****     {
 1248              		.loc 2 143 5 is_stmt 1 discriminator 2
 143:src/Tests.cpp ****     {
 1249              		.loc 2 143 30 is_stmt 0 discriminator 2
 1250 0680 9B842400 		addiw	s1,s1,2
 1251              	.LVL121:
 1252              	.L79:
 143:src/Tests.cpp ****     {
 1253              		.loc 2 143 23 is_stmt 1 discriminator 1
 1254 0684 93073006 		li	a5,99
 1255 0688 63CC9702 		bgt	s1,a5,.L88
 145:src/Tests.cpp ****         if(addrs[i] == 0)
 1256              		.loc 2 145 9
 145:src/Tests.cpp ****         if(addrs[i] == 0)
GAS LISTING /tmp/cc7kAHCC.s 			page 37


 1257              		.loc 2 145 29 is_stmt 0
 1258 068c 13054001 		li	a0,20
 1259 0690 97000000 		call	mem_alloc@plt
 1259      E7800000 
 1260              	.LVL122:
 145:src/Tests.cpp ****         if(addrs[i] == 0)
 1261              		.loc 2 145 18
 1262 0698 93973400 		slli	a5,s1,3
 1263 069c 130704FE 		addi	a4,s0,-32
 1264 06a0 B307F700 		add	a5,a4,a5
 1265 06a4 23B0A7CE 		sd	a0,-800(a5)
 146:src/Tests.cpp ****         {
 1266              		.loc 2 146 9 is_stmt 1
 1267 06a8 E31C05FC 		bnez	a0,.L82
 148:src/Tests.cpp ****             return;
 1268              		.loc 2 148 13
 148:src/Tests.cpp ****             return;
 1269              		.loc 2 148 24 is_stmt 0
 1270 06ac 17050000 		lla	a0,.LC8
 1270      13050500 
 1271 06b4 97000000 		call	_Z11printStringPKc@plt
 1271      E7800000 
 1272              	.LVL123:
 149:src/Tests.cpp ****         }
 1273              		.loc 2 149 13 is_stmt 1
 1274 06bc 6FF05FF6 		j	.L74
 1275              	.L88:
 1276              	.LBE30:
 1277              	.LBB31:
 153:src/Tests.cpp ****     {
 1278              		.loc 2 153 13 is_stmt 0
 1279 06c0 93040000 		li	s1,0
 1280              	.LVL124:
 1281              	.L81:
 153:src/Tests.cpp ****     {
 1282              		.loc 2 153 22 is_stmt 1 discriminator 1
 1283 06c4 93073006 		li	a5,99
 1284 06c8 63CE9702 		bgt	s1,a5,.L83
 1285              	.LBB32:
 155:src/Tests.cpp ****         if(retval != 0)
 1286              		.loc 2 155 9
 155:src/Tests.cpp ****         if(retval != 0)
 1287              		.loc 2 155 30 is_stmt 0
 1288 06cc 93973400 		slli	a5,s1,3
 1289 06d0 130704FE 		addi	a4,s0,-32
 1290 06d4 B307F700 		add	a5,a4,a5
 1291 06d8 03B507CE 		ld	a0,-800(a5)
 1292 06dc 97000000 		call	mem_free@plt
 1292      E7800000 
 1293              	.LVL125:
 156:src/Tests.cpp ****         {
 1294              		.loc 2 156 9 is_stmt 1
 1295 06e4 63160500 		bnez	a0,.L91
 1296              	.LBE32:
 153:src/Tests.cpp ****     {
 1297              		.loc 2 153 5 discriminator 2
 1298 06e8 9B841400 		addiw	s1,s1,1
GAS LISTING /tmp/cc7kAHCC.s 			page 38


 1299              	.LVL126:
 1300 06ec 6FF09FFD 		j	.L81
 1301              	.LVL127:
 1302              	.L91:
 1303              	.LBB33:
 158:src/Tests.cpp ****             return;
 1304              		.loc 2 158 13
 158:src/Tests.cpp ****             return;
 1305              		.loc 2 158 24 is_stmt 0
 1306 06f0 17050000 		lla	a0,.LC8
 1306      13050500 
 1307              	.LVL128:
 1308 06f8 97000000 		call	_Z11printStringPKc@plt
 1308      E7800000 
 1309              	.LVL129:
 159:src/Tests.cpp ****         }
 1310              		.loc 2 159 13 is_stmt 1
 1311 0700 6FF01FF2 		j	.L74
 1312              	.L83:
 1313              	.LBE33:
 1314              	.LBE31:
 163:src/Tests.cpp **** }
 1315              		.loc 2 163 5
 163:src/Tests.cpp **** }
 1316              		.loc 2 163 16 is_stmt 0
 1317 0704 17050000 		lla	a0,.LC9
 1317      13050500 
 1318 070c 97000000 		call	_Z11printStringPKc@plt
 1318      E7800000 
 1319              	.LVL130:
 1320 0714 6FF0DFF0 		j	.L74
 1321              		.cfi_endproc
 1322              	.LFE34:
 1324              		.section	.rodata.str1.8
 1325 0074 00000000 		.align	3
 1326              	.LC10:
 1327 0078 6269674D 		.string	"bigMalloc\n"
 1327      616C6C6F 
 1327      630A00
 1328              		.text
 1329              		.align	2
 1330              		.globl	_Z9bigMallocv
 1332              	_Z9bigMallocv:
 1333              	.LFB35:
 166:src/Tests.cpp ****     printString("bigMalloc\n");
 1334              		.loc 2 166 1 is_stmt 1
 1335              		.cfi_startproc
 1336 0718 130101FF 		addi	sp,sp,-16
 1337              		.cfi_def_cfa_offset 16
 1338 071c 23341100 		sd	ra,8(sp)
 1339 0720 23308100 		sd	s0,0(sp)
 1340              		.cfi_offset 1, -8
 1341              		.cfi_offset 8, -16
 1342 0724 13040101 		addi	s0,sp,16
 1343              		.cfi_def_cfa 8, 0
 167:src/Tests.cpp ****     uint64 x = (uint64)HEAP_END_ADDR - (uint64)HEAP_START_ADDR + 100UL;
 1344              		.loc 2 167 5
GAS LISTING /tmp/cc7kAHCC.s 			page 39


 167:src/Tests.cpp ****     uint64 x = (uint64)HEAP_END_ADDR - (uint64)HEAP_START_ADDR + 100UL;
 1345              		.loc 2 167 16 is_stmt 0
 1346 0728 17050000 		lla	a0,.LC10
 1346      13050500 
 1347 0730 97000000 		call	_Z11printStringPKc@plt
 1347      E7800000 
 1348              	.LVL131:
 168:src/Tests.cpp ****     void* p = mem_alloc(x);
 1349              		.loc 2 168 5 is_stmt 1
 168:src/Tests.cpp ****     void* p = mem_alloc(x);
 1350              		.loc 2 168 38 is_stmt 0
 1351 0738 97070000 		la	a5,HEAP_END_ADDR
 1351      83B70700 
 1352 0740 03B50700 		ld	a0,0(a5)
 1353 0744 97070000 		la	a5,HEAP_START_ADDR
 1353      83B70700 
 1354 074c 83B70700 		ld	a5,0(a5)
 1355 0750 3305F540 		sub	a0,a0,a5
 1356              	.LVL132:
 169:src/Tests.cpp ****     if(p == 0)
 1357              		.loc 2 169 5 is_stmt 1
 169:src/Tests.cpp ****     if(p == 0)
 1358              		.loc 2 169 24 is_stmt 0
 1359 0754 13054506 		addi	a0,a0,100
 1360              	.LVL133:
 1361 0758 97000000 		call	mem_alloc@plt
 1361      E7800000 
 1362              	.LVL134:
 170:src/Tests.cpp ****         printString("OK\n");
 1363              		.loc 2 170 5 is_stmt 1
 1364 0760 63020502 		beqz	a0,.L96
 173:src/Tests.cpp **** }
 1365              		.loc 2 173 9
 173:src/Tests.cpp **** }
 1366              		.loc 2 173 20 is_stmt 0
 1367 0764 17050000 		lla	a0,.LC8
 1367      13050500 
 1368              	.LVL135:
 1369 076c 97000000 		call	_Z11printStringPKc@plt
 1369      E7800000 
 1370              	.LVL136:
 1371              	.L92:
 174:src/Tests.cpp **** 
 1372              		.loc 2 174 1
 1373 0774 83308100 		ld	ra,8(sp)
 1374              		.cfi_remember_state
 1375              		.cfi_restore 1
 1376 0778 03340100 		ld	s0,0(sp)
 1377              		.cfi_restore 8
 1378              		.cfi_def_cfa 2, 16
 1379 077c 13010101 		addi	sp,sp,16
 1380              		.cfi_def_cfa_offset 0
 1381 0780 67800000 		jr	ra
 1382              	.LVL137:
 1383              	.L96:
 1384              		.cfi_restore_state
 171:src/Tests.cpp ****     else
GAS LISTING /tmp/cc7kAHCC.s 			page 40


 1385              		.loc 2 171 9 is_stmt 1
 171:src/Tests.cpp ****     else
 1386              		.loc 2 171 20 is_stmt 0
 1387 0784 17050000 		lla	a0,.LC9
 1387      13050500 
 1388              	.LVL138:
 1389 078c 97000000 		call	_Z11printStringPKc@plt
 1389      E7800000 
 1390              	.LVL139:
 1391 0794 6FF01FFE 		j	.L92
 1392              		.cfi_endproc
 1393              	.LFE35:
 1395              		.section	.rodata.str1.8
 1396 0083 00000000 		.align	3
 1396      00
 1397              	.LC11:
 1398 0088 6C6F744F 		.string	"lotOfSmallMallocs\n"
 1398      66536D61 
 1398      6C6C4D61 
 1398      6C6C6F63 
 1398      730A00
 1399              		.text
 1400              		.align	2
 1401              		.globl	_Z17lotOfSmallMallocsv
 1403              	_Z17lotOfSmallMallocsv:
 1404              	.LFB36:
 177:src/Tests.cpp ****     printString("lotOfSmallMallocs\n");
 1405              		.loc 2 177 1 is_stmt 1
 1406              		.cfi_startproc
 1407 0798 130101FD 		addi	sp,sp,-48
 1408              		.cfi_def_cfa_offset 48
 1409 079c 23341102 		sd	ra,40(sp)
 1410 07a0 23308102 		sd	s0,32(sp)
 1411 07a4 233C9100 		sd	s1,24(sp)
 1412 07a8 23382101 		sd	s2,16(sp)
 1413 07ac 23343101 		sd	s3,8(sp)
 1414              		.cfi_offset 1, -8
 1415              		.cfi_offset 8, -16
 1416              		.cfi_offset 9, -24
 1417              		.cfi_offset 18, -32
 1418              		.cfi_offset 19, -40
 1419 07b0 13040103 		addi	s0,sp,48
 1420              		.cfi_def_cfa 8, 0
 178:src/Tests.cpp ****     uint64 cnt = 0;
 1421              		.loc 2 178 5
 178:src/Tests.cpp ****     uint64 cnt = 0;
 1422              		.loc 2 178 16 is_stmt 0
 1423 07b4 17050000 		lla	a0,.LC11
 1423      13050500 
 1424 07bc 97000000 		call	_Z11printStringPKc@plt
 1424      E7800000 
 1425              	.LVL140:
 179:src/Tests.cpp ****     uint64 sum = 0;
 1426              		.loc 2 179 5 is_stmt 1
 180:src/Tests.cpp ****     uint64 N = 10000UL;
 1427              		.loc 2 180 5
 181:src/Tests.cpp ****     uint64 X = 10UL;
GAS LISTING /tmp/cc7kAHCC.s 			page 41


 1428              		.loc 2 181 5
 182:src/Tests.cpp ****     for(uint64 i = 0; i < N;i++)
 1429              		.loc 2 182 5
 183:src/Tests.cpp ****     {
 1430              		.loc 2 183 5
 1431              	.LBB34:
 183:src/Tests.cpp ****     {
 1432              		.loc 2 183 16 is_stmt 0
 1433 07c4 93040000 		li	s1,0
 1434              	.LBE34:
 180:src/Tests.cpp ****     uint64 N = 10000UL;
 1435              		.loc 2 180 12
 1436 07c8 93090000 		li	s3,0
 179:src/Tests.cpp ****     uint64 sum = 0;
 1437              		.loc 2 179 12
 1438 07cc 13090000 		li	s2,0
 1439 07d0 6F008001 		j	.L99
 1440              	.LVL141:
 1441              	.L103:
 1442              	.LBB37:
 1443              	.LBB35:
 188:src/Tests.cpp ****         sum+=t->a;
 1444              		.loc 2 188 9 is_stmt 1 discriminator 2
 188:src/Tests.cpp ****         sum+=t->a;
 1445              		.loc 2 188 14 is_stmt 0 discriminator 2
 1446 07d4 9307A000 		li	a5,10
 1447 07d8 2330F500 		sd	a5,0(a0)
 189:src/Tests.cpp ****         cnt++;
 1448              		.loc 2 189 9 is_stmt 1 discriminator 2
 189:src/Tests.cpp ****         cnt++;
 1449              		.loc 2 189 12 is_stmt 0 discriminator 2
 1450 07dc 9389A900 		addi	s3,s3,10
 1451              	.LVL142:
 190:src/Tests.cpp ****     }
 1452              		.loc 2 190 9 is_stmt 1 discriminator 2
 190:src/Tests.cpp ****     }
 1453              		.loc 2 190 12 is_stmt 0 discriminator 2
 1454 07e0 13091900 		addi	s2,s2,1
 1455              	.LVL143:
 1456              	.LBE35:
 183:src/Tests.cpp ****     {
 1457              		.loc 2 183 5 is_stmt 1 discriminator 2
 1458 07e4 93841400 		addi	s1,s1,1
 1459              	.LVL144:
 1460              	.L99:
 183:src/Tests.cpp ****     {
 1461              		.loc 2 183 25 discriminator 1
 1462 07e8 B7270000 		li	a5,8192
 1463 07ec 9387F770 		addi	a5,a5,1807
 1464 07f0 63EA9700 		bgtu	s1,a5,.L98
 1465              	.LBB36:
 185:src/Tests.cpp ****         if(t == 0)
 1466              		.loc 2 185 9
 185:src/Tests.cpp ****         if(t == 0)
 1467              		.loc 2 185 35 is_stmt 0
 1468 07f4 13058000 		li	a0,8
 1469 07f8 97000000 		call	mem_alloc@plt
GAS LISTING /tmp/cc7kAHCC.s 			page 42


 1469      E7800000 
 1470              	.LVL145:
 186:src/Tests.cpp ****             break;
 1471              		.loc 2 186 9 is_stmt 1
 1472 0800 E31A05FC 		bnez	a0,.L103
 1473              	.LVL146:
 1474              	.L98:
 1475              	.LBE36:
 1476              	.LBE37:
 192:src/Tests.cpp ****     printString("\n");
 1477              		.loc 2 192 5
 192:src/Tests.cpp ****     printString("\n");
 1478              		.loc 2 192 13 is_stmt 0
 1479 0804 13060000 		li	a2,0
 1480 0808 9305A000 		li	a1,10
 1481 080c 1B050900 		sext.w	a0,s2
 1482 0810 97000000 		call	_Z8printIntiii@plt
 1482      E7800000 
 1483              	.LVL147:
 193:src/Tests.cpp ****     if(sum == X*cnt)
 1484              		.loc 2 193 5 is_stmt 1
 193:src/Tests.cpp ****     if(sum == X*cnt)
 1485              		.loc 2 193 16 is_stmt 0
 1486 0818 17050000 		lla	a0,.LC3
 1486      13050500 
 1487 0820 97000000 		call	_Z11printStringPKc@plt
 1487      E7800000 
 1488              	.LVL148:
 194:src/Tests.cpp ****         printString("OK\n");
 1489              		.loc 2 194 5 is_stmt 1
 194:src/Tests.cpp ****         printString("OK\n");
 1490              		.loc 2 194 16 is_stmt 0
 1491 0828 93172900 		slli	a5,s2,2
 1492 082c 33892701 		add	s2,a5,s2
 1493              	.LVL149:
 1494 0830 13191900 		slli	s2,s2,1
 194:src/Tests.cpp ****         printString("OK\n");
 1495              		.loc 2 194 5
 1496 0834 63083903 		beq	s2,s3,.L104
 197:src/Tests.cpp **** }
 1497              		.loc 2 197 9 is_stmt 1
 197:src/Tests.cpp **** }
 1498              		.loc 2 197 20 is_stmt 0
 1499 0838 17050000 		lla	a0,.LC8
 1499      13050500 
 1500 0840 97000000 		call	_Z11printStringPKc@plt
 1500      E7800000 
 1501              	.LVL150:
 1502              	.L97:
 198:src/Tests.cpp **** void badFree()
 1503              		.loc 2 198 1
 1504 0848 83308102 		ld	ra,40(sp)
 1505              		.cfi_remember_state
 1506              		.cfi_restore 1
 1507 084c 03340102 		ld	s0,32(sp)
 1508              		.cfi_restore 8
 1509              		.cfi_def_cfa 2, 48
GAS LISTING /tmp/cc7kAHCC.s 			page 43


 1510 0850 83348101 		ld	s1,24(sp)
 1511              		.cfi_restore 9
 1512              	.LVL151:
 1513 0854 03390101 		ld	s2,16(sp)
 1514              		.cfi_restore 18
 1515 0858 83398100 		ld	s3,8(sp)
 1516              		.cfi_restore 19
 1517              	.LVL152:
 1518 085c 13010103 		addi	sp,sp,48
 1519              		.cfi_def_cfa_offset 0
 1520 0860 67800000 		jr	ra
 1521              	.LVL153:
 1522              	.L104:
 1523              		.cfi_restore_state
 195:src/Tests.cpp ****     else
 1524              		.loc 2 195 9 is_stmt 1
 195:src/Tests.cpp ****     else
 1525              		.loc 2 195 20 is_stmt 0
 1526 0864 17050000 		lla	a0,.LC9
 1526      13050500 
 1527 086c 97000000 		call	_Z11printStringPKc@plt
 1527      E7800000 
 1528              	.LVL154:
 1529 0874 6FF05FFD 		j	.L97
 1530              		.cfi_endproc
 1531              	.LFE36:
 1533              		.section	.rodata.str1.8
 1534 009b 00000000 		.align	3
 1534      00
 1535              	.LC12:
 1536 00a0 62616446 		.string	"badFree\n"
 1536      7265650A 
 1536      00
 1537              		.text
 1538              		.align	2
 1539              		.globl	_Z7badFreev
 1541              	_Z7badFreev:
 1542              	.LFB37:
 200:src/Tests.cpp ****     printString("badFree\n");
 1543              		.loc 2 200 1 is_stmt 1
 1544              		.cfi_startproc
 1545 0878 130101FF 		addi	sp,sp,-16
 1546              		.cfi_def_cfa_offset 16
 1547 087c 23341100 		sd	ra,8(sp)
 1548 0880 23308100 		sd	s0,0(sp)
 1549              		.cfi_offset 1, -8
 1550              		.cfi_offset 8, -16
 1551 0884 13040101 		addi	s0,sp,16
 1552              		.cfi_def_cfa 8, 0
 201:src/Tests.cpp ****     Test* t = (Test*)mem_alloc(sizeof(Test));
 1553              		.loc 2 201 5
 201:src/Tests.cpp ****     Test* t = (Test*)mem_alloc(sizeof(Test));
 1554              		.loc 2 201 16 is_stmt 0
 1555 0888 17050000 		lla	a0,.LC12
 1555      13050500 
 1556 0890 97000000 		call	_Z11printStringPKc@plt
 1556      E7800000 
GAS LISTING /tmp/cc7kAHCC.s 			page 44


 1557              	.LVL155:
 202:src/Tests.cpp ****     uint64 retval = mem_free((char*)t + 2);
 1558              		.loc 2 202 5 is_stmt 1
 202:src/Tests.cpp ****     uint64 retval = mem_free((char*)t + 2);
 1559              		.loc 2 202 31 is_stmt 0
 1560 0898 13058000 		li	a0,8
 1561 089c 97000000 		call	mem_alloc@plt
 1561      E7800000 
 1562              	.LVL156:
 203:src/Tests.cpp ****     if(retval == 0)
 1563              		.loc 2 203 5 is_stmt 1
 203:src/Tests.cpp ****     if(retval == 0)
 1564              		.loc 2 203 29 is_stmt 0
 1565 08a4 13052500 		addi	a0,a0,2
 1566              	.LVL157:
 1567 08a8 97000000 		call	mem_free@plt
 1567      E7800000 
 1568              	.LVL158:
 204:src/Tests.cpp ****         printString("not OK\n");
 1569              		.loc 2 204 5 is_stmt 1
 1570 08b0 63120502 		bnez	a0,.L106
 205:src/Tests.cpp ****     else
 1571              		.loc 2 205 9
 205:src/Tests.cpp ****     else
 1572              		.loc 2 205 20 is_stmt 0
 1573 08b4 17050000 		lla	a0,.LC8
 1573      13050500 
 1574              	.LVL159:
 1575 08bc 97000000 		call	_Z11printStringPKc@plt
 1575      E7800000 
 1576              	.LVL160:
 1577              	.L105:
 208:src/Tests.cpp **** 
 1578              		.loc 2 208 1
 1579 08c4 83308100 		ld	ra,8(sp)
 1580              		.cfi_remember_state
 1581              		.cfi_restore 1
 1582 08c8 03340100 		ld	s0,0(sp)
 1583              		.cfi_restore 8
 1584              		.cfi_def_cfa 2, 16
 1585 08cc 13010101 		addi	sp,sp,16
 1586              		.cfi_def_cfa_offset 0
 1587 08d0 67800000 		jr	ra
 1588              	.LVL161:
 1589              	.L106:
 1590              		.cfi_restore_state
 207:src/Tests.cpp **** }
 1591              		.loc 2 207 10 is_stmt 1
 207:src/Tests.cpp **** }
 1592              		.loc 2 207 21 is_stmt 0
 1593 08d4 17050000 		lla	a0,.LC9
 1593      13050500 
 1594              	.LVL162:
 1595 08dc 97000000 		call	_Z11printStringPKc@plt
 1595      E7800000 
 1596              	.LVL163:
 208:src/Tests.cpp **** 
GAS LISTING /tmp/cc7kAHCC.s 			page 45


 1597              		.loc 2 208 1
 1598 08e4 6FF01FFE 		j	.L105
 1599              		.cfi_endproc
 1600              	.LFE37:
 1602              		.section	.rodata.str1.8
 1603 00a9 00000000 		.align	3
 1603      000000
 1604              	.LC13:
 1605 00b0 73747265 		.string	"stressTesting\n"
 1605      73735465 
 1605      7374696E 
 1605      670A00
 1606 00bf 00       		.align	3
 1607              	.LC14:
 1608 00c0 6E6F7420 		.string	"not Ok\n"
 1608      4F6B0A00 
 1609              		.text
 1610              		.align	2
 1611              		.globl	_Z13stressTestingv
 1613              	_Z13stressTestingv:
 1614              	.LFB38:
 211:src/Tests.cpp ****     printString("stressTesting\n");
 1615              		.loc 2 211 1 is_stmt 1
 1616              		.cfi_startproc
 1617 08e8 130101CC 		addi	sp,sp,-832
 1618              		.cfi_def_cfa_offset 832
 1619 08ec 233C1132 		sd	ra,824(sp)
 1620 08f0 23388132 		sd	s0,816(sp)
 1621 08f4 23349132 		sd	s1,808(sp)
 1622 08f8 23302133 		sd	s2,800(sp)
 1623              		.cfi_offset 1, -8
 1624              		.cfi_offset 8, -16
 1625              		.cfi_offset 9, -24
 1626              		.cfi_offset 18, -32
 1627 08fc 13040134 		addi	s0,sp,832
 1628              		.cfi_def_cfa 8, 0
 212:src/Tests.cpp ****     constexpr int num = 100;
 1629              		.loc 2 212 5
 212:src/Tests.cpp ****     constexpr int num = 100;
 1630              		.loc 2 212 16 is_stmt 0
 1631 0900 17050000 		lla	a0,.LC13
 1631      13050500 
 1632 0908 97000000 		call	_Z11printStringPKc@plt
 1632      E7800000 
 1633              	.LVL164:
 1634              	.LBB38:
 215:src/Tests.cpp ****     {
 1635              		.loc 2 215 13
 1636 0910 93040000 		li	s1,0
 1637 0914 6F008000 		j	.L113
 1638              	.LVL165:
 1639              	.L111:
 215:src/Tests.cpp ****     {
 1640              		.loc 2 215 5 is_stmt 1 discriminator 2
 1641 0918 9B841400 		addiw	s1,s1,1
 1642              	.LVL166:
 1643              	.L113:
GAS LISTING /tmp/cc7kAHCC.s 			page 46


 215:src/Tests.cpp ****     {
 1644              		.loc 2 215 22 discriminator 1
 1645 091c 93073006 		li	a5,99
 1646 0920 63C69704 		bgt	s1,a5,.L123
 217:src/Tests.cpp ****         if(addrs[i] == 0)
 1647              		.loc 2 217 9
 217:src/Tests.cpp ****         if(addrs[i] == 0)
 1648              		.loc 2 217 29 is_stmt 0
 1649 0924 13051000 		li	a0,1
 1650 0928 97000000 		call	mem_alloc@plt
 1650      E7800000 
 1651              	.LVL167:
 217:src/Tests.cpp ****         if(addrs[i] == 0)
 1652              		.loc 2 217 18
 1653 0930 93973400 		slli	a5,s1,3
 1654 0934 130704FE 		addi	a4,s0,-32
 1655 0938 B307F700 		add	a5,a4,a5
 1656 093c 23B0A7CE 		sd	a0,-800(a5)
 218:src/Tests.cpp ****         {
 1657              		.loc 2 218 9 is_stmt 1
 1658 0940 E31C05FC 		bnez	a0,.L111
 220:src/Tests.cpp ****             return;
 1659              		.loc 2 220 13
 220:src/Tests.cpp ****             return;
 1660              		.loc 2 220 24 is_stmt 0
 1661 0944 17050000 		lla	a0,.LC8
 1661      13050500 
 1662 094c 97000000 		call	_Z11printStringPKc@plt
 1662      E7800000 
 1663              	.LVL168:
 221:src/Tests.cpp ****         }
 1664              		.loc 2 221 13 is_stmt 1
 1665              	.L109:
 1666              	.LBE38:
 265:src/Tests.cpp **** 
 1667              		.loc 2 265 1 is_stmt 0
 1668 0954 83308133 		ld	ra,824(sp)
 1669              		.cfi_remember_state
 1670              		.cfi_restore 1
 1671 0958 03340133 		ld	s0,816(sp)
 1672              		.cfi_restore 8
 1673              		.cfi_def_cfa 2, 832
 1674 095c 83348132 		ld	s1,808(sp)
 1675              		.cfi_restore 9
 1676 0960 03390132 		ld	s2,800(sp)
 1677              		.cfi_restore 18
 1678 0964 13010134 		addi	sp,sp,832
 1679              		.cfi_def_cfa_offset 0
 1680 0968 67800000 		jr	ra
 1681              	.LVL169:
 1682              	.L123:
 1683              		.cfi_restore_state
 225:src/Tests.cpp ****     while(sz > 0)
 1684              		.loc 2 225 9
 1685 096c 1309C012 		li	s2,300
 1686              	.LVL170:
 1687              	.L110:
GAS LISTING /tmp/cc7kAHCC.s 			page 47


 226:src/Tests.cpp ****     {
 1688              		.loc 2 226 5 is_stmt 1
 226:src/Tests.cpp ****     {
 1689              		.loc 2 226 14
 1690 0970 63522011 		blez	s2,.L114
 1691              	.LBB39:
 1692              	.LBB40:
 228:src/Tests.cpp ****         {
 1693              		.loc 2 228 17 is_stmt 0
 1694 0974 93040000 		li	s1,0
 1695              	.L118:
 1696              	.LVL171:
 228:src/Tests.cpp ****         {
 1697              		.loc 2 228 27 is_stmt 1 discriminator 1
 1698 0978 93073006 		li	a5,99
 1699 097c 63CC9706 		bgt	s1,a5,.L124
 1700              	.LBB41:
 230:src/Tests.cpp ****             if(retval != 0)
 1701              		.loc 2 230 13
 230:src/Tests.cpp ****             if(retval != 0)
 1702              		.loc 2 230 34 is_stmt 0
 1703 0980 93973400 		slli	a5,s1,3
 1704 0984 130704FE 		addi	a4,s0,-32
 1705 0988 B307F700 		add	a5,a4,a5
 1706 098c 03B507CE 		ld	a0,-800(a5)
 1707 0990 97000000 		call	mem_free@plt
 1707      E7800000 
 1708              	.LVL172:
 231:src/Tests.cpp ****             {
 1709              		.loc 2 231 13 is_stmt 1
 1710 0998 631A0502 		bnez	a0,.L126
 236:src/Tests.cpp ****             if(addrs[i] == 0)
 1711              		.loc 2 236 13
 236:src/Tests.cpp ****             if(addrs[i] == 0)
 1712              		.loc 2 236 36 is_stmt 0
 1713 099c 1B55F901 		srliw	a0,s2,31
 1714              	.LVL173:
 1715 09a0 3B052501 		addw	a0,a0,s2
 236:src/Tests.cpp ****             if(addrs[i] == 0)
 1716              		.loc 2 236 33
 1717 09a4 1B551540 		sraiw	a0,a0,1
 1718 09a8 97000000 		call	mem_alloc@plt
 1718      E7800000 
 1719              	.LVL174:
 236:src/Tests.cpp ****             if(addrs[i] == 0)
 1720              		.loc 2 236 22
 1721 09b0 93973400 		slli	a5,s1,3
 1722 09b4 130704FE 		addi	a4,s0,-32
 1723 09b8 B307F700 		add	a5,a4,a5
 1724 09bc 23B0A7CE 		sd	a0,-800(a5)
 237:src/Tests.cpp ****             {
 1725              		.loc 2 237 13 is_stmt 1
 1726 09c0 63000502 		beqz	a0,.L127
 1727              	.LBE41:
 228:src/Tests.cpp ****         {
 1728              		.loc 2 228 9 discriminator 2
 228:src/Tests.cpp ****         {
GAS LISTING /tmp/cc7kAHCC.s 			page 48


 1729              		.loc 2 228 34 is_stmt 0 discriminator 2
 1730 09c4 9B842400 		addiw	s1,s1,2
 1731              	.LVL175:
 228:src/Tests.cpp ****         {
 1732              		.loc 2 228 9 discriminator 2
 1733 09c8 6FF01FFB 		j	.L118
 1734              	.LVL176:
 1735              	.L126:
 1736              	.LBB42:
 233:src/Tests.cpp ****                 return;
 1737              		.loc 2 233 17 is_stmt 1
 233:src/Tests.cpp ****                 return;
 1738              		.loc 2 233 28 is_stmt 0
 1739 09cc 17050000 		lla	a0,.LC8
 1739      13050500 
 1740              	.LVL177:
 1741 09d4 97000000 		call	_Z11printStringPKc@plt
 1741      E7800000 
 1742              	.LVL178:
 234:src/Tests.cpp ****             }
 1743              		.loc 2 234 17 is_stmt 1
 1744 09dc 6FF09FF7 		j	.L109
 1745              	.L127:
 239:src/Tests.cpp ****                 return;
 1746              		.loc 2 239 17
 239:src/Tests.cpp ****                 return;
 1747              		.loc 2 239 28 is_stmt 0
 1748 09e0 17050000 		lla	a0,.LC14
 1748      13050500 
 1749 09e8 97000000 		call	_Z11printStringPKc@plt
 1749      E7800000 
 1750              	.LVL179:
 240:src/Tests.cpp ****             }
 1751              		.loc 2 240 17 is_stmt 1
 1752 09f0 6FF05FF6 		j	.L109
 1753              	.L124:
 1754              	.LBE42:
 1755              	.LBE40:
 1756              	.LBB43:
 245:src/Tests.cpp ****         {
 1757              		.loc 2 245 17 is_stmt 0
 1758 09f4 93041000 		li	s1,1
 1759              	.LVL180:
 1760              	.L115:
 245:src/Tests.cpp ****         {
 1761              		.loc 2 245 27 is_stmt 1 discriminator 1
 1762 09f8 93073006 		li	a5,99
 1763 09fc 63C89706 		bgt	s1,a5,.L119
 1764              	.LBB44:
 247:src/Tests.cpp ****             if(retval != 0)
 1765              		.loc 2 247 13
 247:src/Tests.cpp ****             if(retval != 0)
 1766              		.loc 2 247 34 is_stmt 0
 1767 0a00 93973400 		slli	a5,s1,3
 1768 0a04 130704FE 		addi	a4,s0,-32
 1769 0a08 B307F700 		add	a5,a4,a5
 1770 0a0c 03B507CE 		ld	a0,-800(a5)
GAS LISTING /tmp/cc7kAHCC.s 			page 49


 1771 0a10 97000000 		call	mem_free@plt
 1771      E7800000 
 1772              	.LVL181:
 248:src/Tests.cpp ****             {
 1773              		.loc 2 248 13 is_stmt 1
 1774 0a18 63160502 		bnez	a0,.L128
 253:src/Tests.cpp ****             if(addrs[i] == 0)
 1775              		.loc 2 253 13
 253:src/Tests.cpp ****             if(addrs[i] == 0)
 1776              		.loc 2 253 33 is_stmt 0
 1777 0a1c 13050900 		mv	a0,s2
 1778              	.LVL182:
 1779 0a20 97000000 		call	mem_alloc@plt
 1779      E7800000 
 1780              	.LVL183:
 253:src/Tests.cpp ****             if(addrs[i] == 0)
 1781              		.loc 2 253 22
 1782 0a28 93973400 		slli	a5,s1,3
 1783 0a2c 130704FE 		addi	a4,s0,-32
 1784 0a30 B307F700 		add	a5,a4,a5
 1785 0a34 23B0A7CE 		sd	a0,-800(a5)
 254:src/Tests.cpp ****             {
 1786              		.loc 2 254 13 is_stmt 1
 1787 0a38 63000502 		beqz	a0,.L129
 1788              	.LBE44:
 245:src/Tests.cpp ****         {
 1789              		.loc 2 245 9 discriminator 2
 245:src/Tests.cpp ****         {
 1790              		.loc 2 245 34 is_stmt 0 discriminator 2
 1791 0a3c 9B842400 		addiw	s1,s1,2
 1792              	.LVL184:
 245:src/Tests.cpp ****         {
 1793              		.loc 2 245 9 discriminator 2
 1794 0a40 6FF09FFB 		j	.L115
 1795              	.LVL185:
 1796              	.L128:
 1797              	.LBB45:
 250:src/Tests.cpp ****                 return;
 1798              		.loc 2 250 17 is_stmt 1
 250:src/Tests.cpp ****                 return;
 1799              		.loc 2 250 28 is_stmt 0
 1800 0a44 17050000 		lla	a0,.LC8
 1800      13050500 
 1801              	.LVL186:
 1802 0a4c 97000000 		call	_Z11printStringPKc@plt
 1802      E7800000 
 1803              	.LVL187:
 251:src/Tests.cpp ****             }
 1804              		.loc 2 251 17 is_stmt 1
 1805 0a54 6FF01FF0 		j	.L109
 1806              	.L129:
 256:src/Tests.cpp ****                 return;
 1807              		.loc 2 256 17
 256:src/Tests.cpp ****                 return;
 1808              		.loc 2 256 28 is_stmt 0
 1809 0a58 17050000 		lla	a0,.LC14
 1809      13050500 
GAS LISTING /tmp/cc7kAHCC.s 			page 50


 1810 0a60 97000000 		call	_Z11printStringPKc@plt
 1810      E7800000 
 1811              	.LVL188:
 257:src/Tests.cpp ****             }
 1812              		.loc 2 257 17 is_stmt 1
 1813 0a68 6FF0DFEE 		j	.L109
 1814              	.L119:
 1815              	.LBE45:
 1816              	.LBE43:
 261:src/Tests.cpp ****     }
 1817              		.loc 2 261 9
 261:src/Tests.cpp ****     }
 1818              		.loc 2 261 11 is_stmt 0
 1819 0a6c 1B0969FF 		addiw	s2,s2,-10
 1820              	.LVL189:
 1821              	.LBE39:
 226:src/Tests.cpp ****     {
 1822              		.loc 2 226 5
 1823 0a70 6FF01FF0 		j	.L110
 1824              	.LVL190:
 1825              	.L114:
 264:src/Tests.cpp **** }
 1826              		.loc 2 264 5 is_stmt 1
 264:src/Tests.cpp **** }
 1827              		.loc 2 264 16 is_stmt 0
 1828 0a74 17050000 		lla	a0,.LC9
 1828      13050500 
 1829 0a7c 97000000 		call	_Z11printStringPKc@plt
 1829      E7800000 
 1830              	.LVL191:
 1831 0a84 6FF01FED 		j	.L109
 1832              		.cfi_endproc
 1833              	.LFE38:
 1835              		.align	2
 1836              		.globl	_ZN12TestPeriodicC2Em
 1838              	_ZN12TestPeriodicC2Em:
 1839              	.LFB47:
 292:src/Tests.cpp **** 
 1840              		.loc 2 292 1 is_stmt 1
 1841              		.cfi_startproc
 1842              	.LVL192:
 1843 0a88 130101FE 		addi	sp,sp,-32
 1844              		.cfi_def_cfa_offset 32
 1845 0a8c 233C1100 		sd	ra,24(sp)
 1846 0a90 23388100 		sd	s0,16(sp)
 1847 0a94 23349100 		sd	s1,8(sp)
 1848              		.cfi_offset 1, -8
 1849              		.cfi_offset 8, -16
 1850              		.cfi_offset 9, -24
 1851 0a98 13040102 		addi	s0,sp,32
 1852              		.cfi_def_cfa 8, 0
 1853 0a9c 93040500 		mv	s1,a0
 1854              	.LBB46:
 292:src/Tests.cpp **** 
 1855              		.loc 2 292 62 is_stmt 0
 1856 0aa0 97000000 		call	_ZN14PeriodicThreadC2Em@plt
 1856      E7800000 
GAS LISTING /tmp/cc7kAHCC.s 			page 51


 1857              	.LVL193:
 1858 0aa8 97070000 		lla	a5,_ZTV12TestPeriodic+16
 1858      93870700 
 1859 0ab0 23B0F400 		sd	a5,0(s1)
 1860              	.LBE46:
 294:src/Tests.cpp **** 
 1861              		.loc 2 294 1
 1862 0ab4 83308101 		ld	ra,24(sp)
 1863              		.cfi_restore 1
 1864 0ab8 03340101 		ld	s0,16(sp)
 1865              		.cfi_restore 8
 1866              		.cfi_def_cfa 2, 32
 1867 0abc 83348100 		ld	s1,8(sp)
 1868              		.cfi_restore 9
 1869              	.LVL194:
 1870 0ac0 13010102 		addi	sp,sp,32
 1871              		.cfi_def_cfa_offset 0
 1872 0ac4 67800000 		jr	ra
 1873              		.cfi_endproc
 1874              	.LFE47:
 1876              		.globl	_ZN12TestPeriodicC1Em
 1877              		.set	_ZN12TestPeriodicC1Em,_ZN12TestPeriodicC2Em
 1878              		.align	2
 1879              		.globl	_Z11threadTest3v
 1881              	_Z11threadTest3v:
 1882              	.LFB32:
  99:src/Tests.cpp ****     Thread* t = new TestPeriodic(50);
 1883              		.loc 2 99 1 is_stmt 1
 1884              		.cfi_startproc
 1885              		.cfi_personality 0x9b,DW.ref.__gxx_personality_v0
 1886              		.cfi_lsda 0x1b,.LLSDA32
 1887 0ac8 130101FE 		addi	sp,sp,-32
 1888              		.cfi_def_cfa_offset 32
 1889 0acc 233C1100 		sd	ra,24(sp)
 1890 0ad0 23388100 		sd	s0,16(sp)
 1891 0ad4 23349100 		sd	s1,8(sp)
 1892 0ad8 23302101 		sd	s2,0(sp)
 1893              		.cfi_offset 1, -8
 1894              		.cfi_offset 8, -16
 1895              		.cfi_offset 9, -24
 1896              		.cfi_offset 18, -32
 1897 0adc 13040102 		addi	s0,sp,32
 1898              		.cfi_def_cfa 8, 0
 100:src/Tests.cpp ****     t->start();
 1899              		.loc 2 100 5
 100:src/Tests.cpp ****     t->start();
 1900              		.loc 2 100 36 is_stmt 0
 1901 0ae0 13050001 		li	a0,16
 1902              	.LEHB17:
 1903 0ae4 97000000 		call	_Znwm@plt
 1903      E7800000 
 1904              	.LVL195:
 1905              	.LEHE17:
 1906 0aec 13090500 		mv	s2,a0
 1907 0af0 93052003 		li	a1,50
 1908              	.LEHB18:
 1909 0af4 97000000 		call	_ZN12TestPeriodicC1Em
GAS LISTING /tmp/cc7kAHCC.s 			page 52


 1909      E7800000 
 1910              	.LVL196:
 1911              	.LEHE18:
 101:src/Tests.cpp ****     while(true)
 1912              		.loc 2 101 5 is_stmt 1 discriminator 2
 101:src/Tests.cpp ****     while(true)
 1913              		.loc 2 101 13 is_stmt 0 discriminator 2
 1914 0afc 13050900 		mv	a0,s2
 1915              	.LEHB19:
 1916 0b00 97000000 		call	_ZN6Thread5startEv@plt
 1916      E7800000 
 1917              	.LVL197:
 1918              	.LEHE19:
 1919              	.L133:
 102:src/Tests.cpp ****     {
 1920              		.loc 2 102 5 is_stmt 1 discriminator 1
 102:src/Tests.cpp ****     {
 1921              		.loc 2 102 5 discriminator 1
 1922 0b08 6F000000 		j	.L133
 1923              	.LVL198:
 1924              	.L135:
 1925 0b0c 93040500 		mv	s1,a0
 100:src/Tests.cpp ****     t->start();
 1926              		.loc 2 100 36 is_stmt 0
 1927 0b10 13050900 		mv	a0,s2
 1928 0b14 97000000 		call	_ZdlPv@plt
 1928      E7800000 
 1929              	.LVL199:
 1930 0b1c 13850400 		mv	a0,s1
 1931              	.LEHB20:
 1932 0b20 97000000 		call	_Unwind_Resume@plt
 1932      E7800000 
 1933              	.LVL200:
 1934              	.LEHE20:
 1935              		.cfi_endproc
 1936              	.LFE32:
 1937              		.section	.gcc_except_table
 1938              	.LLSDA32:
 1939 00e6 FF       		.byte	0xff
 1940 00e7 FF       		.byte	0xff
 1941 00e8 03       		.byte	0x3
 1942 00e9 34       		.byte	0x34
 1943 00ea 00000000 		.4byte	.LEHB17-.LFB32
 1944 00ee 00000000 		.4byte	.LEHE17-.LEHB17
 1945 00f2 00000000 		.4byte	0
 1946 00f6 00       		.byte	0
 1947 00f7 00000000 		.4byte	.LEHB18-.LFB32
 1948 00fb 00000000 		.4byte	.LEHE18-.LEHB18
 1949 00ff 00000000 		.4byte	.L135-.LFB32
 1950 0103 00       		.byte	0
 1951 0104 00000000 		.4byte	.LEHB19-.LFB32
 1952 0108 00000000 		.4byte	.LEHE19-.LEHB19
 1953 010c 00000000 		.4byte	0
 1954 0110 00       		.byte	0
 1955 0111 00000000 		.4byte	.LEHB20-.LFB32
 1956 0115 00000000 		.4byte	.LEHE20-.LEHB20
 1957 0119 00000000 		.4byte	0
GAS LISTING /tmp/cc7kAHCC.s 			page 53


 1958 011d 00       		.byte	0
 1959              		.text
 1961              		.align	2
 1962              		.globl	_Z11threadTestsv
 1964              	_Z11threadTestsv:
 1965              	.LFB33:
 109:src/Tests.cpp ****     //threadTest1();
 1966              		.loc 2 109 1 is_stmt 1
 1967              		.cfi_startproc
 1968 0b28 130101FF 		addi	sp,sp,-16
 1969              		.cfi_def_cfa_offset 16
 1970 0b2c 23341100 		sd	ra,8(sp)
 1971 0b30 23308100 		sd	s0,0(sp)
 1972              		.cfi_offset 1, -8
 1973              		.cfi_offset 8, -16
 1974 0b34 13040101 		addi	s0,sp,16
 1975              		.cfi_def_cfa 8, 0
 112:src/Tests.cpp **** }
 1976              		.loc 2 112 5
 112:src/Tests.cpp **** }
 1977              		.loc 2 112 16 is_stmt 0
 1978 0b38 97000000 		call	_Z11threadTest3v
 1978      E7800000 
 1979              	.LVL201:
 1980              		.cfi_endproc
 1981              	.LFE33:
 1983              		.section	.rodata.str1.8
 1984              		.align	3
 1985              	.LC15:
 1986 00c8 54657374 		.string	"Testing a few mallocs and frees\n\n"
 1986      696E6720 
 1986      61206665 
 1986      77206D61 
 1986      6C6C6F63 
 1987 00ea 00000000 		.align	3
 1987      0000
 1988              	.LC16:
 1989 00f0 53554343 		.string	"SUCCESSFUL: Testing a few mallocs and frees\n\n"
 1989      45535346 
 1989      554C3A20 
 1989      54657374 
 1989      696E6720 
 1990              		.text
 1991              		.align	2
 1992              		.globl	_Z10mallocTestv
 1994              	_Z10mallocTestv:
 1995              	.LFB50:
 306:src/Tests.cpp ****     printString("Testing a few mallocs and frees\n\n");
 1996              		.loc 2 306 1 is_stmt 1
 1997              		.cfi_startproc
 1998 0b40 130101FC 		addi	sp,sp,-64
 1999              		.cfi_def_cfa_offset 64
 2000 0b44 233C1102 		sd	ra,56(sp)
 2001 0b48 23388102 		sd	s0,48(sp)
 2002 0b4c 23349102 		sd	s1,40(sp)
 2003 0b50 23302103 		sd	s2,32(sp)
 2004 0b54 233C3101 		sd	s3,24(sp)
GAS LISTING /tmp/cc7kAHCC.s 			page 54


 2005 0b58 23384101 		sd	s4,16(sp)
 2006 0b5c 23345101 		sd	s5,8(sp)
 2007 0b60 23306101 		sd	s6,0(sp)
 2008              		.cfi_offset 1, -8
 2009              		.cfi_offset 8, -16
 2010              		.cfi_offset 9, -24
 2011              		.cfi_offset 18, -32
 2012              		.cfi_offset 19, -40
 2013              		.cfi_offset 20, -48
 2014              		.cfi_offset 21, -56
 2015              		.cfi_offset 22, -64
 2016 0b64 13040104 		addi	s0,sp,64
 2017              		.cfi_def_cfa 8, 0
 307:src/Tests.cpp **** 
 2018              		.loc 2 307 5
 307:src/Tests.cpp **** 
 2019              		.loc 2 307 16 is_stmt 0
 2020 0b68 17050000 		lla	a0,.LC15
 2020      13050500 
 2021 0b70 97000000 		call	_Z11printStringPKc@plt
 2021      E7800000 
 2022              	.LVL202:
 309:src/Tests.cpp ****     o->a = 3;
 2023              		.loc 2 309 5 is_stmt 1
 309:src/Tests.cpp ****     o->a = 3;
 2024              		.loc 2 309 21 is_stmt 0
 2025 0b78 1305C002 		li	a0,44
 2026 0b7c 97000000 		call	_Znwm@plt
 2026      E7800000 
 2027              	.LVL203:
 2028 0b84 93040500 		mv	s1,a0
 2029              	.LVL204:
 310:src/Tests.cpp ****     void* m1 = mem_alloc(10);
 2030              		.loc 2 310 5 is_stmt 1
 310:src/Tests.cpp ****     void* m1 = mem_alloc(10);
 2031              		.loc 2 310 10 is_stmt 0
 2032 0b88 93073000 		li	a5,3
 2033 0b8c 2320F500 		sw	a5,0(a0)
 311:src/Tests.cpp ****     void* m2 = mem_alloc(100);
 2034              		.loc 2 311 5 is_stmt 1
 311:src/Tests.cpp ****     void* m2 = mem_alloc(100);
 2035              		.loc 2 311 25 is_stmt 0
 2036 0b90 1305A000 		li	a0,10
 2037 0b94 97000000 		call	mem_alloc@plt
 2037      E7800000 
 2038              	.LVL205:
 2039 0b9c 13090500 		mv	s2,a0
 2040              	.LVL206:
 312:src/Tests.cpp ****     void* m3 = mem_alloc(1000);
 2041              		.loc 2 312 5 is_stmt 1
 312:src/Tests.cpp ****     void* m3 = mem_alloc(1000);
 2042              		.loc 2 312 25 is_stmt 0
 2043 0ba0 13054006 		li	a0,100
 2044              	.LVL207:
 2045 0ba4 97000000 		call	mem_alloc@plt
 2045      E7800000 
 2046              	.LVL208:
GAS LISTING /tmp/cc7kAHCC.s 			page 55


 2047 0bac 93090500 		mv	s3,a0
 2048              	.LVL209:
 313:src/Tests.cpp ****     void* m4 = mem_alloc(10000);
 2049              		.loc 2 313 5 is_stmt 1
 313:src/Tests.cpp ****     void* m4 = mem_alloc(10000);
 2050              		.loc 2 313 25 is_stmt 0
 2051 0bb0 1305803E 		li	a0,1000
 2052              	.LVL210:
 2053 0bb4 97000000 		call	mem_alloc@plt
 2053      E7800000 
 2054              	.LVL211:
 2055 0bbc 130A0500 		mv	s4,a0
 2056              	.LVL212:
 314:src/Tests.cpp ****     void* m5 = mem_alloc(1);
 2057              		.loc 2 314 5 is_stmt 1
 314:src/Tests.cpp ****     void* m5 = mem_alloc(1);
 2058              		.loc 2 314 25 is_stmt 0
 2059 0bc0 37250000 		li	a0,8192
 2060              	.LVL213:
 2061 0bc4 13050571 		addi	a0,a0,1808
 2062 0bc8 97000000 		call	mem_alloc@plt
 2062      E7800000 
 2063              	.LVL214:
 2064 0bd0 930A0500 		mv	s5,a0
 2065              	.LVL215:
 315:src/Tests.cpp **** 
 2066              		.loc 2 315 5 is_stmt 1
 315:src/Tests.cpp **** 
 2067              		.loc 2 315 25 is_stmt 0
 2068 0bd4 13051000 		li	a0,1
 2069              	.LVL216:
 2070 0bd8 97000000 		call	mem_alloc@plt
 2070      E7800000 
 2071              	.LVL217:
 317:src/Tests.cpp ****         printString("not OK\n");
 2072              		.loc 2 317 5 is_stmt 1
 2073 0be0 630C0906 		beqz	s2,.L140
 2074 0be4 130B0500 		mv	s6,a0
 317:src/Tests.cpp ****         printString("not OK\n");
 2075              		.loc 2 317 12 is_stmt 0 discriminator 1
 2076 0be8 63880906 		beqz	s3,.L140
 317:src/Tests.cpp ****         printString("not OK\n");
 2077              		.loc 2 317 19 discriminator 2
 2078 0bec 63060A06 		beqz	s4,.L140
 317:src/Tests.cpp ****         printString("not OK\n");
 2079              		.loc 2 317 26 discriminator 3
 2080 0bf0 63840A06 		beqz	s5,.L140
 317:src/Tests.cpp ****         printString("not OK\n");
 2081              		.loc 2 317 33 discriminator 4
 2082 0bf4 63020506 		beqz	a0,.L140
 322:src/Tests.cpp ****     delete (uint64*)m3;
 2083              		.loc 2 322 5 is_stmt 1 discriminator 1
 322:src/Tests.cpp ****     delete (uint64*)m3;
 2084              		.loc 2 322 21 is_stmt 0 discriminator 1
 2085 0bf8 13050900 		mv	a0,s2
 2086              	.LVL218:
 2087 0bfc 97000000 		call	_ZdlPv@plt
GAS LISTING /tmp/cc7kAHCC.s 			page 56


 2087      E7800000 
 2088              	.LVL219:
 323:src/Tests.cpp ****     delete (uint64*)m4;
 2089              		.loc 2 323 5 is_stmt 1 discriminator 1
 323:src/Tests.cpp ****     delete (uint64*)m4;
 2090              		.loc 2 323 21 is_stmt 0 discriminator 1
 2091 0c04 13050A00 		mv	a0,s4
 2092 0c08 97000000 		call	_ZdlPv@plt
 2092      E7800000 
 2093              	.LVL220:
 324:src/Tests.cpp ****     delete (uint64*)m2;
 2094              		.loc 2 324 5 is_stmt 1 discriminator 1
 324:src/Tests.cpp ****     delete (uint64*)m2;
 2095              		.loc 2 324 21 is_stmt 0 discriminator 1
 2096 0c10 13850A00 		mv	a0,s5
 2097 0c14 97000000 		call	_ZdlPv@plt
 2097      E7800000 
 2098              	.LVL221:
 325:src/Tests.cpp ****     delete (uint64*)m5;
 2099              		.loc 2 325 5 is_stmt 1 discriminator 1
 325:src/Tests.cpp ****     delete (uint64*)m5;
 2100              		.loc 2 325 21 is_stmt 0 discriminator 1
 2101 0c1c 13850900 		mv	a0,s3
 2102 0c20 97000000 		call	_ZdlPv@plt
 2102      E7800000 
 2103              	.LVL222:
 326:src/Tests.cpp ****     delete o;
 2104              		.loc 2 326 5 is_stmt 1 discriminator 1
 326:src/Tests.cpp ****     delete o;
 2105              		.loc 2 326 21 is_stmt 0 discriminator 1
 2106 0c28 13050B00 		mv	a0,s6
 2107 0c2c 97000000 		call	_ZdlPv@plt
 2107      E7800000 
 2108              	.LVL223:
 327:src/Tests.cpp **** 
 2109              		.loc 2 327 5 is_stmt 1 discriminator 1
 327:src/Tests.cpp **** 
 2110              		.loc 2 327 13 is_stmt 0 discriminator 1
 2111 0c34 63880400 		beqz	s1,.L143
 327:src/Tests.cpp **** 
 2112              		.loc 2 327 12 discriminator 1
 2113 0c38 13850400 		mv	a0,s1
 2114 0c3c 97000000 		call	_ZdlPv@plt
 2114      E7800000 
 2115              	.LVL224:
 2116              	.L143:
 329:src/Tests.cpp **** }
 2117              		.loc 2 329 5 is_stmt 1
 329:src/Tests.cpp **** }
 2118              		.loc 2 329 16 is_stmt 0
 2119 0c44 17050000 		lla	a0,.LC16
 2119      13050500 
 2120 0c4c 97000000 		call	_Z11printStringPKc@plt
 2120      E7800000 
 2121              	.LVL225:
 2122 0c54 6F004001 		j	.L139
 2123              	.LVL226:
GAS LISTING /tmp/cc7kAHCC.s 			page 57


 2124              	.L140:
 318:src/Tests.cpp ****         return;
 2125              		.loc 2 318 9 is_stmt 1
 318:src/Tests.cpp ****         return;
 2126              		.loc 2 318 20 is_stmt 0
 2127 0c58 17050000 		lla	a0,.LC8
 2127      13050500 
 2128              	.LVL227:
 2129 0c60 97000000 		call	_Z11printStringPKc@plt
 2129      E7800000 
 2130              	.LVL228:
 319:src/Tests.cpp ****     }
 2131              		.loc 2 319 9 is_stmt 1
 2132              	.L139:
 330:src/Tests.cpp **** 
 2133              		.loc 2 330 1 is_stmt 0
 2134 0c68 83308103 		ld	ra,56(sp)
 2135              		.cfi_restore 1
 2136 0c6c 03340103 		ld	s0,48(sp)
 2137              		.cfi_restore 8
 2138              		.cfi_def_cfa 2, 64
 2139 0c70 83348102 		ld	s1,40(sp)
 2140              		.cfi_restore 9
 2141              	.LVL229:
 2142 0c74 03390102 		ld	s2,32(sp)
 2143              		.cfi_restore 18
 2144              	.LVL230:
 2145 0c78 83398101 		ld	s3,24(sp)
 2146              		.cfi_restore 19
 2147              	.LVL231:
 2148 0c7c 033A0101 		ld	s4,16(sp)
 2149              		.cfi_restore 20
 2150              	.LVL232:
 2151 0c80 833A8100 		ld	s5,8(sp)
 2152              		.cfi_restore 21
 2153              	.LVL233:
 2154 0c84 033B0100 		ld	s6,0(sp)
 2155              		.cfi_restore 22
 2156 0c88 13010104 		addi	sp,sp,64
 2157              		.cfi_def_cfa_offset 0
 2158 0c8c 67800000 		jr	ra
 2159              		.cfi_endproc
 2160              	.LFE50:
 2162              		.section	.rodata.str1.8
 2163 011e 0000     		.align	3
 2164              	.LC17:
 2165 0120 54657374 		.string	"Testing allocating whole address space\n\n"
 2165      696E6720 
 2165      616C6C6F 
 2165      63617469 
 2165      6E672077 
 2166 0149 00000000 		.align	3
 2166      000000
 2167              	.LC18:
 2168 0150 53554343 		.string	"SUCCESSFUL: Testing allocating whole address space\n\n"
 2168      45535346 
 2168      554C3A20 
GAS LISTING /tmp/cc7kAHCC.s 			page 58


 2168      54657374 
 2168      696E6720 
 2169              		.text
 2170              		.align	2
 2171              		.globl	_Z16mallocEverythingv
 2173              	_Z16mallocEverythingv:
 2174              	.LFB51:
 333:src/Tests.cpp ****     printString("Testing allocating whole address space\n\n");
 2175              		.loc 2 333 1 is_stmt 1
 2176              		.cfi_startproc
 2177 0c90 130101FE 		addi	sp,sp,-32
 2178              		.cfi_def_cfa_offset 32
 2179 0c94 233C1100 		sd	ra,24(sp)
 2180 0c98 23388100 		sd	s0,16(sp)
 2181 0c9c 23349100 		sd	s1,8(sp)
 2182              		.cfi_offset 1, -8
 2183              		.cfi_offset 8, -16
 2184              		.cfi_offset 9, -24
 2185 0ca0 13040102 		addi	s0,sp,32
 2186              		.cfi_def_cfa 8, 0
 334:src/Tests.cpp **** 
 2187              		.loc 2 334 5
 334:src/Tests.cpp **** 
 2188              		.loc 2 334 16 is_stmt 0
 2189 0ca4 17050000 		lla	a0,.LC17
 2189      13050500 
 2190 0cac 97000000 		call	_Z11printStringPKc@plt
 2190      E7800000 
 2191              	.LVL234:
 336:src/Tests.cpp **** 
 2192              		.loc 2 336 5 is_stmt 1
 336:src/Tests.cpp **** 
 2193              		.loc 2 336 47 is_stmt 0
 2194 0cb4 97070000 		la	a5,HEAP_START_ADDR
 2194      83B70700 
 2195 0cbc 03B50700 		ld	a0,0(a5)
 2196 0cc0 97070000 		la	a5,HEAP_END_ADDR
 2196      83B70700 
 2197 0cc8 83B70700 		ld	a5,0(a5)
 2198 0ccc 3305F540 		sub	a0,a0,a5
 2199              	.LVL235:
 338:src/Tests.cpp **** 
 2200              		.loc 2 338 5 is_stmt 1
 338:src/Tests.cpp **** 
 2201              		.loc 2 338 24 is_stmt 0
 2202 0cd0 130505FF 		addi	a0,a0,-16
 2203              	.LVL236:
 2204 0cd4 97000000 		call	mem_alloc@plt
 2204      E7800000 
 2205              	.LVL237:
 340:src/Tests.cpp ****         printString("not OK\n");
 2206              		.loc 2 340 5 is_stmt 1
 2207 0cdc 63040502 		beqz	a0,.L146
 341:src/Tests.cpp ****         return;
 2208              		.loc 2 341 9
 341:src/Tests.cpp ****         return;
 2209              		.loc 2 341 20 is_stmt 0
GAS LISTING /tmp/cc7kAHCC.s 			page 59


 2210 0ce0 17050000 		lla	a0,.LC8
 2210      13050500 
 2211              	.LVL238:
 2212 0ce8 97000000 		call	_Z11printStringPKc@plt
 2212      E7800000 
 2213              	.LVL239:
 342:src/Tests.cpp ****     }
 2214              		.loc 2 342 9 is_stmt 1
 2215              	.L145:
 375:src/Tests.cpp **** 
 2216              		.loc 2 375 1 is_stmt 0
 2217 0cf0 83308101 		ld	ra,24(sp)
 2218              		.cfi_remember_state
 2219              		.cfi_restore 1
 2220 0cf4 03340101 		ld	s0,16(sp)
 2221              		.cfi_restore 8
 2222              		.cfi_def_cfa 2, 32
 2223 0cf8 83348100 		ld	s1,8(sp)
 2224              		.cfi_restore 9
 2225 0cfc 13010102 		addi	sp,sp,32
 2226              		.cfi_def_cfa_offset 0
 2227 0d00 67800000 		jr	ra
 2228              	.LVL240:
 2229              	.L146:
 2230              		.cfi_restore_state
 345:src/Tests.cpp **** 
 2231              		.loc 2 345 5 is_stmt 1
 345:src/Tests.cpp **** 
 2232              		.loc 2 345 48 is_stmt 0
 2233 0d04 97070000 		la	a5,HEAP_END_ADDR
 2233      83B70700 
 2234 0d0c 03B50700 		ld	a0,0(a5)
 2235              	.LVL241:
 2236 0d10 97070000 		la	a5,HEAP_START_ADDR
 2236      83B70700 
 2237 0d18 83B70700 		ld	a5,0(a5)
 2238 0d1c 3305F540 		sub	a0,a0,a5
 345:src/Tests.cpp **** 
 2239              		.loc 2 345 74
 2240 0d20 130505FF 		addi	a0,a0,-16
 345:src/Tests.cpp **** 
 2241              		.loc 2 345 113
 2242 0d24 13556500 		srli	a0,a0,6
 345:src/Tests.cpp **** 
 2243              		.loc 2 345 12
 2244 0d28 130545ED 		addi	a0,a0,-300
 2245              	.LVL242:
 347:src/Tests.cpp **** 
 2246              		.loc 2 347 5 is_stmt 1
 347:src/Tests.cpp **** 
 2247              		.loc 2 347 18 is_stmt 0
 2248 0d2c 13156500 		slli	a0,a0,6
 2249              	.LVL243:
 2250 0d30 97000000 		call	mem_alloc@plt
 2250      E7800000 
 2251              	.LVL244:
 2252 0d38 93040500 		mv	s1,a0
GAS LISTING /tmp/cc7kAHCC.s 			page 60


 2253              	.LVL245:
 349:src/Tests.cpp ****         printString("not OK\n");
 2254              		.loc 2 349 5 is_stmt 1
 2255 0d3c 630A0502 		beqz	a0,.L151
 364:src/Tests.cpp **** 
 2256              		.loc 2 364 5
 364:src/Tests.cpp **** 
 2257              		.loc 2 364 34 is_stmt 0
 2258 0d40 13051000 		li	a0,1
 2259 0d44 97000000 		call	mem_alloc@plt
 2259      E7800000 
 2260              	.LVL246:
 366:src/Tests.cpp ****         printString("not OK\n");
 2261              		.loc 2 366 5 is_stmt 1
 2262 0d4c 630C0502 		beqz	a0,.L152
 371:src/Tests.cpp ****     //delete (uint64*)small_chunk;
 2263              		.loc 2 371 5 discriminator 1
 371:src/Tests.cpp ****     //delete (uint64*)small_chunk;
 2264              		.loc 2 371 21 is_stmt 0 discriminator 1
 2265 0d50 13850400 		mv	a0,s1
 2266              	.LVL247:
 2267 0d54 97000000 		call	_ZdlPv@plt
 2267      E7800000 
 2268              	.LVL248:
 374:src/Tests.cpp **** }
 2269              		.loc 2 374 5 is_stmt 1 discriminator 1
 374:src/Tests.cpp **** }
 2270              		.loc 2 374 16 is_stmt 0 discriminator 1
 2271 0d5c 17050000 		lla	a0,.LC18
 2271      13050500 
 2272 0d64 97000000 		call	_Z11printStringPKc@plt
 2272      E7800000 
 2273              	.LVL249:
 2274 0d6c 6FF05FF8 		j	.L145
 2275              	.L151:
 350:src/Tests.cpp ****         return;
 2276              		.loc 2 350 9 is_stmt 1
 350:src/Tests.cpp ****         return;
 2277              		.loc 2 350 20 is_stmt 0
 2278 0d70 17050000 		lla	a0,.LC8
 2278      13050500 
 2279 0d78 97000000 		call	_Z11printStringPKc@plt
 2279      E7800000 
 2280              	.LVL250:
 351:src/Tests.cpp ****     }
 2281              		.loc 2 351 9 is_stmt 1
 2282 0d80 6FF01FF7 		j	.L145
 2283              	.LVL251:
 2284              	.L152:
 367:src/Tests.cpp ****         return;
 2285              		.loc 2 367 9
 367:src/Tests.cpp ****         return;
 2286              		.loc 2 367 20 is_stmt 0
 2287 0d84 17050000 		lla	a0,.LC8
 2287      13050500 
 2288              	.LVL252:
 2289 0d8c 97000000 		call	_Z11printStringPKc@plt
GAS LISTING /tmp/cc7kAHCC.s 			page 61


 2289      E7800000 
 2290              	.LVL253:
 368:src/Tests.cpp ****     }
 2291              		.loc 2 368 9 is_stmt 1
 2292 0d94 6FF0DFF5 		j	.L145
 2293              		.cfi_endproc
 2294              	.LFE51:
 2296              		.section	.rodata.str1.8
 2297 0185 000000   		.align	3
 2298              	.LC19:
 2299 0188 54657374 		.string	"Testing gap filling and chunk merge after multiple mallocs and frees\n\n"
 2299      696E6720 
 2299      67617020 
 2299      66696C6C 
 2299      696E6720 
 2300 01cf 00       		.align	3
 2301              	.LC20:
 2302 01d0 53554343 		.string	"SUCCESSFUL: Testing gap filling and chunk merge after multiple mallocs and frees\n\n"
 2302      45535346 
 2302      554C3A20 
 2302      54657374 
 2302      696E6720 
 2303              		.text
 2304              		.align	2
 2305              		.globl	_Z17mallocGapFillTestv
 2307              	_Z17mallocGapFillTestv:
 2308              	.LFB52:
 378:src/Tests.cpp ****     printString("Testing gap filling and chunk merge after multiple mallocs and frees\n\n");
 2309              		.loc 2 378 1
 2310              		.cfi_startproc
 2311 0d98 130101F6 		addi	sp,sp,-160
 2312              		.cfi_def_cfa_offset 160
 2313 0d9c 233C1108 		sd	ra,152(sp)
 2314 0da0 23388108 		sd	s0,144(sp)
 2315 0da4 23349108 		sd	s1,136(sp)
 2316 0da8 23302109 		sd	s2,128(sp)
 2317 0dac 233C3107 		sd	s3,120(sp)
 2318 0db0 23384107 		sd	s4,112(sp)
 2319 0db4 23345107 		sd	s5,104(sp)
 2320 0db8 23306107 		sd	s6,96(sp)
 2321 0dbc 233C7105 		sd	s7,88(sp)
 2322 0dc0 23388105 		sd	s8,80(sp)
 2323              		.cfi_offset 1, -8
 2324              		.cfi_offset 8, -16
 2325              		.cfi_offset 9, -24
 2326              		.cfi_offset 18, -32
 2327              		.cfi_offset 19, -40
 2328              		.cfi_offset 20, -48
 2329              		.cfi_offset 21, -56
 2330              		.cfi_offset 22, -64
 2331              		.cfi_offset 23, -72
 2332              		.cfi_offset 24, -80
 2333 0dc4 1304010A 		addi	s0,sp,160
 2334              		.cfi_def_cfa 8, 0
 379:src/Tests.cpp **** 
 2335              		.loc 2 379 5
 379:src/Tests.cpp **** 
GAS LISTING /tmp/cc7kAHCC.s 			page 62


 2336              		.loc 2 379 16 is_stmt 0
 2337 0dc8 17050000 		lla	a0,.LC19
 2337      13050500 
 2338 0dd0 97000000 		call	_Z11printStringPKc@plt
 2338      E7800000 
 2339              	.LVL254:
 2340              	.LBB47:
 385:src/Tests.cpp ****     {
 2341              		.loc 2 385 13
 2342 0dd8 93040000 		li	s1,0
 2343              	.L157:
 2344              	.LVL255:
 385:src/Tests.cpp ****     {
 2345              		.loc 2 385 18 is_stmt 1 discriminator 1
 2346 0ddc 93079000 		li	a5,9
 2347 0de0 63C89706 		bgt	s1,a5,.L154
 387:src/Tests.cpp ****         if(m[i] == nullptr){
 2348              		.loc 2 387 9
 387:src/Tests.cpp ****         if(m[i] == nullptr){
 2349              		.loc 2 387 28 is_stmt 0
 2350 0de4 1B956400 		slliw	a0,s1,6
 387:src/Tests.cpp ****         if(m[i] == nullptr){
 2351              		.loc 2 387 25
 2352 0de8 1B051500 		addiw	a0,a0,1
 2353 0dec 97000000 		call	mem_alloc@plt
 2353      E7800000 
 2354              	.LVL256:
 387:src/Tests.cpp ****         if(m[i] == nullptr){
 2355              		.loc 2 387 14
 2356 0df4 93973400 		slli	a5,s1,3
 2357 0df8 130704FB 		addi	a4,s0,-80
 2358 0dfc B307F700 		add	a5,a4,a5
 2359 0e00 23B8A7FA 		sd	a0,-80(a5)
 388:src/Tests.cpp ****             printString("not OK\n");
 2360              		.loc 2 388 9 is_stmt 1
 2361 0e04 63060500 		beqz	a0,.L174
 385:src/Tests.cpp ****     {
 2362              		.loc 2 385 5 discriminator 2
 2363 0e08 9B841400 		addiw	s1,s1,1
 2364              	.LVL257:
 2365 0e0c 6FF01FFD 		j	.L157
 2366              	.LVL258:
 2367              	.L174:
 389:src/Tests.cpp ****             return;
 2368              		.loc 2 389 13
 389:src/Tests.cpp ****             return;
 2369              		.loc 2 389 24 is_stmt 0
 2370 0e10 17050000 		lla	a0,.LC8
 2370      13050500 
 2371 0e18 97000000 		call	_Z11printStringPKc@plt
 2371      E7800000 
 2372              	.LVL259:
 390:src/Tests.cpp ****         }
 2373              		.loc 2 390 13 is_stmt 1
 2374              	.L153:
 2375              	.LBE47:
 451:src/Tests.cpp **** 
GAS LISTING /tmp/cc7kAHCC.s 			page 63


 2376              		.loc 2 451 1 is_stmt 0
 2377 0e20 83308109 		ld	ra,152(sp)
 2378              		.cfi_remember_state
 2379              		.cfi_restore 1
 2380 0e24 03340109 		ld	s0,144(sp)
 2381              		.cfi_restore 8
 2382              		.cfi_def_cfa 2, 160
 2383 0e28 83348108 		ld	s1,136(sp)
 2384              		.cfi_restore 9
 2385 0e2c 03390108 		ld	s2,128(sp)
 2386              		.cfi_restore 18
 2387 0e30 83398107 		ld	s3,120(sp)
 2388              		.cfi_restore 19
 2389 0e34 033A0107 		ld	s4,112(sp)
 2390              		.cfi_restore 20
 2391 0e38 833A8106 		ld	s5,104(sp)
 2392              		.cfi_restore 21
 2393 0e3c 033B0106 		ld	s6,96(sp)
 2394              		.cfi_restore 22
 2395 0e40 833B8105 		ld	s7,88(sp)
 2396              		.cfi_restore 23
 2397 0e44 033C0105 		ld	s8,80(sp)
 2398              		.cfi_restore 24
 2399 0e48 1301010A 		addi	sp,sp,160
 2400              		.cfi_def_cfa_offset 0
 2401 0e4c 67800000 		jr	ra
 2402              	.LVL260:
 2403              	.L154:
 2404              		.cfi_restore_state
 394:src/Tests.cpp **** 
 2405              		.loc 2 394 5 is_stmt 1
 394:src/Tests.cpp **** 
 2406              		.loc 2 394 24 is_stmt 0
 2407 0e50 033504F7 		ld	a0,-144(s0)
 394:src/Tests.cpp **** 
 2408              		.loc 2 394 25
 2409 0e54 63060500 		beqz	a0,.L158
 394:src/Tests.cpp **** 
 2410              		.loc 2 394 24 discriminator 1
 2411 0e58 97000000 		call	_ZdlPv@plt
 2411      E7800000 
 2412              	.LVL261:
 2413              	.L158:
 396:src/Tests.cpp ****     void* tmp2 = mem_alloc(1);
 2414              		.loc 2 396 5 is_stmt 1
 396:src/Tests.cpp ****     void* tmp2 = mem_alloc(1);
 2415              		.loc 2 396 27 is_stmt 0
 2416 0e60 13051000 		li	a0,1
 2417 0e64 97000000 		call	mem_alloc@plt
 2417      E7800000 
 2418              	.LVL262:
 2419 0e6c 93040500 		mv	s1,a0
 2420              	.LVL263:
 397:src/Tests.cpp ****     void* tmp3 = mem_alloc(1);
 2421              		.loc 2 397 5 is_stmt 1
 397:src/Tests.cpp ****     void* tmp3 = mem_alloc(1);
 2422              		.loc 2 397 27 is_stmt 0
GAS LISTING /tmp/cc7kAHCC.s 			page 64


 2423 0e70 13051000 		li	a0,1
 2424 0e74 97000000 		call	mem_alloc@plt
 2424      E7800000 
 2425              	.LVL264:
 2426 0e7c 13090500 		mv	s2,a0
 2427              	.LVL265:
 398:src/Tests.cpp **** 
 2428              		.loc 2 398 5 is_stmt 1
 398:src/Tests.cpp **** 
 2429              		.loc 2 398 27 is_stmt 0
 2430 0e80 13051000 		li	a0,1
 2431              	.LVL266:
 2432 0e84 97000000 		call	mem_alloc@plt
 2432      E7800000 
 2433              	.LVL267:
 2434 0e8c 93090500 		mv	s3,a0
 2435              	.LVL268:
 400:src/Tests.cpp ****     {
 2436              		.loc 2 400 5 is_stmt 1
 2437 0e90 63880408 		beqz	s1,.L159
 400:src/Tests.cpp ****     {
 2438              		.loc 2 400 14 is_stmt 0 discriminator 1
 2439 0e94 63060908 		beqz	s2,.L159
 400:src/Tests.cpp ****     {
 2440              		.loc 2 400 23 discriminator 2
 2441 0e98 63040508 		beqz	a0,.L159
 406:src/Tests.cpp ****     uint64 im3 = (uint64)m[3];
 2442              		.loc 2 406 5 is_stmt 1
 406:src/Tests.cpp ****     uint64 im3 = (uint64)m[3];
 2443              		.loc 2 406 29 is_stmt 0
 2444 0e9c 833784F6 		ld	a5,-152(s0)
 2445              	.LVL269:
 407:src/Tests.cpp ****     uint64 im5 = (uint64)m[5];
 2446              		.loc 2 407 5 is_stmt 1
 407:src/Tests.cpp ****     uint64 im5 = (uint64)m[5];
 2447              		.loc 2 407 29 is_stmt 0
 2448 0ea0 033584F7 		ld	a0,-136(s0)
 2449              	.LVL270:
 408:src/Tests.cpp ****     uint64 imN = (uint64)m[N];
 2450              		.loc 2 408 5 is_stmt 1
 408:src/Tests.cpp ****     uint64 imN = (uint64)m[N];
 2451              		.loc 2 408 29 is_stmt 0
 2452 0ea4 033B84F8 		ld	s6,-120(s0)
 2453              	.LVL271:
 409:src/Tests.cpp **** 
 2454              		.loc 2 409 5 is_stmt 1
 409:src/Tests.cpp **** 
 2455              		.loc 2 409 29 is_stmt 0
 2456 0ea8 033604FB 		ld	a2,-80(s0)
 2457              	.LVL272:
 411:src/Tests.cpp ****     uint64 itmp2 = (uint64)tmp2;
 2458              		.loc 2 411 5 is_stmt 1
 412:src/Tests.cpp ****     uint64 itmp3 = (uint64)tmp3;
 2459              		.loc 2 412 5
 412:src/Tests.cpp ****     uint64 itmp3 = (uint64)tmp3;
 2460              		.loc 2 412 12 is_stmt 0
 2461 0eac 130A0900 		mv	s4,s2
GAS LISTING /tmp/cc7kAHCC.s 			page 65


 2462              	.LVL273:
 413:src/Tests.cpp **** 
 2463              		.loc 2 413 5 is_stmt 1
 413:src/Tests.cpp **** 
 2464              		.loc 2 413 12 is_stmt 0
 2465 0eb0 938A0900 		mv	s5,s3
 2466              	.LVL274:
 415:src/Tests.cpp ****     {
 2467              		.loc 2 415 5 is_stmt 1
 2468 0eb4 63F09708 		bgeu	a5,s1,.L161
 415:src/Tests.cpp ****     {
 2469              		.loc 2 415 20 is_stmt 0 discriminator 1
 2470 0eb8 63FEA406 		bleu	a0,s1,.L161
 415:src/Tests.cpp ****     {
 2471              		.loc 2 415 33 discriminator 2
 2472 0ebc 63FC2707 		bgeu	a5,s2,.L161
 415:src/Tests.cpp ****     {
 2473              		.loc 2 415 46 discriminator 3
 2474 0ec0 637AA906 		bleu	a0,s2,.L161
 415:src/Tests.cpp ****     {
 2475              		.loc 2 415 8 discriminator 4
 2476 0ec4 63783607 		bgeu	a2,s3,.L161
 421:src/Tests.cpp ****     delete (uint64*)m[4];
 2477              		.loc 2 421 5 is_stmt 1
 421:src/Tests.cpp ****     delete (uint64*)m[4];
 2478              		.loc 2 421 25 is_stmt 0
 2479 0ec8 63060500 		beqz	a0,.L163
 421:src/Tests.cpp ****     delete (uint64*)m[4];
 2480              		.loc 2 421 24 discriminator 1
 2481 0ecc 97000000 		call	_ZdlPv@plt
 2481      E7800000 
 2482              	.LVL275:
 2483              	.L163:
 422:src/Tests.cpp **** 
 2484              		.loc 2 422 5 is_stmt 1
 422:src/Tests.cpp **** 
 2485              		.loc 2 422 24 is_stmt 0
 2486 0ed4 033504F8 		ld	a0,-128(s0)
 422:src/Tests.cpp **** 
 2487              		.loc 2 422 25
 2488 0ed8 63060500 		beqz	a0,.L164
 422:src/Tests.cpp **** 
 2489              		.loc 2 422 24 discriminator 1
 2490 0edc 97000000 		call	_ZdlPv@plt
 2490      E7800000 
 2491              	.LVL276:
 2492              	.L164:
 424:src/Tests.cpp ****     void* tmp5 = mem_alloc(576);
 2493              		.loc 2 424 5 is_stmt 1
 424:src/Tests.cpp ****     void* tmp5 = mem_alloc(576);
 2494              		.loc 2 424 27 is_stmt 0
 2495 0ee4 13050028 		li	a0,640
 2496 0ee8 97000000 		call	mem_alloc@plt
 2496      E7800000 
 2497              	.LVL277:
 2498 0ef0 130C0500 		mv	s8,a0
 2499              	.LVL278:
GAS LISTING /tmp/cc7kAHCC.s 			page 66


 425:src/Tests.cpp **** 
 2500              		.loc 2 425 5 is_stmt 1
 425:src/Tests.cpp **** 
 2501              		.loc 2 425 27 is_stmt 0
 2502 0ef4 13050024 		li	a0,576
 2503              	.LVL279:
 2504 0ef8 97000000 		call	mem_alloc@plt
 2504      E7800000 
 2505              	.LVL280:
 2506 0f00 930B0500 		mv	s7,a0
 2507              	.LVL281:
 427:src/Tests.cpp ****         printString("not OK\n");
 2508              		.loc 2 427 5 is_stmt 1
 2509 0f04 63020C04 		beqz	s8,.L165
 427:src/Tests.cpp ****         printString("not OK\n");
 2510              		.loc 2 427 14 is_stmt 0 discriminator 1
 2511 0f08 63000504 		beqz	a0,.L165
 432:src/Tests.cpp ****     uint64 itmp5 = (uint64)tmp5;
 2512              		.loc 2 432 5 is_stmt 1
 2513              	.LVL282:
 433:src/Tests.cpp **** 
 2514              		.loc 2 433 5
 435:src/Tests.cpp ****         printString("not OK\n");
 2515              		.loc 2 435 5
 2516 0f0c 6378AA04 		bgeu	s4,a0,.L167
 435:src/Tests.cpp ****         printString("not OK\n");
 2517              		.loc 2 435 22 is_stmt 0 discriminator 1
 2518 0f10 6376AB04 		bgeu	s6,a0,.L167
 435:src/Tests.cpp ****         printString("not OK\n");
 2519              		.loc 2 435 8 discriminator 2
 2520 0f14 63745C05 		bleu	s5,s8,.L167
 2521              	.LBB48:
 440:src/Tests.cpp ****         delete (uint64*)m[i];
 2522              		.loc 2 440 13
 2523 0f18 130A0000 		li	s4,0
 2524 0f1c 6F008005 		j	.L168
 2525              	.LVL283:
 2526              	.L159:
 2527              	.LBE48:
 402:src/Tests.cpp ****         return;
 2528              		.loc 2 402 9 is_stmt 1
 402:src/Tests.cpp ****         return;
 2529              		.loc 2 402 20 is_stmt 0
 2530 0f20 17050000 		lla	a0,.LC8
 2530      13050500 
 2531              	.LVL284:
 2532 0f28 97000000 		call	_Z11printStringPKc@plt
 2532      E7800000 
 2533              	.LVL285:
 403:src/Tests.cpp ****     }
 2534              		.loc 2 403 9 is_stmt 1
 2535 0f30 6FF01FEF 		j	.L153
 2536              	.LVL286:
 2537              	.L161:
 417:src/Tests.cpp ****         return;
 2538              		.loc 2 417 9
 417:src/Tests.cpp ****         return;
GAS LISTING /tmp/cc7kAHCC.s 			page 67


 2539              		.loc 2 417 20 is_stmt 0
 2540 0f34 17050000 		lla	a0,.LC8
 2540      13050500 
 2541              	.LVL287:
 2542 0f3c 97000000 		call	_Z11printStringPKc@plt
 2542      E7800000 
 2543              	.LVL288:
 418:src/Tests.cpp ****     }
 2544              		.loc 2 418 9 is_stmt 1
 2545 0f44 6FF0DFED 		j	.L153
 2546              	.LVL289:
 2547              	.L165:
 428:src/Tests.cpp ****         return;
 2548              		.loc 2 428 9
 428:src/Tests.cpp ****         return;
 2549              		.loc 2 428 20 is_stmt 0
 2550 0f48 17050000 		lla	a0,.LC8
 2550      13050500 
 2551              	.LVL290:
 2552 0f50 97000000 		call	_Z11printStringPKc@plt
 2552      E7800000 
 2553              	.LVL291:
 429:src/Tests.cpp ****     }
 2554              		.loc 2 429 9 is_stmt 1
 2555 0f58 6FF09FEC 		j	.L153
 2556              	.LVL292:
 2557              	.L167:
 436:src/Tests.cpp ****         return;
 2558              		.loc 2 436 9
 436:src/Tests.cpp ****         return;
 2559              		.loc 2 436 20 is_stmt 0
 2560 0f5c 17050000 		lla	a0,.LC8
 2560      13050500 
 2561              	.LVL293:
 2562 0f64 97000000 		call	_Z11printStringPKc@plt
 2562      E7800000 
 2563              	.LVL294:
 437:src/Tests.cpp ****     }
 2564              		.loc 2 437 9 is_stmt 1
 2565 0f6c 6FF05FEB 		j	.L153
 2566              	.LVL295:
 2567              	.L170:
 2568              	.LBB49:
 440:src/Tests.cpp ****         delete (uint64*)m[i];
 2569              		.loc 2 440 5 discriminator 2
 2570 0f70 1B0A1A00 		addiw	s4,s4,1
 2571              	.LVL296:
 2572              	.L168:
 440:src/Tests.cpp ****         delete (uint64*)m[i];
 2573              		.loc 2 440 18 discriminator 1
 2574 0f74 93079000 		li	a5,9
 2575 0f78 63C24703 		bgt	s4,a5,.L169
 441:src/Tests.cpp ****     }
 2576              		.loc 2 441 9
 441:src/Tests.cpp ****     }
 2577              		.loc 2 441 28 is_stmt 0
 2578 0f7c 93173A00 		slli	a5,s4,3
GAS LISTING /tmp/cc7kAHCC.s 			page 68


 2579 0f80 130704FB 		addi	a4,s0,-80
 2580              	.LVL297:
 2581 0f84 B307F700 		add	a5,a4,a5
 2582 0f88 03B507FB 		ld	a0,-80(a5)
 441:src/Tests.cpp ****     }
 2583              		.loc 2 441 29
 2584 0f8c E30205FE 		beqz	a0,.L170
 441:src/Tests.cpp ****     }
 2585              		.loc 2 441 28 discriminator 1
 2586 0f90 97000000 		call	_ZdlPv@plt
 2586      E7800000 
 2587              	.LVL298:
 2588 0f98 6FF09FFD 		j	.L170
 2589              	.L169:
 2590              	.LBE49:
 444:src/Tests.cpp ****     delete (uint64*)tmp2;
 2591              		.loc 2 444 5 is_stmt 1 discriminator 1
 444:src/Tests.cpp ****     delete (uint64*)tmp2;
 2592              		.loc 2 444 21 is_stmt 0 discriminator 1
 2593 0f9c 13850400 		mv	a0,s1
 2594 0fa0 97000000 		call	_ZdlPv@plt
 2594      E7800000 
 2595              	.LVL299:
 445:src/Tests.cpp ****     delete (uint64*)tmp3;
 2596              		.loc 2 445 5 is_stmt 1 discriminator 1
 445:src/Tests.cpp ****     delete (uint64*)tmp3;
 2597              		.loc 2 445 21 is_stmt 0 discriminator 1
 2598 0fa8 13050900 		mv	a0,s2
 2599 0fac 97000000 		call	_ZdlPv@plt
 2599      E7800000 
 2600              	.LVL300:
 446:src/Tests.cpp ****     delete (uint64*)tmp4;
 2601              		.loc 2 446 5 is_stmt 1 discriminator 1
 446:src/Tests.cpp ****     delete (uint64*)tmp4;
 2602              		.loc 2 446 21 is_stmt 0 discriminator 1
 2603 0fb4 13850900 		mv	a0,s3
 2604 0fb8 97000000 		call	_ZdlPv@plt
 2604      E7800000 
 2605              	.LVL301:
 447:src/Tests.cpp ****     delete (uint64*)tmp5;
 2606              		.loc 2 447 5 is_stmt 1 discriminator 1
 447:src/Tests.cpp ****     delete (uint64*)tmp5;
 2607              		.loc 2 447 21 is_stmt 0 discriminator 1
 2608 0fc0 13050C00 		mv	a0,s8
 2609 0fc4 97000000 		call	_ZdlPv@plt
 2609      E7800000 
 2610              	.LVL302:
 448:src/Tests.cpp **** 
 2611              		.loc 2 448 5 is_stmt 1 discriminator 1
 448:src/Tests.cpp **** 
 2612              		.loc 2 448 21 is_stmt 0 discriminator 1
 2613 0fcc 13850B00 		mv	a0,s7
 2614 0fd0 97000000 		call	_ZdlPv@plt
 2614      E7800000 
 2615              	.LVL303:
 450:src/Tests.cpp **** }
 2616              		.loc 2 450 5 is_stmt 1 discriminator 1
GAS LISTING /tmp/cc7kAHCC.s 			page 69


 450:src/Tests.cpp **** }
 2617              		.loc 2 450 16 is_stmt 0 discriminator 1
 2618 0fd8 17050000 		lla	a0,.LC20
 2618      13050500 
 2619 0fe0 97000000 		call	_Z11printStringPKc@plt
 2619      E7800000 
 2620              	.LVL304:
 2621 0fe8 6FF09FE3 		j	.L153
 2622              		.cfi_endproc
 2623              	.LFE52:
 2625              		.align	2
 2626              		.globl	_Z21memoryAllocationTestsv
 2628              	_Z21memoryAllocationTestsv:
 2629              	.LFB39:
 268:src/Tests.cpp ****     //bigMalloc();
 2630              		.loc 2 268 1 is_stmt 1
 2631              		.cfi_startproc
 2632 0fec 130101FF 		addi	sp,sp,-16
 2633              		.cfi_def_cfa_offset 16
 2634 0ff0 23341100 		sd	ra,8(sp)
 2635 0ff4 23308100 		sd	s0,0(sp)
 2636              		.cfi_offset 1, -8
 2637              		.cfi_offset 8, -16
 2638 0ff8 13040101 		addi	s0,sp,16
 2639              		.cfi_def_cfa 8, 0
 276:src/Tests.cpp **** }
 2640              		.loc 2 276 5
 276:src/Tests.cpp **** }
 2641              		.loc 2 276 22 is_stmt 0
 2642 0ffc 97000000 		call	_Z17mallocGapFillTestv
 2642      E7800000 
 2643              	.LVL305:
 277:src/Tests.cpp **** 
 2644              		.loc 2 277 1
 2645 1004 83308100 		ld	ra,8(sp)
 2646              		.cfi_restore 1
 2647 1008 03340100 		ld	s0,0(sp)
 2648              		.cfi_restore 8
 2649              		.cfi_def_cfa 2, 16
 2650 100c 13010101 		addi	sp,sp,16
 2651              		.cfi_def_cfa_offset 0
 2652 1010 67800000 		jr	ra
 2653              		.cfi_endproc
 2654              	.LFE39:
 2656              		.align	2
 2657              		.globl	_Z8semTest1v
 2659              	_Z8semTest1v:
 2660              	.LFB55:
 479:src/Tests.cpp **** 
 480:src/Tests.cpp **** void semTest1()
 481:src/Tests.cpp **** {
 2661              		.loc 2 481 1 is_stmt 1
 2662              		.cfi_startproc
 2663 1014 130101FE 		addi	sp,sp,-32
 2664              		.cfi_def_cfa_offset 32
 2665 1018 233C1100 		sd	ra,24(sp)
 2666 101c 23388100 		sd	s0,16(sp)
GAS LISTING /tmp/cc7kAHCC.s 			page 70


 2667              		.cfi_offset 1, -8
 2668              		.cfi_offset 8, -16
 2669 1020 13040102 		addi	s0,sp,32
 2670              		.cfi_def_cfa 8, 0
 482:src/Tests.cpp ****     sem_open(&spaceAvailable, 10);
 2671              		.loc 2 482 5
 2672              		.loc 2 482 13 is_stmt 0
 2673 1024 9305A000 		li	a1,10
 2674 1028 17050000 		lla	a0,.LANCHOR0+32
 2674      13050500 
 2675 1030 97000000 		call	sem_open@plt
 2675      E7800000 
 2676              	.LVL306:
 483:src/Tests.cpp **** 
 484:src/Tests.cpp ****     sem_open(&itemAvailable, 0);
 2677              		.loc 2 484 5 is_stmt 1
 2678              		.loc 2 484 13 is_stmt 0
 2679 1038 93050000 		li	a1,0
 2680 103c 17050000 		lla	a0,.LANCHOR0+8
 2680      13050500 
 2681 1044 97000000 		call	sem_open@plt
 2681      E7800000 
 2682              	.LVL307:
 485:src/Tests.cpp **** 
 486:src/Tests.cpp ****     thread_t threadA, threadB;
 2683              		.loc 2 486 5 is_stmt 1
 487:src/Tests.cpp **** 
 488:src/Tests.cpp ****     thread_create(&threadA, producerA, nullptr);
 2684              		.loc 2 488 5
 2685              		.loc 2 488 18 is_stmt 0
 2686 104c 13060000 		li	a2,0
 2687 1050 97050000 		lla	a1,_Z9producerAPv
 2687      93850500 
 2688 1058 130584FE 		addi	a0,s0,-24
 2689 105c 97000000 		call	thread_create@plt
 2689      E7800000 
 2690              	.LVL308:
 489:src/Tests.cpp **** 
 490:src/Tests.cpp ****     thread_create(&threadB, consumerA, nullptr);
 2691              		.loc 2 490 5 is_stmt 1
 2692              		.loc 2 490 18 is_stmt 0
 2693 1064 13060000 		li	a2,0
 2694 1068 97050000 		lla	a1,_Z9consumerAPv
 2694      93850500 
 2695 1070 130504FE 		addi	a0,s0,-32
 2696 1074 97000000 		call	thread_create@plt
 2696      E7800000 
 2697              	.LVL309:
 2698 107c 6F00C000 		j	.L180
 2699              	.L178:
 491:src/Tests.cpp **** 
 492:src/Tests.cpp ****     while(!((PCB*)threadA)->isFinished() || !((PCB*)threadA)->isFinished())
 493:src/Tests.cpp ****         thread_dispatch();
 2700              		.loc 2 493 9 is_stmt 1 discriminator 5
 2701              		.loc 2 493 24 is_stmt 0 discriminator 5
 2702 1080 97000000 		call	thread_dispatch@plt
 2702      E7800000 
GAS LISTING /tmp/cc7kAHCC.s 			page 71


 2703              	.LVL310:
 2704              	.L180:
 492:src/Tests.cpp ****         thread_dispatch();
 2705              		.loc 2 492 5 is_stmt 1
 492:src/Tests.cpp ****         thread_dispatch();
 2706              		.loc 2 492 42
 492:src/Tests.cpp ****         thread_dispatch();
 2707              		.loc 2 492 39 is_stmt 0
 2708 1088 033584FE 		ld	a0,-24(s0)
 2709 108c 97000000 		call	_ZN3PCB10isFinishedEv@plt
 2709      E7800000 
 2710              	.LVL311:
 492:src/Tests.cpp ****         thread_dispatch();
 2711              		.loc 2 492 42
 2712 1094 E30605FE 		beqz	a0,.L178
 492:src/Tests.cpp ****         thread_dispatch();
 2713              		.loc 2 492 73 discriminator 3
 2714 1098 033584FE 		ld	a0,-24(s0)
 2715 109c 97000000 		call	_ZN3PCB10isFinishedEv@plt
 2715      E7800000 
 2716              	.LVL312:
 492:src/Tests.cpp ****         thread_dispatch();
 2717              		.loc 2 492 42 discriminator 3
 2718 10a4 E30E05FC 		beqz	a0,.L178
 494:src/Tests.cpp **** }
 2719              		.loc 2 494 1
 2720 10a8 83308101 		ld	ra,24(sp)
 2721              		.cfi_restore 1
 2722 10ac 03340101 		ld	s0,16(sp)
 2723              		.cfi_restore 8
 2724              		.cfi_def_cfa 2, 32
 2725 10b0 13010102 		addi	sp,sp,32
 2726              		.cfi_def_cfa_offset 0
 2727 10b4 67800000 		jr	ra
 2728              		.cfi_endproc
 2729              	.LFE55:
 2731              		.align	2
 2732              		.globl	_Z14semaphoreTestsv
 2734              	_Z14semaphoreTestsv:
 2735              	.LFB40:
 280:src/Tests.cpp ****     semTest1();
 2736              		.loc 2 280 1 is_stmt 1
 2737              		.cfi_startproc
 2738 10b8 130101FF 		addi	sp,sp,-16
 2739              		.cfi_def_cfa_offset 16
 2740 10bc 23341100 		sd	ra,8(sp)
 2741 10c0 23308100 		sd	s0,0(sp)
 2742              		.cfi_offset 1, -8
 2743              		.cfi_offset 8, -16
 2744 10c4 13040101 		addi	s0,sp,16
 2745              		.cfi_def_cfa 8, 0
 281:src/Tests.cpp **** }
 2746              		.loc 2 281 5
 281:src/Tests.cpp **** }
 2747              		.loc 2 281 13 is_stmt 0
 2748 10c8 97000000 		call	_Z8semTest1v
 2748      E7800000 
GAS LISTING /tmp/cc7kAHCC.s 			page 72


 2749              	.LVL313:
 282:src/Tests.cpp **** 
 2750              		.loc 2 282 1
 2751 10d0 83308100 		ld	ra,8(sp)
 2752              		.cfi_restore 1
 2753 10d4 03340100 		ld	s0,0(sp)
 2754              		.cfi_restore 8
 2755              		.cfi_def_cfa 2, 16
 2756 10d8 13010101 		addi	sp,sp,16
 2757              		.cfi_def_cfa_offset 0
 2758 10dc 67800000 		jr	ra
 2759              		.cfi_endproc
 2760              	.LFE40:
 2762              		.align	2
 2763              		.globl	_Z12consoleTest1v
 2765              	_Z12consoleTest1v:
 2766              	.LFB56:
 495:src/Tests.cpp **** 
 496:src/Tests.cpp **** void consoleTest1()
 497:src/Tests.cpp **** {
 2767              		.loc 2 497 1 is_stmt 1
 2768              		.cfi_startproc
 2769 10e0 130101FE 		addi	sp,sp,-32
 2770              		.cfi_def_cfa_offset 32
 2771 10e4 233C1100 		sd	ra,24(sp)
 2772 10e8 23388100 		sd	s0,16(sp)
 2773 10ec 23349100 		sd	s1,8(sp)
 2774              		.cfi_offset 1, -8
 2775              		.cfi_offset 8, -16
 2776              		.cfi_offset 9, -24
 2777 10f0 13040102 		addi	s0,sp,32
 2778              		.cfi_def_cfa 8, 0
 498:src/Tests.cpp ****     for(int i = 0; i < 100;i++)
 2779              		.loc 2 498 5
 2780              	.LVL314:
 2781              	.LBB50:
 2782              		.loc 2 498 13 is_stmt 0
 2783 10f4 93040000 		li	s1,0
 2784              	.LVL315:
 2785              	.L186:
 2786              		.loc 2 498 22 is_stmt 1 discriminator 3
 2787 10f8 93073006 		li	a5,99
 2788 10fc 63CA9700 		bgt	s1,a5,.L184
 499:src/Tests.cpp ****     {
 500:src/Tests.cpp ****         getc();
 2789              		.loc 2 500 9 discriminator 2
 2790              		.loc 2 500 13 is_stmt 0 discriminator 2
 2791 1100 97000000 		call	getc@plt
 2791      E7800000 
 2792              	.LVL316:
 498:src/Tests.cpp ****     for(int i = 0; i < 100;i++)
 2793              		.loc 2 498 5 is_stmt 1 discriminator 2
 2794 1108 9B841400 		addiw	s1,s1,1
 2795              	.LVL317:
 2796 110c 6FF0DFFE 		j	.L186
 2797              	.LVL318:
 2798              	.L184:
GAS LISTING /tmp/cc7kAHCC.s 			page 73


 2799              	.LBE50:
 501:src/Tests.cpp ****     }
 502:src/Tests.cpp **** }
 2800              		.loc 2 502 1 is_stmt 0
 2801 1110 83308101 		ld	ra,24(sp)
 2802              		.cfi_restore 1
 2803 1114 03340101 		ld	s0,16(sp)
 2804              		.cfi_restore 8
 2805              		.cfi_def_cfa 2, 32
 2806 1118 83348100 		ld	s1,8(sp)
 2807              		.cfi_restore 9
 2808              	.LVL319:
 2809 111c 13010102 		addi	sp,sp,32
 2810              		.cfi_def_cfa_offset 0
 2811 1120 67800000 		jr	ra
 2812              		.cfi_endproc
 2813              	.LFE56:
 2815              		.align	2
 2816              		.globl	_Z12consoleTestsv
 2818              	_Z12consoleTestsv:
 2819              	.LFB57:
 503:src/Tests.cpp **** 
 504:src/Tests.cpp **** void consoleTests()
 505:src/Tests.cpp **** {
 2820              		.loc 2 505 1 is_stmt 1
 2821              		.cfi_startproc
 2822 1124 130101FF 		addi	sp,sp,-16
 2823              		.cfi_def_cfa_offset 16
 2824 1128 23341100 		sd	ra,8(sp)
 2825 112c 23308100 		sd	s0,0(sp)
 2826              		.cfi_offset 1, -8
 2827              		.cfi_offset 8, -16
 2828 1130 13040101 		addi	s0,sp,16
 2829              		.cfi_def_cfa 8, 0
 506:src/Tests.cpp ****     consoleTest1();
 2830              		.loc 2 506 5
 2831              		.loc 2 506 17 is_stmt 0
 2832 1134 97000000 		call	_Z12consoleTest1v
 2832      E7800000 
 2833              	.LVL320:
 507:src/Tests.cpp **** }
 2834              		.loc 2 507 1
 2835 113c 83308100 		ld	ra,8(sp)
 2836              		.cfi_restore 1
 2837 1140 03340100 		ld	s0,0(sp)
 2838              		.cfi_restore 8
 2839              		.cfi_def_cfa 2, 16
 2840 1144 13010101 		addi	sp,sp,16
 2841              		.cfi_def_cfa_offset 0
 2842 1148 67800000 		jr	ra
 2843              		.cfi_endproc
 2844              	.LFE57:
 2846              		.align	2
 2847              		.globl	_Z7myTestsv
 2849              	_Z7myTestsv:
 2850              	.LFB41:
 285:src/Tests.cpp ****     //memoryAllocationTests();
GAS LISTING /tmp/cc7kAHCC.s 			page 74


 2851              		.loc 2 285 1 is_stmt 1
 2852              		.cfi_startproc
 2853 114c 130101FF 		addi	sp,sp,-16
 2854              		.cfi_def_cfa_offset 16
 2855 1150 23341100 		sd	ra,8(sp)
 2856 1154 23308100 		sd	s0,0(sp)
 2857              		.cfi_offset 1, -8
 2858              		.cfi_offset 8, -16
 2859 1158 13040101 		addi	s0,sp,16
 2860              		.cfi_def_cfa 8, 0
 289:src/Tests.cpp **** }
 2861              		.loc 2 289 5
 289:src/Tests.cpp **** }
 2862              		.loc 2 289 17 is_stmt 0
 2863 115c 97000000 		call	_Z12consoleTestsv
 2863      E7800000 
 2864              	.LVL321:
 290:src/Tests.cpp **** 
 2865              		.loc 2 290 1
 2866 1164 83308100 		ld	ra,8(sp)
 2867              		.cfi_restore 1
 2868 1168 03340100 		ld	s0,0(sp)
 2869              		.cfi_restore 8
 2870              		.cfi_def_cfa 2, 16
 2871 116c 13010101 		addi	sp,sp,16
 2872              		.cfi_def_cfa_offset 0
 2873 1170 67800000 		jr	ra
 2874              		.cfi_endproc
 2875              	.LFE41:
 2877              		.weak	_ZTV14PeriodicThread
 2878              		.section	.data.rel.ro.local._ZTV14PeriodicThread,"awG",@progbits,_ZTV14PeriodicThread,comdat
 2879              		.align	3
 2882              	_ZTV14PeriodicThread:
 2883 0000 00000000 		.dword	0
 2883      00000000 
 2884 0008 00000000 		.dword	0
 2884      00000000 
 2885 0010 00000000 		.dword	_ZN14PeriodicThreadD1Ev
 2885      00000000 
 2886 0018 00000000 		.dword	_ZN14PeriodicThreadD0Ev
 2886      00000000 
 2887 0020 00000000 		.dword	_ZN6Thread3runEv
 2887      00000000 
 2888 0028 00000000 		.dword	_ZN14PeriodicThread18periodicActivationEv
 2888      00000000 
 2889              		.weak	_ZTV12TestPeriodic
 2890              		.section	.data.rel.ro.local._ZTV12TestPeriodic,"awG",@progbits,_ZTV12TestPeriodic,comdat
 2891              		.align	3
 2894              	_ZTV12TestPeriodic:
 2895 0000 00000000 		.dword	0
 2895      00000000 
 2896 0008 00000000 		.dword	0
 2896      00000000 
 2897 0010 00000000 		.dword	_ZN12TestPeriodicD1Ev
 2897      00000000 
 2898 0018 00000000 		.dword	_ZN12TestPeriodicD0Ev
 2898      00000000 
GAS LISTING /tmp/cc7kAHCC.s 			page 75


 2899 0020 00000000 		.dword	_ZN6Thread3runEv
 2899      00000000 
 2900 0028 00000000 		.dword	_ZN12TestPeriodic18periodicActivationEv
 2900      00000000 
 2901              		.globl	string
 2902              		.globl	itemAvailable
 2903              		.globl	spaceAvailable
 2904              		.globl	tail
 2905              		.globl	head
 2906              		.globl	buffer
 2907              		.data
 2908              		.align	3
 2909              		.set	.LANCHOR1,. + 0
 2912              	string:
 2913 0000 74686973 		.string	"this is ni"
 2913      20697320 
 2913      6E6900
 2914              		.bss
 2915              		.align	3
 2916              		.set	.LANCHOR0,. + 0
 2919              	head:
 2920 0000 00000000 		.zero	4
 2921 0004 00000000 		.zero	4
 2924              	itemAvailable:
 2925 0008 00000000 		.zero	8
 2925      00000000 
 2928              	buffer:
 2929 0010 00000000 		.zero	10
 2929      00000000 
 2929      0000
 2930 001a 00000000 		.zero	6
 2930      0000
 2933              	spaceAvailable:
 2934 0020 00000000 		.zero	8
 2934      00000000 
 2937              	tail:
 2938 0028 00000000 		.zero	4
 2939              		.text
 2940              	.Letext0:
 2941              		.file 4 "src/../h/../lib/hw.h"
 2942              		.file 5 "src/../h/../test/../h/syscall_c.h"
 2943              		.file 6 "src/../h/Riscv.hpp"
 2944              		.file 7 "src/../h/PCB.hpp"
 2945              		.file 8 "src/../lib/console.h"
 2946              		.file 9 "src/../h/../test/printing.hpp"
 10422              		.align	3
 10425              	DW.ref.__gxx_personality_v0:
 10426 0000 00000000 		.dword	__gxx_personality_v0
 10426      00000000 
 10427              		.ident	"GCC: (Ubuntu 9.3.0-17ubuntu1~20.04) 9.3.0"
 10428              		.section	.note.GNU-stack,"",@progbits
GAS LISTING /tmp/cc7kAHCC.s 			page 76


DEFINED SYMBOLS
                            *ABS*:0000000000000000 Tests.cpp
     /tmp/cc7kAHCC.s:10     .text._ZN6Thread3runEv:0000000000000000 _ZN6Thread3runEv
     /tmp/cc7kAHCC.s:14     .text._ZN6Thread3runEv:0000000000000000 .L0 
     /tmp/cc7kAHCC.s:16     .text._ZN6Thread3runEv:0000000000000000 .L0 
     /tmp/cc7kAHCC.s:17     .text._ZN6Thread3runEv:0000000000000004 .L0 
     /tmp/cc7kAHCC.s:19     .text._ZN6Thread3runEv:0000000000000008 .L0 
     /tmp/cc7kAHCC.s:21     .text._ZN6Thread3runEv:000000000000000c .L0 
     /tmp/cc7kAHCC.s:23     .text._ZN6Thread3runEv:000000000000000c .L0 
     /tmp/cc7kAHCC.s:24     .text._ZN6Thread3runEv:0000000000000010 .L0 
     /tmp/cc7kAHCC.s:25     .text._ZN6Thread3runEv:0000000000000010 .L0 
     /tmp/cc7kAHCC.s:27     .text._ZN6Thread3runEv:0000000000000014 .L0 
     /tmp/cc7kAHCC.s:29     .text._ZN6Thread3runEv:0000000000000018 .L0 
     /tmp/cc7kAHCC.s:36     .text._ZN14PeriodicThread18periodicActivationEv:0000000000000000 _ZN14PeriodicThread18periodicActivationEv
     /tmp/cc7kAHCC.s:39     .text._ZN14PeriodicThread18periodicActivationEv:0000000000000000 .L0 
     /tmp/cc7kAHCC.s:41     .text._ZN14PeriodicThread18periodicActivationEv:0000000000000000 .L0 
     /tmp/cc7kAHCC.s:42     .text._ZN14PeriodicThread18periodicActivationEv:0000000000000004 .L0 
     /tmp/cc7kAHCC.s:44     .text._ZN14PeriodicThread18periodicActivationEv:0000000000000008 .L0 
     /tmp/cc7kAHCC.s:46     .text._ZN14PeriodicThread18periodicActivationEv:000000000000000c .L0 
     /tmp/cc7kAHCC.s:48     .text._ZN14PeriodicThread18periodicActivationEv:000000000000000c .L0 
     /tmp/cc7kAHCC.s:49     .text._ZN14PeriodicThread18periodicActivationEv:0000000000000010 .L0 
     /tmp/cc7kAHCC.s:50     .text._ZN14PeriodicThread18periodicActivationEv:0000000000000010 .L0 
     /tmp/cc7kAHCC.s:52     .text._ZN14PeriodicThread18periodicActivationEv:0000000000000014 .L0 
     /tmp/cc7kAHCC.s:54     .text._ZN14PeriodicThread18periodicActivationEv:0000000000000018 .L0 
     /tmp/cc7kAHCC.s:65     .text:0000000000000000 _Z4idlePv
     /tmp/cc7kAHCC.s:69     .text:0000000000000000 .L0 
     /tmp/cc7kAHCC.s:71     .text:0000000000000000 .L0 
     /tmp/cc7kAHCC.s:72     .text:0000000000000004 .L0 
     /tmp/cc7kAHCC.s:75     .text:000000000000000c .L0 
     /tmp/cc7kAHCC.s:76     .text:000000000000000c .L0 
     /tmp/cc7kAHCC.s:78     .text:0000000000000010 .L0 
     /tmp/cc7kAHCC.s:82     .text:0000000000000010 .L0 
     /tmp/cc7kAHCC.s:83     .text:0000000000000010 .L0 
     /tmp/cc7kAHCC.s:84     .text:0000000000000010 .L0 
     /tmp/cc7kAHCC.s:88     .text:0000000000000020 .L0 
     /tmp/cc7kAHCC.s:89     .text:0000000000000020 .L0 
     /tmp/cc7kAHCC.s:92     .text:0000000000000028 .L0 
     /tmp/cc7kAHCC.s:93     .text:000000000000002c .L0 
     /tmp/cc7kAHCC.s:110    .text:000000000000002c _Z15thread1FunctionPv
     /tmp/cc7kAHCC.s:113    .text:000000000000002c .L0 
     /tmp/cc7kAHCC.s:115    .text:000000000000002c .L0 
     /tmp/cc7kAHCC.s:116    .text:0000000000000030 .L0 
     /tmp/cc7kAHCC.s:120    .text:000000000000003c .L0 
     /tmp/cc7kAHCC.s:121    .text:000000000000003c .L0 
     /tmp/cc7kAHCC.s:122    .text:000000000000003c .L0 
     /tmp/cc7kAHCC.s:124    .text:0000000000000040 .L0 
     /tmp/cc7kAHCC.s:126    .text:0000000000000040 .L0 
     /tmp/cc7kAHCC.s:127    .text:0000000000000040 .L0 
     /tmp/cc7kAHCC.s:132    .text:0000000000000050 .L0 
     /tmp/cc7kAHCC.s:134    .text:0000000000000050 .L0 
     /tmp/cc7kAHCC.s:135    .text:0000000000000050 .L0 
     /tmp/cc7kAHCC.s:140    .text:0000000000000058 .L0 
     /tmp/cc7kAHCC.s:141    .text:0000000000000058 .L0 
     /tmp/cc7kAHCC.s:145    .text:0000000000000060 .L0 
     /tmp/cc7kAHCC.s:146    .text:0000000000000060 .L0 
     /tmp/cc7kAHCC.s:150    .text:0000000000000070 .L0 
     /tmp/cc7kAHCC.s:151    .text:0000000000000070 .L0 
GAS LISTING /tmp/cc7kAHCC.s 			page 77


     /tmp/cc7kAHCC.s:157    .text:0000000000000084 .L0 
     /tmp/cc7kAHCC.s:158    .text:0000000000000084 .L0 
     /tmp/cc7kAHCC.s:162    .text:0000000000000094 .L0 
     /tmp/cc7kAHCC.s:166    .text:0000000000000098 .L0 
     /tmp/cc7kAHCC.s:170    .text:00000000000000a4 .L0 
     /tmp/cc7kAHCC.s:171    .text:00000000000000a4 .L0 
     /tmp/cc7kAHCC.s:174    .text:00000000000000ac .L0 
     /tmp/cc7kAHCC.s:176    .text:00000000000000b0 .L0 
     /tmp/cc7kAHCC.s:181    .text:00000000000000b8 .L0 
     /tmp/cc7kAHCC.s:182    .text:00000000000000bc .L0 
     /tmp/cc7kAHCC.s:184    .text:00000000000000c0 .L0 
     /tmp/cc7kAHCC.s:185    .text:00000000000000c0 .L0 
     /tmp/cc7kAHCC.s:187    .text:00000000000000c4 .L0 
     /tmp/cc7kAHCC.s:190    .text:00000000000000c8 .L0 
     /tmp/cc7kAHCC.s:192    .text:00000000000000cc .L0 
     /tmp/cc7kAHCC.s:206    .text:00000000000000cc _Z15thread2FunctionPv
     /tmp/cc7kAHCC.s:209    .text:00000000000000cc .L0 
     /tmp/cc7kAHCC.s:211    .text:00000000000000cc .L0 
     /tmp/cc7kAHCC.s:212    .text:00000000000000d0 .L0 
     /tmp/cc7kAHCC.s:216    .text:00000000000000dc .L0 
     /tmp/cc7kAHCC.s:217    .text:00000000000000dc .L0 
     /tmp/cc7kAHCC.s:218    .text:00000000000000dc .L0 
     /tmp/cc7kAHCC.s:220    .text:00000000000000e0 .L0 
     /tmp/cc7kAHCC.s:222    .text:00000000000000e0 .L0 
     /tmp/cc7kAHCC.s:223    .text:00000000000000e0 .L0 
     /tmp/cc7kAHCC.s:228    .text:00000000000000f0 .L0 
     /tmp/cc7kAHCC.s:230    .text:00000000000000f0 .L0 
     /tmp/cc7kAHCC.s:231    .text:00000000000000f0 .L0 
     /tmp/cc7kAHCC.s:236    .text:00000000000000f8 .L0 
     /tmp/cc7kAHCC.s:237    .text:00000000000000f8 .L0 
     /tmp/cc7kAHCC.s:241    .text:0000000000000100 .L0 
     /tmp/cc7kAHCC.s:242    .text:0000000000000100 .L0 
     /tmp/cc7kAHCC.s:246    .text:0000000000000110 .L0 
     /tmp/cc7kAHCC.s:247    .text:0000000000000110 .L0 
     /tmp/cc7kAHCC.s:253    .text:0000000000000124 .L0 
     /tmp/cc7kAHCC.s:254    .text:0000000000000124 .L0 
     /tmp/cc7kAHCC.s:258    .text:0000000000000134 .L0 
     /tmp/cc7kAHCC.s:262    .text:0000000000000138 .L0 
     /tmp/cc7kAHCC.s:266    .text:0000000000000144 .L0 
     /tmp/cc7kAHCC.s:267    .text:0000000000000144 .L0 
     /tmp/cc7kAHCC.s:270    .text:000000000000014c .L0 
     /tmp/cc7kAHCC.s:272    .text:0000000000000150 .L0 
     /tmp/cc7kAHCC.s:277    .text:0000000000000158 .L0 
     /tmp/cc7kAHCC.s:278    .text:000000000000015c .L0 
     /tmp/cc7kAHCC.s:280    .text:0000000000000160 .L0 
     /tmp/cc7kAHCC.s:281    .text:0000000000000160 .L0 
     /tmp/cc7kAHCC.s:283    .text:0000000000000164 .L0 
     /tmp/cc7kAHCC.s:286    .text:0000000000000168 .L0 
     /tmp/cc7kAHCC.s:288    .text:000000000000016c .L0 
     /tmp/cc7kAHCC.s:294    .text:000000000000016c _ZN12TestPeriodic18periodicActivationEv
     /tmp/cc7kAHCC.s:297    .text:000000000000016c .L0 
     /tmp/cc7kAHCC.s:299    .text:000000000000016c .L0 
     /tmp/cc7kAHCC.s:300    .text:0000000000000170 .L0 
     /tmp/cc7kAHCC.s:304    .text:000000000000017c .L0 
     /tmp/cc7kAHCC.s:305    .text:000000000000017c .L0 
     /tmp/cc7kAHCC.s:306    .text:000000000000017c .L0 
     /tmp/cc7kAHCC.s:308    .text:0000000000000180 .L0 
GAS LISTING /tmp/cc7kAHCC.s 			page 78


     /tmp/cc7kAHCC.s:312    .text:0000000000000180 .L0 
     /tmp/cc7kAHCC.s:313    .text:0000000000000180 .L0 
     /tmp/cc7kAHCC.s:317    .text:0000000000000184 .L0 
     /tmp/cc7kAHCC.s:321    .text:0000000000000190 .L0 
     /tmp/cc7kAHCC.s:322    .text:0000000000000190 .L0 
     /tmp/cc7kAHCC.s:326    .text:00000000000001a0 .L0 
     /tmp/cc7kAHCC.s:327    .text:00000000000001a0 .L0 
     /tmp/cc7kAHCC.s:333    .text:00000000000001b4 .L0 
     /tmp/cc7kAHCC.s:340    .text:00000000000001bc .L0 
     /tmp/cc7kAHCC.s:341    .text:00000000000001c0 .L0 
     /tmp/cc7kAHCC.s:343    .text:00000000000001c4 .L0 
     /tmp/cc7kAHCC.s:344    .text:00000000000001c4 .L0 
     /tmp/cc7kAHCC.s:346    .text:00000000000001c8 .L0 
     /tmp/cc7kAHCC.s:349    .text:00000000000001cc .L0 
     /tmp/cc7kAHCC.s:351    .text:00000000000001d0 .L0 
     /tmp/cc7kAHCC.s:357    .text:00000000000001d0 _Z20thread2FunctionTest2Pv
     /tmp/cc7kAHCC.s:360    .text:00000000000001d0 .L0 
     /tmp/cc7kAHCC.s:362    .text:00000000000001d0 .L0 
     /tmp/cc7kAHCC.s:363    .text:00000000000001d4 .L0 
     /tmp/cc7kAHCC.s:367    .text:00000000000001e0 .L0 
     /tmp/cc7kAHCC.s:368    .text:00000000000001e0 .L0 
     /tmp/cc7kAHCC.s:369    .text:00000000000001e0 .L0 
     /tmp/cc7kAHCC.s:371    .text:00000000000001e4 .L0 
     /tmp/cc7kAHCC.s:373    .text:00000000000001e4 .L0 
     /tmp/cc7kAHCC.s:374    .text:00000000000001e4 .L0 
     /tmp/cc7kAHCC.s:379    .text:00000000000001f4 .L0 
     /tmp/cc7kAHCC.s:381    .text:00000000000001f4 .L0 
     /tmp/cc7kAHCC.s:382    .text:00000000000001f4 .L0 
     /tmp/cc7kAHCC.s:387    .text:00000000000001fc .L0 
     /tmp/cc7kAHCC.s:388    .text:00000000000001fc .L0 
     /tmp/cc7kAHCC.s:393    .text:0000000000000208 .L0 
     /tmp/cc7kAHCC.s:394    .text:0000000000000208 .L0 
     /tmp/cc7kAHCC.s:398    .text:0000000000000210 .L0 
     /tmp/cc7kAHCC.s:399    .text:0000000000000210 .L0 
     /tmp/cc7kAHCC.s:403    .text:0000000000000220 .L0 
     /tmp/cc7kAHCC.s:404    .text:0000000000000220 .L0 
     /tmp/cc7kAHCC.s:410    .text:0000000000000234 .L0 
     /tmp/cc7kAHCC.s:411    .text:0000000000000234 .L0 
     /tmp/cc7kAHCC.s:415    .text:0000000000000244 .L0 
     /tmp/cc7kAHCC.s:419    .text:0000000000000248 .L0 
     /tmp/cc7kAHCC.s:423    .text:0000000000000254 .L0 
     /tmp/cc7kAHCC.s:427    .text:000000000000025c .L0 
     /tmp/cc7kAHCC.s:428    .text:000000000000025c .L0 
     /tmp/cc7kAHCC.s:431    .text:0000000000000264 .L0 
     /tmp/cc7kAHCC.s:433    .text:0000000000000268 .L0 
     /tmp/cc7kAHCC.s:438    .text:0000000000000270 .L0 
     /tmp/cc7kAHCC.s:439    .text:0000000000000274 .L0 
     /tmp/cc7kAHCC.s:441    .text:0000000000000278 .L0 
     /tmp/cc7kAHCC.s:442    .text:0000000000000278 .L0 
     /tmp/cc7kAHCC.s:444    .text:000000000000027c .L0 
     /tmp/cc7kAHCC.s:447    .text:0000000000000280 .L0 
     /tmp/cc7kAHCC.s:449    .text:0000000000000284 .L0 
     /tmp/cc7kAHCC.s:455    .text:0000000000000284 _Z9consumerAPv
     /tmp/cc7kAHCC.s:458    .text:0000000000000284 .L0 
     /tmp/cc7kAHCC.s:460    .text:0000000000000284 .L0 
     /tmp/cc7kAHCC.s:461    .text:0000000000000284 .L0 
     /tmp/cc7kAHCC.s:462    .text:0000000000000284 .L0 
GAS LISTING /tmp/cc7kAHCC.s 			page 79


     /tmp/cc7kAHCC.s:466    .text:0000000000000294 .L0 
     /tmp/cc7kAHCC.s:467    .text:0000000000000298 .L0 
     /tmp/cc7kAHCC.s:471    .text:00000000000002a4 .L0 
     /tmp/cc7kAHCC.s:472    .text:00000000000002a4 .L0 
     /tmp/cc7kAHCC.s:473    .text:00000000000002a4 .L0 
     /tmp/cc7kAHCC.s:475    .text:00000000000002a8 .L0 
     /tmp/cc7kAHCC.s:479    .text:00000000000002a8 .L0 
     /tmp/cc7kAHCC.s:480    .text:00000000000002a8 .L0 
     /tmp/cc7kAHCC.s:485    .text:00000000000002bc .L0 
     /tmp/cc7kAHCC.s:486    .text:00000000000002bc .L0 
     /tmp/cc7kAHCC.s:490    .text:00000000000002c8 .L0 
     /tmp/cc7kAHCC.s:495    .text:00000000000002d8 .L0 
     /tmp/cc7kAHCC.s:496    .text:00000000000002d8 .L0 
     /tmp/cc7kAHCC.s:500    .text:00000000000002e4 .L0 
     /tmp/cc7kAHCC.s:501    .text:00000000000002e4 .L0 
     /tmp/cc7kAHCC.s:505    .text:00000000000002f4 .L0 
     /tmp/cc7kAHCC.s:506    .text:00000000000002f8 .L0 
     /tmp/cc7kAHCC.s:508    .text:00000000000002fc .L0 
     /tmp/cc7kAHCC.s:509    .text:00000000000002fc .L0 
     /tmp/cc7kAHCC.s:511    .text:0000000000000300 .L0 
     /tmp/cc7kAHCC.s:513    .text:0000000000000304 .L0 
     /tmp/cc7kAHCC.s:518    .text:000000000000030c .L0 
     /tmp/cc7kAHCC.s:524    .text:000000000000030c _Z9producerAPv
     /tmp/cc7kAHCC.s:527    .text:000000000000030c .L0 
     /tmp/cc7kAHCC.s:529    .text:000000000000030c .L0 
     /tmp/cc7kAHCC.s:530    .text:000000000000030c .L0 
     /tmp/cc7kAHCC.s:531    .text:000000000000030c .L0 
     /tmp/cc7kAHCC.s:535    .text:000000000000031c .L0 
     /tmp/cc7kAHCC.s:536    .text:0000000000000320 .L0 
     /tmp/cc7kAHCC.s:540    .text:000000000000032c .L0 
     /tmp/cc7kAHCC.s:541    .text:000000000000032c .L0 
     /tmp/cc7kAHCC.s:542    .text:000000000000032c .L0 
     /tmp/cc7kAHCC.s:544    .text:0000000000000330 .L0 
     /tmp/cc7kAHCC.s:548    .text:0000000000000330 .L0 
     /tmp/cc7kAHCC.s:549    .text:0000000000000330 .L0 
     /tmp/cc7kAHCC.s:554    .text:0000000000000344 .L0 
     /tmp/cc7kAHCC.s:555    .text:0000000000000344 .L0 
     /tmp/cc7kAHCC.s:560    .text:0000000000000358 .L0 
     /tmp/cc7kAHCC.s:563    .text:0000000000000360 .L0 
     /tmp/cc7kAHCC.s:564    .text:0000000000000360 .L0 
     /tmp/cc7kAHCC.s:567    .text:0000000000000368 .L0 
     /tmp/cc7kAHCC.s:568    .text:0000000000000368 .L0 
     /tmp/cc7kAHCC.s:572    .text:0000000000000374 .L0 
     /tmp/cc7kAHCC.s:573    .text:0000000000000374 .L0 
     /tmp/cc7kAHCC.s:577    .text:0000000000000384 .L0 
     /tmp/cc7kAHCC.s:578    .text:0000000000000388 .L0 
     /tmp/cc7kAHCC.s:580    .text:000000000000038c .L0 
     /tmp/cc7kAHCC.s:581    .text:000000000000038c .L0 
     /tmp/cc7kAHCC.s:583    .text:0000000000000390 .L0 
     /tmp/cc7kAHCC.s:585    .text:0000000000000394 .L0 
     /tmp/cc7kAHCC.s:590    .text:000000000000039c .L0 
     /tmp/cc7kAHCC.s:597    .text._ZN14PeriodicThreadD2Ev:0000000000000000 _ZN14PeriodicThreadD2Ev
     /tmp/cc7kAHCC.s:600    .text._ZN14PeriodicThreadD2Ev:0000000000000000 .L0 
     /tmp/cc7kAHCC.s:602    .text._ZN14PeriodicThreadD2Ev:0000000000000000 .L0 
     /tmp/cc7kAHCC.s:603    .text._ZN14PeriodicThreadD2Ev:0000000000000004 .L0 
     /tmp/cc7kAHCC.s:606    .text._ZN14PeriodicThreadD2Ev:000000000000000c .L0 
     /tmp/cc7kAHCC.s:607    .text._ZN14PeriodicThreadD2Ev:000000000000000c .L0 
GAS LISTING /tmp/cc7kAHCC.s 			page 80


     /tmp/cc7kAHCC.s:609    .text._ZN14PeriodicThreadD2Ev:0000000000000010 .L0 
     /tmp/cc7kAHCC.s:2882   .data.rel.ro.local._ZTV14PeriodicThread:0000000000000000 _ZTV14PeriodicThread
     /tmp/cc7kAHCC.s:612    .text._ZN14PeriodicThreadD2Ev:0000000000000010 .L0 
     /tmp/cc7kAHCC.s:618    .text._ZN14PeriodicThreadD2Ev:0000000000000028 .L0 
     /tmp/cc7kAHCC.s:620    .text._ZN14PeriodicThreadD2Ev:000000000000002c .L0 
     /tmp/cc7kAHCC.s:621    .text._ZN14PeriodicThreadD2Ev:000000000000002c .L0 
     /tmp/cc7kAHCC.s:623    .text._ZN14PeriodicThreadD2Ev:0000000000000030 .L0 
     /tmp/cc7kAHCC.s:625    .text._ZN14PeriodicThreadD2Ev:0000000000000034 .L0 
     /tmp/cc7kAHCC.s:597    .text._ZN14PeriodicThreadD2Ev:0000000000000000 _ZN14PeriodicThreadD1Ev
     /tmp/cc7kAHCC.s:634    .text._ZN14PeriodicThreadD0Ev:0000000000000000 _ZN14PeriodicThreadD0Ev
     /tmp/cc7kAHCC.s:637    .text._ZN14PeriodicThreadD0Ev:0000000000000000 .L0 
     /tmp/cc7kAHCC.s:639    .text._ZN14PeriodicThreadD0Ev:0000000000000000 .L0 
     /tmp/cc7kAHCC.s:640    .text._ZN14PeriodicThreadD0Ev:0000000000000004 .L0 
     /tmp/cc7kAHCC.s:644    .text._ZN14PeriodicThreadD0Ev:0000000000000010 .L0 
     /tmp/cc7kAHCC.s:645    .text._ZN14PeriodicThreadD0Ev:0000000000000010 .L0 
     /tmp/cc7kAHCC.s:646    .text._ZN14PeriodicThreadD0Ev:0000000000000010 .L0 
     /tmp/cc7kAHCC.s:648    .text._ZN14PeriodicThreadD0Ev:0000000000000014 .L0 
     /tmp/cc7kAHCC.s:654    .text._ZN14PeriodicThreadD0Ev:0000000000000018 .L0 
     /tmp/cc7kAHCC.s:664    .text._ZN14PeriodicThreadD0Ev:000000000000003c .L0 
     /tmp/cc7kAHCC.s:666    .text._ZN14PeriodicThreadD0Ev:0000000000000040 .L0 
     /tmp/cc7kAHCC.s:667    .text._ZN14PeriodicThreadD0Ev:0000000000000040 .L0 
     /tmp/cc7kAHCC.s:669    .text._ZN14PeriodicThreadD0Ev:0000000000000044 .L0 
     /tmp/cc7kAHCC.s:672    .text._ZN14PeriodicThreadD0Ev:0000000000000048 .L0 
     /tmp/cc7kAHCC.s:674    .text._ZN14PeriodicThreadD0Ev:000000000000004c .L0 
     /tmp/cc7kAHCC.s:681    .text._ZN12TestPeriodicD2Ev:0000000000000000 _ZN12TestPeriodicD2Ev
     /tmp/cc7kAHCC.s:685    .text._ZN12TestPeriodicD2Ev:0000000000000000 .L0 
     /tmp/cc7kAHCC.s:687    .text._ZN12TestPeriodicD2Ev:0000000000000000 .L0 
     /tmp/cc7kAHCC.s:688    .text._ZN12TestPeriodicD2Ev:0000000000000004 .L0 
     /tmp/cc7kAHCC.s:691    .text._ZN12TestPeriodicD2Ev:000000000000000c .L0 
     /tmp/cc7kAHCC.s:692    .text._ZN12TestPeriodicD2Ev:000000000000000c .L0 
     /tmp/cc7kAHCC.s:694    .text._ZN12TestPeriodicD2Ev:0000000000000010 .L0 
     /tmp/cc7kAHCC.s:699    .text._ZN12TestPeriodicD2Ev:0000000000000010 .L0 
     /tmp/cc7kAHCC.s:706    .text._ZN12TestPeriodicD2Ev:0000000000000024 .L0 
     /tmp/cc7kAHCC.s:707    .text._ZN12TestPeriodicD2Ev:0000000000000028 .L0 
     /tmp/cc7kAHCC.s:709    .text._ZN12TestPeriodicD2Ev:000000000000002c .L0 
     /tmp/cc7kAHCC.s:710    .text._ZN12TestPeriodicD2Ev:000000000000002c .L0 
     /tmp/cc7kAHCC.s:712    .text._ZN12TestPeriodicD2Ev:0000000000000030 .L0 
     /tmp/cc7kAHCC.s:714    .text._ZN12TestPeriodicD2Ev:0000000000000034 .L0 
     /tmp/cc7kAHCC.s:681    .text._ZN12TestPeriodicD2Ev:0000000000000000 _ZN12TestPeriodicD1Ev
     /tmp/cc7kAHCC.s:723    .text._ZN12TestPeriodicD0Ev:0000000000000000 _ZN12TestPeriodicD0Ev
     /tmp/cc7kAHCC.s:726    .text._ZN12TestPeriodicD0Ev:0000000000000000 .L0 
     /tmp/cc7kAHCC.s:728    .text._ZN12TestPeriodicD0Ev:0000000000000000 .L0 
     /tmp/cc7kAHCC.s:729    .text._ZN12TestPeriodicD0Ev:0000000000000004 .L0 
     /tmp/cc7kAHCC.s:733    .text._ZN12TestPeriodicD0Ev:0000000000000010 .L0 
     /tmp/cc7kAHCC.s:734    .text._ZN12TestPeriodicD0Ev:0000000000000010 .L0 
     /tmp/cc7kAHCC.s:735    .text._ZN12TestPeriodicD0Ev:0000000000000010 .L0 
     /tmp/cc7kAHCC.s:737    .text._ZN12TestPeriodicD0Ev:0000000000000014 .L0 
     /tmp/cc7kAHCC.s:744    .text._ZN12TestPeriodicD0Ev:0000000000000018 .L0 
     /tmp/cc7kAHCC.s:752    .text._ZN12TestPeriodicD0Ev:000000000000002c .L0 
     /tmp/cc7kAHCC.s:756    .text._ZN12TestPeriodicD0Ev:000000000000003c .L0 
     /tmp/cc7kAHCC.s:758    .text._ZN12TestPeriodicD0Ev:0000000000000040 .L0 
     /tmp/cc7kAHCC.s:759    .text._ZN12TestPeriodicD0Ev:0000000000000040 .L0 
     /tmp/cc7kAHCC.s:761    .text._ZN12TestPeriodicD0Ev:0000000000000044 .L0 
     /tmp/cc7kAHCC.s:764    .text._ZN12TestPeriodicD0Ev:0000000000000048 .L0 
     /tmp/cc7kAHCC.s:766    .text._ZN12TestPeriodicD0Ev:000000000000004c .L0 
     /tmp/cc7kAHCC.s:777    .text:000000000000039c _Z11threadTest1v
     /tmp/cc7kAHCC.s:780    .text:000000000000039c .L0 
GAS LISTING /tmp/cc7kAHCC.s 			page 81


     /tmp/cc7kAHCC.s:10425  .data.rel.local.DW.ref.__gxx_personality_v0:0000000000000000 DW.ref.__gxx_personality_v0
     /tmp/cc7kAHCC.s:783    .text:000000000000039c .L0 
     /tmp/cc7kAHCC.s:784    .text:00000000000003a0 .L0 
     /tmp/cc7kAHCC.s:789    .text:00000000000003b0 .L0 
     /tmp/cc7kAHCC.s:790    .text:00000000000003b0 .L0 
     /tmp/cc7kAHCC.s:791    .text:00000000000003b0 .L0 
     /tmp/cc7kAHCC.s:792    .text:00000000000003b0 .L0 
     /tmp/cc7kAHCC.s:794    .text:00000000000003b4 .L0 
     /tmp/cc7kAHCC.s:796    .text:00000000000003b4 .L0 
     /tmp/cc7kAHCC.s:797    .text:00000000000003b4 .L0 
     /tmp/cc7kAHCC.s:810    .text:00000000000003d8 .L0 
     /tmp/cc7kAHCC.s:811    .text:00000000000003d8 .L0 
     /tmp/cc7kAHCC.s:816    .text:00000000000003e4 .L0 
     /tmp/cc7kAHCC.s:817    .text:00000000000003e4 .L0 
     /tmp/cc7kAHCC.s:830    .text:0000000000000408 .L0 
     /tmp/cc7kAHCC.s:831    .text:0000000000000408 .L0 
     /tmp/cc7kAHCC.s:836    .text:0000000000000414 .L0 
     /tmp/cc7kAHCC.s:837    .text:0000000000000414 .L0 
     /tmp/cc7kAHCC.s:840    .text:000000000000041c .L0 
     /tmp/cc7kAHCC.s:841    .text:000000000000041c .L0 
     /tmp/cc7kAHCC.s:845    .text:000000000000042c .L0 
     /tmp/cc7kAHCC.s:846    .text:000000000000042c .L0 
     /tmp/cc7kAHCC.s:850    .text:0000000000000434 .L0 
     /tmp/cc7kAHCC.s:851    .text:0000000000000438 .L0 
     /tmp/cc7kAHCC.s:852    .text:0000000000000438 .L0 
     /tmp/cc7kAHCC.s:854    .text:000000000000043c .L0 
     /tmp/cc7kAHCC.s:855    .text:000000000000043c .L0 
     /tmp/cc7kAHCC.s:857    .text:0000000000000440 .L0 
     /tmp/cc7kAHCC.s:860    .text:0000000000000444 .L0 
     /tmp/cc7kAHCC.s:862    .text:0000000000000448 .L0 
     /tmp/cc7kAHCC.s:865    .text:000000000000044c .L0 
     /tmp/cc7kAHCC.s:868    .text:0000000000000450 .L0 
     /tmp/cc7kAHCC.s:879    .text:000000000000046c .L0 
     /tmp/cc7kAHCC.s:887    .text:0000000000000484 .L0 
     /tmp/cc7kAHCC.s:929    .text:0000000000000484 _Z11threadTest2v
     /tmp/cc7kAHCC.s:932    .text:0000000000000484 .L0 
     /tmp/cc7kAHCC.s:935    .text:0000000000000484 .L0 
     /tmp/cc7kAHCC.s:936    .text:0000000000000488 .L0 
     /tmp/cc7kAHCC.s:941    .text:0000000000000498 .L0 
     /tmp/cc7kAHCC.s:942    .text:0000000000000498 .L0 
     /tmp/cc7kAHCC.s:943    .text:0000000000000498 .L0 
     /tmp/cc7kAHCC.s:944    .text:0000000000000498 .L0 
     /tmp/cc7kAHCC.s:946    .text:000000000000049c .L0 
     /tmp/cc7kAHCC.s:948    .text:000000000000049c .L0 
     /tmp/cc7kAHCC.s:949    .text:000000000000049c .L0 
     /tmp/cc7kAHCC.s:962    .text:00000000000004c0 .L0 
     /tmp/cc7kAHCC.s:963    .text:00000000000004c0 .L0 
     /tmp/cc7kAHCC.s:968    .text:00000000000004cc .L0 
     /tmp/cc7kAHCC.s:969    .text:00000000000004cc .L0 
     /tmp/cc7kAHCC.s:982    .text:00000000000004f0 .L0 
     /tmp/cc7kAHCC.s:983    .text:00000000000004f0 .L0 
     /tmp/cc7kAHCC.s:988    .text:00000000000004fc .L0 
     /tmp/cc7kAHCC.s:989    .text:00000000000004fc .L0 
     /tmp/cc7kAHCC.s:1002   .text:0000000000000520 .L0 
     /tmp/cc7kAHCC.s:1003   .text:0000000000000520 .L0 
     /tmp/cc7kAHCC.s:1008   .text:000000000000052c .L0 
     /tmp/cc7kAHCC.s:1009   .text:000000000000052c .L0 
GAS LISTING /tmp/cc7kAHCC.s 			page 82


     /tmp/cc7kAHCC.s:1012   .text:0000000000000534 .L0 
     /tmp/cc7kAHCC.s:1013   .text:0000000000000534 .L0 
     /tmp/cc7kAHCC.s:1017   .text:0000000000000544 .L0 
     /tmp/cc7kAHCC.s:1018   .text:0000000000000544 .L0 
     /tmp/cc7kAHCC.s:1022   .text:000000000000054c .L0 
     /tmp/cc7kAHCC.s:1023   .text:0000000000000550 .L0 
     /tmp/cc7kAHCC.s:1024   .text:0000000000000550 .L0 
     /tmp/cc7kAHCC.s:1026   .text:0000000000000554 .L0 
     /tmp/cc7kAHCC.s:1027   .text:0000000000000554 .L0 
     /tmp/cc7kAHCC.s:1029   .text:0000000000000558 .L0 
     /tmp/cc7kAHCC.s:1032   .text:000000000000055c .L0 
     /tmp/cc7kAHCC.s:1034   .text:0000000000000560 .L0 
     /tmp/cc7kAHCC.s:1037   .text:0000000000000564 .L0 
     /tmp/cc7kAHCC.s:1040   .text:0000000000000568 .L0 
     /tmp/cc7kAHCC.s:1051   .text:0000000000000584 .L0 
     /tmp/cc7kAHCC.s:1062   .text:00000000000005a0 .L0 
     /tmp/cc7kAHCC.s:1070   .text:00000000000005b8 .L0 
     /tmp/cc7kAHCC.s:1134   .text:00000000000005b8 _Z10mallocFreev
     /tmp/cc7kAHCC.s:1137   .text:00000000000005b8 .L0 
     /tmp/cc7kAHCC.s:1138   .text:00000000000005b8 .L0 
     /tmp/cc7kAHCC.s:1139   .text:00000000000005bc .L0 
     /tmp/cc7kAHCC.s:1143   .text:00000000000005c8 .L0 
     /tmp/cc7kAHCC.s:1144   .text:00000000000005c8 .L0 
     /tmp/cc7kAHCC.s:1145   .text:00000000000005c8 .L0 
     /tmp/cc7kAHCC.s:1147   .text:00000000000005cc .L0 
     /tmp/cc7kAHCC.s:1149   .text:00000000000005cc .L0 
     /tmp/cc7kAHCC.s:1150   .text:00000000000005cc .L0 
     /tmp/cc7kAHCC.s:1155   .text:00000000000005dc .L0 
     /tmp/cc7kAHCC.s:1160   .text:00000000000005e4 .L0 
     /tmp/cc7kAHCC.s:1164   .text:00000000000005e8 .L0 
     /tmp/cc7kAHCC.s:1167   .text:00000000000005f0 .L0 
     /tmp/cc7kAHCC.s:1168   .text:00000000000005f0 .L0 
     /tmp/cc7kAHCC.s:1172   .text:00000000000005fc .L0 
     /tmp/cc7kAHCC.s:1177   .text:000000000000060c .L0 
     /tmp/cc7kAHCC.s:1179   .text:0000000000000610 .L0 
     /tmp/cc7kAHCC.s:1180   .text:0000000000000610 .L0 
     /tmp/cc7kAHCC.s:1186   .text:0000000000000620 .L0 
     /tmp/cc7kAHCC.s:1187   .text:0000000000000620 .L0 
     /tmp/cc7kAHCC.s:1188   .text:0000000000000624 .L0 
     /tmp/cc7kAHCC.s:1189   .text:0000000000000624 .L0 
     /tmp/cc7kAHCC.s:1191   .text:0000000000000628 .L0 
     /tmp/cc7kAHCC.s:1192   .text:0000000000000628 .L0 
     /tmp/cc7kAHCC.s:1194   .text:000000000000062c .L0 
     /tmp/cc7kAHCC.s:1196   .text:0000000000000630 .L0 
     /tmp/cc7kAHCC.s:1200   .text:0000000000000634 .L0 
     /tmp/cc7kAHCC.s:1203   .text:0000000000000634 .L0 
     /tmp/cc7kAHCC.s:1207   .text:0000000000000638 .L0 
     /tmp/cc7kAHCC.s:1211   .text:0000000000000640 .L0 
     /tmp/cc7kAHCC.s:1212   .text:0000000000000640 .L0 
     /tmp/cc7kAHCC.s:1219   .text:0000000000000658 .L0 
     /tmp/cc7kAHCC.s:1222   .text:000000000000065c .L0 
     /tmp/cc7kAHCC.s:1223   .text:000000000000065c .L0 
     /tmp/cc7kAHCC.s:1226   .text:0000000000000660 .L0 
     /tmp/cc7kAHCC.s:1231   .text:0000000000000664 .L0 
     /tmp/cc7kAHCC.s:1232   .text:0000000000000664 .L0 
     /tmp/cc7kAHCC.s:1237   .text:0000000000000674 .L0 
     /tmp/cc7kAHCC.s:1243   .text:0000000000000678 .L0 
GAS LISTING /tmp/cc7kAHCC.s 			page 83


     /tmp/cc7kAHCC.s:1249   .text:0000000000000680 .L0 
     /tmp/cc7kAHCC.s:1250   .text:0000000000000680 .L0 
     /tmp/cc7kAHCC.s:1254   .text:0000000000000684 .L0 
     /tmp/cc7kAHCC.s:1257   .text:000000000000068c .L0 
     /tmp/cc7kAHCC.s:1258   .text:000000000000068c .L0 
     /tmp/cc7kAHCC.s:1262   .text:0000000000000698 .L0 
     /tmp/cc7kAHCC.s:1267   .text:00000000000006a8 .L0 
     /tmp/cc7kAHCC.s:1269   .text:00000000000006ac .L0 
     /tmp/cc7kAHCC.s:1270   .text:00000000000006ac .L0 
     /tmp/cc7kAHCC.s:1274   .text:00000000000006bc .L0 
     /tmp/cc7kAHCC.s:1279   .text:00000000000006c0 .L0 
     /tmp/cc7kAHCC.s:1283   .text:00000000000006c4 .L0 
     /tmp/cc7kAHCC.s:1287   .text:00000000000006cc .L0 
     /tmp/cc7kAHCC.s:1288   .text:00000000000006cc .L0 
     /tmp/cc7kAHCC.s:1295   .text:00000000000006e4 .L0 
     /tmp/cc7kAHCC.s:1298   .text:00000000000006e8 .L0 
     /tmp/cc7kAHCC.s:1305   .text:00000000000006f0 .L0 
     /tmp/cc7kAHCC.s:1306   .text:00000000000006f0 .L0 
     /tmp/cc7kAHCC.s:1311   .text:0000000000000700 .L0 
     /tmp/cc7kAHCC.s:1316   .text:0000000000000704 .L0 
     /tmp/cc7kAHCC.s:1317   .text:0000000000000704 .L0 
     /tmp/cc7kAHCC.s:1321   .text:0000000000000718 .L0 
     /tmp/cc7kAHCC.s:1332   .text:0000000000000718 _Z9bigMallocv
     /tmp/cc7kAHCC.s:1335   .text:0000000000000718 .L0 
     /tmp/cc7kAHCC.s:1336   .text:0000000000000718 .L0 
     /tmp/cc7kAHCC.s:1337   .text:000000000000071c .L0 
     /tmp/cc7kAHCC.s:1340   .text:0000000000000724 .L0 
     /tmp/cc7kAHCC.s:1341   .text:0000000000000724 .L0 
     /tmp/cc7kAHCC.s:1343   .text:0000000000000728 .L0 
     /tmp/cc7kAHCC.s:1345   .text:0000000000000728 .L0 
     /tmp/cc7kAHCC.s:1346   .text:0000000000000728 .L0 
     /tmp/cc7kAHCC.s:1350   .text:0000000000000738 .L0 
     /tmp/cc7kAHCC.s:1351   .text:0000000000000738 .L0 
     /tmp/cc7kAHCC.s:1358   .text:0000000000000754 .L0 
     /tmp/cc7kAHCC.s:1359   .text:0000000000000754 .L0 
     /tmp/cc7kAHCC.s:1364   .text:0000000000000760 .L0 
     /tmp/cc7kAHCC.s:1366   .text:0000000000000764 .L0 
     /tmp/cc7kAHCC.s:1367   .text:0000000000000764 .L0 
     /tmp/cc7kAHCC.s:1373   .text:0000000000000774 .L0 
     /tmp/cc7kAHCC.s:1374   .text:0000000000000778 .L0 
     /tmp/cc7kAHCC.s:1375   .text:0000000000000778 .L0 
     /tmp/cc7kAHCC.s:1377   .text:000000000000077c .L0 
     /tmp/cc7kAHCC.s:1378   .text:000000000000077c .L0 
     /tmp/cc7kAHCC.s:1380   .text:0000000000000780 .L0 
     /tmp/cc7kAHCC.s:1384   .text:0000000000000784 .L0 
     /tmp/cc7kAHCC.s:1386   .text:0000000000000784 .L0 
     /tmp/cc7kAHCC.s:1387   .text:0000000000000784 .L0 
     /tmp/cc7kAHCC.s:1392   .text:0000000000000798 .L0 
     /tmp/cc7kAHCC.s:1403   .text:0000000000000798 _Z17lotOfSmallMallocsv
     /tmp/cc7kAHCC.s:1406   .text:0000000000000798 .L0 
     /tmp/cc7kAHCC.s:1407   .text:0000000000000798 .L0 
     /tmp/cc7kAHCC.s:1408   .text:000000000000079c .L0 
     /tmp/cc7kAHCC.s:1414   .text:00000000000007b0 .L0 
     /tmp/cc7kAHCC.s:1415   .text:00000000000007b0 .L0 
     /tmp/cc7kAHCC.s:1416   .text:00000000000007b0 .L0 
     /tmp/cc7kAHCC.s:1417   .text:00000000000007b0 .L0 
     /tmp/cc7kAHCC.s:1418   .text:00000000000007b0 .L0 
GAS LISTING /tmp/cc7kAHCC.s 			page 84


     /tmp/cc7kAHCC.s:1420   .text:00000000000007b4 .L0 
     /tmp/cc7kAHCC.s:1422   .text:00000000000007b4 .L0 
     /tmp/cc7kAHCC.s:1423   .text:00000000000007b4 .L0 
     /tmp/cc7kAHCC.s:1427   .text:00000000000007c4 .L0 
     /tmp/cc7kAHCC.s:1428   .text:00000000000007c4 .L0 
     /tmp/cc7kAHCC.s:1429   .text:00000000000007c4 .L0 
     /tmp/cc7kAHCC.s:1430   .text:00000000000007c4 .L0 
     /tmp/cc7kAHCC.s:1432   .text:00000000000007c4 .L0 
     /tmp/cc7kAHCC.s:1433   .text:00000000000007c4 .L0 
     /tmp/cc7kAHCC.s:1436   .text:00000000000007c8 .L0 
     /tmp/cc7kAHCC.s:1438   .text:00000000000007cc .L0 
     /tmp/cc7kAHCC.s:1445   .text:00000000000007d4 .L0 
     /tmp/cc7kAHCC.s:1446   .text:00000000000007d4 .L0 
     /tmp/cc7kAHCC.s:1449   .text:00000000000007dc .L0 
     /tmp/cc7kAHCC.s:1450   .text:00000000000007dc .L0 
     /tmp/cc7kAHCC.s:1453   .text:00000000000007e0 .L0 
     /tmp/cc7kAHCC.s:1454   .text:00000000000007e0 .L0 
     /tmp/cc7kAHCC.s:1458   .text:00000000000007e4 .L0 
     /tmp/cc7kAHCC.s:1462   .text:00000000000007e8 .L0 
     /tmp/cc7kAHCC.s:1467   .text:00000000000007f4 .L0 
     /tmp/cc7kAHCC.s:1468   .text:00000000000007f4 .L0 
     /tmp/cc7kAHCC.s:1472   .text:0000000000000800 .L0 
     /tmp/cc7kAHCC.s:1478   .text:0000000000000804 .L0 
     /tmp/cc7kAHCC.s:1479   .text:0000000000000804 .L0 
     /tmp/cc7kAHCC.s:1485   .text:0000000000000818 .L0 
     /tmp/cc7kAHCC.s:1486   .text:0000000000000818 .L0 
     /tmp/cc7kAHCC.s:1490   .text:0000000000000828 .L0 
     /tmp/cc7kAHCC.s:1491   .text:0000000000000828 .L0 
     /tmp/cc7kAHCC.s:1496   .text:0000000000000834 .L0 
     /tmp/cc7kAHCC.s:1498   .text:0000000000000838 .L0 
     /tmp/cc7kAHCC.s:1499   .text:0000000000000838 .L0 
     /tmp/cc7kAHCC.s:1504   .text:0000000000000848 .L0 
     /tmp/cc7kAHCC.s:1505   .text:000000000000084c .L0 
     /tmp/cc7kAHCC.s:1506   .text:000000000000084c .L0 
     /tmp/cc7kAHCC.s:1508   .text:0000000000000850 .L0 
     /tmp/cc7kAHCC.s:1509   .text:0000000000000850 .L0 
     /tmp/cc7kAHCC.s:1511   .text:0000000000000854 .L0 
     /tmp/cc7kAHCC.s:1514   .text:0000000000000858 .L0 
     /tmp/cc7kAHCC.s:1516   .text:000000000000085c .L0 
     /tmp/cc7kAHCC.s:1519   .text:0000000000000860 .L0 
     /tmp/cc7kAHCC.s:1523   .text:0000000000000864 .L0 
     /tmp/cc7kAHCC.s:1525   .text:0000000000000864 .L0 
     /tmp/cc7kAHCC.s:1526   .text:0000000000000864 .L0 
     /tmp/cc7kAHCC.s:1530   .text:0000000000000878 .L0 
     /tmp/cc7kAHCC.s:1541   .text:0000000000000878 _Z7badFreev
     /tmp/cc7kAHCC.s:1544   .text:0000000000000878 .L0 
     /tmp/cc7kAHCC.s:1545   .text:0000000000000878 .L0 
     /tmp/cc7kAHCC.s:1546   .text:000000000000087c .L0 
     /tmp/cc7kAHCC.s:1549   .text:0000000000000884 .L0 
     /tmp/cc7kAHCC.s:1550   .text:0000000000000884 .L0 
     /tmp/cc7kAHCC.s:1552   .text:0000000000000888 .L0 
     /tmp/cc7kAHCC.s:1554   .text:0000000000000888 .L0 
     /tmp/cc7kAHCC.s:1555   .text:0000000000000888 .L0 
     /tmp/cc7kAHCC.s:1559   .text:0000000000000898 .L0 
     /tmp/cc7kAHCC.s:1560   .text:0000000000000898 .L0 
     /tmp/cc7kAHCC.s:1564   .text:00000000000008a4 .L0 
     /tmp/cc7kAHCC.s:1565   .text:00000000000008a4 .L0 
GAS LISTING /tmp/cc7kAHCC.s 			page 85


     /tmp/cc7kAHCC.s:1570   .text:00000000000008b0 .L0 
     /tmp/cc7kAHCC.s:1572   .text:00000000000008b4 .L0 
     /tmp/cc7kAHCC.s:1573   .text:00000000000008b4 .L0 
     /tmp/cc7kAHCC.s:1579   .text:00000000000008c4 .L0 
     /tmp/cc7kAHCC.s:1580   .text:00000000000008c8 .L0 
     /tmp/cc7kAHCC.s:1581   .text:00000000000008c8 .L0 
     /tmp/cc7kAHCC.s:1583   .text:00000000000008cc .L0 
     /tmp/cc7kAHCC.s:1584   .text:00000000000008cc .L0 
     /tmp/cc7kAHCC.s:1586   .text:00000000000008d0 .L0 
     /tmp/cc7kAHCC.s:1590   .text:00000000000008d4 .L0 
     /tmp/cc7kAHCC.s:1592   .text:00000000000008d4 .L0 
     /tmp/cc7kAHCC.s:1593   .text:00000000000008d4 .L0 
     /tmp/cc7kAHCC.s:1598   .text:00000000000008e4 .L0 
     /tmp/cc7kAHCC.s:1599   .text:00000000000008e8 .L0 
     /tmp/cc7kAHCC.s:1613   .text:00000000000008e8 _Z13stressTestingv
     /tmp/cc7kAHCC.s:1616   .text:00000000000008e8 .L0 
     /tmp/cc7kAHCC.s:1617   .text:00000000000008e8 .L0 
     /tmp/cc7kAHCC.s:1618   .text:00000000000008ec .L0 
     /tmp/cc7kAHCC.s:1623   .text:00000000000008fc .L0 
     /tmp/cc7kAHCC.s:1624   .text:00000000000008fc .L0 
     /tmp/cc7kAHCC.s:1625   .text:00000000000008fc .L0 
     /tmp/cc7kAHCC.s:1626   .text:00000000000008fc .L0 
     /tmp/cc7kAHCC.s:1628   .text:0000000000000900 .L0 
     /tmp/cc7kAHCC.s:1630   .text:0000000000000900 .L0 
     /tmp/cc7kAHCC.s:1631   .text:0000000000000900 .L0 
     /tmp/cc7kAHCC.s:1636   .text:0000000000000910 .L0 
     /tmp/cc7kAHCC.s:1641   .text:0000000000000918 .L0 
     /tmp/cc7kAHCC.s:1645   .text:000000000000091c .L0 
     /tmp/cc7kAHCC.s:1648   .text:0000000000000924 .L0 
     /tmp/cc7kAHCC.s:1649   .text:0000000000000924 .L0 
     /tmp/cc7kAHCC.s:1653   .text:0000000000000930 .L0 
     /tmp/cc7kAHCC.s:1658   .text:0000000000000940 .L0 
     /tmp/cc7kAHCC.s:1660   .text:0000000000000944 .L0 
     /tmp/cc7kAHCC.s:1661   .text:0000000000000944 .L0 
     /tmp/cc7kAHCC.s:1667   .text:0000000000000954 .L0 
     /tmp/cc7kAHCC.s:1668   .text:0000000000000954 .L0 
     /tmp/cc7kAHCC.s:1669   .text:0000000000000958 .L0 
     /tmp/cc7kAHCC.s:1670   .text:0000000000000958 .L0 
     /tmp/cc7kAHCC.s:1672   .text:000000000000095c .L0 
     /tmp/cc7kAHCC.s:1673   .text:000000000000095c .L0 
     /tmp/cc7kAHCC.s:1675   .text:0000000000000960 .L0 
     /tmp/cc7kAHCC.s:1677   .text:0000000000000964 .L0 
     /tmp/cc7kAHCC.s:1679   .text:0000000000000968 .L0 
     /tmp/cc7kAHCC.s:1683   .text:000000000000096c .L0 
     /tmp/cc7kAHCC.s:1685   .text:000000000000096c .L0 
     /tmp/cc7kAHCC.s:1689   .text:0000000000000970 .L0 
     /tmp/cc7kAHCC.s:1690   .text:0000000000000970 .L0 
     /tmp/cc7kAHCC.s:1694   .text:0000000000000974 .L0 
     /tmp/cc7kAHCC.s:1698   .text:0000000000000978 .L0 
     /tmp/cc7kAHCC.s:1702   .text:0000000000000980 .L0 
     /tmp/cc7kAHCC.s:1703   .text:0000000000000980 .L0 
     /tmp/cc7kAHCC.s:1710   .text:0000000000000998 .L0 
     /tmp/cc7kAHCC.s:1712   .text:000000000000099c .L0 
     /tmp/cc7kAHCC.s:1713   .text:000000000000099c .L0 
     /tmp/cc7kAHCC.s:1717   .text:00000000000009a4 .L0 
     /tmp/cc7kAHCC.s:1721   .text:00000000000009b0 .L0 
     /tmp/cc7kAHCC.s:1726   .text:00000000000009c0 .L0 
GAS LISTING /tmp/cc7kAHCC.s 			page 86


     /tmp/cc7kAHCC.s:1729   .text:00000000000009c4 .L0 
     /tmp/cc7kAHCC.s:1730   .text:00000000000009c4 .L0 
     /tmp/cc7kAHCC.s:1733   .text:00000000000009c8 .L0 
     /tmp/cc7kAHCC.s:1738   .text:00000000000009cc .L0 
     /tmp/cc7kAHCC.s:1739   .text:00000000000009cc .L0 
     /tmp/cc7kAHCC.s:1744   .text:00000000000009dc .L0 
     /tmp/cc7kAHCC.s:1747   .text:00000000000009e0 .L0 
     /tmp/cc7kAHCC.s:1748   .text:00000000000009e0 .L0 
     /tmp/cc7kAHCC.s:1752   .text:00000000000009f0 .L0 
     /tmp/cc7kAHCC.s:1758   .text:00000000000009f4 .L0 
     /tmp/cc7kAHCC.s:1762   .text:00000000000009f8 .L0 
     /tmp/cc7kAHCC.s:1766   .text:0000000000000a00 .L0 
     /tmp/cc7kAHCC.s:1767   .text:0000000000000a00 .L0 
     /tmp/cc7kAHCC.s:1774   .text:0000000000000a18 .L0 
     /tmp/cc7kAHCC.s:1776   .text:0000000000000a1c .L0 
     /tmp/cc7kAHCC.s:1777   .text:0000000000000a1c .L0 
     /tmp/cc7kAHCC.s:1782   .text:0000000000000a28 .L0 
     /tmp/cc7kAHCC.s:1787   .text:0000000000000a38 .L0 
     /tmp/cc7kAHCC.s:1790   .text:0000000000000a3c .L0 
     /tmp/cc7kAHCC.s:1791   .text:0000000000000a3c .L0 
     /tmp/cc7kAHCC.s:1794   .text:0000000000000a40 .L0 
     /tmp/cc7kAHCC.s:1799   .text:0000000000000a44 .L0 
     /tmp/cc7kAHCC.s:1800   .text:0000000000000a44 .L0 
     /tmp/cc7kAHCC.s:1805   .text:0000000000000a54 .L0 
     /tmp/cc7kAHCC.s:1808   .text:0000000000000a58 .L0 
     /tmp/cc7kAHCC.s:1809   .text:0000000000000a58 .L0 
     /tmp/cc7kAHCC.s:1813   .text:0000000000000a68 .L0 
     /tmp/cc7kAHCC.s:1818   .text:0000000000000a6c .L0 
     /tmp/cc7kAHCC.s:1819   .text:0000000000000a6c .L0 
     /tmp/cc7kAHCC.s:1823   .text:0000000000000a70 .L0 
     /tmp/cc7kAHCC.s:1827   .text:0000000000000a74 .L0 
     /tmp/cc7kAHCC.s:1828   .text:0000000000000a74 .L0 
     /tmp/cc7kAHCC.s:1832   .text:0000000000000a88 .L0 
     /tmp/cc7kAHCC.s:1838   .text:0000000000000a88 _ZN12TestPeriodicC2Em
     /tmp/cc7kAHCC.s:1841   .text:0000000000000a88 .L0 
     /tmp/cc7kAHCC.s:1843   .text:0000000000000a88 .L0 
     /tmp/cc7kAHCC.s:1844   .text:0000000000000a8c .L0 
     /tmp/cc7kAHCC.s:1848   .text:0000000000000a98 .L0 
     /tmp/cc7kAHCC.s:1849   .text:0000000000000a98 .L0 
     /tmp/cc7kAHCC.s:1850   .text:0000000000000a98 .L0 
     /tmp/cc7kAHCC.s:1852   .text:0000000000000a9c .L0 
     /tmp/cc7kAHCC.s:1856   .text:0000000000000aa0 .L0 
     /tmp/cc7kAHCC.s:2894   .data.rel.ro.local._ZTV12TestPeriodic:0000000000000000 _ZTV12TestPeriodic
     /tmp/cc7kAHCC.s:1862   .text:0000000000000ab4 .L0 
     /tmp/cc7kAHCC.s:1863   .text:0000000000000ab8 .L0 
     /tmp/cc7kAHCC.s:1865   .text:0000000000000abc .L0 
     /tmp/cc7kAHCC.s:1866   .text:0000000000000abc .L0 
     /tmp/cc7kAHCC.s:1868   .text:0000000000000ac0 .L0 
     /tmp/cc7kAHCC.s:1871   .text:0000000000000ac4 .L0 
     /tmp/cc7kAHCC.s:1873   .text:0000000000000ac8 .L0 
     /tmp/cc7kAHCC.s:1838   .text:0000000000000a88 _ZN12TestPeriodicC1Em
     /tmp/cc7kAHCC.s:1881   .text:0000000000000ac8 _Z11threadTest3v
     /tmp/cc7kAHCC.s:1884   .text:0000000000000ac8 .L0 
     /tmp/cc7kAHCC.s:1887   .text:0000000000000ac8 .L0 
     /tmp/cc7kAHCC.s:1888   .text:0000000000000acc .L0 
     /tmp/cc7kAHCC.s:1893   .text:0000000000000adc .L0 
     /tmp/cc7kAHCC.s:1894   .text:0000000000000adc .L0 
GAS LISTING /tmp/cc7kAHCC.s 			page 87


     /tmp/cc7kAHCC.s:1895   .text:0000000000000adc .L0 
     /tmp/cc7kAHCC.s:1896   .text:0000000000000adc .L0 
     /tmp/cc7kAHCC.s:1898   .text:0000000000000ae0 .L0 
     /tmp/cc7kAHCC.s:1900   .text:0000000000000ae0 .L0 
     /tmp/cc7kAHCC.s:1901   .text:0000000000000ae0 .L0 
     /tmp/cc7kAHCC.s:1913   .text:0000000000000afc .L0 
     /tmp/cc7kAHCC.s:1914   .text:0000000000000afc .L0 
     /tmp/cc7kAHCC.s:1921   .text:0000000000000b08 .L0 
     /tmp/cc7kAHCC.s:1922   .text:0000000000000b08 .L0 
     /tmp/cc7kAHCC.s:1927   .text:0000000000000b10 .L0 
     /tmp/cc7kAHCC.s:1935   .text:0000000000000b28 .L0 
     /tmp/cc7kAHCC.s:1964   .text:0000000000000b28 _Z11threadTestsv
     /tmp/cc7kAHCC.s:1967   .text:0000000000000b28 .L0 
     /tmp/cc7kAHCC.s:1968   .text:0000000000000b28 .L0 
     /tmp/cc7kAHCC.s:1969   .text:0000000000000b2c .L0 
     /tmp/cc7kAHCC.s:1972   .text:0000000000000b34 .L0 
     /tmp/cc7kAHCC.s:1973   .text:0000000000000b34 .L0 
     /tmp/cc7kAHCC.s:1975   .text:0000000000000b38 .L0 
     /tmp/cc7kAHCC.s:1977   .text:0000000000000b38 .L0 
     /tmp/cc7kAHCC.s:1978   .text:0000000000000b38 .L0 
     /tmp/cc7kAHCC.s:1980   .text:0000000000000b40 .L0 
     /tmp/cc7kAHCC.s:1994   .text:0000000000000b40 _Z10mallocTestv
     /tmp/cc7kAHCC.s:1997   .text:0000000000000b40 .L0 
     /tmp/cc7kAHCC.s:1998   .text:0000000000000b40 .L0 
     /tmp/cc7kAHCC.s:1999   .text:0000000000000b44 .L0 
     /tmp/cc7kAHCC.s:2008   .text:0000000000000b64 .L0 
     /tmp/cc7kAHCC.s:2009   .text:0000000000000b64 .L0 
     /tmp/cc7kAHCC.s:2010   .text:0000000000000b64 .L0 
     /tmp/cc7kAHCC.s:2011   .text:0000000000000b64 .L0 
     /tmp/cc7kAHCC.s:2012   .text:0000000000000b64 .L0 
     /tmp/cc7kAHCC.s:2013   .text:0000000000000b64 .L0 
     /tmp/cc7kAHCC.s:2014   .text:0000000000000b64 .L0 
     /tmp/cc7kAHCC.s:2015   .text:0000000000000b64 .L0 
     /tmp/cc7kAHCC.s:2017   .text:0000000000000b68 .L0 
     /tmp/cc7kAHCC.s:2019   .text:0000000000000b68 .L0 
     /tmp/cc7kAHCC.s:2020   .text:0000000000000b68 .L0 
     /tmp/cc7kAHCC.s:2024   .text:0000000000000b78 .L0 
     /tmp/cc7kAHCC.s:2025   .text:0000000000000b78 .L0 
     /tmp/cc7kAHCC.s:2031   .text:0000000000000b88 .L0 
     /tmp/cc7kAHCC.s:2032   .text:0000000000000b88 .L0 
     /tmp/cc7kAHCC.s:2035   .text:0000000000000b90 .L0 
     /tmp/cc7kAHCC.s:2036   .text:0000000000000b90 .L0 
     /tmp/cc7kAHCC.s:2042   .text:0000000000000ba0 .L0 
     /tmp/cc7kAHCC.s:2043   .text:0000000000000ba0 .L0 
     /tmp/cc7kAHCC.s:2050   .text:0000000000000bb0 .L0 
     /tmp/cc7kAHCC.s:2051   .text:0000000000000bb0 .L0 
     /tmp/cc7kAHCC.s:2058   .text:0000000000000bc0 .L0 
     /tmp/cc7kAHCC.s:2059   .text:0000000000000bc0 .L0 
     /tmp/cc7kAHCC.s:2067   .text:0000000000000bd4 .L0 
     /tmp/cc7kAHCC.s:2068   .text:0000000000000bd4 .L0 
     /tmp/cc7kAHCC.s:2073   .text:0000000000000be0 .L0 
     /tmp/cc7kAHCC.s:2076   .text:0000000000000be8 .L0 
     /tmp/cc7kAHCC.s:2078   .text:0000000000000bec .L0 
     /tmp/cc7kAHCC.s:2080   .text:0000000000000bf0 .L0 
     /tmp/cc7kAHCC.s:2082   .text:0000000000000bf4 .L0 
     /tmp/cc7kAHCC.s:2084   .text:0000000000000bf8 .L0 
     /tmp/cc7kAHCC.s:2085   .text:0000000000000bf8 .L0 
GAS LISTING /tmp/cc7kAHCC.s 			page 88


     /tmp/cc7kAHCC.s:2090   .text:0000000000000c04 .L0 
     /tmp/cc7kAHCC.s:2091   .text:0000000000000c04 .L0 
     /tmp/cc7kAHCC.s:2095   .text:0000000000000c10 .L0 
     /tmp/cc7kAHCC.s:2096   .text:0000000000000c10 .L0 
     /tmp/cc7kAHCC.s:2100   .text:0000000000000c1c .L0 
     /tmp/cc7kAHCC.s:2101   .text:0000000000000c1c .L0 
     /tmp/cc7kAHCC.s:2105   .text:0000000000000c28 .L0 
     /tmp/cc7kAHCC.s:2106   .text:0000000000000c28 .L0 
     /tmp/cc7kAHCC.s:2110   .text:0000000000000c34 .L0 
     /tmp/cc7kAHCC.s:2111   .text:0000000000000c34 .L0 
     /tmp/cc7kAHCC.s:2113   .text:0000000000000c38 .L0 
     /tmp/cc7kAHCC.s:2118   .text:0000000000000c44 .L0 
     /tmp/cc7kAHCC.s:2119   .text:0000000000000c44 .L0 
     /tmp/cc7kAHCC.s:2126   .text:0000000000000c58 .L0 
     /tmp/cc7kAHCC.s:2127   .text:0000000000000c58 .L0 
     /tmp/cc7kAHCC.s:2133   .text:0000000000000c68 .L0 
     /tmp/cc7kAHCC.s:2134   .text:0000000000000c68 .L0 
     /tmp/cc7kAHCC.s:2135   .text:0000000000000c6c .L0 
     /tmp/cc7kAHCC.s:2137   .text:0000000000000c70 .L0 
     /tmp/cc7kAHCC.s:2138   .text:0000000000000c70 .L0 
     /tmp/cc7kAHCC.s:2140   .text:0000000000000c74 .L0 
     /tmp/cc7kAHCC.s:2143   .text:0000000000000c78 .L0 
     /tmp/cc7kAHCC.s:2146   .text:0000000000000c7c .L0 
     /tmp/cc7kAHCC.s:2149   .text:0000000000000c80 .L0 
     /tmp/cc7kAHCC.s:2152   .text:0000000000000c84 .L0 
     /tmp/cc7kAHCC.s:2155   .text:0000000000000c88 .L0 
     /tmp/cc7kAHCC.s:2157   .text:0000000000000c8c .L0 
     /tmp/cc7kAHCC.s:2159   .text:0000000000000c90 .L0 
     /tmp/cc7kAHCC.s:2173   .text:0000000000000c90 _Z16mallocEverythingv
     /tmp/cc7kAHCC.s:2176   .text:0000000000000c90 .L0 
     /tmp/cc7kAHCC.s:2177   .text:0000000000000c90 .L0 
     /tmp/cc7kAHCC.s:2178   .text:0000000000000c94 .L0 
     /tmp/cc7kAHCC.s:2182   .text:0000000000000ca0 .L0 
     /tmp/cc7kAHCC.s:2183   .text:0000000000000ca0 .L0 
     /tmp/cc7kAHCC.s:2184   .text:0000000000000ca0 .L0 
     /tmp/cc7kAHCC.s:2186   .text:0000000000000ca4 .L0 
     /tmp/cc7kAHCC.s:2188   .text:0000000000000ca4 .L0 
     /tmp/cc7kAHCC.s:2189   .text:0000000000000ca4 .L0 
     /tmp/cc7kAHCC.s:2193   .text:0000000000000cb4 .L0 
     /tmp/cc7kAHCC.s:2194   .text:0000000000000cb4 .L0 
     /tmp/cc7kAHCC.s:2201   .text:0000000000000cd0 .L0 
     /tmp/cc7kAHCC.s:2202   .text:0000000000000cd0 .L0 
     /tmp/cc7kAHCC.s:2207   .text:0000000000000cdc .L0 
     /tmp/cc7kAHCC.s:2209   .text:0000000000000ce0 .L0 
     /tmp/cc7kAHCC.s:2210   .text:0000000000000ce0 .L0 
     /tmp/cc7kAHCC.s:2216   .text:0000000000000cf0 .L0 
     /tmp/cc7kAHCC.s:2217   .text:0000000000000cf0 .L0 
     /tmp/cc7kAHCC.s:2218   .text:0000000000000cf4 .L0 
     /tmp/cc7kAHCC.s:2219   .text:0000000000000cf4 .L0 
     /tmp/cc7kAHCC.s:2221   .text:0000000000000cf8 .L0 
     /tmp/cc7kAHCC.s:2222   .text:0000000000000cf8 .L0 
     /tmp/cc7kAHCC.s:2224   .text:0000000000000cfc .L0 
     /tmp/cc7kAHCC.s:2226   .text:0000000000000d00 .L0 
     /tmp/cc7kAHCC.s:2230   .text:0000000000000d04 .L0 
     /tmp/cc7kAHCC.s:2232   .text:0000000000000d04 .L0 
     /tmp/cc7kAHCC.s:2233   .text:0000000000000d04 .L0 
     /tmp/cc7kAHCC.s:2240   .text:0000000000000d20 .L0 
GAS LISTING /tmp/cc7kAHCC.s 			page 89


     /tmp/cc7kAHCC.s:2242   .text:0000000000000d24 .L0 
     /tmp/cc7kAHCC.s:2244   .text:0000000000000d28 .L0 
     /tmp/cc7kAHCC.s:2247   .text:0000000000000d2c .L0 
     /tmp/cc7kAHCC.s:2248   .text:0000000000000d2c .L0 
     /tmp/cc7kAHCC.s:2255   .text:0000000000000d3c .L0 
     /tmp/cc7kAHCC.s:2257   .text:0000000000000d40 .L0 
     /tmp/cc7kAHCC.s:2258   .text:0000000000000d40 .L0 
     /tmp/cc7kAHCC.s:2262   .text:0000000000000d4c .L0 
     /tmp/cc7kAHCC.s:2264   .text:0000000000000d50 .L0 
     /tmp/cc7kAHCC.s:2265   .text:0000000000000d50 .L0 
     /tmp/cc7kAHCC.s:2270   .text:0000000000000d5c .L0 
     /tmp/cc7kAHCC.s:2271   .text:0000000000000d5c .L0 
     /tmp/cc7kAHCC.s:2277   .text:0000000000000d70 .L0 
     /tmp/cc7kAHCC.s:2278   .text:0000000000000d70 .L0 
     /tmp/cc7kAHCC.s:2282   .text:0000000000000d80 .L0 
     /tmp/cc7kAHCC.s:2286   .text:0000000000000d84 .L0 
     /tmp/cc7kAHCC.s:2287   .text:0000000000000d84 .L0 
     /tmp/cc7kAHCC.s:2292   .text:0000000000000d94 .L0 
     /tmp/cc7kAHCC.s:2293   .text:0000000000000d98 .L0 
     /tmp/cc7kAHCC.s:2307   .text:0000000000000d98 _Z17mallocGapFillTestv
     /tmp/cc7kAHCC.s:2310   .text:0000000000000d98 .L0 
     /tmp/cc7kAHCC.s:2311   .text:0000000000000d98 .L0 
     /tmp/cc7kAHCC.s:2312   .text:0000000000000d9c .L0 
     /tmp/cc7kAHCC.s:2323   .text:0000000000000dc4 .L0 
     /tmp/cc7kAHCC.s:2324   .text:0000000000000dc4 .L0 
     /tmp/cc7kAHCC.s:2325   .text:0000000000000dc4 .L0 
     /tmp/cc7kAHCC.s:2326   .text:0000000000000dc4 .L0 
     /tmp/cc7kAHCC.s:2327   .text:0000000000000dc4 .L0 
     /tmp/cc7kAHCC.s:2328   .text:0000000000000dc4 .L0 
     /tmp/cc7kAHCC.s:2329   .text:0000000000000dc4 .L0 
     /tmp/cc7kAHCC.s:2330   .text:0000000000000dc4 .L0 
     /tmp/cc7kAHCC.s:2331   .text:0000000000000dc4 .L0 
     /tmp/cc7kAHCC.s:2332   .text:0000000000000dc4 .L0 
     /tmp/cc7kAHCC.s:2334   .text:0000000000000dc8 .L0 
     /tmp/cc7kAHCC.s:2336   .text:0000000000000dc8 .L0 
     /tmp/cc7kAHCC.s:2337   .text:0000000000000dc8 .L0 
     /tmp/cc7kAHCC.s:2342   .text:0000000000000dd8 .L0 
     /tmp/cc7kAHCC.s:2346   .text:0000000000000ddc .L0 
     /tmp/cc7kAHCC.s:2349   .text:0000000000000de4 .L0 
     /tmp/cc7kAHCC.s:2350   .text:0000000000000de4 .L0 
     /tmp/cc7kAHCC.s:2352   .text:0000000000000de8 .L0 
     /tmp/cc7kAHCC.s:2356   .text:0000000000000df4 .L0 
     /tmp/cc7kAHCC.s:2361   .text:0000000000000e04 .L0 
     /tmp/cc7kAHCC.s:2363   .text:0000000000000e08 .L0 
     /tmp/cc7kAHCC.s:2369   .text:0000000000000e10 .L0 
     /tmp/cc7kAHCC.s:2370   .text:0000000000000e10 .L0 
     /tmp/cc7kAHCC.s:2376   .text:0000000000000e20 .L0 
     /tmp/cc7kAHCC.s:2377   .text:0000000000000e20 .L0 
     /tmp/cc7kAHCC.s:2378   .text:0000000000000e24 .L0 
     /tmp/cc7kAHCC.s:2379   .text:0000000000000e24 .L0 
     /tmp/cc7kAHCC.s:2381   .text:0000000000000e28 .L0 
     /tmp/cc7kAHCC.s:2382   .text:0000000000000e28 .L0 
     /tmp/cc7kAHCC.s:2384   .text:0000000000000e2c .L0 
     /tmp/cc7kAHCC.s:2386   .text:0000000000000e30 .L0 
     /tmp/cc7kAHCC.s:2388   .text:0000000000000e34 .L0 
     /tmp/cc7kAHCC.s:2390   .text:0000000000000e38 .L0 
     /tmp/cc7kAHCC.s:2392   .text:0000000000000e3c .L0 
GAS LISTING /tmp/cc7kAHCC.s 			page 90


     /tmp/cc7kAHCC.s:2394   .text:0000000000000e40 .L0 
     /tmp/cc7kAHCC.s:2396   .text:0000000000000e44 .L0 
     /tmp/cc7kAHCC.s:2398   .text:0000000000000e48 .L0 
     /tmp/cc7kAHCC.s:2400   .text:0000000000000e4c .L0 
     /tmp/cc7kAHCC.s:2404   .text:0000000000000e50 .L0 
     /tmp/cc7kAHCC.s:2406   .text:0000000000000e50 .L0 
     /tmp/cc7kAHCC.s:2407   .text:0000000000000e50 .L0 
     /tmp/cc7kAHCC.s:2409   .text:0000000000000e54 .L0 
     /tmp/cc7kAHCC.s:2411   .text:0000000000000e58 .L0 
     /tmp/cc7kAHCC.s:2415   .text:0000000000000e60 .L0 
     /tmp/cc7kAHCC.s:2416   .text:0000000000000e60 .L0 
     /tmp/cc7kAHCC.s:2422   .text:0000000000000e70 .L0 
     /tmp/cc7kAHCC.s:2423   .text:0000000000000e70 .L0 
     /tmp/cc7kAHCC.s:2429   .text:0000000000000e80 .L0 
     /tmp/cc7kAHCC.s:2430   .text:0000000000000e80 .L0 
     /tmp/cc7kAHCC.s:2437   .text:0000000000000e90 .L0 
     /tmp/cc7kAHCC.s:2439   .text:0000000000000e94 .L0 
     /tmp/cc7kAHCC.s:2441   .text:0000000000000e98 .L0 
     /tmp/cc7kAHCC.s:2443   .text:0000000000000e9c .L0 
     /tmp/cc7kAHCC.s:2444   .text:0000000000000e9c .L0 
     /tmp/cc7kAHCC.s:2447   .text:0000000000000ea0 .L0 
     /tmp/cc7kAHCC.s:2448   .text:0000000000000ea0 .L0 
     /tmp/cc7kAHCC.s:2451   .text:0000000000000ea4 .L0 
     /tmp/cc7kAHCC.s:2452   .text:0000000000000ea4 .L0 
     /tmp/cc7kAHCC.s:2455   .text:0000000000000ea8 .L0 
     /tmp/cc7kAHCC.s:2456   .text:0000000000000ea8 .L0 
     /tmp/cc7kAHCC.s:2459   .text:0000000000000eac .L0 
     /tmp/cc7kAHCC.s:2460   .text:0000000000000eac .L0 
     /tmp/cc7kAHCC.s:2461   .text:0000000000000eac .L0 
     /tmp/cc7kAHCC.s:2464   .text:0000000000000eb0 .L0 
     /tmp/cc7kAHCC.s:2465   .text:0000000000000eb0 .L0 
     /tmp/cc7kAHCC.s:2468   .text:0000000000000eb4 .L0 
     /tmp/cc7kAHCC.s:2470   .text:0000000000000eb8 .L0 
     /tmp/cc7kAHCC.s:2472   .text:0000000000000ebc .L0 
     /tmp/cc7kAHCC.s:2474   .text:0000000000000ec0 .L0 
     /tmp/cc7kAHCC.s:2476   .text:0000000000000ec4 .L0 
     /tmp/cc7kAHCC.s:2478   .text:0000000000000ec8 .L0 
     /tmp/cc7kAHCC.s:2479   .text:0000000000000ec8 .L0 
     /tmp/cc7kAHCC.s:2481   .text:0000000000000ecc .L0 
     /tmp/cc7kAHCC.s:2485   .text:0000000000000ed4 .L0 
     /tmp/cc7kAHCC.s:2486   .text:0000000000000ed4 .L0 
     /tmp/cc7kAHCC.s:2488   .text:0000000000000ed8 .L0 
     /tmp/cc7kAHCC.s:2490   .text:0000000000000edc .L0 
     /tmp/cc7kAHCC.s:2494   .text:0000000000000ee4 .L0 
     /tmp/cc7kAHCC.s:2495   .text:0000000000000ee4 .L0 
     /tmp/cc7kAHCC.s:2501   .text:0000000000000ef4 .L0 
     /tmp/cc7kAHCC.s:2502   .text:0000000000000ef4 .L0 
     /tmp/cc7kAHCC.s:2509   .text:0000000000000f04 .L0 
     /tmp/cc7kAHCC.s:2511   .text:0000000000000f08 .L0 
     /tmp/cc7kAHCC.s:2514   .text:0000000000000f0c .L0 
     /tmp/cc7kAHCC.s:2515   .text:0000000000000f0c .L0 
     /tmp/cc7kAHCC.s:2516   .text:0000000000000f0c .L0 
     /tmp/cc7kAHCC.s:2518   .text:0000000000000f10 .L0 
     /tmp/cc7kAHCC.s:2520   .text:0000000000000f14 .L0 
     /tmp/cc7kAHCC.s:2523   .text:0000000000000f18 .L0 
     /tmp/cc7kAHCC.s:2529   .text:0000000000000f20 .L0 
     /tmp/cc7kAHCC.s:2530   .text:0000000000000f20 .L0 
GAS LISTING /tmp/cc7kAHCC.s 			page 91


     /tmp/cc7kAHCC.s:2535   .text:0000000000000f30 .L0 
     /tmp/cc7kAHCC.s:2539   .text:0000000000000f34 .L0 
     /tmp/cc7kAHCC.s:2540   .text:0000000000000f34 .L0 
     /tmp/cc7kAHCC.s:2545   .text:0000000000000f44 .L0 
     /tmp/cc7kAHCC.s:2549   .text:0000000000000f48 .L0 
     /tmp/cc7kAHCC.s:2550   .text:0000000000000f48 .L0 
     /tmp/cc7kAHCC.s:2555   .text:0000000000000f58 .L0 
     /tmp/cc7kAHCC.s:2559   .text:0000000000000f5c .L0 
     /tmp/cc7kAHCC.s:2560   .text:0000000000000f5c .L0 
     /tmp/cc7kAHCC.s:2565   .text:0000000000000f6c .L0 
     /tmp/cc7kAHCC.s:2570   .text:0000000000000f70 .L0 
     /tmp/cc7kAHCC.s:2574   .text:0000000000000f74 .L0 
     /tmp/cc7kAHCC.s:2577   .text:0000000000000f7c .L0 
     /tmp/cc7kAHCC.s:2578   .text:0000000000000f7c .L0 
     /tmp/cc7kAHCC.s:2584   .text:0000000000000f8c .L0 
     /tmp/cc7kAHCC.s:2586   .text:0000000000000f90 .L0 
     /tmp/cc7kAHCC.s:2592   .text:0000000000000f9c .L0 
     /tmp/cc7kAHCC.s:2593   .text:0000000000000f9c .L0 
     /tmp/cc7kAHCC.s:2597   .text:0000000000000fa8 .L0 
     /tmp/cc7kAHCC.s:2598   .text:0000000000000fa8 .L0 
     /tmp/cc7kAHCC.s:2602   .text:0000000000000fb4 .L0 
     /tmp/cc7kAHCC.s:2603   .text:0000000000000fb4 .L0 
     /tmp/cc7kAHCC.s:2607   .text:0000000000000fc0 .L0 
     /tmp/cc7kAHCC.s:2608   .text:0000000000000fc0 .L0 
     /tmp/cc7kAHCC.s:2612   .text:0000000000000fcc .L0 
     /tmp/cc7kAHCC.s:2613   .text:0000000000000fcc .L0 
     /tmp/cc7kAHCC.s:2617   .text:0000000000000fd8 .L0 
     /tmp/cc7kAHCC.s:2618   .text:0000000000000fd8 .L0 
     /tmp/cc7kAHCC.s:2622   .text:0000000000000fec .L0 
     /tmp/cc7kAHCC.s:2628   .text:0000000000000fec _Z21memoryAllocationTestsv
     /tmp/cc7kAHCC.s:2631   .text:0000000000000fec .L0 
     /tmp/cc7kAHCC.s:2632   .text:0000000000000fec .L0 
     /tmp/cc7kAHCC.s:2633   .text:0000000000000ff0 .L0 
     /tmp/cc7kAHCC.s:2636   .text:0000000000000ff8 .L0 
     /tmp/cc7kAHCC.s:2637   .text:0000000000000ff8 .L0 
     /tmp/cc7kAHCC.s:2639   .text:0000000000000ffc .L0 
     /tmp/cc7kAHCC.s:2641   .text:0000000000000ffc .L0 
     /tmp/cc7kAHCC.s:2642   .text:0000000000000ffc .L0 
     /tmp/cc7kAHCC.s:2645   .text:0000000000001004 .L0 
     /tmp/cc7kAHCC.s:2646   .text:0000000000001008 .L0 
     /tmp/cc7kAHCC.s:2648   .text:000000000000100c .L0 
     /tmp/cc7kAHCC.s:2649   .text:000000000000100c .L0 
     /tmp/cc7kAHCC.s:2651   .text:0000000000001010 .L0 
     /tmp/cc7kAHCC.s:2653   .text:0000000000001014 .L0 
     /tmp/cc7kAHCC.s:2659   .text:0000000000001014 _Z8semTest1v
     /tmp/cc7kAHCC.s:2662   .text:0000000000001014 .L0 
     /tmp/cc7kAHCC.s:2663   .text:0000000000001014 .L0 
     /tmp/cc7kAHCC.s:2664   .text:0000000000001018 .L0 
     /tmp/cc7kAHCC.s:2667   .text:0000000000001020 .L0 
     /tmp/cc7kAHCC.s:2668   .text:0000000000001020 .L0 
     /tmp/cc7kAHCC.s:2670   .text:0000000000001024 .L0 
     /tmp/cc7kAHCC.s:2672   .text:0000000000001024 .L0 
     /tmp/cc7kAHCC.s:2673   .text:0000000000001024 .L0 
     /tmp/cc7kAHCC.s:2678   .text:0000000000001038 .L0 
     /tmp/cc7kAHCC.s:2679   .text:0000000000001038 .L0 
     /tmp/cc7kAHCC.s:2684   .text:000000000000104c .L0 
     /tmp/cc7kAHCC.s:2685   .text:000000000000104c .L0 
GAS LISTING /tmp/cc7kAHCC.s 			page 92


     /tmp/cc7kAHCC.s:2686   .text:000000000000104c .L0 
     /tmp/cc7kAHCC.s:2692   .text:0000000000001064 .L0 
     /tmp/cc7kAHCC.s:2693   .text:0000000000001064 .L0 
     /tmp/cc7kAHCC.s:2701   .text:0000000000001080 .L0 
     /tmp/cc7kAHCC.s:2702   .text:0000000000001080 .L0 
     /tmp/cc7kAHCC.s:2706   .text:0000000000001088 .L0 
     /tmp/cc7kAHCC.s:2707   .text:0000000000001088 .L0 
     /tmp/cc7kAHCC.s:2708   .text:0000000000001088 .L0 
     /tmp/cc7kAHCC.s:2712   .text:0000000000001094 .L0 
     /tmp/cc7kAHCC.s:2714   .text:0000000000001098 .L0 
     /tmp/cc7kAHCC.s:2718   .text:00000000000010a4 .L0 
     /tmp/cc7kAHCC.s:2720   .text:00000000000010a8 .L0 
     /tmp/cc7kAHCC.s:2721   .text:00000000000010ac .L0 
     /tmp/cc7kAHCC.s:2723   .text:00000000000010b0 .L0 
     /tmp/cc7kAHCC.s:2724   .text:00000000000010b0 .L0 
     /tmp/cc7kAHCC.s:2726   .text:00000000000010b4 .L0 
     /tmp/cc7kAHCC.s:2728   .text:00000000000010b8 .L0 
     /tmp/cc7kAHCC.s:2734   .text:00000000000010b8 _Z14semaphoreTestsv
     /tmp/cc7kAHCC.s:2737   .text:00000000000010b8 .L0 
     /tmp/cc7kAHCC.s:2738   .text:00000000000010b8 .L0 
     /tmp/cc7kAHCC.s:2739   .text:00000000000010bc .L0 
     /tmp/cc7kAHCC.s:2742   .text:00000000000010c4 .L0 
     /tmp/cc7kAHCC.s:2743   .text:00000000000010c4 .L0 
     /tmp/cc7kAHCC.s:2745   .text:00000000000010c8 .L0 
     /tmp/cc7kAHCC.s:2747   .text:00000000000010c8 .L0 
     /tmp/cc7kAHCC.s:2748   .text:00000000000010c8 .L0 
     /tmp/cc7kAHCC.s:2751   .text:00000000000010d0 .L0 
     /tmp/cc7kAHCC.s:2752   .text:00000000000010d4 .L0 
     /tmp/cc7kAHCC.s:2754   .text:00000000000010d8 .L0 
     /tmp/cc7kAHCC.s:2755   .text:00000000000010d8 .L0 
     /tmp/cc7kAHCC.s:2757   .text:00000000000010dc .L0 
     /tmp/cc7kAHCC.s:2759   .text:00000000000010e0 .L0 
     /tmp/cc7kAHCC.s:2765   .text:00000000000010e0 _Z12consoleTest1v
     /tmp/cc7kAHCC.s:2768   .text:00000000000010e0 .L0 
     /tmp/cc7kAHCC.s:2769   .text:00000000000010e0 .L0 
     /tmp/cc7kAHCC.s:2770   .text:00000000000010e4 .L0 
     /tmp/cc7kAHCC.s:2774   .text:00000000000010f0 .L0 
     /tmp/cc7kAHCC.s:2775   .text:00000000000010f0 .L0 
     /tmp/cc7kAHCC.s:2776   .text:00000000000010f0 .L0 
     /tmp/cc7kAHCC.s:2778   .text:00000000000010f4 .L0 
     /tmp/cc7kAHCC.s:2782   .text:00000000000010f4 .L0 
     /tmp/cc7kAHCC.s:2783   .text:00000000000010f4 .L0 
     /tmp/cc7kAHCC.s:2787   .text:00000000000010f8 .L0 
     /tmp/cc7kAHCC.s:2790   .text:0000000000001100 .L0 
     /tmp/cc7kAHCC.s:2791   .text:0000000000001100 .L0 
     /tmp/cc7kAHCC.s:2794   .text:0000000000001108 .L0 
     /tmp/cc7kAHCC.s:2801   .text:0000000000001110 .L0 
     /tmp/cc7kAHCC.s:2802   .text:0000000000001114 .L0 
     /tmp/cc7kAHCC.s:2804   .text:0000000000001118 .L0 
     /tmp/cc7kAHCC.s:2805   .text:0000000000001118 .L0 
     /tmp/cc7kAHCC.s:2807   .text:000000000000111c .L0 
     /tmp/cc7kAHCC.s:2810   .text:0000000000001120 .L0 
     /tmp/cc7kAHCC.s:2812   .text:0000000000001124 .L0 
     /tmp/cc7kAHCC.s:2818   .text:0000000000001124 _Z12consoleTestsv
     /tmp/cc7kAHCC.s:2821   .text:0000000000001124 .L0 
     /tmp/cc7kAHCC.s:2822   .text:0000000000001124 .L0 
     /tmp/cc7kAHCC.s:2823   .text:0000000000001128 .L0 
GAS LISTING /tmp/cc7kAHCC.s 			page 93


     /tmp/cc7kAHCC.s:2826   .text:0000000000001130 .L0 
     /tmp/cc7kAHCC.s:2827   .text:0000000000001130 .L0 
     /tmp/cc7kAHCC.s:2829   .text:0000000000001134 .L0 
     /tmp/cc7kAHCC.s:2831   .text:0000000000001134 .L0 
     /tmp/cc7kAHCC.s:2832   .text:0000000000001134 .L0 
     /tmp/cc7kAHCC.s:2835   .text:000000000000113c .L0 
     /tmp/cc7kAHCC.s:2836   .text:0000000000001140 .L0 
     /tmp/cc7kAHCC.s:2838   .text:0000000000001144 .L0 
     /tmp/cc7kAHCC.s:2839   .text:0000000000001144 .L0 
     /tmp/cc7kAHCC.s:2841   .text:0000000000001148 .L0 
     /tmp/cc7kAHCC.s:2843   .text:000000000000114c .L0 
     /tmp/cc7kAHCC.s:2849   .text:000000000000114c _Z7myTestsv
     /tmp/cc7kAHCC.s:2852   .text:000000000000114c .L0 
     /tmp/cc7kAHCC.s:2853   .text:000000000000114c .L0 
     /tmp/cc7kAHCC.s:2854   .text:0000000000001150 .L0 
     /tmp/cc7kAHCC.s:2857   .text:0000000000001158 .L0 
     /tmp/cc7kAHCC.s:2858   .text:0000000000001158 .L0 
     /tmp/cc7kAHCC.s:2860   .text:000000000000115c .L0 
     /tmp/cc7kAHCC.s:2862   .text:000000000000115c .L0 
     /tmp/cc7kAHCC.s:2863   .text:000000000000115c .L0 
     /tmp/cc7kAHCC.s:2866   .text:0000000000001164 .L0 
     /tmp/cc7kAHCC.s:2867   .text:0000000000001168 .L0 
     /tmp/cc7kAHCC.s:2869   .text:000000000000116c .L0 
     /tmp/cc7kAHCC.s:2870   .text:000000000000116c .L0 
     /tmp/cc7kAHCC.s:2872   .text:0000000000001170 .L0 
     /tmp/cc7kAHCC.s:2874   .text:0000000000001174 .L0 
     /tmp/cc7kAHCC.s:2912   .data:0000000000000000 string
     /tmp/cc7kAHCC.s:2924   .bss:0000000000000008 itemAvailable
     /tmp/cc7kAHCC.s:2933   .bss:0000000000000020 spaceAvailable
     /tmp/cc7kAHCC.s:2937   .bss:0000000000000028 tail
     /tmp/cc7kAHCC.s:2919   .bss:0000000000000000 head
     /tmp/cc7kAHCC.s:2928   .bss:0000000000000010 buffer
     /tmp/cc7kAHCC.s:2909   .data:0000000000000000 .LANCHOR1
     /tmp/cc7kAHCC.s:2916   .bss:0000000000000000 .LANCHOR0
     /tmp/cc7kAHCC.s:32     .text._ZN6Thread3runEv:0000000000000018 .L0 
     /tmp/cc7kAHCC.s:57     .text._ZN14PeriodicThread18periodicActivationEv:0000000000000018 .L0 
     /tmp/cc7kAHCC.s:2947   .text:0000000000001174 .L0 
     /tmp/cc7kAHCC.s:630    .text._ZN14PeriodicThreadD2Ev:0000000000000034 .L0 
     /tmp/cc7kAHCC.s:677    .text._ZN14PeriodicThreadD0Ev:000000000000004c .L0 
     /tmp/cc7kAHCC.s:719    .text._ZN12TestPeriodicD2Ev:0000000000000034 .L0 
     /tmp/cc7kAHCC.s:769    .text._ZN12TestPeriodicD0Ev:000000000000004c .L0 
     /tmp/cc7kAHCC.s:59     .rodata.str1.8:0000000000000000 .LC0
     /tmp/cc7kAHCC.s:84     .text:0000000000000010 .L0 
     /tmp/cc7kAHCC.s:98     .rodata.str1.8:0000000000000008 .LC1
     /tmp/cc7kAHCC.s:127    .text:0000000000000040 .L0 
     /tmp/cc7kAHCC.s:101    .rodata.str1.8:0000000000000020 .LC2
     /tmp/cc7kAHCC.s:146    .text:0000000000000060 .L0 
     /tmp/cc7kAHCC.s:104    .rodata.str1.8:0000000000000028 .LC3
     /tmp/cc7kAHCC.s:158    .text:0000000000000084 .L0 
     /tmp/cc7kAHCC.s:197    .rodata.str1.8:0000000000000030 .LC4
     /tmp/cc7kAHCC.s:223    .text:00000000000000e0 .L0 
     /tmp/cc7kAHCC.s:200    .rodata.str1.8:0000000000000048 .LC5
     /tmp/cc7kAHCC.s:242    .text:0000000000000100 .L0 
     /tmp/cc7kAHCC.s:254    .text:0000000000000124 .L0 
     /tmp/cc7kAHCC.s:322    .text:0000000000000190 .L0 
     /tmp/cc7kAHCC.s:374    .text:00000000000001e4 .L0 
     /tmp/cc7kAHCC.s:399    .text:0000000000000210 .L0 
GAS LISTING /tmp/cc7kAHCC.s 			page 94


     /tmp/cc7kAHCC.s:411    .text:0000000000000234 .L0 
     /tmp/cc7kAHCC.s:462    .text:0000000000000284 .L0 
     /tmp/cc7kAHCC.s:480    .text:00000000000002a8 .L0 
     /tmp/cc7kAHCC.s:501    .text:00000000000002e4 .L0 
     /tmp/cc7kAHCC.s:531    .text:000000000000030c .L0 
     /tmp/cc7kAHCC.s:549    .text:0000000000000330 .L0 
     /tmp/cc7kAHCC.s:556    .text:0000000000000348 .L0 
     /tmp/cc7kAHCC.s:573    .text:0000000000000374 .L0 
     /tmp/cc7kAHCC.s:804    .text:00000000000003c8 .L0 
     /tmp/cc7kAHCC.s:824    .text:00000000000003f8 .L0 
     /tmp/cc7kAHCC.s:771    .rodata.str1.8:0000000000000050 .LC6
     /tmp/cc7kAHCC.s:841    .text:000000000000041c .L0 
     /tmp/cc7kAHCC.s:956    .text:00000000000004b0 .L0 
     /tmp/cc7kAHCC.s:976    .text:00000000000004e0 .L0 
     /tmp/cc7kAHCC.s:996    .text:0000000000000510 .L0 
     /tmp/cc7kAHCC.s:1013   .text:0000000000000534 .L0 
     /tmp/cc7kAHCC.s:1122   .rodata.str1.8:0000000000000058 .LC7
     /tmp/cc7kAHCC.s:1150   .text:00000000000005cc .L0 
     /tmp/cc7kAHCC.s:1125   .rodata.str1.8:0000000000000068 .LC8
     /tmp/cc7kAHCC.s:1180   .text:0000000000000610 .L0 
     /tmp/cc7kAHCC.s:1232   .text:0000000000000664 .L0 
     /tmp/cc7kAHCC.s:1270   .text:00000000000006ac .L0 
     /tmp/cc7kAHCC.s:1306   .text:00000000000006f0 .L0 
     /tmp/cc7kAHCC.s:1128   .rodata.str1.8:0000000000000070 .LC9
     /tmp/cc7kAHCC.s:1317   .text:0000000000000704 .L0 
     /tmp/cc7kAHCC.s:1326   .rodata.str1.8:0000000000000078 .LC10
     /tmp/cc7kAHCC.s:1346   .text:0000000000000728 .L0 
     /tmp/cc7kAHCC.s:1351   .text:0000000000000738 .L0 
     /tmp/cc7kAHCC.s:1353   .text:0000000000000744 .L0 
     /tmp/cc7kAHCC.s:1367   .text:0000000000000764 .L0 
     /tmp/cc7kAHCC.s:1387   .text:0000000000000784 .L0 
     /tmp/cc7kAHCC.s:1397   .rodata.str1.8:0000000000000088 .LC11
     /tmp/cc7kAHCC.s:1423   .text:00000000000007b4 .L0 
     /tmp/cc7kAHCC.s:1486   .text:0000000000000818 .L0 
     /tmp/cc7kAHCC.s:1499   .text:0000000000000838 .L0 
     /tmp/cc7kAHCC.s:1526   .text:0000000000000864 .L0 
     /tmp/cc7kAHCC.s:1535   .rodata.str1.8:00000000000000a0 .LC12
     /tmp/cc7kAHCC.s:1555   .text:0000000000000888 .L0 
     /tmp/cc7kAHCC.s:1573   .text:00000000000008b4 .L0 
     /tmp/cc7kAHCC.s:1593   .text:00000000000008d4 .L0 
     /tmp/cc7kAHCC.s:1604   .rodata.str1.8:00000000000000b0 .LC13
     /tmp/cc7kAHCC.s:1631   .text:0000000000000900 .L0 
     /tmp/cc7kAHCC.s:1661   .text:0000000000000944 .L0 
     /tmp/cc7kAHCC.s:1739   .text:00000000000009cc .L0 
     /tmp/cc7kAHCC.s:1607   .rodata.str1.8:00000000000000c0 .LC14
     /tmp/cc7kAHCC.s:1748   .text:00000000000009e0 .L0 
     /tmp/cc7kAHCC.s:1800   .text:0000000000000a44 .L0 
     /tmp/cc7kAHCC.s:1809   .text:0000000000000a58 .L0 
     /tmp/cc7kAHCC.s:1828   .text:0000000000000a74 .L0 
     /tmp/cc7kAHCC.s:1858   .text:0000000000000aa8 .L0 
     /tmp/cc7kAHCC.s:1985   .rodata.str1.8:00000000000000c8 .LC15
     /tmp/cc7kAHCC.s:2020   .text:0000000000000b68 .L0 
     /tmp/cc7kAHCC.s:1988   .rodata.str1.8:00000000000000f0 .LC16
     /tmp/cc7kAHCC.s:2119   .text:0000000000000c44 .L0 
     /tmp/cc7kAHCC.s:2127   .text:0000000000000c58 .L0 
     /tmp/cc7kAHCC.s:2164   .rodata.str1.8:0000000000000120 .LC17
     /tmp/cc7kAHCC.s:2189   .text:0000000000000ca4 .L0 
GAS LISTING /tmp/cc7kAHCC.s 			page 95


     /tmp/cc7kAHCC.s:2194   .text:0000000000000cb4 .L0 
     /tmp/cc7kAHCC.s:2196   .text:0000000000000cc0 .L0 
     /tmp/cc7kAHCC.s:2210   .text:0000000000000ce0 .L0 
     /tmp/cc7kAHCC.s:2233   .text:0000000000000d04 .L0 
     /tmp/cc7kAHCC.s:2236   .text:0000000000000d10 .L0 
     /tmp/cc7kAHCC.s:2167   .rodata.str1.8:0000000000000150 .LC18
     /tmp/cc7kAHCC.s:2271   .text:0000000000000d5c .L0 
     /tmp/cc7kAHCC.s:2278   .text:0000000000000d70 .L0 
     /tmp/cc7kAHCC.s:2287   .text:0000000000000d84 .L0 
     /tmp/cc7kAHCC.s:2298   .rodata.str1.8:0000000000000188 .LC19
     /tmp/cc7kAHCC.s:2337   .text:0000000000000dc8 .L0 
     /tmp/cc7kAHCC.s:2370   .text:0000000000000e10 .L0 
     /tmp/cc7kAHCC.s:2530   .text:0000000000000f20 .L0 
     /tmp/cc7kAHCC.s:2540   .text:0000000000000f34 .L0 
     /tmp/cc7kAHCC.s:2550   .text:0000000000000f48 .L0 
     /tmp/cc7kAHCC.s:2560   .text:0000000000000f5c .L0 
     /tmp/cc7kAHCC.s:2301   .rodata.str1.8:00000000000001d0 .LC20
     /tmp/cc7kAHCC.s:2618   .text:0000000000000fd8 .L0 
     /tmp/cc7kAHCC.s:2674   .text:0000000000001028 .L0 
     /tmp/cc7kAHCC.s:2680   .text:000000000000103c .L0 
     /tmp/cc7kAHCC.s:2687   .text:0000000000001050 .L0 
     /tmp/cc7kAHCC.s:2694   .text:0000000000001068 .L0 
     /tmp/cc7kAHCC.s:80     .text:0000000000000010 .L6
     /tmp/cc7kAHCC.s:164    .text:0000000000000098 .L11
     /tmp/cc7kAHCC.s:178    .text:00000000000000b8 .L8
     /tmp/cc7kAHCC.s:143    .text:0000000000000060 .L10
     /tmp/cc7kAHCC.s:138    .text:0000000000000058 .L13
     /tmp/cc7kAHCC.s:260    .text:0000000000000138 .L17
     /tmp/cc7kAHCC.s:274    .text:0000000000000158 .L14
     /tmp/cc7kAHCC.s:239    .text:0000000000000100 .L16
     /tmp/cc7kAHCC.s:234    .text:00000000000000f8 .L19
     /tmp/cc7kAHCC.s:337    .text:00000000000001bc .L20
     /tmp/cc7kAHCC.s:315    .text:0000000000000184 .L22
     /tmp/cc7kAHCC.s:417    .text:0000000000000248 .L28
     /tmp/cc7kAHCC.s:425    .text:000000000000025c .L26
     /tmp/cc7kAHCC.s:435    .text:0000000000000270 .L24
     /tmp/cc7kAHCC.s:385    .text:00000000000001fc .L30
     /tmp/cc7kAHCC.s:396    .text:0000000000000210 .L27
     /tmp/cc7kAHCC.s:391    .text:0000000000000208 .L31
     /tmp/cc7kAHCC.s:516    .text:0000000000000308 .L40
     /tmp/cc7kAHCC.s:477    .text:00000000000002a8 .L37
     /tmp/cc7kAHCC.s:588    .text:0000000000000398 .L49
     /tmp/cc7kAHCC.s:546    .text:0000000000000330 .L46
     /tmp/cc7kAHCC.s:1162   .text:00000000000005e8 .L78
     /tmp/cc7kAHCC.s:1199   .text:0000000000000634 .L86
     /tmp/cc7kAHCC.s:1158   .text:00000000000005e4 .L76
     /tmp/cc7kAHCC.s:1238   .text:0000000000000678 .L87
     /tmp/cc7kAHCC.s:1228   .text:0000000000000664 .L90
     /tmp/cc7kAHCC.s:1205   .text:0000000000000638 .L75
     /tmp/cc7kAHCC.s:1184   .text:0000000000000620 .L74
     /tmp/cc7kAHCC.s:1252   .text:0000000000000684 .L79
     /tmp/cc7kAHCC.s:1275   .text:00000000000006c0 .L88
     /tmp/cc7kAHCC.s:1247   .text:0000000000000680 .L82
     /tmp/cc7kAHCC.s:1312   .text:0000000000000704 .L83
     /tmp/cc7kAHCC.s:1302   .text:00000000000006f0 .L91
     /tmp/cc7kAHCC.s:1281   .text:00000000000006c4 .L81
     /tmp/cc7kAHCC.s:1383   .text:0000000000000784 .L96
GAS LISTING /tmp/cc7kAHCC.s 			page 96


     /tmp/cc7kAHCC.s:1371   .text:0000000000000774 .L92
     /tmp/cc7kAHCC.s:1460   .text:00000000000007e8 .L99
     /tmp/cc7kAHCC.s:1474   .text:0000000000000804 .L98
     /tmp/cc7kAHCC.s:1441   .text:00000000000007d4 .L103
     /tmp/cc7kAHCC.s:1522   .text:0000000000000864 .L104
     /tmp/cc7kAHCC.s:1502   .text:0000000000000848 .L97
     /tmp/cc7kAHCC.s:1589   .text:00000000000008d4 .L106
     /tmp/cc7kAHCC.s:1577   .text:00000000000008c4 .L105
     /tmp/cc7kAHCC.s:1643   .text:000000000000091c .L113
     /tmp/cc7kAHCC.s:1682   .text:000000000000096c .L123
     /tmp/cc7kAHCC.s:1639   .text:0000000000000918 .L111
     /tmp/cc7kAHCC.s:1825   .text:0000000000000a74 .L114
     /tmp/cc7kAHCC.s:1753   .text:00000000000009f4 .L124
     /tmp/cc7kAHCC.s:1735   .text:00000000000009cc .L126
     /tmp/cc7kAHCC.s:1745   .text:00000000000009e0 .L127
     /tmp/cc7kAHCC.s:1695   .text:0000000000000978 .L118
     /tmp/cc7kAHCC.s:1665   .text:0000000000000954 .L109
     /tmp/cc7kAHCC.s:1814   .text:0000000000000a6c .L119
     /tmp/cc7kAHCC.s:1796   .text:0000000000000a44 .L128
     /tmp/cc7kAHCC.s:1806   .text:0000000000000a58 .L129
     /tmp/cc7kAHCC.s:1760   .text:00000000000009f8 .L115
     /tmp/cc7kAHCC.s:1687   .text:0000000000000970 .L110
     /tmp/cc7kAHCC.s:1919   .text:0000000000000b08 .L133
     /tmp/cc7kAHCC.s:2124   .text:0000000000000c58 .L140
     /tmp/cc7kAHCC.s:2116   .text:0000000000000c44 .L143
     /tmp/cc7kAHCC.s:2132   .text:0000000000000c68 .L139
     /tmp/cc7kAHCC.s:2229   .text:0000000000000d04 .L146
     /tmp/cc7kAHCC.s:2275   .text:0000000000000d70 .L151
     /tmp/cc7kAHCC.s:2284   .text:0000000000000d84 .L152
     /tmp/cc7kAHCC.s:2215   .text:0000000000000cf0 .L145
     /tmp/cc7kAHCC.s:2403   .text:0000000000000e50 .L154
     /tmp/cc7kAHCC.s:2367   .text:0000000000000e10 .L174
     /tmp/cc7kAHCC.s:2343   .text:0000000000000ddc .L157
     /tmp/cc7kAHCC.s:2413   .text:0000000000000e60 .L158
     /tmp/cc7kAHCC.s:2526   .text:0000000000000f20 .L159
     /tmp/cc7kAHCC.s:2537   .text:0000000000000f34 .L161
     /tmp/cc7kAHCC.s:2483   .text:0000000000000ed4 .L163
     /tmp/cc7kAHCC.s:2492   .text:0000000000000ee4 .L164
     /tmp/cc7kAHCC.s:2547   .text:0000000000000f48 .L165
     /tmp/cc7kAHCC.s:2557   .text:0000000000000f5c .L167
     /tmp/cc7kAHCC.s:2572   .text:0000000000000f74 .L168
     /tmp/cc7kAHCC.s:2374   .text:0000000000000e20 .L153
     /tmp/cc7kAHCC.s:2589   .text:0000000000000f9c .L169
     /tmp/cc7kAHCC.s:2567   .text:0000000000000f70 .L170
     /tmp/cc7kAHCC.s:2704   .text:0000000000001088 .L180
     /tmp/cc7kAHCC.s:2699   .text:0000000000001080 .L178
     /tmp/cc7kAHCC.s:2798   .text:0000000000001110 .L184
     /tmp/cc7kAHCC.s:2785   .text:00000000000010f8 .L186
     /tmp/cc7kAHCC.s:612    .text._ZN14PeriodicThreadD2Ev:0000000000000010 .L0 
     /tmp/cc7kAHCC.s:654    .text._ZN14PeriodicThreadD0Ev:0000000000000018 .L0 
     /tmp/cc7kAHCC.s:699    .text._ZN12TestPeriodicD2Ev:0000000000000010 .L0 
     /tmp/cc7kAHCC.s:744    .text._ZN12TestPeriodicD0Ev:0000000000000018 .L0 
     /tmp/cc7kAHCC.s:798    .text:00000000000003b8 .LEHB0
     /tmp/cc7kAHCC.s:778    .text:000000000000039c .LFB30
     /tmp/cc7kAHCC.s:801    .text:00000000000003c0 .LEHE0
     /tmp/cc7kAHCC.s:805    .text:00000000000003d0 .LEHB1
     /tmp/cc7kAHCC.s:808    .text:00000000000003d8 .LEHE1
GAS LISTING /tmp/cc7kAHCC.s 			page 97


     /tmp/cc7kAHCC.s:864    .text:000000000000044c .L61
     /tmp/cc7kAHCC.s:812    .text:00000000000003dc .LEHB2
     /tmp/cc7kAHCC.s:820    .text:00000000000003f0 .LEHE2
     /tmp/cc7kAHCC.s:825    .text:0000000000000400 .LEHB3
     /tmp/cc7kAHCC.s:828    .text:0000000000000408 .LEHE3
     /tmp/cc7kAHCC.s:876    .text:0000000000000468 .L62
     /tmp/cc7kAHCC.s:832    .text:000000000000040c .LEHB4
     /tmp/cc7kAHCC.s:848    .text:0000000000000434 .LEHE4
     /tmp/cc7kAHCC.s:872    .text:0000000000000460 .LEHB5
     /tmp/cc7kAHCC.s:875    .text:0000000000000468 .LEHE5
     /tmp/cc7kAHCC.s:883    .text:000000000000047c .LEHB6
     /tmp/cc7kAHCC.s:886    .text:0000000000000484 .LEHE6
     /tmp/cc7kAHCC.s:950    .text:00000000000004a0 .LEHB7
     /tmp/cc7kAHCC.s:930    .text:0000000000000484 .LFB31
     /tmp/cc7kAHCC.s:953    .text:00000000000004a8 .LEHE7
     /tmp/cc7kAHCC.s:957    .text:00000000000004b8 .LEHB8
     /tmp/cc7kAHCC.s:960    .text:00000000000004c0 .LEHE8
     /tmp/cc7kAHCC.s:1036   .text:0000000000000564 .L69
     /tmp/cc7kAHCC.s:964    .text:00000000000004c4 .LEHB9
     /tmp/cc7kAHCC.s:972    .text:00000000000004d8 .LEHE9
     /tmp/cc7kAHCC.s:977    .text:00000000000004e8 .LEHB10
     /tmp/cc7kAHCC.s:980    .text:00000000000004f0 .LEHE10
     /tmp/cc7kAHCC.s:1048   .text:0000000000000580 .L70
     /tmp/cc7kAHCC.s:984    .text:00000000000004f4 .LEHB11
     /tmp/cc7kAHCC.s:992    .text:0000000000000508 .LEHE11
     /tmp/cc7kAHCC.s:997    .text:0000000000000518 .LEHB12
     /tmp/cc7kAHCC.s:1000   .text:0000000000000520 .LEHE12
     /tmp/cc7kAHCC.s:1059   .text:000000000000059c .L71
     /tmp/cc7kAHCC.s:1004   .text:0000000000000524 .LEHB13
     /tmp/cc7kAHCC.s:1020   .text:000000000000054c .LEHE13
     /tmp/cc7kAHCC.s:1044   .text:0000000000000578 .LEHB14
     /tmp/cc7kAHCC.s:1047   .text:0000000000000580 .LEHE14
     /tmp/cc7kAHCC.s:1055   .text:0000000000000594 .LEHB15
     /tmp/cc7kAHCC.s:1058   .text:000000000000059c .LEHE15
     /tmp/cc7kAHCC.s:1066   .text:00000000000005b0 .LEHB16
     /tmp/cc7kAHCC.s:1069   .text:00000000000005b8 .LEHE16
     /tmp/cc7kAHCC.s:1902   .text:0000000000000ae4 .LEHB17
     /tmp/cc7kAHCC.s:1882   .text:0000000000000ac8 .LFB32
     /tmp/cc7kAHCC.s:1905   .text:0000000000000aec .LEHE17
     /tmp/cc7kAHCC.s:1908   .text:0000000000000af4 .LEHB18
     /tmp/cc7kAHCC.s:1911   .text:0000000000000afc .LEHE18
     /tmp/cc7kAHCC.s:1924   .text:0000000000000b0c .L135
     /tmp/cc7kAHCC.s:1915   .text:0000000000000b00 .LEHB19
     /tmp/cc7kAHCC.s:1918   .text:0000000000000b08 .LEHE19
     /tmp/cc7kAHCC.s:1931   .text:0000000000000b20 .LEHB20
     /tmp/cc7kAHCC.s:1934   .text:0000000000000b28 .LEHE20
     /tmp/cc7kAHCC.s:7354   .debug_abbrev:0000000000000000 .Ldebug_abbrev0
     /tmp/cc7kAHCC.s:10185  .debug_str:0000000000000aed .LASF286
     /tmp/cc7kAHCC.s:10105  .debug_str:00000000000008ae .LASF287
     /tmp/cc7kAHCC.s:9865   .debug_str:000000000000014a .LASF288
     /tmp/cc7kAHCC.s:9755   .debug_ranges:0000000000000000 .Ldebug_ranges0
     /tmp/cc7kAHCC.s:9815   .debug_line:0000000000000000 .Ldebug_line0
     /tmp/cc7kAHCC.s:9875   .debug_str:00000000000001ca .LASF0
     /tmp/cc7kAHCC.s:10371  .debug_str:00000000000010db .LASF1
     /tmp/cc7kAHCC.s:10301  .debug_str:0000000000000eb1 .LASF2
     /tmp/cc7kAHCC.s:10269  .debug_str:0000000000000de8 .LASF4
     /tmp/cc7kAHCC.s:10281  .debug_str:0000000000000e35 .LASF3
GAS LISTING /tmp/cc7kAHCC.s 			page 98


     /tmp/cc7kAHCC.s:9999   .debug_str:00000000000005b5 .LASF5
     /tmp/cc7kAHCC.s:10077  .debug_str:00000000000007bf .LASF6
     /tmp/cc7kAHCC.s:10051  .debug_str:0000000000000705 .LASF7
     /tmp/cc7kAHCC.s:10197  .debug_str:0000000000000bd3 .LASF8
     /tmp/cc7kAHCC.s:9903   .debug_str:00000000000002a5 .LASF9
     /tmp/cc7kAHCC.s:10353  .debug_str:0000000000001063 .LASF10
     /tmp/cc7kAHCC.s:10007  .debug_str:00000000000005ea .LASF11
     /tmp/cc7kAHCC.s:9939   .debug_str:00000000000003e5 .LASF12
     /tmp/cc7kAHCC.s:10079  .debug_str:00000000000007c6 .LASF13
     /tmp/cc7kAHCC.s:10015  .debug_str:000000000000061b .LASF14
     /tmp/cc7kAHCC.s:10251  .debug_str:0000000000000d88 .LASF15
     /tmp/cc7kAHCC.s:10017  .debug_str:000000000000062b .LASF16
     /tmp/cc7kAHCC.s:9981   .debug_str:000000000000053c .LASF17
     /tmp/cc7kAHCC.s:9987   .debug_str:000000000000056d .LASF18
     /tmp/cc7kAHCC.s:10163  .debug_str:0000000000000a72 .LASF19
     /tmp/cc7kAHCC.s:9929   .debug_str:0000000000000389 .LASF102
     /tmp/cc7kAHCC.s:10237  .debug_str:0000000000000d25 .LASF20
     /tmp/cc7kAHCC.s:9869   .debug_str:000000000000018b .LASF22
     /tmp/cc7kAHCC.s:10119  .debug_str:0000000000000911 .LASF21
     /tmp/cc7kAHCC.s:10325  .debug_str:0000000000000f6d .LASF23
     /tmp/cc7kAHCC.s:10195  .debug_str:0000000000000bc8 .LASF24
     /tmp/cc7kAHCC.s:10323  .debug_str:0000000000000f55 .LASF25
     /tmp/cc7kAHCC.s:10329  .debug_str:0000000000000f9e .LASF26
     /tmp/cc7kAHCC.s:10001  .debug_str:00000000000005bc .LASF27
     /tmp/cc7kAHCC.s:9969   .debug_str:00000000000004ee .LASF34
     /tmp/cc7kAHCC.s:10101  .debug_str:0000000000000887 .LASF36
     /tmp/cc7kAHCC.s:10417  .debug_str:000000000000127c .LASF28
     /tmp/cc7kAHCC.s:10209  .debug_str:0000000000000c38 .LASF29
     /tmp/cc7kAHCC.s:9887   .debug_str:000000000000022a .LASF30
     /tmp/cc7kAHCC.s:10351  .debug_str:000000000000103f .LASF31
     /tmp/cc7kAHCC.s:10043  .debug_str:00000000000006da .LASF32
     /tmp/cc7kAHCC.s:10099  .debug_str:0000000000000868 .LASF33
     /tmp/cc7kAHCC.s:9855   .debug_str:00000000000000fd .LASF35
     /tmp/cc7kAHCC.s:10257  .debug_str:0000000000000da9 .LASF37
     /tmp/cc7kAHCC.s:9931   .debug_str:000000000000038f .LASF38
     /tmp/cc7kAHCC.s:10111  .debug_str:00000000000008c9 .LASF39
     /tmp/cc7kAHCC.s:10071  .debug_str:0000000000000797 .LASF40
     /tmp/cc7kAHCC.s:10317  .debug_str:0000000000000f20 .LASF41
     /tmp/cc7kAHCC.s:10397  .debug_str:00000000000011dd .LASF44
     /tmp/cc7kAHCC.s:10349  .debug_str:000000000000102a .LASF46
     /tmp/cc7kAHCC.s:10233  .debug_str:0000000000000d10 .LASF42
     /tmp/cc7kAHCC.s:9899   .debug_str:0000000000000284 .LASF43
     /tmp/cc7kAHCC.s:9961   .debug_str:00000000000004b6 .LASF45
     /tmp/cc7kAHCC.s:10023  .debug_str:0000000000000651 .LASF47
     /tmp/cc7kAHCC.s:9993   .debug_str:0000000000000592 .LASF48
     /tmp/cc7kAHCC.s:9895   .debug_str:0000000000000266 .LASF49
     /tmp/cc7kAHCC.s:10375  .debug_str:000000000000110c .LASF50
     /tmp/cc7kAHCC.s:10247  .debug_str:0000000000000d5b .LASF51
     /tmp/cc7kAHCC.s:10239  .debug_str:0000000000000d30 .LASF52
     /tmp/cc7kAHCC.s:9923   .debug_str:0000000000000359 .LASF53
     /tmp/cc7kAHCC.s:10189  .debug_str:0000000000000ba6 .LASF54
     /tmp/cc7kAHCC.s:9823   .debug_str:0000000000000027 .LASF55
     /tmp/cc7kAHCC.s:10095  .debug_str:000000000000084f .LASF56
     /tmp/cc7kAHCC.s:10061  .debug_str:0000000000000740 .LASF57
     /tmp/cc7kAHCC.s:10331  .debug_str:0000000000000fa8 .LASF99
     /tmp/cc7kAHCC.s:10313  .debug_str:0000000000000f0a .LASF58
     /tmp/cc7kAHCC.s:10149  .debug_str:00000000000009fd .LASF59
GAS LISTING /tmp/cc7kAHCC.s 			page 99


     /tmp/cc7kAHCC.s:10053  .debug_str:0000000000000718 .LASF60
     /tmp/cc7kAHCC.s:10299  .debug_str:0000000000000e9e .LASF61
     /tmp/cc7kAHCC.s:10125  .debug_str:0000000000000955 .LASF62
     /tmp/cc7kAHCC.s:10387  .debug_str:000000000000117e .LASF63
     /tmp/cc7kAHCC.s:10283  .debug_str:0000000000000e47 .LASF64
     /tmp/cc7kAHCC.s:10179  .debug_str:0000000000000abe .LASF65
     /tmp/cc7kAHCC.s:10411  .debug_str:0000000000001260 .LASF66
     /tmp/cc7kAHCC.s:10381  .debug_str:0000000000001134 .LASF67
     /tmp/cc7kAHCC.s:10213  .debug_str:0000000000000c65 .LASF68
     /tmp/cc7kAHCC.s:9937   .debug_str:00000000000003cd .LASF69
     /tmp/cc7kAHCC.s:9897   .debug_str:0000000000000279 .LASF70
     /tmp/cc7kAHCC.s:10409  .debug_str:0000000000001248 .LASF71
     /tmp/cc7kAHCC.s:10047  .debug_str:00000000000006f1 .LASF72
     /tmp/cc7kAHCC.s:9955   .debug_str:000000000000047f .LASF73
     /tmp/cc7kAHCC.s:10013  .debug_str:0000000000000611 .LASF74
     /tmp/cc7kAHCC.s:9973   .debug_str:0000000000000503 .LASF75
     /tmp/cc7kAHCC.s:10267  .debug_str:0000000000000dde .LASF76
     /tmp/cc7kAHCC.s:10067  .debug_str:000000000000077c .LASF77
     /tmp/cc7kAHCC.s:10035  .debug_str:00000000000006ad .LASF78
     /tmp/cc7kAHCC.s:10143  .debug_str:00000000000009cf .LASF79
     /tmp/cc7kAHCC.s:10277  .debug_str:0000000000000e25 .LASF80
     /tmp/cc7kAHCC.s:9979   .debug_str:000000000000052a .LASF81
     /tmp/cc7kAHCC.s:10201  .debug_str:0000000000000c08 .LASF82
     /tmp/cc7kAHCC.s:10343  .debug_str:0000000000000ff5 .LASF83
     /tmp/cc7kAHCC.s:10219  .debug_str:0000000000000ca3 .LASF84
     /tmp/cc7kAHCC.s:9945   .debug_str:0000000000000422 .LASF85
     /tmp/cc7kAHCC.s:9877   .debug_str:00000000000001d7 .LASF86
     /tmp/cc7kAHCC.s:10199  .debug_str:0000000000000be6 .LASF87
     /tmp/cc7kAHCC.s:10401  .debug_str:0000000000001206 .LASF88
     /tmp/cc7kAHCC.s:9879   .debug_str:00000000000001ec .LASF89
     /tmp/cc7kAHCC.s:9845   .debug_str:000000000000009f .LASF90
     /tmp/cc7kAHCC.s:10297  .debug_str:0000000000000e96 .LASF91
     /tmp/cc7kAHCC.s:10151  .debug_str:0000000000000a10 .LASF92
     /tmp/cc7kAHCC.s:10181  .debug_str:0000000000000ad0 .LASF93
     /tmp/cc7kAHCC.s:10055  .debug_str:000000000000071f .LASF94
     /tmp/cc7kAHCC.s:10361  .debug_str:000000000000108d .LASF95
     /tmp/cc7kAHCC.s:9849   .debug_str:00000000000000b6 .LASF96
     /tmp/cc7kAHCC.s:9953   .debug_str:000000000000046c .LASF97
     /tmp/cc7kAHCC.s:9913   .debug_str:0000000000000319 .LASF98
     /tmp/cc7kAHCC.s:10279  .debug_str:0000000000000e2b .LASF100
     /tmp/cc7kAHCC.s:10117  .debug_str:000000000000090c .LASF101
     /tmp/cc7kAHCC.s:9907   .debug_str:00000000000002d4 .LASF289
     /tmp/cc7kAHCC.s:10107  .debug_str:00000000000008bc .LASF103
     /tmp/cc7kAHCC.s:10157  .debug_str:0000000000000a3f .LASF104
     /tmp/cc7kAHCC.s:10285  .debug_str:0000000000000e4d .LASF105
     /tmp/cc7kAHCC.s:10041  .debug_str:00000000000006d1 .LASF106
     /tmp/cc7kAHCC.s:10033  .debug_str:00000000000006a5 .LASF107
     /tmp/cc7kAHCC.s:10413  .debug_str:000000000000126e .LASF108
     /tmp/cc7kAHCC.s:10193  .debug_str:0000000000000bc0 .LASF171
     /tmp/cc7kAHCC.s:9977   .debug_str:0000000000000524 .LASF109
     /tmp/cc7kAHCC.s:10359  .debug_str:0000000000001082 .LASF110
     /tmp/cc7kAHCC.s:10113  .debug_str:00000000000008e4 .LASF290
     /tmp/cc7kAHCC.s:10355  .debug_str:0000000000001071 .LASF291
     /tmp/cc7kAHCC.s:10019  .debug_str:0000000000000641 .LASF111
     /tmp/cc7kAHCC.s:10011  .debug_str:0000000000000605 .LASF113
     /tmp/cc7kAHCC.s:10261  .debug_str:0000000000000dc9 .LASF112
     /tmp/cc7kAHCC.s:10063  .debug_str:0000000000000754 .LASF114
GAS LISTING /tmp/cc7kAHCC.s 			page 100


     /tmp/cc7kAHCC.s:10089  .debug_str:0000000000000824 .LASF115
     /tmp/cc7kAHCC.s:10037  .debug_str:00000000000006b3 .LASF116
     /tmp/cc7kAHCC.s:10333  .debug_str:0000000000000fb5 .LASF117
     /tmp/cc7kAHCC.s:9919   .debug_str:000000000000033c .LASF118
     /tmp/cc7kAHCC.s:10389  .debug_str:0000000000001190 .LASF119
     /tmp/cc7kAHCC.s:10309  .debug_str:0000000000000eed .LASF120
     /tmp/cc7kAHCC.s:9921   .debug_str:000000000000034c .LASF125
     /tmp/cc7kAHCC.s:10065  .debug_str:0000000000000764 .LASF127
     /tmp/cc7kAHCC.s:10167  .debug_str:0000000000000a7d .LASF121
     /tmp/cc7kAHCC.s:9901   .debug_str:0000000000000299 .LASF122
     /tmp/cc7kAHCC.s:10115  .debug_str:00000000000008fc .LASF123
     /tmp/cc7kAHCC.s:10205  .debug_str:0000000000000c1f .LASF124
     /tmp/cc7kAHCC.s:10173  .debug_str:0000000000000aa5 .LASF126
     /tmp/cc7kAHCC.s:9911   .debug_str:0000000000000306 .LASF128
     /tmp/cc7kAHCC.s:10225  .debug_str:0000000000000cd5 .LASF129
     /tmp/cc7kAHCC.s:9853   .debug_str:00000000000000e1 .LASF130
     /tmp/cc7kAHCC.s:10085  .debug_str:00000000000007fa .LASF131
     /tmp/cc7kAHCC.s:10029  .debug_str:0000000000000683 .LASF132
     /tmp/cc7kAHCC.s:10211  .debug_str:0000000000000c56 .LASF133
     /tmp/cc7kAHCC.s:10123  .debug_str:000000000000093b .LASF134
     /tmp/cc7kAHCC.s:10307  .debug_str:0000000000000edf .LASF135
     /tmp/cc7kAHCC.s:10311  .debug_str:0000000000000efe .LASF136
     /tmp/cc7kAHCC.s:10223  .debug_str:0000000000000cc5 .LASF137
     /tmp/cc7kAHCC.s:9965   .debug_str:00000000000004d3 .LASF138
     /tmp/cc7kAHCC.s:9997   .debug_str:00000000000005a8 .LASF139
     /tmp/cc7kAHCC.s:9829   .debug_str:000000000000004b .LASF140
     /tmp/cc7kAHCC.s:10049  .debug_str:00000000000006f8 .LASF145
     /tmp/cc7kAHCC.s:10217  .debug_str:0000000000000c98 .LASF141
     /tmp/cc7kAHCC.s:10335  .debug_str:0000000000000fbb .LASF142
     /tmp/cc7kAHCC.s:10039  .debug_str:00000000000006c6 .LASF143
     /tmp/cc7kAHCC.s:9891   .debug_str:0000000000000247 .LASF144
     /tmp/cc7kAHCC.s:10339  .debug_str:0000000000000fd7 .LASF146
     /tmp/cc7kAHCC.s:10137  .debug_str:00000000000009a4 .LASF147
     /tmp/cc7kAHCC.s:9905   .debug_str:00000000000002b5 .LASF148
     /tmp/cc7kAHCC.s:10231  .debug_str:0000000000000cfe .LASF149
     /tmp/cc7kAHCC.s:10391  .debug_str:0000000000001198 .LASF150
     /tmp/cc7kAHCC.s:10135  .debug_str:000000000000098e .LASF151
     /tmp/cc7kAHCC.s:10383  .debug_str:000000000000114f .LASF152
     /tmp/cc7kAHCC.s:9949   .debug_str:000000000000044b .LASF153
     /tmp/cc7kAHCC.s:10373  .debug_str:00000000000010ee .LASF154
     /tmp/cc7kAHCC.s:10241  .debug_str:0000000000000d38 .LASF155
     /tmp/cc7kAHCC.s:9867   .debug_str:000000000000016d .LASF156
     /tmp/cc7kAHCC.s:10327  .debug_str:0000000000000f89 .LASF157
     /tmp/cc7kAHCC.s:10399  .debug_str:00000000000011e6 .LASF158
     /tmp/cc7kAHCC.s:9915   .debug_str:000000000000032d .LASF159
     /tmp/cc7kAHCC.s:10175  .debug_str:0000000000000aae .LASF160
     /tmp/cc7kAHCC.s:9927   .debug_str:000000000000037f .LASF161
     /tmp/cc7kAHCC.s:10289  .debug_str:0000000000000e5c .LASF162
     /tmp/cc7kAHCC.s:10347  .debug_str:000000000000101c .LASF163
     /tmp/cc7kAHCC.s:9863   .debug_str:0000000000000122 .LASF165
     /tmp/cc7kAHCC.s:10027  .debug_str:000000000000066e .LASF164
     /tmp/cc7kAHCC.s:9909   .debug_str:00000000000002da .LASF166
     /tmp/cc7kAHCC.s:10129  .debug_str:0000000000000962 .LASF191
     /tmp/cc7kAHCC.s:10407  .debug_str:0000000000001237 .LASF292
     /tmp/cc7kAHCC.s:10287  .debug_str:0000000000000e57 .LASF167
     /tmp/cc7kAHCC.s:10165  .debug_str:0000000000000a78 .LASF168
     /tmp/cc7kAHCC.s:9883   .debug_str:0000000000000212 .LASF169
GAS LISTING /tmp/cc7kAHCC.s 			page 101


     /tmp/cc7kAHCC.s:10337  .debug_str:0000000000000fd1 .LASF170
     /tmp/cc7kAHCC.s:10155  .debug_str:0000000000000a37 .LASF172
     /tmp/cc7kAHCC.s:10045  .debug_str:00000000000006ec .LASF173
     /tmp/cc7kAHCC.s:10253  .debug_str:0000000000000d94 .LASF174
     /tmp/cc7kAHCC.s:9861   .debug_str:000000000000011b .LASF175
     /tmp/cc7kAHCC.s:9859   .debug_str:0000000000000114 .LASF176
     /tmp/cc7kAHCC.s:9971   .debug_str:00000000000004fe .LASF177
     /tmp/cc7kAHCC.s:10319  .debug_str:0000000000000f3a .LASF178
     /tmp/cc7kAHCC.s:10073  .debug_str:00000000000007a4 .LASF179
     /tmp/cc7kAHCC.s:10275  .debug_str:0000000000000e17 .LASF180
     /tmp/cc7kAHCC.s:10057  .debug_str:0000000000000732 .LASF181
     /tmp/cc7kAHCC.s:9947   .debug_str:000000000000043e .LASF182
     /tmp/cc7kAHCC.s:10153  .debug_str:0000000000000a1f .LASF183
     /tmp/cc7kAHCC.s:10249  .debug_str:0000000000000d6f .LASF184
     /tmp/cc7kAHCC.s:9843   .debug_str:0000000000000089 .LASF293
     /tmp/cc7kAHCC.s:9873   .debug_str:00000000000001b7 .LASF190
     /tmp/cc7kAHCC.s:10215  .debug_str:0000000000000c70 .LASF294
     /tmp/cc7kAHCC.s:10139  .debug_str:00000000000009b8 .LASF185
     /tmp/cc7kAHCC.s:10161  .debug_str:0000000000000a5c .LASF194
     /tmp/cc7kAHCC.s:10345  .debug_str:000000000000100d .LASF186
     /tmp/cc7kAHCC.s:10081  .debug_str:00000000000007d6 .LASF187
     /tmp/cc7kAHCC.s:10087  .debug_str:0000000000000809 .LASF188
     /tmp/cc7kAHCC.s:9935   .debug_str:00000000000003b5 .LASF189
     /tmp/cc7kAHCC.s:10363  .debug_str:000000000000109f .LASF295
     /tmp/cc7kAHCC.s:9943   .debug_str:0000000000000404 .LASF192
     /tmp/cc7kAHCC.s:9885   .debug_str:000000000000021a .LASF193
     /tmp/cc7kAHCC.s:10273  .debug_str:0000000000000dff .LASF195
     /tmp/cc7kAHCC.s:10059  .debug_str:0000000000000739 .LASF296
     /tmp/cc7kAHCC.s:10395  .debug_str:00000000000011cc .LASF297
     /tmp/cc7kAHCC.s:10229  .debug_str:0000000000000ceb .LASF269
     /tmp/cc7kAHCC.s:10177  .debug_str:0000000000000ab9 .LASF196
     /tmp/cc7kAHCC.s:10265  .debug_str:0000000000000dd4 .LASF197
     /tmp/cc7kAHCC.s:9841   .debug_str:0000000000000073 .LASF198
     /tmp/cc7kAHCC.s:724    .text._ZN12TestPeriodicD0Ev:0000000000000000 .LFB61
     /tmp/cc7kAHCC.s:767    .text._ZN12TestPeriodicD0Ev:000000000000004c .LFE61
     /tmp/cc7kAHCC.s:8805   .debug_loc:0000000000000000 .LLST16
     /tmp/cc7kAHCC.s:740    .text._ZN12TestPeriodicD0Ev:0000000000000018 .LBB23
     /tmp/cc7kAHCC.s:750    .text._ZN12TestPeriodicD0Ev:000000000000002c .LBE23
     /tmp/cc7kAHCC.s:8823   .debug_loc:000000000000004c .LLST17
     /tmp/cc7kAHCC.s:741    .text._ZN12TestPeriodicD0Ev:0000000000000018 .LBB24
     /tmp/cc7kAHCC.s:749    .text._ZN12TestPeriodicD0Ev:000000000000002c .LBE24
     /tmp/cc7kAHCC.s:747    .text._ZN12TestPeriodicD0Ev:000000000000002c .LVL68
     /tmp/cc7kAHCC.s:754    .text._ZN12TestPeriodicD0Ev:0000000000000038 .LVL69
     /tmp/cc7kAHCC.s:10291  .debug_str:0000000000000e68 .LASF199
     /tmp/cc7kAHCC.s:682    .text._ZN12TestPeriodicD2Ev:0000000000000000 .LFB59
     /tmp/cc7kAHCC.s:715    .text._ZN12TestPeriodicD2Ev:0000000000000034 .LFE59
     /tmp/cc7kAHCC.s:8834   .debug_loc:0000000000000082 .LLST14
     /tmp/cc7kAHCC.s:696    .text._ZN12TestPeriodicD2Ev:0000000000000010 .LBB21
     /tmp/cc7kAHCC.s:704    .text._ZN12TestPeriodicD2Ev:0000000000000024 .LBE21
     /tmp/cc7kAHCC.s:8848   .debug_loc:00000000000000bb .LLST15
     /tmp/cc7kAHCC.s:702    .text._ZN12TestPeriodicD2Ev:0000000000000024 .LVL65
     /tmp/cc7kAHCC.s:10227  .debug_str:0000000000000cde .LASF200
     /tmp/cc7kAHCC.s:9817   .debug_str:0000000000000000 .LASF202
     /tmp/cc7kAHCC.s:2819   .text:0000000000001124 .LFB57
     /tmp/cc7kAHCC.s:2844   .text:000000000000114c .LFE57
     /tmp/cc7kAHCC.s:2833   .text:000000000000113c .LVL320
     /tmp/cc7kAHCC.s:10187  .debug_str:0000000000000b99 .LASF201
GAS LISTING /tmp/cc7kAHCC.s 			page 102


     /tmp/cc7kAHCC.s:10191  .debug_str:0000000000000bae .LASF203
     /tmp/cc7kAHCC.s:2766   .text:00000000000010e0 .LFB56
     /tmp/cc7kAHCC.s:2813   .text:0000000000001124 .LFE56
     /tmp/cc7kAHCC.s:2781   .text:00000000000010f4 .LBB50
     /tmp/cc7kAHCC.s:2799   .text:0000000000001110 .LBE50
     /tmp/cc7kAHCC.s:8862   .debug_loc:00000000000000f4 .LLST71
     /tmp/cc7kAHCC.s:2792   .text:0000000000001108 .LVL316
     /tmp/cc7kAHCC.s:10259  .debug_str:0000000000000dc0 .LASF204
     /tmp/cc7kAHCC.s:9857   .debug_str:0000000000000107 .LASF205
     /tmp/cc7kAHCC.s:2660   .text:0000000000001014 .LFB55
     /tmp/cc7kAHCC.s:2729   .text:00000000000010b8 .LFE55
     /tmp/cc7kAHCC.s:10243  .debug_str:0000000000000d4b .LASF206
     /tmp/cc7kAHCC.s:10245  .debug_str:0000000000000d53 .LASF207
     /tmp/cc7kAHCC.s:2676   .text:0000000000001038 .LVL306
     /tmp/cc7kAHCC.s:2682   .text:000000000000104c .LVL307
     /tmp/cc7kAHCC.s:2690   .text:0000000000001064 .LVL308
     /tmp/cc7kAHCC.s:2697   .text:000000000000107c .LVL309
     /tmp/cc7kAHCC.s:2703   .text:0000000000001088 .LVL310
     /tmp/cc7kAHCC.s:2710   .text:0000000000001094 .LVL311
     /tmp/cc7kAHCC.s:2716   .text:00000000000010a4 .LVL312
     /tmp/cc7kAHCC.s:10403  .debug_str:0000000000001215 .LASF208
     /tmp/cc7kAHCC.s:10315  .debug_str:0000000000000f11 .LASF209
     /tmp/cc7kAHCC.s:525    .text:000000000000030c .LFB54
     /tmp/cc7kAHCC.s:591    .text:000000000000039c .LFE54
     /tmp/cc7kAHCC.s:8878   .debug_loc:000000000000013e .LLST10
     /tmp/cc7kAHCC.s:552    .text:0000000000000344 .LVL53
     /tmp/cc7kAHCC.s:570    .text:0000000000000374 .LVL54
     /tmp/cc7kAHCC.s:10025  .debug_str:0000000000000664 .LASF210
     /tmp/cc7kAHCC.s:10377  .debug_str:0000000000001114 .LASF211
     /tmp/cc7kAHCC.s:456    .text:0000000000000284 .LFB53
     /tmp/cc7kAHCC.s:519    .text:000000000000030c .LFE53
     /tmp/cc7kAHCC.s:8896   .debug_loc:000000000000018a .LLST9
     /tmp/cc7kAHCC.s:483    .text:00000000000002bc .LVL47
     /tmp/cc7kAHCC.s:493    .text:00000000000002d8 .LVL48
     /tmp/cc7kAHCC.s:498    .text:00000000000002e4 .LVL49
     /tmp/cc7kAHCC.s:9925   .debug_str:000000000000036d .LASF212
     /tmp/cc7kAHCC.s:10393  .debug_str:00000000000011b5 .LASF213
     /tmp/cc7kAHCC.s:2308   .text:0000000000000d98 .LFB52
     /tmp/cc7kAHCC.s:2623   .text:0000000000000fec .LFE52
     /tmp/cc7kAHCC.s:10069  .debug_str:0000000000000792 .LASF214
     /tmp/cc7kAHCC.s:9831   .debug_str:0000000000000056 .LASF215
     /tmp/cc7kAHCC.s:8914   .debug_loc:00000000000001d6 .LLST57
     /tmp/cc7kAHCC.s:9833   .debug_str:000000000000005b .LASF216
     /tmp/cc7kAHCC.s:8925   .debug_loc:000000000000020c .LLST58
     /tmp/cc7kAHCC.s:8944   .debug_loc:0000000000000268 .LLST59
     /tmp/cc7kAHCC.s:8965   .debug_loc:00000000000002c8 .LLST60
     /tmp/cc7kAHCC.s:8986   .debug_loc:0000000000000328 .LLST61
     /tmp/cc7kAHCC.s:8997   .debug_loc:000000000000035e .LLST62
     /tmp/cc7kAHCC.s:9889   .debug_str:0000000000000241 .LASF217
     /tmp/cc7kAHCC.s:9028   .debug_loc:00000000000003e7 .LLST63
     /tmp/cc7kAHCC.s:9825   .debug_str:000000000000003b .LASF218
     /tmp/cc7kAHCC.s:9039   .debug_loc:000000000000041d .LLST64
     /tmp/cc7kAHCC.s:10365  .debug_str:00000000000010c9 .LASF219
     /tmp/cc7kAHCC.s:9050   .debug_loc:0000000000000453 .LLST65
     /tmp/cc7kAHCC.s:9835   .debug_str:0000000000000060 .LASF220
     /tmp/cc7kAHCC.s:9061   .debug_loc:0000000000000489 .LLST66
     /tmp/cc7kAHCC.s:9837   .debug_str:0000000000000065 .LASF221
GAS LISTING /tmp/cc7kAHCC.s 			page 103


     /tmp/cc7kAHCC.s:9076   .debug_loc:00000000000004d2 .LLST67
     /tmp/cc7kAHCC.s:10367  .debug_str:00000000000010cf .LASF222
     /tmp/cc7kAHCC.s:9099   .debug_loc:0000000000000541 .LLST68
     /tmp/cc7kAHCC.s:10369  .debug_str:00000000000010d5 .LASF223
     /tmp/cc7kAHCC.s:9110   .debug_loc:0000000000000577 .LLST69
     /tmp/cc7kAHCC.s:2340   .text:0000000000000dd8 .LBB47
     /tmp/cc7kAHCC.s:2375   .text:0000000000000e20 .LBE47
     /tmp/cc7kAHCC.s:9125   .debug_loc:00000000000005c0 .LLST70
     /tmp/cc7kAHCC.s:2354   .text:0000000000000df4 .LVL256
     /tmp/cc7kAHCC.s:2372   .text:0000000000000e20 .LVL259
     /tmp/cc7kAHCC.s:2587   .text:0000000000000f98 .LVL298
     /tmp/cc7kAHCC.s:2339   .text:0000000000000dd8 .LVL254
     /tmp/cc7kAHCC.s:2412   .text:0000000000000e60 .LVL261
     /tmp/cc7kAHCC.s:2418   .text:0000000000000e6c .LVL262
     /tmp/cc7kAHCC.s:2425   .text:0000000000000e7c .LVL264
     /tmp/cc7kAHCC.s:2433   .text:0000000000000e8c .LVL267
     /tmp/cc7kAHCC.s:2482   .text:0000000000000ed4 .LVL275
     /tmp/cc7kAHCC.s:2491   .text:0000000000000ee4 .LVL276
     /tmp/cc7kAHCC.s:2497   .text:0000000000000ef0 .LVL277
     /tmp/cc7kAHCC.s:2505   .text:0000000000000f00 .LVL280
     /tmp/cc7kAHCC.s:2533   .text:0000000000000f30 .LVL285
     /tmp/cc7kAHCC.s:2543   .text:0000000000000f44 .LVL288
     /tmp/cc7kAHCC.s:2553   .text:0000000000000f58 .LVL291
     /tmp/cc7kAHCC.s:2563   .text:0000000000000f6c .LVL294
     /tmp/cc7kAHCC.s:2595   .text:0000000000000fa8 .LVL299
     /tmp/cc7kAHCC.s:2600   .text:0000000000000fb4 .LVL300
     /tmp/cc7kAHCC.s:2605   .text:0000000000000fc0 .LVL301
     /tmp/cc7kAHCC.s:2610   .text:0000000000000fcc .LVL302
     /tmp/cc7kAHCC.s:2615   .text:0000000000000fd8 .LVL303
     /tmp/cc7kAHCC.s:2620   .text:0000000000000fe8 .LVL304
     /tmp/cc7kAHCC.s:10303  .debug_str:0000000000000ebf .LASF224
     /tmp/cc7kAHCC.s:9985   .debug_str:0000000000000557 .LASF225
     /tmp/cc7kAHCC.s:2174   .text:0000000000000c90 .LFB51
     /tmp/cc7kAHCC.s:2294   .text:0000000000000d98 .LFE51
     /tmp/cc7kAHCC.s:9881   .debug_str:0000000000000209 .LASF226
     /tmp/cc7kAHCC.s:9140   .debug_loc:0000000000000609 .LLST53
     /tmp/cc7kAHCC.s:9153   .debug_loc:0000000000000641 .LLST54
     /tmp/cc7kAHCC.s:10145  .debug_str:00000000000009e1 .LASF227
     /tmp/cc7kAHCC.s:9168   .debug_loc:000000000000068a .LLST55
     /tmp/cc7kAHCC.s:10235  .debug_str:0000000000000d19 .LASF228
     /tmp/cc7kAHCC.s:9175   .debug_loc:00000000000006ad .LLST56
     /tmp/cc7kAHCC.s:2191   .text:0000000000000cb4 .LVL234
     /tmp/cc7kAHCC.s:2205   .text:0000000000000cdc .LVL237
     /tmp/cc7kAHCC.s:2213   .text:0000000000000cf0 .LVL239
     /tmp/cc7kAHCC.s:2251   .text:0000000000000d38 .LVL244
     /tmp/cc7kAHCC.s:2260   .text:0000000000000d4c .LVL246
     /tmp/cc7kAHCC.s:2268   .text:0000000000000d5c .LVL248
     /tmp/cc7kAHCC.s:2273   .text:0000000000000d6c .LVL249
     /tmp/cc7kAHCC.s:2280   .text:0000000000000d80 .LVL250
     /tmp/cc7kAHCC.s:2290   .text:0000000000000d94 .LVL253
     /tmp/cc7kAHCC.s:9975   .debug_str:0000000000000519 .LASF229
     /tmp/cc7kAHCC.s:10293  .debug_str:0000000000000e7e .LASF230
     /tmp/cc7kAHCC.s:1995   .text:0000000000000b40 .LFB50
     /tmp/cc7kAHCC.s:2160   .text:0000000000000c90 .LFE50
     /tmp/cc7kAHCC.s:9186   .debug_loc:00000000000006e3 .LLST47
     /tmp/cc7kAHCC.s:9193   .debug_loc:0000000000000706 .LLST48
     /tmp/cc7kAHCC.s:9204   .debug_loc:000000000000073c .LLST49
GAS LISTING /tmp/cc7kAHCC.s 			page 104


     /tmp/cc7kAHCC.s:9215   .debug_loc:0000000000000772 .LLST50
     /tmp/cc7kAHCC.s:9226   .debug_loc:00000000000007a8 .LLST51
     /tmp/cc7kAHCC.s:9237   .debug_loc:00000000000007de .LLST52
     /tmp/cc7kAHCC.s:2022   .text:0000000000000b78 .LVL202
     /tmp/cc7kAHCC.s:2027   .text:0000000000000b84 .LVL203
     /tmp/cc7kAHCC.s:2038   .text:0000000000000b9c .LVL205
     /tmp/cc7kAHCC.s:2046   .text:0000000000000bac .LVL208
     /tmp/cc7kAHCC.s:2054   .text:0000000000000bbc .LVL211
     /tmp/cc7kAHCC.s:2063   .text:0000000000000bd0 .LVL214
     /tmp/cc7kAHCC.s:2071   .text:0000000000000be0 .LVL217
     /tmp/cc7kAHCC.s:2088   .text:0000000000000c04 .LVL219
     /tmp/cc7kAHCC.s:2093   .text:0000000000000c10 .LVL220
     /tmp/cc7kAHCC.s:2098   .text:0000000000000c1c .LVL221
     /tmp/cc7kAHCC.s:2103   .text:0000000000000c28 .LVL222
     /tmp/cc7kAHCC.s:2108   .text:0000000000000c34 .LVL223
     /tmp/cc7kAHCC.s:2115   .text:0000000000000c44 .LVL224
     /tmp/cc7kAHCC.s:2121   .text:0000000000000c54 .LVL225
     /tmp/cc7kAHCC.s:2130   .text:0000000000000c68 .LVL228
     /tmp/cc7kAHCC.s:295    .text:000000000000016c .LFB49
     /tmp/cc7kAHCC.s:352    .text:00000000000001d0 .LFE49
     /tmp/cc7kAHCC.s:9252   .debug_loc:0000000000000827 .LLST5
     /tmp/cc7kAHCC.s:311    .text:0000000000000180 .LBB16
     /tmp/cc7kAHCC.s:338    .text:00000000000001bc .LBE16
     /tmp/cc7kAHCC.s:9266   .debug_loc:0000000000000860 .LLST6
     /tmp/cc7kAHCC.s:324    .text:00000000000001a0 .LVL29
     /tmp/cc7kAHCC.s:331    .text:00000000000001b4 .LVL30
     /tmp/cc7kAHCC.s:9983   .debug_str:0000000000000552 .LASF298
     /tmp/cc7kAHCC.s:9963   .debug_str:00000000000004bd .LASF231
     /tmp/cc7kAHCC.s:1839   .text:0000000000000a88 .LFB47
     /tmp/cc7kAHCC.s:1874   .text:0000000000000ac8 .LFE47
     /tmp/cc7kAHCC.s:9282   .debug_loc:00000000000008aa .LLST44
     /tmp/cc7kAHCC.s:9300   .debug_loc:00000000000008f6 .LLST45
     /tmp/cc7kAHCC.s:1857   .text:0000000000000aa8 .LVL193
     /tmp/cc7kAHCC.s:9933   .debug_str:000000000000039d .LASF232
     /tmp/cc7kAHCC.s:635    .text._ZN14PeriodicThreadD0Ev:0000000000000000 .LFB46
     /tmp/cc7kAHCC.s:675    .text._ZN14PeriodicThreadD0Ev:000000000000004c .LFE46
     /tmp/cc7kAHCC.s:9314   .debug_loc:000000000000092f .LLST12
     /tmp/cc7kAHCC.s:651    .text._ZN14PeriodicThreadD0Ev:0000000000000018 .LBB19
     /tmp/cc7kAHCC.s:659    .text._ZN14PeriodicThreadD0Ev:000000000000002c .LBE19
     /tmp/cc7kAHCC.s:9332   .debug_loc:000000000000097b .LLST13
     /tmp/cc7kAHCC.s:657    .text._ZN14PeriodicThreadD0Ev:000000000000002c .LVL60
     /tmp/cc7kAHCC.s:662    .text._ZN14PeriodicThreadD0Ev:0000000000000038 .LVL61
     /tmp/cc7kAHCC.s:10405  .debug_str:000000000000121f .LASF233
     /tmp/cc7kAHCC.s:598    .text._ZN14PeriodicThreadD2Ev:0000000000000000 .LFB44
     /tmp/cc7kAHCC.s:626    .text._ZN14PeriodicThreadD2Ev:0000000000000034 .LFE44
     /tmp/cc7kAHCC.s:9343   .debug_loc:00000000000009b1 .LLST11
     /tmp/cc7kAHCC.s:615    .text._ZN14PeriodicThreadD2Ev:0000000000000024 .LVL57
     /tmp/cc7kAHCC.s:10295  .debug_str:0000000000000e8e .LASF234
     /tmp/cc7kAHCC.s:10003  .debug_str:00000000000005d2 .LASF235
     /tmp/cc7kAHCC.s:2850   .text:000000000000114c .LFB41
     /tmp/cc7kAHCC.s:2875   .text:0000000000001174 .LFE41
     /tmp/cc7kAHCC.s:2864   .text:0000000000001164 .LVL321
     /tmp/cc7kAHCC.s:9995   .debug_str:0000000000000599 .LASF236
     /tmp/cc7kAHCC.s:9871   .debug_str:00000000000001a3 .LASF237
     /tmp/cc7kAHCC.s:2735   .text:00000000000010b8 .LFB40
     /tmp/cc7kAHCC.s:2760   .text:00000000000010e0 .LFE40
     /tmp/cc7kAHCC.s:2749   .text:00000000000010d0 .LVL313
GAS LISTING /tmp/cc7kAHCC.s 			page 105


     /tmp/cc7kAHCC.s:10321  .debug_str:0000000000000f3f .LASF238
     /tmp/cc7kAHCC.s:10093  .debug_str:0000000000000834 .LASF239
     /tmp/cc7kAHCC.s:2629   .text:0000000000000fec .LFB39
     /tmp/cc7kAHCC.s:2654   .text:0000000000001014 .LFE39
     /tmp/cc7kAHCC.s:2643   .text:0000000000001004 .LVL305
     /tmp/cc7kAHCC.s:10133  .debug_str:0000000000000980 .LASF240
     /tmp/cc7kAHCC.s:9957   .debug_str:0000000000000492 .LASF241
     /tmp/cc7kAHCC.s:1614   .text:00000000000008e8 .LFB38
     /tmp/cc7kAHCC.s:1833   .text:0000000000000a88 .LFE38
     /tmp/cc7kAHCC.s:9917   .debug_str:0000000000000336 .LASF242
     /tmp/cc7kAHCC.s:9357   .debug_loc:00000000000009ea .LLST38
     /tmp/cc7kAHCC.s:1634   .text:0000000000000910 .LBB38
     /tmp/cc7kAHCC.s:1666   .text:0000000000000954 .LBE38
     /tmp/cc7kAHCC.s:9368   .debug_loc:0000000000000a20 .LLST39
     /tmp/cc7kAHCC.s:1651   .text:0000000000000930 .LVL167
     /tmp/cc7kAHCC.s:1663   .text:0000000000000954 .LVL168
     /tmp/cc7kAHCC.s:1692   .text:0000000000000974 .LBB40
     /tmp/cc7kAHCC.s:1755   .text:00000000000009f4 .LBE40
     /tmp/cc7kAHCC.s:9379   .debug_loc:0000000000000a56 .LLST40
     /tmp/cc7kAHCC.s:10091  .debug_str:000000000000082d .LASF243
     /tmp/cc7kAHCC.s:9390   .debug_loc:0000000000000a8c .LLST41
     /tmp/cc7kAHCC.s:1708   .text:0000000000000998 .LVL172
     /tmp/cc7kAHCC.s:1719   .text:00000000000009b0 .LVL174
     /tmp/cc7kAHCC.s:1742   .text:00000000000009dc .LVL178
     /tmp/cc7kAHCC.s:1750   .text:00000000000009f0 .LVL179
     /tmp/cc7kAHCC.s:1756   .text:00000000000009f4 .LBB43
     /tmp/cc7kAHCC.s:1816   .text:0000000000000a6c .LBE43
     /tmp/cc7kAHCC.s:9401   .debug_loc:0000000000000ac2 .LLST42
     /tmp/cc7kAHCC.s:9412   .debug_loc:0000000000000af8 .LLST43
     /tmp/cc7kAHCC.s:1772   .text:0000000000000a18 .LVL181
     /tmp/cc7kAHCC.s:1780   .text:0000000000000a28 .LVL183
     /tmp/cc7kAHCC.s:1803   .text:0000000000000a54 .LVL187
     /tmp/cc7kAHCC.s:1811   .text:0000000000000a68 .LVL188
     /tmp/cc7kAHCC.s:1633   .text:0000000000000910 .LVL164
     /tmp/cc7kAHCC.s:1830   .text:0000000000000a84 .LVL191
     /tmp/cc7kAHCC.s:10031  .debug_str:000000000000069d .LASF244
     /tmp/cc7kAHCC.s:10357  .debug_str:0000000000001076 .LASF245
     /tmp/cc7kAHCC.s:1542   .text:0000000000000878 .LFB37
     /tmp/cc7kAHCC.s:1600   .text:00000000000008e8 .LFE37
     /tmp/cc7kAHCC.s:9423   .debug_loc:0000000000000b2e .LLST36
     /tmp/cc7kAHCC.s:9436   .debug_loc:0000000000000b66 .LLST37
     /tmp/cc7kAHCC.s:1557   .text:0000000000000898 .LVL155
     /tmp/cc7kAHCC.s:1562   .text:00000000000008a4 .LVL156
     /tmp/cc7kAHCC.s:1568   .text:00000000000008b0 .LVL158
     /tmp/cc7kAHCC.s:1576   .text:00000000000008c4 .LVL160
     /tmp/cc7kAHCC.s:1596   .text:00000000000008e4 .LVL163
     /tmp/cc7kAHCC.s:10147  .debug_str:00000000000009eb .LASF246
     /tmp/cc7kAHCC.s:10131  .debug_str:0000000000000969 .LASF247
     /tmp/cc7kAHCC.s:1404   .text:0000000000000798 .LFB36
     /tmp/cc7kAHCC.s:1531   .text:0000000000000878 .LFE36
     /tmp/cc7kAHCC.s:9463   .debug_loc:0000000000000bac .LLST32
     /tmp/cc7kAHCC.s:9475   .debug_loc:0000000000000be3 .LLST33
     /tmp/cc7kAHCC.s:9491   .debug_loc:0000000000000c2d .LLST34
     /tmp/cc7kAHCC.s:9507   .debug_loc:0000000000000c77 .LLST35
     /tmp/cc7kAHCC.s:1470   .text:0000000000000800 .LVL145
     /tmp/cc7kAHCC.s:1425   .text:00000000000007c4 .LVL140
     /tmp/cc7kAHCC.s:1483   .text:0000000000000818 .LVL147
GAS LISTING /tmp/cc7kAHCC.s 			page 106


     /tmp/cc7kAHCC.s:1488   .text:0000000000000828 .LVL148
     /tmp/cc7kAHCC.s:1501   .text:0000000000000848 .LVL150
     /tmp/cc7kAHCC.s:1528   .text:0000000000000874 .LVL154
     /tmp/cc7kAHCC.s:9819   .debug_str:0000000000000012 .LASF248
     /tmp/cc7kAHCC.s:10385  .debug_str:0000000000001170 .LASF249
     /tmp/cc7kAHCC.s:1333   .text:0000000000000718 .LFB35
     /tmp/cc7kAHCC.s:1393   .text:0000000000000798 .LFE35
     /tmp/cc7kAHCC.s:9518   .debug_loc:0000000000000cad .LLST30
     /tmp/cc7kAHCC.s:9531   .debug_loc:0000000000000ce6 .LLST31
     /tmp/cc7kAHCC.s:1348   .text:0000000000000738 .LVL131
     /tmp/cc7kAHCC.s:1362   .text:0000000000000760 .LVL134
     /tmp/cc7kAHCC.s:1370   .text:0000000000000774 .LVL136
     /tmp/cc7kAHCC.s:1390   .text:0000000000000794 .LVL139
     /tmp/cc7kAHCC.s:9821   .debug_str:000000000000001c .LASF250
     /tmp/cc7kAHCC.s:9941   .debug_str:00000000000003f4 .LASF251
     /tmp/cc7kAHCC.s:1135   .text:00000000000005b8 .LFB34
     /tmp/cc7kAHCC.s:1322   .text:0000000000000718 .LFE34
     /tmp/cc7kAHCC.s:1153   .text:00000000000005dc .LBB26
     /tmp/cc7kAHCC.s:1185   .text:0000000000000620 .LBE26
     /tmp/cc7kAHCC.s:9542   .debug_loc:0000000000000d1c .LLST24
     /tmp/cc7kAHCC.s:1170   .text:00000000000005fc .LVL110
     /tmp/cc7kAHCC.s:1182   .text:0000000000000620 .LVL111
     /tmp/cc7kAHCC.s:1201   .text:0000000000000634 .LBB27
     /tmp/cc7kAHCC.s:1240   .text:0000000000000678 .LBE27
     /tmp/cc7kAHCC.s:9553   .debug_loc:0000000000000d52 .LLST25
     /tmp/cc7kAHCC.s:9564   .debug_loc:0000000000000d88 .LLST26
     /tmp/cc7kAHCC.s:1217   .text:0000000000000658 .LVL114
     /tmp/cc7kAHCC.s:1235   .text:0000000000000674 .LVL118
     /tmp/cc7kAHCC.s:1241   .text:0000000000000678 .LBB30
     /tmp/cc7kAHCC.s:1276   .text:00000000000006c0 .LBE30
     /tmp/cc7kAHCC.s:9571   .debug_loc:0000000000000dab .LLST27
     /tmp/cc7kAHCC.s:1260   .text:0000000000000698 .LVL122
     /tmp/cc7kAHCC.s:1272   .text:00000000000006bc .LVL123
     /tmp/cc7kAHCC.s:1277   .text:00000000000006c0 .LBB31
     /tmp/cc7kAHCC.s:1314   .text:0000000000000704 .LBE31
     /tmp/cc7kAHCC.s:9578   .debug_loc:0000000000000dce .LLST28
     /tmp/cc7kAHCC.s:9589   .debug_loc:0000000000000e04 .LLST29
     /tmp/cc7kAHCC.s:1293   .text:00000000000006e4 .LVL125
     /tmp/cc7kAHCC.s:1309   .text:0000000000000700 .LVL129
     /tmp/cc7kAHCC.s:1152   .text:00000000000005dc .LVL107
     /tmp/cc7kAHCC.s:1319   .text:0000000000000714 .LVL130
     /tmp/cc7kAHCC.s:10207  .debug_str:0000000000000c2c .LASF252
     /tmp/cc7kAHCC.s:10379  .debug_str:0000000000001123 .LASF253
     /tmp/cc7kAHCC.s:1965   .text:0000000000000b28 .LFB33
     /tmp/cc7kAHCC.s:1981   .text:0000000000000b40 .LFE33
     /tmp/cc7kAHCC.s:1979   .text:0000000000000b40 .LVL201
     /tmp/cc7kAHCC.s:10009  .debug_str:00000000000005f9 .LASF254
     /tmp/cc7kAHCC.s:10097  .debug_str:0000000000000857 .LASF255
     /tmp/cc7kAHCC.s:1936   .text:0000000000000b28 .LFE32
     /tmp/cc7kAHCC.s:9596   .debug_loc:0000000000000e27 .LLST46
     /tmp/cc7kAHCC.s:1904   .text:0000000000000aec .LVL195
     /tmp/cc7kAHCC.s:1910   .text:0000000000000afc .LVL196
     /tmp/cc7kAHCC.s:1917   .text:0000000000000b08 .LVL197
     /tmp/cc7kAHCC.s:1929   .text:0000000000000b1c .LVL199
     /tmp/cc7kAHCC.s:1933   .text:0000000000000b28 .LVL200
     /tmp/cc7kAHCC.s:10005  .debug_str:00000000000005de .LASF256
     /tmp/cc7kAHCC.s:10183  .debug_str:0000000000000adc .LASF257
GAS LISTING /tmp/cc7kAHCC.s 			page 107


     /tmp/cc7kAHCC.s:1071   .text:00000000000005b8 .LFE31
     /tmp/cc7kAHCC.s:9967   .debug_str:00000000000004e3 .LASF258
     /tmp/cc7kAHCC.s:9603   .debug_loc:0000000000000e4a .LLST21
     /tmp/cc7kAHCC.s:9610   .debug_loc:0000000000000e6d .LLST22
     /tmp/cc7kAHCC.s:9617   .debug_loc:0000000000000e90 .LLST23
     /tmp/cc7kAHCC.s:952    .text:00000000000004a8 .LVL86
     /tmp/cc7kAHCC.s:959    .text:00000000000004c0 .LVL87
     /tmp/cc7kAHCC.s:966    .text:00000000000004cc .LVL88
     /tmp/cc7kAHCC.s:971    .text:00000000000004d8 .LVL89
     /tmp/cc7kAHCC.s:979    .text:00000000000004f0 .LVL91
     /tmp/cc7kAHCC.s:986    .text:00000000000004fc .LVL92
     /tmp/cc7kAHCC.s:991    .text:0000000000000508 .LVL93
     /tmp/cc7kAHCC.s:999    .text:0000000000000520 .LVL95
     /tmp/cc7kAHCC.s:1006   .text:000000000000052c .LVL96
     /tmp/cc7kAHCC.s:1010   .text:0000000000000534 .LVL97
     /tmp/cc7kAHCC.s:1015   .text:0000000000000544 .LVL98
     /tmp/cc7kAHCC.s:1019   .text:000000000000054c .LVL99
     /tmp/cc7kAHCC.s:1042   .text:0000000000000574 .LVL101
     /tmp/cc7kAHCC.s:1046   .text:0000000000000580 .LVL102
     /tmp/cc7kAHCC.s:1053   .text:0000000000000590 .LVL103
     /tmp/cc7kAHCC.s:1057   .text:000000000000059c .LVL104
     /tmp/cc7kAHCC.s:1064   .text:00000000000005ac .LVL105
     /tmp/cc7kAHCC.s:1068   .text:00000000000005b8 .LVL106
     /tmp/cc7kAHCC.s:10171  .debug_str:0000000000000a99 .LASF259
     /tmp/cc7kAHCC.s:9959   .debug_str:00000000000004a5 .LASF260
     /tmp/cc7kAHCC.s:888    .text:0000000000000484 .LFE30
     /tmp/cc7kAHCC.s:9624   .debug_loc:0000000000000eb3 .LLST19
     /tmp/cc7kAHCC.s:9631   .debug_loc:0000000000000ed6 .LLST20
     /tmp/cc7kAHCC.s:800    .text:00000000000003c0 .LVL71
     /tmp/cc7kAHCC.s:807    .text:00000000000003d8 .LVL72
     /tmp/cc7kAHCC.s:814    .text:00000000000003e4 .LVL73
     /tmp/cc7kAHCC.s:819    .text:00000000000003f0 .LVL74
     /tmp/cc7kAHCC.s:827    .text:0000000000000408 .LVL76
     /tmp/cc7kAHCC.s:834    .text:0000000000000414 .LVL77
     /tmp/cc7kAHCC.s:838    .text:000000000000041c .LVL78
     /tmp/cc7kAHCC.s:843    .text:000000000000042c .LVL79
     /tmp/cc7kAHCC.s:847    .text:0000000000000434 .LVL80
     /tmp/cc7kAHCC.s:870    .text:000000000000045c .LVL82
     /tmp/cc7kAHCC.s:874    .text:0000000000000468 .LVL83
     /tmp/cc7kAHCC.s:881    .text:0000000000000478 .LVL84
     /tmp/cc7kAHCC.s:885    .text:0000000000000484 .LVL85
     /tmp/cc7kAHCC.s:10159  .debug_str:0000000000000a47 .LASF261
     /tmp/cc7kAHCC.s:10121  .debug_str:0000000000000920 .LASF262
     /tmp/cc7kAHCC.s:358    .text:00000000000001d0 .LFB29
     /tmp/cc7kAHCC.s:450    .text:0000000000000284 .LFE29
     /tmp/cc7kAHCC.s:9638   .debug_loc:0000000000000ef9 .LLST7
     /tmp/cc7kAHCC.s:380    .text:00000000000001f4 .LBB17
     /tmp/cc7kAHCC.s:436    .text:0000000000000270 .LBE17
     /tmp/cc7kAHCC.s:9652   .debug_loc:0000000000000f32 .LLST8
     /tmp/cc7kAHCC.s:389    .text:0000000000000204 .LVL38
     /tmp/cc7kAHCC.s:395    .text:0000000000000210 .LVL39
     /tmp/cc7kAHCC.s:401    .text:0000000000000220 .LVL40
     /tmp/cc7kAHCC.s:408    .text:0000000000000234 .LVL41
     /tmp/cc7kAHCC.s:413    .text:0000000000000244 .LVL42
     /tmp/cc7kAHCC.s:377    .text:00000000000001f4 .LVL36
     /tmp/cc7kAHCC.s:9847   .debug_str:00000000000000a6 .LASF263
     /tmp/cc7kAHCC.s:9991   .debug_str:000000000000057c .LASF264
GAS LISTING /tmp/cc7kAHCC.s 			page 108


     /tmp/cc7kAHCC.s:207    .text:00000000000000cc .LFB28
     /tmp/cc7kAHCC.s:289    .text:000000000000016c .LFE28
     /tmp/cc7kAHCC.s:9664   .debug_loc:0000000000000f69 .LLST3
     /tmp/cc7kAHCC.s:229    .text:00000000000000f0 .LBB15
     /tmp/cc7kAHCC.s:275    .text:0000000000000158 .LBE15
     /tmp/cc7kAHCC.s:9678   .debug_loc:0000000000000fa2 .LLST4
     /tmp/cc7kAHCC.s:238    .text:0000000000000100 .LVL20
     /tmp/cc7kAHCC.s:244    .text:0000000000000110 .LVL21
     /tmp/cc7kAHCC.s:251    .text:0000000000000124 .LVL22
     /tmp/cc7kAHCC.s:256    .text:0000000000000134 .LVL23
     /tmp/cc7kAHCC.s:226    .text:00000000000000f0 .LVL18
     /tmp/cc7kAHCC.s:10255  .debug_str:0000000000000d99 .LASF265
     /tmp/cc7kAHCC.s:10341  .debug_str:0000000000000fdf .LASF266
     /tmp/cc7kAHCC.s:111    .text:000000000000002c .LFB27
     /tmp/cc7kAHCC.s:193    .text:00000000000000cc .LFE27
     /tmp/cc7kAHCC.s:9690   .debug_loc:0000000000000fd9 .LLST1
     /tmp/cc7kAHCC.s:133    .text:0000000000000050 .LBB14
     /tmp/cc7kAHCC.s:179    .text:00000000000000b8 .LBE14
     /tmp/cc7kAHCC.s:9704   .debug_loc:0000000000001012 .LLST2
     /tmp/cc7kAHCC.s:142    .text:0000000000000060 .LVL10
     /tmp/cc7kAHCC.s:148    .text:0000000000000070 .LVL11
     /tmp/cc7kAHCC.s:155    .text:0000000000000084 .LVL12
     /tmp/cc7kAHCC.s:160    .text:0000000000000094 .LVL13
     /tmp/cc7kAHCC.s:130    .text:0000000000000050 .LVL8
     /tmp/cc7kAHCC.s:10415  .debug_str:0000000000001277 .LASF267
     /tmp/cc7kAHCC.s:10083  .debug_str:00000000000007f0 .LASF268
     /tmp/cc7kAHCC.s:66     .text:0000000000000000 .LFB26
     /tmp/cc7kAHCC.s:94     .text:000000000000002c .LFE26
     /tmp/cc7kAHCC.s:9716   .debug_loc:0000000000001049 .LLST0
     /tmp/cc7kAHCC.s:86     .text:0000000000000020 .LVL4
     /tmp/cc7kAHCC.s:90     .text:0000000000000028 .LVL5
     /tmp/cc7kAHCC.s:37     .text._ZN14PeriodicThread18periodicActivationEv:0000000000000000 .LFB25
     /tmp/cc7kAHCC.s:55     .text._ZN14PeriodicThread18periodicActivationEv:0000000000000018 .LFE25
     /tmp/cc7kAHCC.s:11     .text._ZN6Thread3runEv:0000000000000000 .LFB24
     /tmp/cc7kAHCC.s:30     .text._ZN6Thread3runEv:0000000000000018 .LFE24
     /tmp/cc7kAHCC.s:10109  .debug_str:00000000000008c2 .LASF270
     /tmp/cc7kAHCC.s:10263  .debug_str:0000000000000dcf .LASF271
     /tmp/cc7kAHCC.s:10141  .debug_str:00000000000009c6 .LASF272
     /tmp/cc7kAHCC.s:9951   .debug_str:000000000000045e .LASF273
     /tmp/cc7kAHCC.s:10271  .debug_str:0000000000000def .LASF274
     /tmp/cc7kAHCC.s:10103  .debug_str:00000000000008a5 .LASF275
     /tmp/cc7kAHCC.s:10021  .debug_str:0000000000000646 .LASF276
     /tmp/cc7kAHCC.s:10127  .debug_str:000000000000095b .LASF277
     /tmp/cc7kAHCC.s:9827   .debug_str:0000000000000041 .LASF278
     /tmp/cc7kAHCC.s:10221  .debug_str:0000000000000cb2 .LASF279
     /tmp/cc7kAHCC.s:10203  .debug_str:0000000000000c13 .LASF280
     /tmp/cc7kAHCC.s:9989   .debug_str:0000000000000576 .LASF281
     /tmp/cc7kAHCC.s:10169  .debug_str:0000000000000a8a .LASF282
     /tmp/cc7kAHCC.s:9893   .debug_str:000000000000025d .LASF283
     /tmp/cc7kAHCC.s:9839   .debug_str:000000000000006a .LASF284
     /tmp/cc7kAHCC.s:10305  .debug_str:0000000000000ed0 .LASF299
     /tmp/cc7kAHCC.s:9851   .debug_str:00000000000000c9 .LASF300
     /tmp/cc7kAHCC.s:10075  .debug_str:00000000000007b3 .LASF285
     /tmp/cc7kAHCC.s:727    .text._ZN12TestPeriodicD0Ev:0000000000000000 .LVL66
     /tmp/cc7kAHCC.s:762    .text._ZN12TestPeriodicD0Ev:0000000000000044 .LVL70
     /tmp/cc7kAHCC.s:739    .text._ZN12TestPeriodicD0Ev:0000000000000018 .LVL67
     /tmp/cc7kAHCC.s:686    .text._ZN12TestPeriodicD2Ev:0000000000000000 .LVL63
GAS LISTING /tmp/cc7kAHCC.s 			page 109


     /tmp/cc7kAHCC.s:695    .text._ZN12TestPeriodicD2Ev:0000000000000010 .LVL64
     /tmp/cc7kAHCC.s:2780   .text:00000000000010f4 .LVL314
     /tmp/cc7kAHCC.s:2784   .text:00000000000010f8 .LVL315
     /tmp/cc7kAHCC.s:2795   .text:000000000000110c .LVL317
     /tmp/cc7kAHCC.s:2797   .text:0000000000001110 .LVL318
     /tmp/cc7kAHCC.s:2808   .text:000000000000111c .LVL319
     /tmp/cc7kAHCC.s:528    .text:000000000000030c .LVL51
     /tmp/cc7kAHCC.s:545    .text:0000000000000330 .LVL52
     /tmp/cc7kAHCC.s:587    .text:0000000000000398 .LVL55
     /tmp/cc7kAHCC.s:459    .text:0000000000000284 .LVL45
     /tmp/cc7kAHCC.s:476    .text:00000000000002a8 .LVL46
     /tmp/cc7kAHCC.s:515    .text:0000000000000308 .LVL50
     /tmp/cc7kAHCC.s:2427   .text:0000000000000e80 .LVL265
     /tmp/cc7kAHCC.s:2431   .text:0000000000000e84 .LVL266
     /tmp/cc7kAHCC.s:2435   .text:0000000000000e90 .LVL268
     /tmp/cc7kAHCC.s:2449   .text:0000000000000ea4 .LVL270
     /tmp/cc7kAHCC.s:2525   .text:0000000000000f20 .LVL283
     /tmp/cc7kAHCC.s:2531   .text:0000000000000f28 .LVL284
     /tmp/cc7kAHCC.s:2445   .text:0000000000000ea0 .LVL269
     /tmp/cc7kAHCC.s:2536   .text:0000000000000f34 .LVL286
     /tmp/cc7kAHCC.s:2541   .text:0000000000000f3c .LVL287
     /tmp/cc7kAHCC.s:2453   .text:0000000000000ea8 .LVL271
     /tmp/cc7kAHCC.s:2457   .text:0000000000000eac .LVL272
     /tmp/cc7kAHCC.s:2580   .text:0000000000000f84 .LVL297
     /tmp/cc7kAHCC.s:2462   .text:0000000000000eb0 .LVL273
     /tmp/cc7kAHCC.s:2466   .text:0000000000000eb4 .LVL274
     /tmp/cc7kAHCC.s:2499   .text:0000000000000ef4 .LVL278
     /tmp/cc7kAHCC.s:2503   .text:0000000000000ef8 .LVL279
     /tmp/cc7kAHCC.s:2546   .text:0000000000000f48 .LVL289
     /tmp/cc7kAHCC.s:2507   .text:0000000000000f04 .LVL281
     /tmp/cc7kAHCC.s:2551   .text:0000000000000f50 .LVL290
     /tmp/cc7kAHCC.s:2556   .text:0000000000000f5c .LVL292
     /tmp/cc7kAHCC.s:2561   .text:0000000000000f64 .LVL293
     /tmp/cc7kAHCC.s:2513   .text:0000000000000f0c .LVL282
     /tmp/cc7kAHCC.s:2344   .text:0000000000000ddc .LVL255
     /tmp/cc7kAHCC.s:2364   .text:0000000000000e0c .LVL257
     /tmp/cc7kAHCC.s:2366   .text:0000000000000e10 .LVL258
     /tmp/cc7kAHCC.s:2402   .text:0000000000000e50 .LVL260
     /tmp/cc7kAHCC.s:2420   .text:0000000000000e70 .LVL263
     /tmp/cc7kAHCC.s:2199   .text:0000000000000cd0 .LVL235
     /tmp/cc7kAHCC.s:2203   .text:0000000000000cd4 .LVL236
     /tmp/cc7kAHCC.s:2211   .text:0000000000000ce8 .LVL238
     /tmp/cc7kAHCC.s:2228   .text:0000000000000d04 .LVL240
     /tmp/cc7kAHCC.s:2235   .text:0000000000000d10 .LVL241
     /tmp/cc7kAHCC.s:2253   .text:0000000000000d3c .LVL245
     /tmp/cc7kAHCC.s:2245   .text:0000000000000d2c .LVL242
     /tmp/cc7kAHCC.s:2249   .text:0000000000000d30 .LVL243
     /tmp/cc7kAHCC.s:2266   .text:0000000000000d54 .LVL247
     /tmp/cc7kAHCC.s:2283   .text:0000000000000d84 .LVL251
     /tmp/cc7kAHCC.s:2288   .text:0000000000000d8c .LVL252
     /tmp/cc7kAHCC.s:2029   .text:0000000000000b88 .LVL204
     /tmp/cc7kAHCC.s:2141   .text:0000000000000c74 .LVL229
     /tmp/cc7kAHCC.s:2040   .text:0000000000000ba0 .LVL206
     /tmp/cc7kAHCC.s:2044   .text:0000000000000ba4 .LVL207
     /tmp/cc7kAHCC.s:2144   .text:0000000000000c78 .LVL230
     /tmp/cc7kAHCC.s:2048   .text:0000000000000bb0 .LVL209
     /tmp/cc7kAHCC.s:2052   .text:0000000000000bb4 .LVL210
GAS LISTING /tmp/cc7kAHCC.s 			page 110


     /tmp/cc7kAHCC.s:2147   .text:0000000000000c7c .LVL231
     /tmp/cc7kAHCC.s:2056   .text:0000000000000bc0 .LVL212
     /tmp/cc7kAHCC.s:2060   .text:0000000000000bc4 .LVL213
     /tmp/cc7kAHCC.s:2150   .text:0000000000000c80 .LVL232
     /tmp/cc7kAHCC.s:2065   .text:0000000000000bd4 .LVL215
     /tmp/cc7kAHCC.s:2069   .text:0000000000000bd8 .LVL216
     /tmp/cc7kAHCC.s:2153   .text:0000000000000c84 .LVL233
     /tmp/cc7kAHCC.s:2086   .text:0000000000000bfc .LVL218
     /tmp/cc7kAHCC.s:2123   .text:0000000000000c58 .LVL226
     /tmp/cc7kAHCC.s:2128   .text:0000000000000c60 .LVL227
     /tmp/cc7kAHCC.s:298    .text:000000000000016c .LVL26
     /tmp/cc7kAHCC.s:314    .text:0000000000000184 .LVL28
     /tmp/cc7kAHCC.s:310    .text:0000000000000180 .LVL27
     /tmp/cc7kAHCC.s:334    .text:00000000000001b8 .LVL31
     /tmp/cc7kAHCC.s:336    .text:00000000000001bc .LVL32
     /tmp/cc7kAHCC.s:347    .text:00000000000001c8 .LVL33
     /tmp/cc7kAHCC.s:1842   .text:0000000000000a88 .LVL192
     /tmp/cc7kAHCC.s:1869   .text:0000000000000ac0 .LVL194
     /tmp/cc7kAHCC.s:638    .text._ZN14PeriodicThreadD0Ev:0000000000000000 .LVL58
     /tmp/cc7kAHCC.s:670    .text._ZN14PeriodicThreadD0Ev:0000000000000044 .LVL62
     /tmp/cc7kAHCC.s:650    .text._ZN14PeriodicThreadD0Ev:0000000000000018 .LVL59
     /tmp/cc7kAHCC.s:601    .text._ZN14PeriodicThreadD2Ev:0000000000000000 .LVL56
     /tmp/cc7kAHCC.s:1686   .text:0000000000000970 .LVL170
     /tmp/cc7kAHCC.s:1820   .text:0000000000000a70 .LVL189
     /tmp/cc7kAHCC.s:1824   .text:0000000000000a74 .LVL190
     /tmp/cc7kAHCC.s:1638   .text:0000000000000918 .LVL165
     /tmp/cc7kAHCC.s:1681   .text:000000000000096c .LVL169
     /tmp/cc7kAHCC.s:1696   .text:0000000000000978 .LVL171
     /tmp/cc7kAHCC.s:1731   .text:00000000000009c8 .LVL175
     /tmp/cc7kAHCC.s:1734   .text:00000000000009cc .LVL176
     /tmp/cc7kAHCC.s:1759   .text:00000000000009f8 .LVL180
     /tmp/cc7kAHCC.s:1714   .text:00000000000009a0 .LVL173
     /tmp/cc7kAHCC.s:1740   .text:00000000000009d4 .LVL177
     /tmp/cc7kAHCC.s:1792   .text:0000000000000a40 .LVL184
     /tmp/cc7kAHCC.s:1795   .text:0000000000000a44 .LVL185
     /tmp/cc7kAHCC.s:1778   .text:0000000000000a20 .LVL182
     /tmp/cc7kAHCC.s:1801   .text:0000000000000a4c .LVL186
     /tmp/cc7kAHCC.s:1566   .text:00000000000008a8 .LVL157
     /tmp/cc7kAHCC.s:1574   .text:00000000000008bc .LVL159
     /tmp/cc7kAHCC.s:1588   .text:00000000000008d4 .LVL161
     /tmp/cc7kAHCC.s:1594   .text:00000000000008dc .LVL162
     /tmp/cc7kAHCC.s:1440   .text:00000000000007d4 .LVL141
     /tmp/cc7kAHCC.s:1493   .text:0000000000000830 .LVL149
     /tmp/cc7kAHCC.s:1517   .text:000000000000085c .LVL152
     /tmp/cc7kAHCC.s:1521   .text:0000000000000864 .LVL153
     /tmp/cc7kAHCC.s:1512   .text:0000000000000854 .LVL151
     /tmp/cc7kAHCC.s:1459   .text:00000000000007e8 .LVL144
     /tmp/cc7kAHCC.s:1473   .text:0000000000000804 .LVL146
     /tmp/cc7kAHCC.s:1356   .text:0000000000000754 .LVL132
     /tmp/cc7kAHCC.s:1360   .text:0000000000000758 .LVL133
     /tmp/cc7kAHCC.s:1368   .text:000000000000076c .LVL135
     /tmp/cc7kAHCC.s:1382   .text:0000000000000784 .LVL137
     /tmp/cc7kAHCC.s:1388   .text:000000000000078c .LVL138
     /tmp/cc7kAHCC.s:1157   .text:00000000000005e4 .LVL108
     /tmp/cc7kAHCC.s:1198   .text:0000000000000634 .LVL112
     /tmp/cc7kAHCC.s:1204   .text:0000000000000638 .LVL113
     /tmp/cc7kAHCC.s:1224   .text:0000000000000660 .LVL115
GAS LISTING /tmp/cc7kAHCC.s 			page 111


     /tmp/cc7kAHCC.s:1227   .text:0000000000000664 .LVL116
     /tmp/cc7kAHCC.s:1244   .text:000000000000067c .LVL119
     /tmp/cc7kAHCC.s:1233   .text:000000000000066c .LVL117
     /tmp/cc7kAHCC.s:1246   .text:0000000000000680 .LVL120
     /tmp/cc7kAHCC.s:1280   .text:00000000000006c4 .LVL124
     /tmp/cc7kAHCC.s:1299   .text:00000000000006ec .LVL126
     /tmp/cc7kAHCC.s:1301   .text:00000000000006f0 .LVL127
     /tmp/cc7kAHCC.s:1307   .text:00000000000006f8 .LVL128
     /tmp/cc7kAHCC.s:1923   .text:0000000000000b0c .LVL198
     /tmp/cc7kAHCC.s:974    .text:00000000000004dc .LVL90
     /tmp/cc7kAHCC.s:994    .text:000000000000050c .LVL94
     /tmp/cc7kAHCC.s:1030   .text:0000000000000558 .LVL100
     /tmp/cc7kAHCC.s:822    .text:00000000000003f4 .LVL75
     /tmp/cc7kAHCC.s:858    .text:0000000000000440 .LVL81
     /tmp/cc7kAHCC.s:361    .text:00000000000001d0 .LVL34
     /tmp/cc7kAHCC.s:375    .text:00000000000001ec .LVL35
     /tmp/cc7kAHCC.s:384    .text:00000000000001fc .LVL37
     /tmp/cc7kAHCC.s:445    .text:000000000000027c .LVL44
     /tmp/cc7kAHCC.s:210    .text:00000000000000cc .LVL16
     /tmp/cc7kAHCC.s:224    .text:00000000000000e8 .LVL17
     /tmp/cc7kAHCC.s:233    .text:00000000000000f8 .LVL19
     /tmp/cc7kAHCC.s:284    .text:0000000000000164 .LVL25
     /tmp/cc7kAHCC.s:114    .text:000000000000002c .LVL6
     /tmp/cc7kAHCC.s:128    .text:0000000000000048 .LVL7
     /tmp/cc7kAHCC.s:137    .text:0000000000000058 .LVL9
     /tmp/cc7kAHCC.s:188    .text:00000000000000c4 .LVL15
     /tmp/cc7kAHCC.s:70     .text:0000000000000000 .LVL2
     /tmp/cc7kAHCC.s:79     .text:0000000000000010 .LVL3
     /tmp/cc7kAHCC.s:2948   .debug_info:0000000000000000 .Ldebug_info0
     /tmp/cc7kAHCC.s:5      .text:0000000000000000 .Ltext0
     /tmp/cc7kAHCC.s:2940   .text:0000000000001174 .Letext0
     /tmp/cc7kAHCC.s:1209   .text:0000000000000640 .LBB28
     /tmp/cc7kAHCC.s:1220   .text:000000000000065c .LBE28
     /tmp/cc7kAHCC.s:1229   .text:0000000000000664 .LBB29
     /tmp/cc7kAHCC.s:1239   .text:0000000000000678 .LBE29
     /tmp/cc7kAHCC.s:1285   .text:00000000000006cc .LBB32
     /tmp/cc7kAHCC.s:1296   .text:00000000000006e8 .LBE32
     /tmp/cc7kAHCC.s:1303   .text:00000000000006f0 .LBB33
     /tmp/cc7kAHCC.s:1313   .text:0000000000000704 .LBE33
     /tmp/cc7kAHCC.s:1431   .text:00000000000007c4 .LBB34
     /tmp/cc7kAHCC.s:1434   .text:00000000000007c8 .LBE34
     /tmp/cc7kAHCC.s:1442   .text:00000000000007d4 .LBB37
     /tmp/cc7kAHCC.s:1476   .text:0000000000000804 .LBE37
     /tmp/cc7kAHCC.s:1443   .text:00000000000007d4 .LBB35
     /tmp/cc7kAHCC.s:1456   .text:00000000000007e4 .LBE35
     /tmp/cc7kAHCC.s:1465   .text:00000000000007f4 .LBB36
     /tmp/cc7kAHCC.s:1475   .text:0000000000000804 .LBE36
     /tmp/cc7kAHCC.s:1700   .text:0000000000000980 .LBB41
     /tmp/cc7kAHCC.s:1727   .text:00000000000009c4 .LBE41
     /tmp/cc7kAHCC.s:1736   .text:00000000000009cc .LBB42
     /tmp/cc7kAHCC.s:1754   .text:00000000000009f4 .LBE42
     /tmp/cc7kAHCC.s:1764   .text:0000000000000a00 .LBB44
     /tmp/cc7kAHCC.s:1788   .text:0000000000000a3c .LBE44
     /tmp/cc7kAHCC.s:1797   .text:0000000000000a44 .LBB45
     /tmp/cc7kAHCC.s:1815   .text:0000000000000a6c .LBE45
     /tmp/cc7kAHCC.s:2521   .text:0000000000000f18 .LBB48
     /tmp/cc7kAHCC.s:2527   .text:0000000000000f20 .LBE48
GAS LISTING /tmp/cc7kAHCC.s 			page 112


     /tmp/cc7kAHCC.s:2568   .text:0000000000000f70 .LBB49
     /tmp/cc7kAHCC.s:2590   .text:0000000000000f9c .LBE49
     /tmp/cc7kAHCC.s:891    .gcc_except_table:0000000000000000 .LLSDA30
     /tmp/cc7kAHCC.s:1073   .gcc_except_table:000000000000005f .LLSDA31
     /tmp/cc7kAHCC.s:1938   .gcc_except_table:00000000000000e6 .LLSDA32
                           .group:0000000000000000 _ZN14PeriodicThreadD5Ev
                           .group:0000000000000000 _ZN12TestPeriodicD5Ev

UNDEFINED SYMBOLS
_Z11printStringPKc
thread_dispatch
_Z8printIntiii
thread_exit
sem_wait
__putc
sem_signal
_ZN6ThreadD2Ev
_ZdlPv
_Znwm
_ZN6ThreadC1EPFvPvES0_
_ZN6Thread5startEv
_ZN5Riscv16enableInterruptsEv
_ZN5Riscv17disableInterruptsEv
_Unwind_Resume
__gxx_personality_v0
mem_alloc
mem_free
HEAP_END_ADDR
HEAP_START_ADDR
_ZN14PeriodicThreadC2Em
sem_open
thread_create
_ZN3PCB10isFinishedEv
getc
