GAS LISTING /tmp/ccex7J6t.s 			page 1


   1              		.file	"buffer.cpp"
   2              		.option pic
   3              		.option norelax
   4              		.text
   5              	.Ltext0:
   6              		.align	2
   7              		.globl	_ZN6BufferC2Ei
   9              	_ZN6BufferC2Ei:
  10              	.LFB1:
  11              		.file 1 "test/buffer.cpp"
   1:test/buffer.cpp **** #include "buffer.hpp"
   2:test/buffer.cpp **** #include "../h/syscall_c.h"
   3:test/buffer.cpp **** 
   4:test/buffer.cpp **** Buffer::Buffer(int _cap) : cap(_cap), head(0), tail(0) {
  12              		.loc 1 4 1
  13              		.cfi_startproc
  14              	.LVL0:
  15 0000 130101FE 		addi	sp,sp,-32
  16              		.cfi_def_cfa_offset 32
  17 0004 233C1100 		sd	ra,24(sp)
  18 0008 23388100 		sd	s0,16(sp)
  19 000c 23349100 		sd	s1,8(sp)
  20              		.cfi_offset 1, -8
  21              		.cfi_offset 8, -16
  22              		.cfi_offset 9, -24
  23 0010 13040102 		addi	s0,sp,32
  24              		.cfi_def_cfa 8, 0
  25 0014 93040500 		mv	s1,a0
  26              	.LBB2:
  27              		.loc 1 4 54 is_stmt 0
  28 0018 2320B500 		sw	a1,0(a0)
  29 001c 23280500 		sw	zero,16(a0)
  30 0020 232A0500 		sw	zero,20(a0)
   5:test/buffer.cpp ****     buffer = (int *)mem_alloc(sizeof(int) * cap);
  31              		.loc 1 5 5 is_stmt 1
  32              		.loc 1 5 30 is_stmt 0
  33 0024 13952500 		slli	a0,a1,2
  34              	.LVL1:
  35 0028 97000000 		call	mem_alloc@plt
  35      E7800000 
  36              	.LVL2:
  37              		.loc 1 5 12
  38 0030 23B4A400 		sd	a0,8(s1)
   6:test/buffer.cpp ****     sem_open(&itemAvailable, 0);
  39              		.loc 1 6 5 is_stmt 1
  40              		.loc 1 6 13 is_stmt 0
  41 0034 93050000 		li	a1,0
  42 0038 13850402 		addi	a0,s1,32
  43 003c 97000000 		call	sem_open@plt
  43      E7800000 
  44              	.LVL3:
   7:test/buffer.cpp ****     sem_open(&spaceAvailable, cap);
  45              		.loc 1 7 5 is_stmt 1
  46              		.loc 1 7 13 is_stmt 0
  47 0044 83A50400 		lw	a1,0(s1)
  48 0048 13858401 		addi	a0,s1,24
  49 004c 97000000 		call	sem_open@plt
GAS LISTING /tmp/ccex7J6t.s 			page 2


  49      E7800000 
  50              	.LVL4:
   8:test/buffer.cpp ****     sem_open(&mutexHead, 1);
  51              		.loc 1 8 5 is_stmt 1
  52              		.loc 1 8 13 is_stmt 0
  53 0054 93051000 		li	a1,1
  54 0058 13858402 		addi	a0,s1,40
  55 005c 97000000 		call	sem_open@plt
  55      E7800000 
  56              	.LVL5:
   9:test/buffer.cpp ****     sem_open(&mutexTail, 1);
  57              		.loc 1 9 5 is_stmt 1
  58              		.loc 1 9 13 is_stmt 0
  59 0064 93051000 		li	a1,1
  60 0068 13850403 		addi	a0,s1,48
  61 006c 97000000 		call	sem_open@plt
  61      E7800000 
  62              	.LVL6:
  63              	.LBE2:
  10:test/buffer.cpp **** }
  64              		.loc 1 10 1
  65 0074 83308101 		ld	ra,24(sp)
  66              		.cfi_restore 1
  67 0078 03340101 		ld	s0,16(sp)
  68              		.cfi_restore 8
  69              		.cfi_def_cfa 2, 32
  70 007c 83348100 		ld	s1,8(sp)
  71              		.cfi_restore 9
  72              	.LVL7:
  73 0080 13010102 		addi	sp,sp,32
  74              		.cfi_def_cfa_offset 0
  75 0084 67800000 		jr	ra
  76              		.cfi_endproc
  77              	.LFE1:
  79              		.globl	_ZN6BufferC1Ei
  80              		.set	_ZN6BufferC1Ei,_ZN6BufferC2Ei
  81              		.section	.rodata.str1.8,"aMS",@progbits,1
  82              		.align	3
  83              	.LC0:
  84 0000 42756666 		.string	"Buffer deleted!\n"
  84      65722064 
  84      656C6574 
  84      6564210A 
  84      00
  85              		.text
  86              		.align	2
  87              		.globl	_ZN6BufferD2Ev
  89              	_ZN6BufferD2Ev:
  90              	.LFB4:
  11:test/buffer.cpp **** 
  12:test/buffer.cpp **** Buffer::~Buffer() {
  91              		.loc 1 12 1 is_stmt 1
  92              		.cfi_startproc
  93              		.cfi_personality 0x9b,DW.ref.__gxx_personality_v0
  94              		.cfi_lsda 0x1b,.LLSDA4
  95              	.LVL8:
  96 0088 130101FE 		addi	sp,sp,-32
GAS LISTING /tmp/ccex7J6t.s 			page 3


  97              		.cfi_def_cfa_offset 32
  98 008c 233C1100 		sd	ra,24(sp)
  99 0090 23388100 		sd	s0,16(sp)
 100 0094 23349100 		sd	s1,8(sp)
 101              		.cfi_offset 1, -8
 102              		.cfi_offset 8, -16
 103              		.cfi_offset 9, -24
 104 0098 13040102 		addi	s0,sp,32
 105              		.cfi_def_cfa 8, 0
 106 009c 93040500 		mv	s1,a0
 107              	.LBB3:
  13:test/buffer.cpp ****     putc('\n');
 108              		.loc 1 13 5
 109              		.loc 1 13 9 is_stmt 0
 110 00a0 1305A000 		li	a0,10
 111              	.LVL9:
 112 00a4 97000000 		call	putc@plt
 112      E7800000 
 113              	.LVL10:
  14:test/buffer.cpp ****     //todo
  15:test/buffer.cpp ****     //placeholder
  16:test/buffer.cpp ****     printString("Buffer deleted!\n");
 114              		.loc 1 16 5 is_stmt 1
 115              		.loc 1 16 16 is_stmt 0
 116 00ac 17050000 		lla	a0,.LC0
 116      13050500 
 117 00b4 97000000 		call	_Z11printStringPKc@plt
 117      E7800000 
 118              	.LVL11:
 119              	.L5:
  17:test/buffer.cpp ****     while (head != tail) {
 120              		.loc 1 17 5 is_stmt 1
 121              		.loc 1 17 17
 122              		.loc 1 17 12 is_stmt 0
 123 00bc 83A70401 		lw	a5,16(s1)
 124              		.loc 1 17 20
 125 00c0 03A74401 		lw	a4,20(s1)
 126              		.loc 1 17 17
 127 00c4 638CE700 		beq	a5,a4,.L4
  18:test/buffer.cpp ****         //todo
  19:test/buffer.cpp ****         //placeholder
  20:test/buffer.cpp ****         //printf("%c ", buffer[head]);
  21:test/buffer.cpp ****         head = (head + 1) % cap;
 128              		.loc 1 21 9 is_stmt 1
 129              		.loc 1 21 22 is_stmt 0
 130 00c8 9B871700 		addiw	a5,a5,1
 131              		.loc 1 21 29
 132 00cc 03A70400 		lw	a4,0(s1)
 133              		.loc 1 21 27
 134 00d0 BBE7E702 		remw	a5,a5,a4
 135              		.loc 1 21 14
 136 00d4 23A8F400 		sw	a5,16(s1)
  17:test/buffer.cpp ****     while (head != tail) {
 137              		.loc 1 17 5
 138 00d8 6FF05FFE 		j	.L5
 139              	.L4:
  22:test/buffer.cpp ****     }
GAS LISTING /tmp/ccex7J6t.s 			page 4


  23:test/buffer.cpp ****     putc('!');
 140              		.loc 1 23 5 is_stmt 1
 141              		.loc 1 23 9 is_stmt 0
 142 00dc 13051002 		li	a0,33
 143 00e0 97000000 		call	putc@plt
 143      E7800000 
 144              	.LVL12:
  24:test/buffer.cpp ****     putc('\n');
 145              		.loc 1 24 5 is_stmt 1
 146              		.loc 1 24 9 is_stmt 0
 147 00e8 1305A000 		li	a0,10
 148 00ec 97000000 		call	putc@plt
 148      E7800000 
 149              	.LVL13:
  25:test/buffer.cpp **** 
  26:test/buffer.cpp ****     mem_free(buffer);
 150              		.loc 1 26 5 is_stmt 1
 151              		.loc 1 26 13 is_stmt 0
 152 00f4 03B58400 		ld	a0,8(s1)
 153 00f8 97000000 		call	mem_free@plt
 153      E7800000 
 154              	.LVL14:
  27:test/buffer.cpp ****     sem_close(itemAvailable);
 155              		.loc 1 27 5 is_stmt 1
 156              		.loc 1 27 14 is_stmt 0
 157 0100 03B50402 		ld	a0,32(s1)
 158 0104 97000000 		call	sem_close@plt
 158      E7800000 
 159              	.LVL15:
  28:test/buffer.cpp ****     sem_close(spaceAvailable);
 160              		.loc 1 28 5 is_stmt 1
 161              		.loc 1 28 14 is_stmt 0
 162 010c 03B58401 		ld	a0,24(s1)
 163 0110 97000000 		call	sem_close@plt
 163      E7800000 
 164              	.LVL16:
  29:test/buffer.cpp ****     sem_close(mutexTail);
 165              		.loc 1 29 5 is_stmt 1
 166              		.loc 1 29 14 is_stmt 0
 167 0118 03B50403 		ld	a0,48(s1)
 168 011c 97000000 		call	sem_close@plt
 168      E7800000 
 169              	.LVL17:
  30:test/buffer.cpp ****     sem_close(mutexHead);
 170              		.loc 1 30 5 is_stmt 1
 171              		.loc 1 30 14 is_stmt 0
 172 0124 03B58402 		ld	a0,40(s1)
 173 0128 97000000 		call	sem_close@plt
 173      E7800000 
 174              	.LVL18:
 175              	.LBE3:
  31:test/buffer.cpp **** }
 176              		.loc 1 31 1
 177 0130 83308101 		ld	ra,24(sp)
 178              		.cfi_restore 1
 179 0134 03340101 		ld	s0,16(sp)
 180              		.cfi_restore 8
GAS LISTING /tmp/ccex7J6t.s 			page 5


 181              		.cfi_def_cfa 2, 32
 182 0138 83348100 		ld	s1,8(sp)
 183              		.cfi_restore 9
 184              	.LVL19:
 185 013c 13010102 		addi	sp,sp,32
 186              		.cfi_def_cfa_offset 0
 187 0140 67800000 		jr	ra
 188              		.cfi_endproc
 189              	.LFE4:
 190              		.globl	__gxx_personality_v0
 191              		.section	.gcc_except_table,"a",@progbits
 192              	.LLSDA4:
 193 0000 FF       		.byte	0xff
 194 0001 FF       		.byte	0xff
 195 0002 03       		.byte	0x3
 196 0003 00       		.byte	0
 197              		.text
 199              		.globl	_ZN6BufferD1Ev
 200              		.set	_ZN6BufferD1Ev,_ZN6BufferD2Ev
 201              		.align	2
 202              		.globl	_ZN6Buffer3putEi
 204              	_ZN6Buffer3putEi:
 205              	.LFB6:
  32:test/buffer.cpp **** 
  33:test/buffer.cpp **** void Buffer::put(int val) {
 206              		.loc 1 33 27 is_stmt 1
 207              		.cfi_startproc
 208              	.LVL20:
 209 0144 130101FE 		addi	sp,sp,-32
 210              		.cfi_def_cfa_offset 32
 211 0148 233C1100 		sd	ra,24(sp)
 212 014c 23388100 		sd	s0,16(sp)
 213 0150 23349100 		sd	s1,8(sp)
 214 0154 23302101 		sd	s2,0(sp)
 215              		.cfi_offset 1, -8
 216              		.cfi_offset 8, -16
 217              		.cfi_offset 9, -24
 218              		.cfi_offset 18, -32
 219 0158 13040102 		addi	s0,sp,32
 220              		.cfi_def_cfa 8, 0
 221 015c 93040500 		mv	s1,a0
 222 0160 13890500 		mv	s2,a1
  34:test/buffer.cpp ****     sem_wait(spaceAvailable);
 223              		.loc 1 34 5
 224              		.loc 1 34 13 is_stmt 0
 225 0164 03358501 		ld	a0,24(a0)
 226              	.LVL21:
 227 0168 97000000 		call	sem_wait@plt
 227      E7800000 
 228              	.LVL22:
  35:test/buffer.cpp **** 
  36:test/buffer.cpp ****     sem_wait(mutexTail);
 229              		.loc 1 36 5 is_stmt 1
 230              		.loc 1 36 13 is_stmt 0
 231 0170 03B50403 		ld	a0,48(s1)
 232 0174 97000000 		call	sem_wait@plt
 232      E7800000 
GAS LISTING /tmp/ccex7J6t.s 			page 6


 233              	.LVL23:
  37:test/buffer.cpp ****     buffer[tail] = val;
 234              		.loc 1 37 5 is_stmt 1
 235 017c 83B78400 		ld	a5,8(s1)
 236              		.loc 1 37 12 is_stmt 0
 237 0180 03A74401 		lw	a4,20(s1)
 238              		.loc 1 37 16
 239 0184 13172700 		slli	a4,a4,2
 240 0188 B387E700 		add	a5,a5,a4
 241              		.loc 1 37 18
 242 018c 23A02701 		sw	s2,0(a5)
  38:test/buffer.cpp ****     tail = (tail + 1) % cap;
 243              		.loc 1 38 5 is_stmt 1
 244              		.loc 1 38 13 is_stmt 0
 245 0190 83A74401 		lw	a5,20(s1)
 246              		.loc 1 38 18
 247 0194 9B871700 		addiw	a5,a5,1
 248              		.loc 1 38 25
 249 0198 03A70400 		lw	a4,0(s1)
 250              		.loc 1 38 23
 251 019c BBE7E702 		remw	a5,a5,a4
 252              		.loc 1 38 10
 253 01a0 23AAF400 		sw	a5,20(s1)
  39:test/buffer.cpp ****     sem_signal(mutexTail);
 254              		.loc 1 39 5 is_stmt 1
 255              		.loc 1 39 15 is_stmt 0
 256 01a4 03B50403 		ld	a0,48(s1)
 257 01a8 97000000 		call	sem_signal@plt
 257      E7800000 
 258              	.LVL24:
  40:test/buffer.cpp **** 
  41:test/buffer.cpp ****     sem_signal(itemAvailable);
 259              		.loc 1 41 5 is_stmt 1
 260              		.loc 1 41 15 is_stmt 0
 261 01b0 03B50402 		ld	a0,32(s1)
 262 01b4 97000000 		call	sem_signal@plt
 262      E7800000 
 263              	.LVL25:
  42:test/buffer.cpp **** 
  43:test/buffer.cpp **** }
 264              		.loc 1 43 1
 265 01bc 83308101 		ld	ra,24(sp)
 266              		.cfi_restore 1
 267 01c0 03340101 		ld	s0,16(sp)
 268              		.cfi_restore 8
 269              		.cfi_def_cfa 2, 32
 270 01c4 83348100 		ld	s1,8(sp)
 271              		.cfi_restore 9
 272              	.LVL26:
 273 01c8 03390100 		ld	s2,0(sp)
 274              		.cfi_restore 18
 275 01cc 13010102 		addi	sp,sp,32
 276              		.cfi_def_cfa_offset 0
 277 01d0 67800000 		jr	ra
 278              		.cfi_endproc
 279              	.LFE6:
 281              		.align	2
GAS LISTING /tmp/ccex7J6t.s 			page 7


 282              		.globl	_ZN6Buffer3getEv
 284              	_ZN6Buffer3getEv:
 285              	.LFB7:
  44:test/buffer.cpp **** 
  45:test/buffer.cpp **** int Buffer::get() {
 286              		.loc 1 45 19 is_stmt 1
 287              		.cfi_startproc
 288              	.LVL27:
 289 01d4 130101FE 		addi	sp,sp,-32
 290              		.cfi_def_cfa_offset 32
 291 01d8 233C1100 		sd	ra,24(sp)
 292 01dc 23388100 		sd	s0,16(sp)
 293 01e0 23349100 		sd	s1,8(sp)
 294 01e4 23302101 		sd	s2,0(sp)
 295              		.cfi_offset 1, -8
 296              		.cfi_offset 8, -16
 297              		.cfi_offset 9, -24
 298              		.cfi_offset 18, -32
 299 01e8 13040102 		addi	s0,sp,32
 300              		.cfi_def_cfa 8, 0
 301 01ec 93040500 		mv	s1,a0
  46:test/buffer.cpp ****     sem_wait(itemAvailable);
 302              		.loc 1 46 5
 303              		.loc 1 46 13 is_stmt 0
 304 01f0 03350502 		ld	a0,32(a0)
 305              	.LVL28:
 306 01f4 97000000 		call	sem_wait@plt
 306      E7800000 
 307              	.LVL29:
  47:test/buffer.cpp **** 
  48:test/buffer.cpp ****     sem_wait(mutexHead);
 308              		.loc 1 48 5 is_stmt 1
 309              		.loc 1 48 13 is_stmt 0
 310 01fc 03B58402 		ld	a0,40(s1)
 311 0200 97000000 		call	sem_wait@plt
 311      E7800000 
 312              	.LVL30:
  49:test/buffer.cpp **** 
  50:test/buffer.cpp ****     int ret = buffer[head];
 313              		.loc 1 50 5 is_stmt 1
 314              		.loc 1 50 15 is_stmt 0
 315 0208 03B78400 		ld	a4,8(s1)
 316              		.loc 1 50 22
 317 020c 83A70401 		lw	a5,16(s1)
 318              		.loc 1 50 26
 319 0210 93962700 		slli	a3,a5,2
 320 0214 3307D700 		add	a4,a4,a3
 321              		.loc 1 50 9
 322 0218 03290700 		lw	s2,0(a4)
 323              	.LVL31:
  51:test/buffer.cpp ****     head = (head + 1) % cap;
 324              		.loc 1 51 5 is_stmt 1
 325              		.loc 1 51 18 is_stmt 0
 326 021c 9B871700 		addiw	a5,a5,1
 327              		.loc 1 51 25
 328 0220 03A70400 		lw	a4,0(s1)
 329              		.loc 1 51 23
GAS LISTING /tmp/ccex7J6t.s 			page 8


 330 0224 BBE7E702 		remw	a5,a5,a4
 331              		.loc 1 51 10
 332 0228 23A8F400 		sw	a5,16(s1)
  52:test/buffer.cpp ****     sem_signal(mutexHead);
 333              		.loc 1 52 5 is_stmt 1
 334              		.loc 1 52 15 is_stmt 0
 335 022c 03B58402 		ld	a0,40(s1)
 336 0230 97000000 		call	sem_signal@plt
 336      E7800000 
 337              	.LVL32:
  53:test/buffer.cpp **** 
  54:test/buffer.cpp ****     sem_signal(spaceAvailable);
 338              		.loc 1 54 5 is_stmt 1
 339              		.loc 1 54 15 is_stmt 0
 340 0238 03B58401 		ld	a0,24(s1)
 341 023c 97000000 		call	sem_signal@plt
 341      E7800000 
 342              	.LVL33:
  55:test/buffer.cpp **** 
  56:test/buffer.cpp ****     return ret;
 343              		.loc 1 56 5 is_stmt 1
  57:test/buffer.cpp **** }
 344              		.loc 1 57 1 is_stmt 0
 345 0244 13050900 		mv	a0,s2
 346 0248 83308101 		ld	ra,24(sp)
 347              		.cfi_restore 1
 348 024c 03340101 		ld	s0,16(sp)
 349              		.cfi_restore 8
 350              		.cfi_def_cfa 2, 32
 351 0250 83348100 		ld	s1,8(sp)
 352              		.cfi_restore 9
 353              	.LVL34:
 354 0254 03390100 		ld	s2,0(sp)
 355              		.cfi_restore 18
 356              	.LVL35:
 357 0258 13010102 		addi	sp,sp,32
 358              		.cfi_def_cfa_offset 0
 359 025c 67800000 		jr	ra
 360              		.cfi_endproc
 361              	.LFE7:
 363              	.Letext0:
 364              		.file 2 "test/../h/../lib/hw.h"
 365              		.file 3 "test/../h/syscall_c.h"
 366              		.file 4 "test/buffer.hpp"
 367              		.file 5 "test/printing.hpp"
 1642              		.align	3
 1645              	DW.ref.__gxx_personality_v0:
 1646 0000 00000000 		.dword	__gxx_personality_v0
 1646      00000000 
 1647              		.ident	"GCC: (Ubuntu 9.3.0-17ubuntu1~20.04) 9.3.0"
 1648              		.section	.note.GNU-stack,"",@progbits
GAS LISTING /tmp/ccex7J6t.s 			page 9


DEFINED SYMBOLS
                            *ABS*:0000000000000000 buffer.cpp
     /tmp/ccex7J6t.s:9      .text:0000000000000000 _ZN6BufferC2Ei
     /tmp/ccex7J6t.s:13     .text:0000000000000000 .L0 
     /tmp/ccex7J6t.s:15     .text:0000000000000000 .L0 
     /tmp/ccex7J6t.s:16     .text:0000000000000004 .L0 
     /tmp/ccex7J6t.s:20     .text:0000000000000010 .L0 
     /tmp/ccex7J6t.s:21     .text:0000000000000010 .L0 
     /tmp/ccex7J6t.s:22     .text:0000000000000010 .L0 
     /tmp/ccex7J6t.s:24     .text:0000000000000014 .L0 
     /tmp/ccex7J6t.s:28     .text:0000000000000018 .L0 
     /tmp/ccex7J6t.s:32     .text:0000000000000024 .L0 
     /tmp/ccex7J6t.s:33     .text:0000000000000024 .L0 
     /tmp/ccex7J6t.s:38     .text:0000000000000030 .L0 
     /tmp/ccex7J6t.s:40     .text:0000000000000034 .L0 
     /tmp/ccex7J6t.s:41     .text:0000000000000034 .L0 
     /tmp/ccex7J6t.s:46     .text:0000000000000044 .L0 
     /tmp/ccex7J6t.s:47     .text:0000000000000044 .L0 
     /tmp/ccex7J6t.s:52     .text:0000000000000054 .L0 
     /tmp/ccex7J6t.s:53     .text:0000000000000054 .L0 
     /tmp/ccex7J6t.s:58     .text:0000000000000064 .L0 
     /tmp/ccex7J6t.s:59     .text:0000000000000064 .L0 
     /tmp/ccex7J6t.s:65     .text:0000000000000074 .L0 
     /tmp/ccex7J6t.s:66     .text:0000000000000078 .L0 
     /tmp/ccex7J6t.s:68     .text:000000000000007c .L0 
     /tmp/ccex7J6t.s:69     .text:000000000000007c .L0 
     /tmp/ccex7J6t.s:71     .text:0000000000000080 .L0 
     /tmp/ccex7J6t.s:74     .text:0000000000000084 .L0 
     /tmp/ccex7J6t.s:76     .text:0000000000000088 .L0 
     /tmp/ccex7J6t.s:9      .text:0000000000000000 _ZN6BufferC1Ei
     /tmp/ccex7J6t.s:89     .text:0000000000000088 _ZN6BufferD2Ev
     /tmp/ccex7J6t.s:92     .text:0000000000000088 .L0 
     /tmp/ccex7J6t.s:1645   .data.rel.local.DW.ref.__gxx_personality_v0:0000000000000000 DW.ref.__gxx_personality_v0
     /tmp/ccex7J6t.s:96     .text:0000000000000088 .L0 
     /tmp/ccex7J6t.s:97     .text:000000000000008c .L0 
     /tmp/ccex7J6t.s:101    .text:0000000000000098 .L0 
     /tmp/ccex7J6t.s:102    .text:0000000000000098 .L0 
     /tmp/ccex7J6t.s:103    .text:0000000000000098 .L0 
     /tmp/ccex7J6t.s:105    .text:000000000000009c .L0 
     /tmp/ccex7J6t.s:109    .text:00000000000000a0 .L0 
     /tmp/ccex7J6t.s:110    .text:00000000000000a0 .L0 
     /tmp/ccex7J6t.s:115    .text:00000000000000ac .L0 
     /tmp/ccex7J6t.s:116    .text:00000000000000ac .L0 
     /tmp/ccex7J6t.s:121    .text:00000000000000bc .L0 
     /tmp/ccex7J6t.s:122    .text:00000000000000bc .L0 
     /tmp/ccex7J6t.s:123    .text:00000000000000bc .L0 
     /tmp/ccex7J6t.s:125    .text:00000000000000c0 .L0 
     /tmp/ccex7J6t.s:127    .text:00000000000000c4 .L0 
     /tmp/ccex7J6t.s:129    .text:00000000000000c8 .L0 
     /tmp/ccex7J6t.s:130    .text:00000000000000c8 .L0 
     /tmp/ccex7J6t.s:132    .text:00000000000000cc .L0 
     /tmp/ccex7J6t.s:134    .text:00000000000000d0 .L0 
     /tmp/ccex7J6t.s:136    .text:00000000000000d4 .L0 
     /tmp/ccex7J6t.s:138    .text:00000000000000d8 .L0 
     /tmp/ccex7J6t.s:141    .text:00000000000000dc .L0 
     /tmp/ccex7J6t.s:142    .text:00000000000000dc .L0 
     /tmp/ccex7J6t.s:146    .text:00000000000000e8 .L0 
GAS LISTING /tmp/ccex7J6t.s 			page 10


     /tmp/ccex7J6t.s:147    .text:00000000000000e8 .L0 
     /tmp/ccex7J6t.s:151    .text:00000000000000f4 .L0 
     /tmp/ccex7J6t.s:152    .text:00000000000000f4 .L0 
     /tmp/ccex7J6t.s:156    .text:0000000000000100 .L0 
     /tmp/ccex7J6t.s:157    .text:0000000000000100 .L0 
     /tmp/ccex7J6t.s:161    .text:000000000000010c .L0 
     /tmp/ccex7J6t.s:162    .text:000000000000010c .L0 
     /tmp/ccex7J6t.s:166    .text:0000000000000118 .L0 
     /tmp/ccex7J6t.s:167    .text:0000000000000118 .L0 
     /tmp/ccex7J6t.s:171    .text:0000000000000124 .L0 
     /tmp/ccex7J6t.s:172    .text:0000000000000124 .L0 
     /tmp/ccex7J6t.s:177    .text:0000000000000130 .L0 
     /tmp/ccex7J6t.s:178    .text:0000000000000134 .L0 
     /tmp/ccex7J6t.s:180    .text:0000000000000138 .L0 
     /tmp/ccex7J6t.s:181    .text:0000000000000138 .L0 
     /tmp/ccex7J6t.s:183    .text:000000000000013c .L0 
     /tmp/ccex7J6t.s:186    .text:0000000000000140 .L0 
     /tmp/ccex7J6t.s:188    .text:0000000000000144 .L0 
     /tmp/ccex7J6t.s:89     .text:0000000000000088 _ZN6BufferD1Ev
     /tmp/ccex7J6t.s:204    .text:0000000000000144 _ZN6Buffer3putEi
     /tmp/ccex7J6t.s:207    .text:0000000000000144 .L0 
     /tmp/ccex7J6t.s:209    .text:0000000000000144 .L0 
     /tmp/ccex7J6t.s:210    .text:0000000000000148 .L0 
     /tmp/ccex7J6t.s:215    .text:0000000000000158 .L0 
     /tmp/ccex7J6t.s:216    .text:0000000000000158 .L0 
     /tmp/ccex7J6t.s:217    .text:0000000000000158 .L0 
     /tmp/ccex7J6t.s:218    .text:0000000000000158 .L0 
     /tmp/ccex7J6t.s:220    .text:000000000000015c .L0 
     /tmp/ccex7J6t.s:224    .text:0000000000000164 .L0 
     /tmp/ccex7J6t.s:225    .text:0000000000000164 .L0 
     /tmp/ccex7J6t.s:230    .text:0000000000000170 .L0 
     /tmp/ccex7J6t.s:231    .text:0000000000000170 .L0 
     /tmp/ccex7J6t.s:235    .text:000000000000017c .L0 
     /tmp/ccex7J6t.s:237    .text:0000000000000180 .L0 
     /tmp/ccex7J6t.s:239    .text:0000000000000184 .L0 
     /tmp/ccex7J6t.s:242    .text:000000000000018c .L0 
     /tmp/ccex7J6t.s:244    .text:0000000000000190 .L0 
     /tmp/ccex7J6t.s:245    .text:0000000000000190 .L0 
     /tmp/ccex7J6t.s:247    .text:0000000000000194 .L0 
     /tmp/ccex7J6t.s:249    .text:0000000000000198 .L0 
     /tmp/ccex7J6t.s:251    .text:000000000000019c .L0 
     /tmp/ccex7J6t.s:253    .text:00000000000001a0 .L0 
     /tmp/ccex7J6t.s:255    .text:00000000000001a4 .L0 
     /tmp/ccex7J6t.s:256    .text:00000000000001a4 .L0 
     /tmp/ccex7J6t.s:260    .text:00000000000001b0 .L0 
     /tmp/ccex7J6t.s:261    .text:00000000000001b0 .L0 
     /tmp/ccex7J6t.s:265    .text:00000000000001bc .L0 
     /tmp/ccex7J6t.s:266    .text:00000000000001c0 .L0 
     /tmp/ccex7J6t.s:268    .text:00000000000001c4 .L0 
     /tmp/ccex7J6t.s:269    .text:00000000000001c4 .L0 
     /tmp/ccex7J6t.s:271    .text:00000000000001c8 .L0 
     /tmp/ccex7J6t.s:274    .text:00000000000001cc .L0 
     /tmp/ccex7J6t.s:276    .text:00000000000001d0 .L0 
     /tmp/ccex7J6t.s:278    .text:00000000000001d4 .L0 
     /tmp/ccex7J6t.s:284    .text:00000000000001d4 _ZN6Buffer3getEv
     /tmp/ccex7J6t.s:287    .text:00000000000001d4 .L0 
     /tmp/ccex7J6t.s:289    .text:00000000000001d4 .L0 
GAS LISTING /tmp/ccex7J6t.s 			page 11


     /tmp/ccex7J6t.s:290    .text:00000000000001d8 .L0 
     /tmp/ccex7J6t.s:295    .text:00000000000001e8 .L0 
     /tmp/ccex7J6t.s:296    .text:00000000000001e8 .L0 
     /tmp/ccex7J6t.s:297    .text:00000000000001e8 .L0 
     /tmp/ccex7J6t.s:298    .text:00000000000001e8 .L0 
     /tmp/ccex7J6t.s:300    .text:00000000000001ec .L0 
     /tmp/ccex7J6t.s:303    .text:00000000000001f0 .L0 
     /tmp/ccex7J6t.s:304    .text:00000000000001f0 .L0 
     /tmp/ccex7J6t.s:309    .text:00000000000001fc .L0 
     /tmp/ccex7J6t.s:310    .text:00000000000001fc .L0 
     /tmp/ccex7J6t.s:314    .text:0000000000000208 .L0 
     /tmp/ccex7J6t.s:315    .text:0000000000000208 .L0 
     /tmp/ccex7J6t.s:317    .text:000000000000020c .L0 
     /tmp/ccex7J6t.s:319    .text:0000000000000210 .L0 
     /tmp/ccex7J6t.s:322    .text:0000000000000218 .L0 
     /tmp/ccex7J6t.s:325    .text:000000000000021c .L0 
     /tmp/ccex7J6t.s:326    .text:000000000000021c .L0 
     /tmp/ccex7J6t.s:328    .text:0000000000000220 .L0 
     /tmp/ccex7J6t.s:330    .text:0000000000000224 .L0 
     /tmp/ccex7J6t.s:332    .text:0000000000000228 .L0 
     /tmp/ccex7J6t.s:334    .text:000000000000022c .L0 
     /tmp/ccex7J6t.s:335    .text:000000000000022c .L0 
     /tmp/ccex7J6t.s:339    .text:0000000000000238 .L0 
     /tmp/ccex7J6t.s:340    .text:0000000000000238 .L0 
     /tmp/ccex7J6t.s:344    .text:0000000000000244 .L0 
     /tmp/ccex7J6t.s:345    .text:0000000000000244 .L0 
     /tmp/ccex7J6t.s:347    .text:000000000000024c .L0 
     /tmp/ccex7J6t.s:349    .text:0000000000000250 .L0 
     /tmp/ccex7J6t.s:350    .text:0000000000000250 .L0 
     /tmp/ccex7J6t.s:352    .text:0000000000000254 .L0 
     /tmp/ccex7J6t.s:355    .text:0000000000000258 .L0 
     /tmp/ccex7J6t.s:358    .text:000000000000025c .L0 
     /tmp/ccex7J6t.s:360    .text:0000000000000260 .L0 
     /tmp/ccex7J6t.s:368    .text:0000000000000260 .L0 
     /tmp/ccex7J6t.s:83     .rodata.str1.8:0000000000000000 .LC0
     /tmp/ccex7J6t.s:116    .text:00000000000000ac .L0 
     /tmp/ccex7J6t.s:139    .text:00000000000000dc .L4
     /tmp/ccex7J6t.s:119    .text:00000000000000bc .L5
     /tmp/ccex7J6t.s:930    .debug_abbrev:0000000000000000 .Ldebug_abbrev0
     /tmp/ccex7J6t.s:1549   .debug_str:000000000000001f .LASF44
     /tmp/ccex7J6t.s:1559   .debug_str:00000000000000f5 .LASF45
     /tmp/ccex7J6t.s:1613   .debug_str:0000000000000267 .LASF46
     /tmp/ccex7J6t.s:5      .text:0000000000000000 .Ltext0
     /tmp/ccex7J6t.s:363    .text:0000000000000260 .Letext0
     /tmp/ccex7J6t.s:1541   .debug_line:0000000000000000 .Ldebug_line0
     /tmp/ccex7J6t.s:1601   .debug_str:0000000000000211 .LASF0
     /tmp/ccex7J6t.s:1583   .debug_str:00000000000001a7 .LASF1
     /tmp/ccex7J6t.s:1573   .debug_str:000000000000016f .LASF2
     /tmp/ccex7J6t.s:1555   .debug_str:00000000000000df .LASF4
     /tmp/ccex7J6t.s:1581   .debug_str:0000000000000195 .LASF3
     /tmp/ccex7J6t.s:1547   .debug_str:0000000000000018 .LASF5
     /tmp/ccex7J6t.s:1545   .debug_str:0000000000000005 .LASF6
     /tmp/ccex7J6t.s:1565   .debug_str:0000000000000129 .LASF7
     /tmp/ccex7J6t.s:1605   .debug_str:0000000000000228 .LASF8
     /tmp/ccex7J6t.s:1553   .debug_str:00000000000000d1 .LASF9
     /tmp/ccex7J6t.s:1637   .debug_str:00000000000002ff .LASF10
     /tmp/ccex7J6t.s:1567   .debug_str:000000000000013c .LASF11
GAS LISTING /tmp/ccex7J6t.s 			page 12


     /tmp/ccex7J6t.s:1627   .debug_str:00000000000002c0 .LASF12
     /tmp/ccex7J6t.s:1609   .debug_str:000000000000024e .LASF13
     /tmp/ccex7J6t.s:1587   .debug_str:00000000000001c9 .LASF14
     /tmp/ccex7J6t.s:1561   .debug_str:0000000000000105 .LASF15
     /tmp/ccex7J6t.s:1607   .debug_str:0000000000000238 .LASF16
     /tmp/ccex7J6t.s:1551   .debug_str:00000000000000cb .LASF17
     /tmp/ccex7J6t.s:1615   .debug_str:000000000000028a .LASF25
     /tmp/ccex7J6t.s:1619   .debug_str:00000000000002a2 .LASF18
     /tmp/ccex7J6t.s:1599   .debug_str:000000000000020c .LASF19
     /tmp/ccex7J6t.s:1621   .debug_str:00000000000002a9 .LASF20
     /tmp/ccex7J6t.s:1585   .debug_str:00000000000001ba .LASF21
     /tmp/ccex7J6t.s:1563   .debug_str:000000000000011b .LASF22
     /tmp/ccex7J6t.s:1603   .debug_str:000000000000021e .LASF23
     /tmp/ccex7J6t.s:1633   .debug_str:00000000000002e9 .LASF24
     /tmp/ccex7J6t.s:1631   .debug_str:00000000000002da .LASF27
     /tmp/ccex7J6t.s:1623   .debug_str:00000000000002ae .LASF26
     /tmp/ccex7J6t.s:1557   .debug_str:00000000000000e6 .LASF28
     /tmp/ccex7J6t.s:1569   .debug_str:000000000000014b .LASF29
     /tmp/ccex7J6t.s:1617   .debug_str:0000000000000291 .LASF30
     /tmp/ccex7J6t.s:285    .text:00000000000001d4 .LFB7
     /tmp/ccex7J6t.s:361    .text:0000000000000260 .LFE7
     /tmp/ccex7J6t.s:1575   .debug_str:000000000000017d .LASF31
     /tmp/ccex7J6t.s:1417   .debug_loc:0000000000000000 .LLST5
     /tmp/ccex7J6t.s:1435   .debug_loc:000000000000004c .LLST6
     /tmp/ccex7J6t.s:307    .text:00000000000001fc .LVL29
     /tmp/ccex7J6t.s:312    .text:0000000000000208 .LVL30
     /tmp/ccex7J6t.s:337    .text:0000000000000238 .LVL32
     /tmp/ccex7J6t.s:342    .text:0000000000000244 .LVL33
     /tmp/ccex7J6t.s:205    .text:0000000000000144 .LFB6
     /tmp/ccex7J6t.s:279    .text:00000000000001d4 .LFE6
     /tmp/ccex7J6t.s:1446   .debug_loc:0000000000000082 .LLST3
     /tmp/ccex7J6t.s:1464   .debug_loc:00000000000000ce .LLST4
     /tmp/ccex7J6t.s:228    .text:0000000000000170 .LVL22
     /tmp/ccex7J6t.s:233    .text:000000000000017c .LVL23
     /tmp/ccex7J6t.s:258    .text:00000000000001b0 .LVL24
     /tmp/ccex7J6t.s:263    .text:00000000000001bc .LVL25
     /tmp/ccex7J6t.s:1625   .debug_str:00000000000002b6 .LASF32
     /tmp/ccex7J6t.s:1595   .debug_str:00000000000001f4 .LASF33
     /tmp/ccex7J6t.s:90     .text:0000000000000088 .LFB4
     /tmp/ccex7J6t.s:189    .text:0000000000000144 .LFE4
     /tmp/ccex7J6t.s:1478   .debug_loc:0000000000000107 .LLST2
     /tmp/ccex7J6t.s:113    .text:00000000000000ac .LVL10
     /tmp/ccex7J6t.s:118    .text:00000000000000bc .LVL11
     /tmp/ccex7J6t.s:144    .text:00000000000000e8 .LVL12
     /tmp/ccex7J6t.s:149    .text:00000000000000f4 .LVL13
     /tmp/ccex7J6t.s:154    .text:0000000000000100 .LVL14
     /tmp/ccex7J6t.s:159    .text:000000000000010c .LVL15
     /tmp/ccex7J6t.s:164    .text:0000000000000118 .LVL16
     /tmp/ccex7J6t.s:169    .text:0000000000000124 .LVL17
     /tmp/ccex7J6t.s:174    .text:0000000000000130 .LVL18
     /tmp/ccex7J6t.s:1543   .debug_str:0000000000000000 .LASF47
     /tmp/ccex7J6t.s:1589   .debug_str:00000000000001d5 .LASF34
     /tmp/ccex7J6t.s:10     .text:0000000000000000 .LFB1
     /tmp/ccex7J6t.s:77     .text:0000000000000088 .LFE1
     /tmp/ccex7J6t.s:1496   .debug_loc:0000000000000153 .LLST0
     /tmp/ccex7J6t.s:1514   .debug_loc:000000000000019f .LLST1
     /tmp/ccex7J6t.s:36     .text:0000000000000030 .LVL2
GAS LISTING /tmp/ccex7J6t.s 			page 13


     /tmp/ccex7J6t.s:44     .text:0000000000000044 .LVL3
     /tmp/ccex7J6t.s:50     .text:0000000000000054 .LVL4
     /tmp/ccex7J6t.s:56     .text:0000000000000064 .LVL5
     /tmp/ccex7J6t.s:62     .text:0000000000000074 .LVL6
     /tmp/ccex7J6t.s:1597   .debug_str:0000000000000203 .LASF35
     /tmp/ccex7J6t.s:1593   .debug_str:00000000000001e9 .LASF36
     /tmp/ccex7J6t.s:1591   .debug_str:00000000000001e4 .LASF37
     /tmp/ccex7J6t.s:1571   .debug_str:000000000000015c .LASF38
     /tmp/ccex7J6t.s:1635   .debug_str:00000000000002f3 .LASF39
     /tmp/ccex7J6t.s:1611   .debug_str:000000000000025e .LASF40
     /tmp/ccex7J6t.s:1579   .debug_str:000000000000018b .LASF41
     /tmp/ccex7J6t.s:1629   .debug_str:00000000000002d0 .LASF42
     /tmp/ccex7J6t.s:1577   .debug_str:0000000000000182 .LASF43
     /tmp/ccex7J6t.s:288    .text:00000000000001d4 .LVL27
     /tmp/ccex7J6t.s:305    .text:00000000000001f4 .LVL28
     /tmp/ccex7J6t.s:353    .text:0000000000000254 .LVL34
     /tmp/ccex7J6t.s:323    .text:000000000000021c .LVL31
     /tmp/ccex7J6t.s:356    .text:0000000000000258 .LVL35
     /tmp/ccex7J6t.s:208    .text:0000000000000144 .LVL20
     /tmp/ccex7J6t.s:226    .text:0000000000000168 .LVL21
     /tmp/ccex7J6t.s:272    .text:00000000000001c8 .LVL26
     /tmp/ccex7J6t.s:95     .text:0000000000000088 .LVL8
     /tmp/ccex7J6t.s:111    .text:00000000000000a4 .LVL9
     /tmp/ccex7J6t.s:184    .text:000000000000013c .LVL19
     /tmp/ccex7J6t.s:14     .text:0000000000000000 .LVL0
     /tmp/ccex7J6t.s:34     .text:0000000000000028 .LVL1
     /tmp/ccex7J6t.s:72     .text:0000000000000080 .LVL7
     /tmp/ccex7J6t.s:369    .debug_info:0000000000000000 .Ldebug_info0
     /tmp/ccex7J6t.s:192    .gcc_except_table:0000000000000000 .LLSDA4

UNDEFINED SYMBOLS
mem_alloc
sem_open
putc
_Z11printStringPKc
mem_free
sem_close
__gxx_personality_v0
sem_wait
sem_signal
