GAS LISTING /tmp/ccex7J6t.s 			page 1


   1              		.file	"buffer.cpp"
   2              		.option pic
   3              		.option norelax
   4              		.text
   5              	.Ltext0:
   6              		.align	2
   7              		.globl	_ZN6BufferC2Ei
   9              	_ZN6BufferC2Ei:
  10              	.LFB1:
  11              		.file 1 "test/buffer.cpp"
   1:test/buffer.cpp **** #include "buffer.hpp"
   2:test/buffer.cpp **** #include "../h/syscall_c.h"
   3:test/buffer.cpp **** 
   4:test/buffer.cpp **** Buffer::Buffer(int _cap) : cap(_cap), head(0), tail(0) {
  12              		.loc 1 4 1
  13              		.cfi_startproc
  14              	.LVL0:
  15 0000 130101FE 		addi	sp,sp,-32
  16              		.cfi_def_cfa_offset 32
  17 0004 233C1100 		sd	ra,24(sp)
  18 0008 23388100 		sd	s0,16(sp)
  19 000c 23349100 		sd	s1,8(sp)
  20              		.cfi_offset 1, -8
  21              		.cfi_offset 8, -16
  22              		.cfi_offset 9, -24
  23 0010 13040102 		addi	s0,sp,32
  24              		.cfi_def_cfa 8, 0
  25 0014 93040500 		mv	s1,a0
  26              	.LBB2:
  27              		.loc 1 4 54 is_stmt 0
  28 0018 2320B500 		sw	a1,0(a0)
  29 001c 23280500 		sw	zero,16(a0)
  30 0020 232A0500 		sw	zero,20(a0)
   5:test/buffer.cpp ****     buffer = (int *)mem_alloc(sizeof(int) * cap);
  31              		.loc 1 5 5 is_stmt 1
  32              		.loc 1 5 30 is_stmt 0
  33 0024 13952500 		slli	a0,a1,2
  34              	.LVL1:
  35 0028 97000000 		call	mem_alloc@plt
  35      E7800000 
  36              	.LVL2:
  37              		.loc 1 5 12
  38 0030 23B4A400 		sd	a0,8(s1)
   6:test/buffer.cpp ****     sem_open(&itemAvailable, 0);
  39              		.loc 1 6 5 is_stmt 1
  40              		.loc 1 6 13 is_stmt 0
  41 0034 93050000 		li	a1,0
  42 0038 13850402 		addi	a0,s1,32
  43 003c 97000000 		call	sem_open@plt
  43      E7800000 
  44              	.LVL3:
   7:test/buffer.cpp ****     sem_open(&spaceAvailable, cap);
  45              		.loc 1 7 5 is_stmt 1
  46              		.loc 1 7 13 is_stmt 0
  47 0044 83A50400 		lw	a1,0(s1)
  48 0048 13858401 		addi	a0,s1,24
  49 004c 97000000 		call	sem_open@plt
GAS LISTING /tmp/ccex7J6t.s 			page 2


  49      E7800000 
  50              	.LVL4:
   8:test/buffer.cpp ****     sem_open(&mutexHead, 1);
  51              		.loc 1 8 5 is_stmt 1
  52              		.loc 1 8 13 is_stmt 0
  53 0054 93051000 		li	a1,1
  54 0058 13858402 		addi	a0,s1,40
  55 005c 97000000 		call	sem_open@plt
  55      E7800000 
  56              	.LVL5:
   9:test/buffer.cpp ****     sem_open(&mutexTail, 1);
  57              		.loc 1 9 5 is_stmt 1
  58              		.loc 1 9 13 is_stmt 0
  59 0064 93051000 		li	a1,1
  60 0068 13850403 		addi	a0,s1,48
  61 006c 97000000 		call	sem_open@plt
  61      E7800000 
  62              	.LVL6:
  63              	.LBE2:
  10:test/buffer.cpp **** }
  64              		.loc 1 10 1
  65 0074 83308101 		ld	ra,24(sp)
  66              		.cfi_restore 1
  67 0078 03340101 		ld	s0,16(sp)
  68              		.cfi_restore 8
  69              		.cfi_def_cfa 2, 32
  70 007c 83348100 		ld	s1,8(sp)
  71              		.cfi_restore 9
  72              	.LVL7:
  73 0080 13010102 		addi	sp,sp,32
  74              		.cfi_def_cfa_offset 0
  75 0084 67800000 		jr	ra
  76              		.cfi_endproc
  77              	.LFE1:
  79              		.globl	_ZN6BufferC1Ei
  80              		.set	_ZN6BufferC1Ei,_ZN6BufferC2Ei
  81              		.section	.rodata.str1.8,"aMS",@progbits,1
  82              		.align	3
  83              	.LC0:
  84 0000 42756666 		.string	"Buffer deleted!\n"
  84      65722064 
  84      656C6574 
  84      6564210A 
  84      00
  85              		.text
  86              		.align	2
  87              		.globl	_ZN6BufferD2Ev
  89              	_ZN6BufferD2Ev:
  90              	.LFB4:
  11:test/buffer.cpp **** 
  12:test/buffer.cpp **** Buffer::~Buffer() {
  91              		.loc 1 12 1 is_stmt 1
  92              		.cfi_startproc
  93              		.cfi_personality 0x9b,DW.ref.__gxx_personality_v0
  94              		.cfi_lsda 0x1b,.LLSDA4
  95              	.LVL8:
  96 0088 130101FE 		addi	sp,sp,-32
GAS LISTING /tmp/ccex7J6t.s 			page 3


  97              		.cfi_def_cfa_offset 32
  98 008c 233C1100 		sd	ra,24(sp)
  99 0090 23388100 		sd	s0,16(sp)
 100 0094 23349100 		sd	s1,8(sp)
 101              		.cfi_offset 1, -8
 102              		.cfi_offset 8, -16
 103              		.cfi_offset 9, -24
 104 0098 13040102 		addi	s0,sp,32
 105              		.cfi_def_cfa 8, 0
 106 009c 93040500 		mv	s1,a0
 107              	.LBB3:
  13:test/buffer.cpp ****     putc('\n');
 108              		.loc 1 13 5
 109              		.loc 1 13 9 is_stmt 0
 110 00a0 1305A000 		li	a0,10
 111              	.LVL9:
 112 00a4 97000000 		call	putc@plt
 112      E7800000 
 113              	.LVL10:
  14:test/buffer.cpp ****     //todo
  15:test/buffer.cpp ****     //placeholder
  16:test/buffer.cpp ****     printString("Buffer deleted!\n");
 114              		.loc 1 16 5 is_stmt 1
 115              		.loc 1 16 16 is_stmt 0
 116 00ac 17050000 		lla	a0,.LC0
 116      13050500 
 117 00b4 97000000 		call	_Z11printStringPKc@plt
 117      E7800000 
 118              	.LVL11:
 119              	.L5:
  17:test/buffer.cpp ****     while (head != tail) {
 120              		.loc 1 17 5 is_stmt 1
 121              		.loc 1 17 17
 122              		.loc 1 17 12 is_stmt 0
 123 00bc 83A70401 		lw	a5,16(s1)
 124              		.loc 1 17 20
 125 00c0 03A74401 		lw	a4,20(s1)
 126              		.loc 1 17 17
 127 00c4 638CE700 		beq	a5,a4,.L4
  18:test/buffer.cpp ****         //todo
  19:test/buffer.cpp ****         //placeholder
  20:test/buffer.cpp ****         //printf("%c ", buffer[head]);
  21:test/buffer.cpp ****         head = (head + 1) % cap;
 128              		.loc 1 21 9 is_stmt 1
 129              		.loc 1 21 22 is_stmt 0
 130 00c8 9B871700 		addiw	a5,a5,1
 131              		.loc 1 21 29
 132 00cc 03A70400 		lw	a4,0(s1)
 133              		.loc 1 21 27
 134 00d0 BBE7E702 		remw	a5,a5,a4
 135              		.loc 1 21 14
 136 00d4 23A8F400 		sw	a5,16(s1)
  17:test/buffer.cpp ****     while (head != tail) {
 137              		.loc 1 17 5
 138 00d8 6FF05FFE 		j	.L5
 139              	.L4:
  22:test/buffer.cpp ****     }
GAS LISTING /tmp/ccex7J6t.s 			page 4


  23:test/buffer.cpp ****     putc('!');
 140              		.loc 1 23 5 is_stmt 1
 141              		.loc 1 23 9 is_stmt 0
 142 00dc 13051002 		li	a0,33
 143 00e0 97000000 		call	putc@plt
 143      E7800000 
 144              	.LVL12:
  24:test/buffer.cpp ****     putc('\n');
 145              		.loc 1 24 5 is_stmt 1
 146              		.loc 1 24 9 is_stmt 0
 147 00e8 1305A000 		li	a0,10
 148 00ec 97000000 		call	putc@plt
 148      E7800000 
 149              	.LVL13:
  25:test/buffer.cpp **** 
  26:test/buffer.cpp ****     mem_free(buffer);
 150              		.loc 1 26 5 is_stmt 1
 151              		.loc 1 26 13 is_stmt 0
 152 00f4 03B58400 		ld	a0,8(s1)
 153 00f8 97000000 		call	mem_free@plt
 153      E7800000 
 154              	.LVL14:
  27:test/buffer.cpp ****     sem_close(itemAvailable);
 155              		.loc 1 27 5 is_stmt 1
 156              		.loc 1 27 14 is_stmt 0
 157 0100 03B50402 		ld	a0,32(s1)
 158 0104 97000000 		call	sem_close@plt
 158      E7800000 
 159              	.LVL15:
  28:test/buffer.cpp ****     sem_close(spaceAvailable);
 160              		.loc 1 28 5 is_stmt 1
 161              		.loc 1 28 14 is_stmt 0
 162 010c 03B58401 		ld	a0,24(s1)
 163 0110 97000000 		call	sem_close@plt
 163      E7800000 
 164              	.LVL16:
  29:test/buffer.cpp ****     sem_close(mutexTail);
 165              		.loc 1 29 5 is_stmt 1
 166              		.loc 1 29 14 is_stmt 0
 167 0118 03B50403 		ld	a0,48(s1)
 168 011c 97000000 		call	sem_close@plt
 168      E7800000 
 169              	.LVL17:
  30:test/buffer.cpp ****     sem_close(mutexHead);
 170              		.loc 1 30 5 is_stmt 1
 171              		.loc 1 30 14 is_stmt 0
 172 0124 03B58402 		ld	a0,40(s1)
 173 0128 97000000 		call	sem_close@plt
 173      E7800000 
 174              	.LVL18:
 175              	.LBE3:
  31:test/buffer.cpp **** }
 176              		.loc 1 31 1
 177 0130 83308101 		ld	ra,24(sp)
 178              		.cfi_restore 1
 179 0134 03340101 		ld	s0,16(sp)
 180              		.cfi_restore 8
GAS LISTING /tmp/ccex7J6t.s 			page 5


 181              		.cfi_def_cfa 2, 32
 182 0138 83348100 		ld	s1,8(sp)
 183              		.cfi_restore 9
 184              	.LVL19:
 185 013c 13010102 		addi	sp,sp,32
 186              		.cfi_def_cfa_offset 0
 187 0140 67800000 		jr	ra
 188              		.cfi_endproc
 189              	.LFE4:
 190              		.globl	__gxx_personality_v0
 191              		.section	.gcc_except_table,"a",@progbits
 192              	.LLSDA4:
 193 0000 FF       		.byte	0xff
 194 0001 FF       		.byte	0xff
 195 0002 03       		.byte	0x3
 196 0003 00       		.byte	0
 197              		.text
 199              		.globl	_ZN6BufferD1Ev
 200              		.set	_ZN6BufferD1Ev,_ZN6BufferD2Ev
 201              		.align	2
 202              		.globl	_ZN6Buffer3putEi
 204              	_ZN6Buffer3putEi:
 205              	.LFB6:
  32:test/buffer.cpp **** 
  33:test/buffer.cpp **** void Buffer::put(int val) {
 206              		.loc 1 33 27 is_stmt 1
 207              		.cfi_startproc
 208              	.LVL20:
 209 0144 130101FE 		addi	sp,sp,-32
 210              		.cfi_def_cfa_offset 32
 211 0148 233C1100 		sd	ra,24(sp)
 212 014c 23388100 		sd	s0,16(sp)
 213 0150 23349100 		sd	s1,8(sp)
 214 0154 23302101 		sd	s2,0(sp)
 215              		.cfi_offset 1, -8
 216              		.cfi_offset 8, -16
 217              		.cfi_offset 9, -24
 218              		.cfi_offset 18, -32
 219 0158 13040102 		addi	s0,sp,32
 220              		.cfi_def_cfa 8, 0
 221 015c 93040500 		mv	s1,a0
 222 0160 13890500 		mv	s2,a1
  34:test/buffer.cpp ****     sem_wait(spaceAvailable);
 223              		.loc 1 34 5
 224              		.loc 1 34 13 is_stmt 0
 225 0164 03358501 		ld	a0,24(a0)
 226              	.LVL21:
 227 0168 97000000 		call	sem_wait@plt
 227      E7800000 
 228              	.LVL22:
  35:test/buffer.cpp **** 
  36:test/buffer.cpp ****     sem_wait(mutexTail);
 229              		.loc 1 36 5 is_stmt 1
 230              		.loc 1 36 13 is_stmt 0
 231 0170 03B50403 		ld	a0,48(s1)
 232 0174 97000000 		call	sem_wait@plt
 232      E7800000 
GAS LISTING /tmp/ccex7J6t.s 			page 6


 233              	.LVL23:
  37:test/buffer.cpp ****     buffer[tail] = val;
 234              		.loc 1 37 5 is_stmt 1
 235 017c 83B78400 		ld	a5,8(s1)
 236              		.loc 1 37 12 is_stmt 0
 237 0180 03A74401 		lw	a4,20(s1)
 238              		.loc 1 37 16
 239 0184 13172700 		slli	a4,a4,2
 240 0188 B387E700 		add	a5,a5,a4
 241              		.loc 1 37 18
 242 018c 23A02701 		sw	s2,0(a5)
  38:test/buffer.cpp ****     tail = (tail + 1) % cap;
 243              		.loc 1 38 5 is_stmt 1
 244              		.loc 1 38 13 is_stmt 0
 245 0190 83A74401 		lw	a5,20(s1)
 246              		.loc 1 38 18
 247 0194 9B871700 		addiw	a5,a5,1
 248              		.loc 1 38 25
 249 0198 03A70400 		lw	a4,0(s1)
 250              		.loc 1 38 23
 251 019c BBE7E702 		remw	a5,a5,a4
 252              		.loc 1 38 10
 253 01a0 23AAF400 		sw	a5,20(s1)
  39:test/buffer.cpp ****     sem_signal(mutexTail);
 254              		.loc 1 39 5 is_stmt 1
 255              		.loc 1 39 15 is_stmt 0
 256 01a4 03B50403 		ld	a0,48(s1)
 257 01a8 97000000 		call	sem_signal@plt
 257      E7800000 
 258              	.LVL24:
  40:test/buffer.cpp **** 
  41:test/buffer.cpp ****     sem_signal(itemAvailable);
 259              		.loc 1 41 5 is_stmt 1
 260              		.loc 1 41 15 is_stmt 0
 261 01b0 03B50402 		ld	a0,32(s1)
 262 01b4 97000000 		call	sem_signal@plt
 262      E7800000 
 263              	.LVL25:
  42:test/buffer.cpp **** 
  43:test/buffer.cpp **** }
 264              		.loc 1 43 1
 265 01bc 83308101 		ld	ra,24(sp)
 266              		.cfi_restore 1
 267 01c0 03340101 		ld	s0,16(sp)
 268              		.cfi_restore 8
 269              		.cfi_def_cfa 2, 32
 270 01c4 83348100 		ld	s1,8(sp)
 271              		.cfi_restore 9
 272              	.LVL26:
 273 01c8 03390100 		ld	s2,0(sp)
 274              		.cfi_restore 18
 275 01cc 13010102 		addi	sp,sp,32
 276              		.cfi_def_cfa_offset 0
 277 01d0 67800000 		jr	ra
 278              		.cfi_endproc
 279              	.LFE6:
 281              		.align	2
GAS LISTING /tmp/ccex7J6t.s 			page 7


 282              		.globl	_ZN6Buffer3getEv
 284              	_ZN6Buffer3getEv:
 285              	.LFB7:
  44:test/buffer.cpp **** 
  45:test/buffer.cpp **** int Buffer::get() {
 286              		.loc 1 45 19 is_stmt 1
 287              		.cfi_startproc
 288              	.LVL27:
 289 01d4 130101FE 		addi	sp,sp,-32
 290              		.cfi_def_cfa_offset 32
 291 01d8 233C1100 		sd	ra,24(sp)
 292 01dc 23388100 		sd	s0,16(sp)
 293 01e0 23349100 		sd	s1,8(sp)
 294 01e4 23302101 		sd	s2,0(sp)
 295              		.cfi_offset 1, -8
 296              		.cfi_offset 8, -16
 297              		.cfi_offset 9, -24
 298              		.cfi_offset 18, -32
 299 01e8 13040102 		addi	s0,sp,32
 300              		.cfi_def_cfa 8, 0
 301 01ec 93040500 		mv	s1,a0
  46:test/buffer.cpp ****     sem_wait(itemAvailable);
 302              		.loc 1 46 5
 303              		.loc 1 46 13 is_stmt 0
 304 01f0 03350502 		ld	a0,32(a0)
 305              	.LVL28:
 306 01f4 97000000 		call	sem_wait@plt
 306      E7800000 
 307              	.LVL29:
  47:test/buffer.cpp **** 
  48:test/buffer.cpp ****     sem_wait(mutexHead);
 308              		.loc 1 48 5 is_stmt 1
 309              		.loc 1 48 13 is_stmt 0
 310 01fc 03B58402 		ld	a0,40(s1)
 311 0200 97000000 		call	sem_wait@plt
 311      E7800000 
 312              	.LVL30:
  49:test/buffer.cpp **** 
  50:test/buffer.cpp ****     int ret = buffer[head];
 313              		.loc 1 50 5 is_stmt 1
 314              		.loc 1 50 15 is_stmt 0
 315 0208 03B78400 		ld	a4,8(s1)
 316              		.loc 1 50 22
 317 020c 83A70401 		lw	a5,16(s1)
 318              		.loc 1 50 26
 319 0210 93962700 		slli	a3,a5,2
 320 0214 3307D700 		add	a4,a4,a3
 321              		.loc 1 50 9
 322 0218 03290700 		lw	s2,0(a4)
 323              	.LVL31:
  51:test/buffer.cpp ****     head = (head + 1) % cap;
 324              		.loc 1 51 5 is_stmt 1
 325              		.loc 1 51 18 is_stmt 0
 326 021c 9B871700 		addiw	a5,a5,1
 327              		.loc 1 51 25
 328 0220 03A70400 		lw	a4,0(s1)
 329              		.loc 1 51 23
GAS LISTING /tmp/ccex7J6t.s 			page 8


 330 0224 BBE7E702 		remw	a5,a5,a4
 331              		.loc 1 51 10
 332 0228 23A8F400 		sw	a5,16(s1)
  52:test/buffer.cpp ****     sem_signal(mutexHead);
 333              		.loc 1 52 5 is_stmt 1
 334              		.loc 1 52 15 is_stmt 0
 335 022c 03B58402 		ld	a0,40(s1)
 336 0230 97000000 		call	sem_signal@plt
 336      E7800000 
 337              	.LVL32:
  53:test/buffer.cpp **** 
  54:test/buffer.cpp ****     sem_signal(spaceAvailable);
 338              		.loc 1 54 5 is_stmt 1
 339              		.loc 1 54 15 is_stmt 0
 340 0238 03B58401 		ld	a0,24(s1)
 341 023c 97000000 		call	sem_signal@plt
 341      E7800000 
 342              	.LVL33:
  55:test/buffer.cpp **** 
  56:test/buffer.cpp ****     return ret;
 343              		.loc 1 56 5 is_stmt 1
  57:test/buffer.cpp **** }
 344              		.loc 1 57 1 is_stmt 0
 345 0244 13050900 		mv	a0,s2
 346 0248 83308101 		ld	ra,24(sp)
 347              		.cfi_restore 1
 348 024c 03340101 		ld	s0,16(sp)
 349              		.cfi_restore 8
 350              		.cfi_def_cfa 2, 32
 351 0250 83348100 		ld	s1,8(sp)
 352              		.cfi_restore 9
 353              	.LVL34:
 354 0254 03390100 		ld	s2,0(sp)
 355              		.cfi_restore 18
 356              	.LVL35:
 357 0258 13010102 		addi	sp,sp,32
 358              		.cfi_def_cfa_offset 0
 359 025c 67800000 		jr	ra
 360              		.cfi_endproc
 361              	.LFE7:
 363              	.Letext0:
 364              		.file 2 "test/../h/../lib/hw.h"
 365              		.file 3 "test/../h/syscall_c.h"
 366              		.file 4 "test/buffer.hpp"
 367              		.file 5 "test/printing.hpp"
 1642              		.align	3
 1645              	DW.ref.__gxx_personality_v0:
 1646 0000 00000000 		.dword	__gxx_personality_v0
 1646      00000000 
 1647              		.ident	"GCC: (Ubuntu 9.3.0-17ubuntu1~20.04) 9.3.0"
 1648              		.section	.note.GNU-stack,"",@progbits
GAS LISTING /tmp/ccex7J6t.s 			page 9

