GAS LISTING /tmp/ccoqFRBX.s 			page 1


   1              		.file	"buffer_CPP_API.cpp"
   2              		.option pic
   3              		.option norelax
   4              		.text
   5              	.Ltext0:
   6              		.align	2
   7              		.globl	_ZN9BufferCPPC2Ei
   9              	_ZN9BufferCPPC2Ei:
  10              	.LFB26:
  11              		.file 1 "test/buffer_CPP_API.cpp"
   1:test/buffer_CPP_API.cpp **** #include "buffer_CPP_API.hpp"
   2:test/buffer_CPP_API.cpp **** #include "../h/std.hpp"
   3:test/buffer_CPP_API.cpp **** 
   4:test/buffer_CPP_API.cpp **** 
   5:test/buffer_CPP_API.cpp **** BufferCPP::BufferCPP(int _cap) : cap(_cap), head(0), tail(0) {
  12              		.loc 1 5 1
  13              		.cfi_startproc
  14              		.cfi_personality 0x9b,DW.ref.__gxx_personality_v0
  15              		.cfi_lsda 0x1b,.LLSDA26
  16              	.LVL0:
  17 0000 130101FE 		addi	sp,sp,-32
  18              		.cfi_def_cfa_offset 32
  19 0004 233C1100 		sd	ra,24(sp)
  20 0008 23388100 		sd	s0,16(sp)
  21 000c 23349100 		sd	s1,8(sp)
  22 0010 23302101 		sd	s2,0(sp)
  23              		.cfi_offset 1, -8
  24              		.cfi_offset 8, -16
  25              		.cfi_offset 9, -24
  26              		.cfi_offset 18, -32
  27 0014 13040102 		addi	s0,sp,32
  28              		.cfi_def_cfa 8, 0
  29 0018 93040500 		mv	s1,a0
  30              	.LBB9:
  31              		.loc 1 5 60 is_stmt 0
  32 001c 2320B500 		sw	a1,0(a0)
  33 0020 23280500 		sw	zero,16(a0)
  34 0024 232A0500 		sw	zero,20(a0)
   6:test/buffer_CPP_API.cpp ****     buffer = (int *)mem_alloc(sizeof(int) * cap);
  35              		.loc 1 6 5 is_stmt 1
  36              		.loc 1 6 30 is_stmt 0
  37 0028 13952500 		slli	a0,a1,2
  38              	.LVL1:
  39              	.LEHB0:
  40 002c 97000000 		call	mem_alloc@plt
  40      E7800000 
  41              	.LVL2:
  42              		.loc 1 6 12
  43 0034 23B4A400 		sd	a0,8(s1)
   7:test/buffer_CPP_API.cpp ****     itemAvailable = new Semaphore(0);
  44              		.loc 1 7 5 is_stmt 1
  45              		.loc 1 7 36 is_stmt 0
  46 0038 13050001 		li	a0,16
  47 003c 97000000 		call	_Znwm@plt
  47      E7800000 
  48              	.LVL3:
  49              	.LEHE0:
GAS LISTING /tmp/ccoqFRBX.s 			page 2


  50 0044 13090500 		mv	s2,a0
  51 0048 93050000 		li	a1,0
  52              	.LEHB1:
  53 004c 97000000 		call	_ZN9SemaphoreC1Ej@plt
  53      E7800000 
  54              	.LVL4:
  55              	.LEHE1:
  56              		.loc 1 7 19 discriminator 2
  57 0054 23B02403 		sd	s2,32(s1)
   8:test/buffer_CPP_API.cpp ****     spaceAvailable = new Semaphore(cap);
  58              		.loc 1 8 5 is_stmt 1 discriminator 2
  59              		.loc 1 8 39 is_stmt 0 discriminator 2
  60 0058 13050001 		li	a0,16
  61              	.LEHB2:
  62 005c 97000000 		call	_Znwm@plt
  62      E7800000 
  63              	.LVL5:
  64              	.LEHE2:
  65 0064 13090500 		mv	s2,a0
  66 0068 83A50400 		lw	a1,0(s1)
  67              	.LEHB3:
  68 006c 97000000 		call	_ZN9SemaphoreC1Ej@plt
  68      E7800000 
  69              	.LVL6:
  70              	.LEHE3:
  71              		.loc 1 8 20 discriminator 2
  72 0074 23BC2401 		sd	s2,24(s1)
   9:test/buffer_CPP_API.cpp ****     mutexHead = new Semaphore(1);
  73              		.loc 1 9 5 is_stmt 1 discriminator 2
  74              		.loc 1 9 32 is_stmt 0 discriminator 2
  75 0078 13050001 		li	a0,16
  76              	.LEHB4:
  77 007c 97000000 		call	_Znwm@plt
  77      E7800000 
  78              	.LVL7:
  79              	.LEHE4:
  80 0084 13090500 		mv	s2,a0
  81 0088 93051000 		li	a1,1
  82              	.LEHB5:
  83 008c 97000000 		call	_ZN9SemaphoreC1Ej@plt
  83      E7800000 
  84              	.LVL8:
  85              	.LEHE5:
  86              		.loc 1 9 15 discriminator 2
  87 0094 23B42403 		sd	s2,40(s1)
  10:test/buffer_CPP_API.cpp ****     mutexTail = new Semaphore(1);
  88              		.loc 1 10 5 is_stmt 1 discriminator 2
  89              		.loc 1 10 32 is_stmt 0 discriminator 2
  90 0098 13050001 		li	a0,16
  91              	.LEHB6:
  92 009c 97000000 		call	_Znwm@plt
  92      E7800000 
  93              	.LVL9:
  94              	.LEHE6:
  95 00a4 13090500 		mv	s2,a0
  96 00a8 93051000 		li	a1,1
  97              	.LEHB7:
GAS LISTING /tmp/ccoqFRBX.s 			page 3


  98 00ac 97000000 		call	_ZN9SemaphoreC1Ej@plt
  98      E7800000 
  99              	.LVL10:
 100              	.LEHE7:
 101              		.loc 1 10 15 discriminator 2
 102 00b4 23B82403 		sd	s2,48(s1)
 103              	.LBE9:
  11:test/buffer_CPP_API.cpp **** }
 104              		.loc 1 11 1 discriminator 2
 105 00b8 83308101 		ld	ra,24(sp)
 106              		.cfi_remember_state
 107              		.cfi_restore 1
 108 00bc 03340101 		ld	s0,16(sp)
 109              		.cfi_restore 8
 110              		.cfi_def_cfa 2, 32
 111 00c0 83348100 		ld	s1,8(sp)
 112              		.cfi_restore 9
 113              	.LVL11:
 114 00c4 03390100 		ld	s2,0(sp)
 115              		.cfi_restore 18
 116 00c8 13010102 		addi	sp,sp,32
 117              		.cfi_def_cfa_offset 0
 118 00cc 67800000 		jr	ra
 119              	.LVL12:
 120              	.L6:
 121              		.cfi_restore_state
 122 00d0 93040500 		mv	s1,a0
 123              	.LVL13:
 124              	.LBB10:
   7:test/buffer_CPP_API.cpp ****     spaceAvailable = new Semaphore(cap);
 125              		.loc 1 7 36
 126 00d4 13050900 		mv	a0,s2
 127 00d8 97000000 		call	_ZdlPv@plt
 127      E7800000 
 128              	.LVL14:
 129 00e0 13850400 		mv	a0,s1
 130              	.LEHB8:
 131 00e4 97000000 		call	_Unwind_Resume@plt
 131      E7800000 
 132              	.LVL15:
 133              	.LEHE8:
 134              	.L7:
 135 00ec 93040500 		mv	s1,a0
 136              	.LVL16:
   8:test/buffer_CPP_API.cpp ****     mutexHead = new Semaphore(1);
 137              		.loc 1 8 39
 138 00f0 13050900 		mv	a0,s2
 139 00f4 97000000 		call	_ZdlPv@plt
 139      E7800000 
 140              	.LVL17:
 141 00fc 13850400 		mv	a0,s1
 142              	.LEHB9:
 143 0100 97000000 		call	_Unwind_Resume@plt
 143      E7800000 
 144              	.LVL18:
 145              	.LEHE9:
 146              	.L8:
GAS LISTING /tmp/ccoqFRBX.s 			page 4


 147 0108 93040500 		mv	s1,a0
 148              	.LVL19:
   9:test/buffer_CPP_API.cpp ****     mutexTail = new Semaphore(1);
 149              		.loc 1 9 32
 150 010c 13050900 		mv	a0,s2
 151 0110 97000000 		call	_ZdlPv@plt
 151      E7800000 
 152              	.LVL20:
 153 0118 13850400 		mv	a0,s1
 154              	.LEHB10:
 155 011c 97000000 		call	_Unwind_Resume@plt
 155      E7800000 
 156              	.LVL21:
 157              	.LEHE10:
 158              	.L9:
 159 0124 93040500 		mv	s1,a0
 160              	.LVL22:
  10:test/buffer_CPP_API.cpp **** }
 161              		.loc 1 10 32
 162 0128 13050900 		mv	a0,s2
 163 012c 97000000 		call	_ZdlPv@plt
 163      E7800000 
 164              	.LVL23:
 165 0134 13850400 		mv	a0,s1
 166              	.LEHB11:
 167 0138 97000000 		call	_Unwind_Resume@plt
 167      E7800000 
 168              	.LVL24:
 169              	.LEHE11:
 170              	.LBE10:
 171              		.cfi_endproc
 172              	.LFE26:
 173              		.globl	__gxx_personality_v0
 174              		.section	.gcc_except_table,"a",@progbits
 175              	.LLSDA26:
 176 0000 FF       		.byte	0xff
 177 0001 FF       		.byte	0xff
 178 0002 03       		.byte	0x3
 179 0003 9C01     		.byte	0x9c,0x1
 180 0005 00000000 		.4byte	.LEHB0-.LFB26
 181 0009 00000000 		.4byte	.LEHE0-.LEHB0
 182 000d 00000000 		.4byte	0
 183 0011 00       		.byte	0
 184 0012 00000000 		.4byte	.LEHB1-.LFB26
 185 0016 00000000 		.4byte	.LEHE1-.LEHB1
 186 001a 00000000 		.4byte	.L6-.LFB26
 187 001e 00       		.byte	0
 188 001f 00000000 		.4byte	.LEHB2-.LFB26
 189 0023 00000000 		.4byte	.LEHE2-.LEHB2
 190 0027 00000000 		.4byte	0
 191 002b 00       		.byte	0
 192 002c 00000000 		.4byte	.LEHB3-.LFB26
 193 0030 00000000 		.4byte	.LEHE3-.LEHB3
 194 0034 00000000 		.4byte	.L7-.LFB26
 195 0038 00       		.byte	0
 196 0039 00000000 		.4byte	.LEHB4-.LFB26
 197 003d 00000000 		.4byte	.LEHE4-.LEHB4
GAS LISTING /tmp/ccoqFRBX.s 			page 5


 198 0041 00000000 		.4byte	0
 199 0045 00       		.byte	0
 200 0046 00000000 		.4byte	.LEHB5-.LFB26
 201 004a 00000000 		.4byte	.LEHE5-.LEHB5
 202 004e 00000000 		.4byte	.L8-.LFB26
 203 0052 00       		.byte	0
 204 0053 00000000 		.4byte	.LEHB6-.LFB26
 205 0057 00000000 		.4byte	.LEHE6-.LEHB6
 206 005b 00000000 		.4byte	0
 207 005f 00       		.byte	0
 208 0060 00000000 		.4byte	.LEHB7-.LFB26
 209 0064 00000000 		.4byte	.LEHE7-.LEHB7
 210 0068 00000000 		.4byte	.L9-.LFB26
 211 006c 00       		.byte	0
 212 006d 00000000 		.4byte	.LEHB8-.LFB26
 213 0071 00000000 		.4byte	.LEHE8-.LEHB8
 214 0075 00000000 		.4byte	0
 215 0079 00       		.byte	0
 216 007a 00000000 		.4byte	.LEHB9-.LFB26
 217 007e 00000000 		.4byte	.LEHE9-.LEHB9
 218 0082 00000000 		.4byte	0
 219 0086 00       		.byte	0
 220 0087 00000000 		.4byte	.LEHB10-.LFB26
 221 008b 00000000 		.4byte	.LEHE10-.LEHB10
 222 008f 00000000 		.4byte	0
 223 0093 00       		.byte	0
 224 0094 00000000 		.4byte	.LEHB11-.LFB26
 225 0098 00000000 		.4byte	.LEHE11-.LEHB11
 226 009c 00000000 		.4byte	0
 227 00a0 00       		.byte	0
 228              		.text
 230              		.globl	_ZN9BufferCPPC1Ei
 231              		.set	_ZN9BufferCPPC1Ei,_ZN9BufferCPPC2Ei
 232              		.align	2
 233              		.globl	_ZN9BufferCPPD2Ev
 235              	_ZN9BufferCPPD2Ev:
 236              	.LFB29:
  12:test/buffer_CPP_API.cpp **** 
  13:test/buffer_CPP_API.cpp **** BufferCPP::~BufferCPP() {
 237              		.loc 1 13 1 is_stmt 1
 238              		.cfi_startproc
 239              		.cfi_personality 0x9b,DW.ref.__gxx_personality_v0
 240              		.cfi_lsda 0x1b,.LLSDA29
 241              	.LVL25:
 242 0140 130101FE 		addi	sp,sp,-32
 243              		.cfi_def_cfa_offset 32
 244 0144 233C1100 		sd	ra,24(sp)
 245 0148 23388100 		sd	s0,16(sp)
 246 014c 23349100 		sd	s1,8(sp)
 247              		.cfi_offset 1, -8
 248              		.cfi_offset 8, -16
 249              		.cfi_offset 9, -24
 250 0150 13040102 		addi	s0,sp,32
 251              		.cfi_def_cfa 8, 0
 252 0154 93040500 		mv	s1,a0
 253              	.LBB11:
  14:test/buffer_CPP_API.cpp ****     putc('\n');
GAS LISTING /tmp/ccoqFRBX.s 			page 6


 254              		.loc 1 14 5
 255              	.LVL26:
 256              	.LBB12:
 257              	.LBB13:
 258              		.file 2 "test/../h/std.hpp"
   1:test/../h/std.hpp **** //
   2:test/../h/std.hpp **** // Created by os on 5/16/22.
   3:test/../h/std.hpp **** //
   4:test/../h/std.hpp **** 
   5:test/../h/std.hpp **** #ifndef PROJECT_BASE_V1_0_STD_HPP
   6:test/../h/std.hpp **** #define PROJECT_BASE_V1_0_STD_HPP
   7:test/../h/std.hpp **** 
   8:test/../h/std.hpp **** #include "../lib/console.h"
   9:test/../h/std.hpp **** 
  10:test/../h/std.hpp **** inline char getc() {
  11:test/../h/std.hpp ****     return __getc();
  12:test/../h/std.hpp **** }
  13:test/../h/std.hpp **** 
  14:test/../h/std.hpp **** inline void putc(char c) {
  15:test/../h/std.hpp ****     __putc(c);
 259              		.loc 2 15 5
 260              		.loc 2 15 11 is_stmt 0
 261 0158 1305A000 		li	a0,10
 262              	.LVL27:
 263 015c 97000000 		call	__putc@plt
 263      E7800000 
 264              	.LVL28:
 265              	.L14:
 266              	.LBE13:
 267              	.LBE12:
  15:test/buffer_CPP_API.cpp ****     //todo
  16:test/buffer_CPP_API.cpp ****     //placeholder
  17:test/buffer_CPP_API.cpp ****     //printf("Buffer deleted!\n");
  18:test/buffer_CPP_API.cpp ****     while (head != tail) {
 268              		.loc 1 18 5 is_stmt 1
 269              		.loc 1 18 17
 270              		.loc 1 18 12 is_stmt 0
 271 0164 83A70401 		lw	a5,16(s1)
 272              		.loc 1 18 20
 273 0168 03A74401 		lw	a4,20(s1)
 274              		.loc 1 18 17
 275 016c 638CE700 		beq	a5,a4,.L13
  19:test/buffer_CPP_API.cpp ****         //todo
  20:test/buffer_CPP_API.cpp ****         //placeholder
  21:test/buffer_CPP_API.cpp ****         //printf("%c ", buffer[head]);
  22:test/buffer_CPP_API.cpp ****         head = (head + 1) % cap;
 276              		.loc 1 22 9 is_stmt 1
 277              		.loc 1 22 22 is_stmt 0
 278 0170 9B871700 		addiw	a5,a5,1
 279              		.loc 1 22 29
 280 0174 03A70400 		lw	a4,0(s1)
 281              		.loc 1 22 27
 282 0178 BBE7E702 		remw	a5,a5,a4
 283              		.loc 1 22 14
 284 017c 23A8F400 		sw	a5,16(s1)
  18:test/buffer_CPP_API.cpp ****         //todo
 285              		.loc 1 18 5
GAS LISTING /tmp/ccoqFRBX.s 			page 7


 286 0180 6FF05FFE 		j	.L14
 287              	.L13:
  23:test/buffer_CPP_API.cpp ****     }
  24:test/buffer_CPP_API.cpp ****     putc('!');
 288              		.loc 1 24 5 is_stmt 1
 289              	.LVL29:
 290              	.LBB14:
 291              	.LBB15:
 292              		.loc 2 15 5
 293              		.loc 2 15 11 is_stmt 0
 294 0184 13051002 		li	a0,33
 295 0188 97000000 		call	__putc@plt
 295      E7800000 
 296              	.LVL30:
 297              	.LBE15:
 298              	.LBE14:
  25:test/buffer_CPP_API.cpp ****     putc('\n');
 299              		.loc 1 25 5 is_stmt 1
 300              	.LBB16:
 301              	.LBB17:
 302              		.loc 2 15 5
 303              		.loc 2 15 11 is_stmt 0
 304 0190 1305A000 		li	a0,10
 305 0194 97000000 		call	__putc@plt
 305      E7800000 
 306              	.LVL31:
 307              	.LBE17:
 308              	.LBE16:
  26:test/buffer_CPP_API.cpp **** 
  27:test/buffer_CPP_API.cpp ****     mem_free(buffer);
 309              		.loc 1 27 5 is_stmt 1
 310              		.loc 1 27 13 is_stmt 0
 311 019c 03B58400 		ld	a0,8(s1)
 312 01a0 97000000 		call	mem_free@plt
 312      E7800000 
 313              	.LVL32:
  28:test/buffer_CPP_API.cpp ****     delete itemAvailable;
 314              		.loc 1 28 5 is_stmt 1
 315              		.loc 1 28 12 is_stmt 0
 316 01a8 03B50402 		ld	a0,32(s1)
 317              		.loc 1 28 25
 318 01ac 63080500 		beqz	a0,.L15
 319              		.loc 1 28 12 discriminator 1
 320 01b0 83370500 		ld	a5,0(a0)
 321 01b4 83B78700 		ld	a5,8(a5)
 322 01b8 E7800700 		jalr	a5
 323              	.LVL33:
 324              	.L15:
  29:test/buffer_CPP_API.cpp ****     delete spaceAvailable;
 325              		.loc 1 29 5 is_stmt 1
 326              		.loc 1 29 12 is_stmt 0
 327 01bc 03B58401 		ld	a0,24(s1)
 328              		.loc 1 29 26
 329 01c0 63080500 		beqz	a0,.L16
 330              		.loc 1 29 12 discriminator 1
 331 01c4 83370500 		ld	a5,0(a0)
 332 01c8 83B78700 		ld	a5,8(a5)
GAS LISTING /tmp/ccoqFRBX.s 			page 8


 333 01cc E7800700 		jalr	a5
 334              	.LVL34:
 335              	.L16:
  30:test/buffer_CPP_API.cpp ****     delete mutexTail;
 336              		.loc 1 30 5 is_stmt 1
 337              		.loc 1 30 12 is_stmt 0
 338 01d0 03B50403 		ld	a0,48(s1)
 339              		.loc 1 30 21
 340 01d4 63080500 		beqz	a0,.L17
 341              		.loc 1 30 12 discriminator 1
 342 01d8 83370500 		ld	a5,0(a0)
 343 01dc 83B78700 		ld	a5,8(a5)
 344 01e0 E7800700 		jalr	a5
 345              	.LVL35:
 346              	.L17:
  31:test/buffer_CPP_API.cpp ****     delete mutexHead;
 347              		.loc 1 31 5 is_stmt 1
 348              		.loc 1 31 12 is_stmt 0
 349 01e4 03B58402 		ld	a0,40(s1)
 350              		.loc 1 31 21
 351 01e8 63080500 		beqz	a0,.L12
 352              		.loc 1 31 12 discriminator 1
 353 01ec 83370500 		ld	a5,0(a0)
 354 01f0 83B78700 		ld	a5,8(a5)
 355 01f4 E7800700 		jalr	a5
 356              	.LVL36:
 357              	.L12:
 358              	.LBE11:
  32:test/buffer_CPP_API.cpp **** 
  33:test/buffer_CPP_API.cpp **** }
 359              		.loc 1 33 1
 360 01f8 83308101 		ld	ra,24(sp)
 361              		.cfi_restore 1
 362 01fc 03340101 		ld	s0,16(sp)
 363              		.cfi_restore 8
 364              		.cfi_def_cfa 2, 32
 365 0200 83348100 		ld	s1,8(sp)
 366              		.cfi_restore 9
 367              	.LVL37:
 368 0204 13010102 		addi	sp,sp,32
 369              		.cfi_def_cfa_offset 0
 370 0208 67800000 		jr	ra
 371              		.cfi_endproc
 372              	.LFE29:
 373              		.section	.gcc_except_table
 374              	.LLSDA29:
 375 00a1 FF       		.byte	0xff
 376 00a2 FF       		.byte	0xff
 377 00a3 03       		.byte	0x3
 378 00a4 00       		.byte	0
 379              		.text
 381              		.globl	_ZN9BufferCPPD1Ev
 382              		.set	_ZN9BufferCPPD1Ev,_ZN9BufferCPPD2Ev
 383              		.align	2
 384              		.globl	_ZN9BufferCPP3putEi
 386              	_ZN9BufferCPP3putEi:
 387              	.LFB31:
GAS LISTING /tmp/ccoqFRBX.s 			page 9


  34:test/buffer_CPP_API.cpp **** 
  35:test/buffer_CPP_API.cpp **** void BufferCPP::put(int val) {
 388              		.loc 1 35 30 is_stmt 1
 389              		.cfi_startproc
 390              	.LVL38:
 391 020c 130101FE 		addi	sp,sp,-32
 392              		.cfi_def_cfa_offset 32
 393 0210 233C1100 		sd	ra,24(sp)
 394 0214 23388100 		sd	s0,16(sp)
 395 0218 23349100 		sd	s1,8(sp)
 396 021c 23302101 		sd	s2,0(sp)
 397              		.cfi_offset 1, -8
 398              		.cfi_offset 8, -16
 399              		.cfi_offset 9, -24
 400              		.cfi_offset 18, -32
 401 0220 13040102 		addi	s0,sp,32
 402              		.cfi_def_cfa 8, 0
 403 0224 93040500 		mv	s1,a0
 404 0228 13890500 		mv	s2,a1
  36:test/buffer_CPP_API.cpp ****     spaceAvailable->wait();
 405              		.loc 1 36 5
 406              		.loc 1 36 25 is_stmt 0
 407 022c 03358501 		ld	a0,24(a0)
 408              	.LVL39:
 409 0230 97000000 		call	_ZN9Semaphore4waitEv@plt
 409      E7800000 
 410              	.LVL40:
  37:test/buffer_CPP_API.cpp **** 
  38:test/buffer_CPP_API.cpp ****     mutexTail->wait();
 411              		.loc 1 38 5 is_stmt 1
 412              		.loc 1 38 20 is_stmt 0
 413 0238 03B50403 		ld	a0,48(s1)
 414 023c 97000000 		call	_ZN9Semaphore4waitEv@plt
 414      E7800000 
 415              	.LVL41:
  39:test/buffer_CPP_API.cpp ****     buffer[tail] = val;
 416              		.loc 1 39 5 is_stmt 1
 417 0244 83B78400 		ld	a5,8(s1)
 418              		.loc 1 39 12 is_stmt 0
 419 0248 03A74401 		lw	a4,20(s1)
 420              		.loc 1 39 16
 421 024c 13172700 		slli	a4,a4,2
 422 0250 B387E700 		add	a5,a5,a4
 423              		.loc 1 39 18
 424 0254 23A02701 		sw	s2,0(a5)
  40:test/buffer_CPP_API.cpp ****     tail = (tail + 1) % cap;
 425              		.loc 1 40 5 is_stmt 1
 426              		.loc 1 40 13 is_stmt 0
 427 0258 83A74401 		lw	a5,20(s1)
 428              		.loc 1 40 18
 429 025c 9B871700 		addiw	a5,a5,1
 430              		.loc 1 40 25
 431 0260 03A70400 		lw	a4,0(s1)
 432              		.loc 1 40 23
 433 0264 BBE7E702 		remw	a5,a5,a4
 434              		.loc 1 40 10
 435 0268 23AAF400 		sw	a5,20(s1)
GAS LISTING /tmp/ccoqFRBX.s 			page 10


  41:test/buffer_CPP_API.cpp ****     mutexTail->signal();
 436              		.loc 1 41 5 is_stmt 1
 437              		.loc 1 41 22 is_stmt 0
 438 026c 03B50403 		ld	a0,48(s1)
 439 0270 97000000 		call	_ZN9Semaphore6signalEv@plt
 439      E7800000 
 440              	.LVL42:
  42:test/buffer_CPP_API.cpp **** 
  43:test/buffer_CPP_API.cpp ****     itemAvailable->signal();
 441              		.loc 1 43 5 is_stmt 1
 442              		.loc 1 43 26 is_stmt 0
 443 0278 03B50402 		ld	a0,32(s1)
 444 027c 97000000 		call	_ZN9Semaphore6signalEv@plt
 444      E7800000 
 445              	.LVL43:
  44:test/buffer_CPP_API.cpp **** 
  45:test/buffer_CPP_API.cpp **** }
 446              		.loc 1 45 1
 447 0284 83308101 		ld	ra,24(sp)
 448              		.cfi_restore 1
 449 0288 03340101 		ld	s0,16(sp)
 450              		.cfi_restore 8
 451              		.cfi_def_cfa 2, 32
 452 028c 83348100 		ld	s1,8(sp)
 453              		.cfi_restore 9
 454              	.LVL44:
 455 0290 03390100 		ld	s2,0(sp)
 456              		.cfi_restore 18
 457 0294 13010102 		addi	sp,sp,32
 458              		.cfi_def_cfa_offset 0
 459 0298 67800000 		jr	ra
 460              		.cfi_endproc
 461              	.LFE31:
 463              		.align	2
 464              		.globl	_ZN9BufferCPP3getEv
 466              	_ZN9BufferCPP3getEv:
 467              	.LFB32:
  46:test/buffer_CPP_API.cpp **** 
  47:test/buffer_CPP_API.cpp **** int BufferCPP::get() {
 468              		.loc 1 47 22 is_stmt 1
 469              		.cfi_startproc
 470              	.LVL45:
 471 029c 130101FE 		addi	sp,sp,-32
 472              		.cfi_def_cfa_offset 32
 473 02a0 233C1100 		sd	ra,24(sp)
 474 02a4 23388100 		sd	s0,16(sp)
 475 02a8 23349100 		sd	s1,8(sp)
 476 02ac 23302101 		sd	s2,0(sp)
 477              		.cfi_offset 1, -8
 478              		.cfi_offset 8, -16
 479              		.cfi_offset 9, -24
 480              		.cfi_offset 18, -32
 481 02b0 13040102 		addi	s0,sp,32
 482              		.cfi_def_cfa 8, 0
 483 02b4 93040500 		mv	s1,a0
  48:test/buffer_CPP_API.cpp ****     itemAvailable->wait();
 484              		.loc 1 48 5
GAS LISTING /tmp/ccoqFRBX.s 			page 11


 485              		.loc 1 48 24 is_stmt 0
 486 02b8 03350502 		ld	a0,32(a0)
 487              	.LVL46:
 488 02bc 97000000 		call	_ZN9Semaphore4waitEv@plt
 488      E7800000 
 489              	.LVL47:
  49:test/buffer_CPP_API.cpp **** 
  50:test/buffer_CPP_API.cpp ****     mutexHead->wait();
 490              		.loc 1 50 5 is_stmt 1
 491              		.loc 1 50 20 is_stmt 0
 492 02c4 03B58402 		ld	a0,40(s1)
 493 02c8 97000000 		call	_ZN9Semaphore4waitEv@plt
 493      E7800000 
 494              	.LVL48:
  51:test/buffer_CPP_API.cpp **** 
  52:test/buffer_CPP_API.cpp ****     int ret = buffer[head];
 495              		.loc 1 52 5 is_stmt 1
 496              		.loc 1 52 15 is_stmt 0
 497 02d0 03B78400 		ld	a4,8(s1)
 498              		.loc 1 52 22
 499 02d4 83A70401 		lw	a5,16(s1)
 500              		.loc 1 52 26
 501 02d8 93962700 		slli	a3,a5,2
 502 02dc 3307D700 		add	a4,a4,a3
 503              		.loc 1 52 9
 504 02e0 03290700 		lw	s2,0(a4)
 505              	.LVL49:
  53:test/buffer_CPP_API.cpp ****     head = (head + 1) % cap;
 506              		.loc 1 53 5 is_stmt 1
 507              		.loc 1 53 18 is_stmt 0
 508 02e4 9B871700 		addiw	a5,a5,1
 509              		.loc 1 53 25
 510 02e8 03A70400 		lw	a4,0(s1)
 511              		.loc 1 53 23
 512 02ec BBE7E702 		remw	a5,a5,a4
 513              		.loc 1 53 10
 514 02f0 23A8F400 		sw	a5,16(s1)
  54:test/buffer_CPP_API.cpp ****     mutexHead->signal();
 515              		.loc 1 54 5 is_stmt 1
 516              		.loc 1 54 22 is_stmt 0
 517 02f4 03B58402 		ld	a0,40(s1)
 518 02f8 97000000 		call	_ZN9Semaphore6signalEv@plt
 518      E7800000 
 519              	.LVL50:
  55:test/buffer_CPP_API.cpp **** 
  56:test/buffer_CPP_API.cpp ****     spaceAvailable->signal();
 520              		.loc 1 56 5 is_stmt 1
 521              		.loc 1 56 27 is_stmt 0
 522 0300 03B58401 		ld	a0,24(s1)
 523 0304 97000000 		call	_ZN9Semaphore6signalEv@plt
 523      E7800000 
 524              	.LVL51:
  57:test/buffer_CPP_API.cpp **** 
  58:test/buffer_CPP_API.cpp ****     return ret;
 525              		.loc 1 58 5 is_stmt 1
  59:test/buffer_CPP_API.cpp **** }
 526              		.loc 1 59 1 is_stmt 0
GAS LISTING /tmp/ccoqFRBX.s 			page 12


 527 030c 13050900 		mv	a0,s2
 528 0310 83308101 		ld	ra,24(sp)
 529              		.cfi_restore 1
 530 0314 03340101 		ld	s0,16(sp)
 531              		.cfi_restore 8
 532              		.cfi_def_cfa 2, 32
 533 0318 83348100 		ld	s1,8(sp)
 534              		.cfi_restore 9
 535              	.LVL52:
 536 031c 03390100 		ld	s2,0(sp)
 537              		.cfi_restore 18
 538              	.LVL53:
 539 0320 13010102 		addi	sp,sp,32
 540              		.cfi_def_cfa_offset 0
 541 0324 67800000 		jr	ra
 542              		.cfi_endproc
 543              	.LFE32:
 545              	.Letext0:
 546              		.file 3 "test/../h/../lib/hw.h"
 547              		.file 4 "test/buffer_CPP_API.hpp"
 548              		.file 5 "test/../h/syscall_cpp.hpp"
 549              		.file 6 "test/../h/../lib/console.h"
 550              		.file 7 "test/../h/syscall_c.h"
 2159              		.align	3
 2162              	DW.ref.__gxx_personality_v0:
 2163 0000 00000000 		.dword	__gxx_personality_v0
 2163      00000000 
 2164              		.ident	"GCC: (Ubuntu 9.3.0-17ubuntu1~20.04) 9.3.0"
 2165              		.section	.note.GNU-stack,"",@progbits
GAS LISTING /tmp/ccoqFRBX.s 			page 13


DEFINED SYMBOLS
                            *ABS*:0000000000000000 buffer_CPP_API.cpp
     /tmp/ccoqFRBX.s:9      .text:0000000000000000 _ZN9BufferCPPC2Ei
     /tmp/ccoqFRBX.s:13     .text:0000000000000000 .L0 
     /tmp/ccoqFRBX.s:2162   .data.rel.local.DW.ref.__gxx_personality_v0:0000000000000000 DW.ref.__gxx_personality_v0
     /tmp/ccoqFRBX.s:17     .text:0000000000000000 .L0 
     /tmp/ccoqFRBX.s:18     .text:0000000000000004 .L0 
     /tmp/ccoqFRBX.s:23     .text:0000000000000014 .L0 
     /tmp/ccoqFRBX.s:24     .text:0000000000000014 .L0 
     /tmp/ccoqFRBX.s:25     .text:0000000000000014 .L0 
     /tmp/ccoqFRBX.s:26     .text:0000000000000014 .L0 
     /tmp/ccoqFRBX.s:28     .text:0000000000000018 .L0 
     /tmp/ccoqFRBX.s:32     .text:000000000000001c .L0 
     /tmp/ccoqFRBX.s:36     .text:0000000000000028 .L0 
     /tmp/ccoqFRBX.s:37     .text:0000000000000028 .L0 
     /tmp/ccoqFRBX.s:43     .text:0000000000000034 .L0 
     /tmp/ccoqFRBX.s:45     .text:0000000000000038 .L0 
     /tmp/ccoqFRBX.s:46     .text:0000000000000038 .L0 
     /tmp/ccoqFRBX.s:57     .text:0000000000000054 .L0 
     /tmp/ccoqFRBX.s:59     .text:0000000000000058 .L0 
     /tmp/ccoqFRBX.s:60     .text:0000000000000058 .L0 
     /tmp/ccoqFRBX.s:72     .text:0000000000000074 .L0 
     /tmp/ccoqFRBX.s:74     .text:0000000000000078 .L0 
     /tmp/ccoqFRBX.s:75     .text:0000000000000078 .L0 
     /tmp/ccoqFRBX.s:87     .text:0000000000000094 .L0 
     /tmp/ccoqFRBX.s:89     .text:0000000000000098 .L0 
     /tmp/ccoqFRBX.s:90     .text:0000000000000098 .L0 
     /tmp/ccoqFRBX.s:102    .text:00000000000000b4 .L0 
     /tmp/ccoqFRBX.s:105    .text:00000000000000b8 .L0 
     /tmp/ccoqFRBX.s:106    .text:00000000000000bc .L0 
     /tmp/ccoqFRBX.s:107    .text:00000000000000bc .L0 
     /tmp/ccoqFRBX.s:109    .text:00000000000000c0 .L0 
     /tmp/ccoqFRBX.s:110    .text:00000000000000c0 .L0 
     /tmp/ccoqFRBX.s:112    .text:00000000000000c4 .L0 
     /tmp/ccoqFRBX.s:115    .text:00000000000000c8 .L0 
     /tmp/ccoqFRBX.s:117    .text:00000000000000cc .L0 
     /tmp/ccoqFRBX.s:121    .text:00000000000000d0 .L0 
     /tmp/ccoqFRBX.s:126    .text:00000000000000d4 .L0 
     /tmp/ccoqFRBX.s:138    .text:00000000000000f0 .L0 
     /tmp/ccoqFRBX.s:150    .text:000000000000010c .L0 
     /tmp/ccoqFRBX.s:162    .text:0000000000000128 .L0 
     /tmp/ccoqFRBX.s:171    .text:0000000000000140 .L0 
     /tmp/ccoqFRBX.s:9      .text:0000000000000000 _ZN9BufferCPPC1Ei
     /tmp/ccoqFRBX.s:235    .text:0000000000000140 _ZN9BufferCPPD2Ev
     /tmp/ccoqFRBX.s:238    .text:0000000000000140 .L0 
     /tmp/ccoqFRBX.s:242    .text:0000000000000140 .L0 
     /tmp/ccoqFRBX.s:243    .text:0000000000000144 .L0 
     /tmp/ccoqFRBX.s:247    .text:0000000000000150 .L0 
     /tmp/ccoqFRBX.s:248    .text:0000000000000150 .L0 
     /tmp/ccoqFRBX.s:249    .text:0000000000000150 .L0 
     /tmp/ccoqFRBX.s:251    .text:0000000000000154 .L0 
     /tmp/ccoqFRBX.s:259    .text:0000000000000158 .L0 
     /tmp/ccoqFRBX.s:260    .text:0000000000000158 .L0 
     /tmp/ccoqFRBX.s:261    .text:0000000000000158 .L0 
     /tmp/ccoqFRBX.s:269    .text:0000000000000164 .L0 
     /tmp/ccoqFRBX.s:270    .text:0000000000000164 .L0 
     /tmp/ccoqFRBX.s:271    .text:0000000000000164 .L0 
GAS LISTING /tmp/ccoqFRBX.s 			page 14


     /tmp/ccoqFRBX.s:273    .text:0000000000000168 .L0 
     /tmp/ccoqFRBX.s:275    .text:000000000000016c .L0 
     /tmp/ccoqFRBX.s:277    .text:0000000000000170 .L0 
     /tmp/ccoqFRBX.s:278    .text:0000000000000170 .L0 
     /tmp/ccoqFRBX.s:280    .text:0000000000000174 .L0 
     /tmp/ccoqFRBX.s:282    .text:0000000000000178 .L0 
     /tmp/ccoqFRBX.s:284    .text:000000000000017c .L0 
     /tmp/ccoqFRBX.s:286    .text:0000000000000180 .L0 
     /tmp/ccoqFRBX.s:292    .text:0000000000000184 .L0 
     /tmp/ccoqFRBX.s:293    .text:0000000000000184 .L0 
     /tmp/ccoqFRBX.s:294    .text:0000000000000184 .L0 
     /tmp/ccoqFRBX.s:302    .text:0000000000000190 .L0 
     /tmp/ccoqFRBX.s:303    .text:0000000000000190 .L0 
     /tmp/ccoqFRBX.s:304    .text:0000000000000190 .L0 
     /tmp/ccoqFRBX.s:310    .text:000000000000019c .L0 
     /tmp/ccoqFRBX.s:311    .text:000000000000019c .L0 
     /tmp/ccoqFRBX.s:315    .text:00000000000001a8 .L0 
     /tmp/ccoqFRBX.s:316    .text:00000000000001a8 .L0 
     /tmp/ccoqFRBX.s:318    .text:00000000000001ac .L0 
     /tmp/ccoqFRBX.s:320    .text:00000000000001b0 .L0 
     /tmp/ccoqFRBX.s:326    .text:00000000000001bc .L0 
     /tmp/ccoqFRBX.s:327    .text:00000000000001bc .L0 
     /tmp/ccoqFRBX.s:329    .text:00000000000001c0 .L0 
     /tmp/ccoqFRBX.s:331    .text:00000000000001c4 .L0 
     /tmp/ccoqFRBX.s:337    .text:00000000000001d0 .L0 
     /tmp/ccoqFRBX.s:338    .text:00000000000001d0 .L0 
     /tmp/ccoqFRBX.s:340    .text:00000000000001d4 .L0 
     /tmp/ccoqFRBX.s:342    .text:00000000000001d8 .L0 
     /tmp/ccoqFRBX.s:348    .text:00000000000001e4 .L0 
     /tmp/ccoqFRBX.s:349    .text:00000000000001e4 .L0 
     /tmp/ccoqFRBX.s:351    .text:00000000000001e8 .L0 
     /tmp/ccoqFRBX.s:353    .text:00000000000001ec .L0 
     /tmp/ccoqFRBX.s:360    .text:00000000000001f8 .L0 
     /tmp/ccoqFRBX.s:361    .text:00000000000001fc .L0 
     /tmp/ccoqFRBX.s:363    .text:0000000000000200 .L0 
     /tmp/ccoqFRBX.s:364    .text:0000000000000200 .L0 
     /tmp/ccoqFRBX.s:366    .text:0000000000000204 .L0 
     /tmp/ccoqFRBX.s:369    .text:0000000000000208 .L0 
     /tmp/ccoqFRBX.s:371    .text:000000000000020c .L0 
     /tmp/ccoqFRBX.s:235    .text:0000000000000140 _ZN9BufferCPPD1Ev
     /tmp/ccoqFRBX.s:386    .text:000000000000020c _ZN9BufferCPP3putEi
     /tmp/ccoqFRBX.s:389    .text:000000000000020c .L0 
     /tmp/ccoqFRBX.s:391    .text:000000000000020c .L0 
     /tmp/ccoqFRBX.s:392    .text:0000000000000210 .L0 
     /tmp/ccoqFRBX.s:397    .text:0000000000000220 .L0 
     /tmp/ccoqFRBX.s:398    .text:0000000000000220 .L0 
     /tmp/ccoqFRBX.s:399    .text:0000000000000220 .L0 
     /tmp/ccoqFRBX.s:400    .text:0000000000000220 .L0 
     /tmp/ccoqFRBX.s:402    .text:0000000000000224 .L0 
     /tmp/ccoqFRBX.s:406    .text:000000000000022c .L0 
     /tmp/ccoqFRBX.s:407    .text:000000000000022c .L0 
     /tmp/ccoqFRBX.s:412    .text:0000000000000238 .L0 
     /tmp/ccoqFRBX.s:413    .text:0000000000000238 .L0 
     /tmp/ccoqFRBX.s:417    .text:0000000000000244 .L0 
     /tmp/ccoqFRBX.s:419    .text:0000000000000248 .L0 
     /tmp/ccoqFRBX.s:421    .text:000000000000024c .L0 
     /tmp/ccoqFRBX.s:424    .text:0000000000000254 .L0 
GAS LISTING /tmp/ccoqFRBX.s 			page 15


     /tmp/ccoqFRBX.s:426    .text:0000000000000258 .L0 
     /tmp/ccoqFRBX.s:427    .text:0000000000000258 .L0 
     /tmp/ccoqFRBX.s:429    .text:000000000000025c .L0 
     /tmp/ccoqFRBX.s:431    .text:0000000000000260 .L0 
     /tmp/ccoqFRBX.s:433    .text:0000000000000264 .L0 
     /tmp/ccoqFRBX.s:435    .text:0000000000000268 .L0 
     /tmp/ccoqFRBX.s:437    .text:000000000000026c .L0 
     /tmp/ccoqFRBX.s:438    .text:000000000000026c .L0 
     /tmp/ccoqFRBX.s:442    .text:0000000000000278 .L0 
     /tmp/ccoqFRBX.s:443    .text:0000000000000278 .L0 
     /tmp/ccoqFRBX.s:447    .text:0000000000000284 .L0 
     /tmp/ccoqFRBX.s:448    .text:0000000000000288 .L0 
     /tmp/ccoqFRBX.s:450    .text:000000000000028c .L0 
     /tmp/ccoqFRBX.s:451    .text:000000000000028c .L0 
     /tmp/ccoqFRBX.s:453    .text:0000000000000290 .L0 
     /tmp/ccoqFRBX.s:456    .text:0000000000000294 .L0 
     /tmp/ccoqFRBX.s:458    .text:0000000000000298 .L0 
     /tmp/ccoqFRBX.s:460    .text:000000000000029c .L0 
     /tmp/ccoqFRBX.s:466    .text:000000000000029c _ZN9BufferCPP3getEv
     /tmp/ccoqFRBX.s:469    .text:000000000000029c .L0 
     /tmp/ccoqFRBX.s:471    .text:000000000000029c .L0 
     /tmp/ccoqFRBX.s:472    .text:00000000000002a0 .L0 
     /tmp/ccoqFRBX.s:477    .text:00000000000002b0 .L0 
     /tmp/ccoqFRBX.s:478    .text:00000000000002b0 .L0 
     /tmp/ccoqFRBX.s:479    .text:00000000000002b0 .L0 
     /tmp/ccoqFRBX.s:480    .text:00000000000002b0 .L0 
     /tmp/ccoqFRBX.s:482    .text:00000000000002b4 .L0 
     /tmp/ccoqFRBX.s:485    .text:00000000000002b8 .L0 
     /tmp/ccoqFRBX.s:486    .text:00000000000002b8 .L0 
     /tmp/ccoqFRBX.s:491    .text:00000000000002c4 .L0 
     /tmp/ccoqFRBX.s:492    .text:00000000000002c4 .L0 
     /tmp/ccoqFRBX.s:496    .text:00000000000002d0 .L0 
     /tmp/ccoqFRBX.s:497    .text:00000000000002d0 .L0 
     /tmp/ccoqFRBX.s:499    .text:00000000000002d4 .L0 
     /tmp/ccoqFRBX.s:501    .text:00000000000002d8 .L0 
     /tmp/ccoqFRBX.s:504    .text:00000000000002e0 .L0 
     /tmp/ccoqFRBX.s:507    .text:00000000000002e4 .L0 
     /tmp/ccoqFRBX.s:508    .text:00000000000002e4 .L0 
     /tmp/ccoqFRBX.s:510    .text:00000000000002e8 .L0 
     /tmp/ccoqFRBX.s:512    .text:00000000000002ec .L0 
     /tmp/ccoqFRBX.s:514    .text:00000000000002f0 .L0 
     /tmp/ccoqFRBX.s:516    .text:00000000000002f4 .L0 
     /tmp/ccoqFRBX.s:517    .text:00000000000002f4 .L0 
     /tmp/ccoqFRBX.s:521    .text:0000000000000300 .L0 
     /tmp/ccoqFRBX.s:522    .text:0000000000000300 .L0 
     /tmp/ccoqFRBX.s:526    .text:000000000000030c .L0 
     /tmp/ccoqFRBX.s:527    .text:000000000000030c .L0 
     /tmp/ccoqFRBX.s:529    .text:0000000000000314 .L0 
     /tmp/ccoqFRBX.s:531    .text:0000000000000318 .L0 
     /tmp/ccoqFRBX.s:532    .text:0000000000000318 .L0 
     /tmp/ccoqFRBX.s:534    .text:000000000000031c .L0 
     /tmp/ccoqFRBX.s:537    .text:0000000000000320 .L0 
     /tmp/ccoqFRBX.s:540    .text:0000000000000324 .L0 
     /tmp/ccoqFRBX.s:542    .text:0000000000000328 .L0 
     /tmp/ccoqFRBX.s:551    .text:0000000000000328 .L0 
     /tmp/ccoqFRBX.s:287    .text:0000000000000184 .L13
     /tmp/ccoqFRBX.s:265    .text:0000000000000164 .L14
GAS LISTING /tmp/ccoqFRBX.s 			page 16


     /tmp/ccoqFRBX.s:324    .text:00000000000001bc .L15
     /tmp/ccoqFRBX.s:335    .text:00000000000001d0 .L16
     /tmp/ccoqFRBX.s:346    .text:00000000000001e4 .L17
     /tmp/ccoqFRBX.s:357    .text:00000000000001f8 .L12
     /tmp/ccoqFRBX.s:39     .text:000000000000002c .LEHB0
     /tmp/ccoqFRBX.s:10     .text:0000000000000000 .LFB26
     /tmp/ccoqFRBX.s:49     .text:0000000000000044 .LEHE0
     /tmp/ccoqFRBX.s:52     .text:000000000000004c .LEHB1
     /tmp/ccoqFRBX.s:55     .text:0000000000000054 .LEHE1
     /tmp/ccoqFRBX.s:120    .text:00000000000000d0 .L6
     /tmp/ccoqFRBX.s:61     .text:000000000000005c .LEHB2
     /tmp/ccoqFRBX.s:64     .text:0000000000000064 .LEHE2
     /tmp/ccoqFRBX.s:67     .text:000000000000006c .LEHB3
     /tmp/ccoqFRBX.s:70     .text:0000000000000074 .LEHE3
     /tmp/ccoqFRBX.s:134    .text:00000000000000ec .L7
     /tmp/ccoqFRBX.s:76     .text:000000000000007c .LEHB4
     /tmp/ccoqFRBX.s:79     .text:0000000000000084 .LEHE4
     /tmp/ccoqFRBX.s:82     .text:000000000000008c .LEHB5
     /tmp/ccoqFRBX.s:85     .text:0000000000000094 .LEHE5
     /tmp/ccoqFRBX.s:146    .text:0000000000000108 .L8
     /tmp/ccoqFRBX.s:91     .text:000000000000009c .LEHB6
     /tmp/ccoqFRBX.s:94     .text:00000000000000a4 .LEHE6
     /tmp/ccoqFRBX.s:97     .text:00000000000000ac .LEHB7
     /tmp/ccoqFRBX.s:100    .text:00000000000000b4 .LEHE7
     /tmp/ccoqFRBX.s:158    .text:0000000000000124 .L9
     /tmp/ccoqFRBX.s:130    .text:00000000000000e4 .LEHB8
     /tmp/ccoqFRBX.s:133    .text:00000000000000ec .LEHE8
     /tmp/ccoqFRBX.s:142    .text:0000000000000100 .LEHB9
     /tmp/ccoqFRBX.s:145    .text:0000000000000108 .LEHE9
     /tmp/ccoqFRBX.s:154    .text:000000000000011c .LEHB10
     /tmp/ccoqFRBX.s:157    .text:0000000000000124 .LEHE10
     /tmp/ccoqFRBX.s:166    .text:0000000000000138 .LEHB11
     /tmp/ccoqFRBX.s:169    .text:0000000000000140 .LEHE11
     /tmp/ccoqFRBX.s:1262   .debug_abbrev:0000000000000000 .Ldebug_abbrev0
     /tmp/ccoqFRBX.s:2054   .debug_str:000000000000002e .LASF47
     /tmp/ccoqFRBX.s:2096   .debug_str:00000000000001fe .LASF48
     /tmp/ccoqFRBX.s:2126   .debug_str:00000000000002c5 .LASF49
     /tmp/ccoqFRBX.s:5      .text:0000000000000000 .Ltext0
     /tmp/ccoqFRBX.s:545    .text:0000000000000328 .Letext0
     /tmp/ccoqFRBX.s:2044   .debug_line:0000000000000000 .Ldebug_line0
     /tmp/ccoqFRBX.s:2106   .debug_str:000000000000024b .LASF0
     /tmp/ccoqFRBX.s:2084   .debug_str:00000000000001ab .LASF1
     /tmp/ccoqFRBX.s:2078   .debug_str:0000000000000186 .LASF2
     /tmp/ccoqFRBX.s:2064   .debug_str:0000000000000110 .LASF4
     /tmp/ccoqFRBX.s:2082   .debug_str:0000000000000199 .LASF3
     /tmp/ccoqFRBX.s:2052   .debug_str:0000000000000027 .LASF5
     /tmp/ccoqFRBX.s:2138   .debug_str:000000000000031e .LASF6
     /tmp/ccoqFRBX.s:2070   .debug_str:000000000000013a .LASF7
     /tmp/ccoqFRBX.s:2118   .debug_str:0000000000000286 .LASF8
     /tmp/ccoqFRBX.s:2048   .debug_str:0000000000000005 .LASF9
     /tmp/ccoqFRBX.s:2154   .debug_str:000000000000037b .LASF10
     /tmp/ccoqFRBX.s:2072   .debug_str:000000000000014d .LASF11
     /tmp/ccoqFRBX.s:2140   .debug_str:0000000000000331 .LASF12
     /tmp/ccoqFRBX.s:2122   .debug_str:00000000000002ac .LASF13
     /tmp/ccoqFRBX.s:2090   .debug_str:00000000000001d6 .LASF14
     /tmp/ccoqFRBX.s:2060   .debug_str:00000000000000e8 .LASF15
     /tmp/ccoqFRBX.s:2120   .debug_str:0000000000000296 .LASF16
GAS LISTING /tmp/ccoqFRBX.s 			page 17


     /tmp/ccoqFRBX.s:2128   .debug_str:00000000000002e8 .LASF17
     /tmp/ccoqFRBX.s:2092   .debug_str:00000000000001e2 .LASF25
     /tmp/ccoqFRBX.s:2056   .debug_str:00000000000000da .LASF18
     /tmp/ccoqFRBX.s:2100   .debug_str:000000000000022d .LASF19
     /tmp/ccoqFRBX.s:2114   .debug_str:000000000000027a .LASF20
     /tmp/ccoqFRBX.s:2088   .debug_str:00000000000001c7 .LASF21
     /tmp/ccoqFRBX.s:2068   .debug_str:000000000000012c .LASF22
     /tmp/ccoqFRBX.s:2108   .debug_str:0000000000000258 .LASF23
     /tmp/ccoqFRBX.s:2152   .debug_str:0000000000000371 .LASF24
     /tmp/ccoqFRBX.s:2074   .debug_str:000000000000015c .LASF27
     /tmp/ccoqFRBX.s:2110   .debug_str:0000000000000262 .LASF26
     /tmp/ccoqFRBX.s:2132   .debug_str:00000000000002f2 .LASF28
     /tmp/ccoqFRBX.s:2102   .debug_str:0000000000000232 .LASF29
     /tmp/ccoqFRBX.s:2050   .debug_str:0000000000000013 .LASF30
     /tmp/ccoqFRBX.s:2150   .debug_str:0000000000000367 .LASF50
     /tmp/ccoqFRBX.s:2066   .debug_str:0000000000000117 .LASF31
     /tmp/ccoqFRBX.s:2104   .debug_str:0000000000000246 .LASF33
     /tmp/ccoqFRBX.s:2098   .debug_str:0000000000000216 .LASF32
     /tmp/ccoqFRBX.s:2058   .debug_str:00000000000000e1 .LASF34
     /tmp/ccoqFRBX.s:467    .text:000000000000029c .LFB32
     /tmp/ccoqFRBX.s:543    .text:0000000000000328 .LFE32
     /tmp/ccoqFRBX.s:2080   .debug_str:0000000000000194 .LASF35
     /tmp/ccoqFRBX.s:1851   .debug_loc:0000000000000000 .LLST8
     /tmp/ccoqFRBX.s:1869   .debug_loc:000000000000004c .LLST9
     /tmp/ccoqFRBX.s:489    .text:00000000000002c4 .LVL47
     /tmp/ccoqFRBX.s:494    .text:00000000000002d0 .LVL48
     /tmp/ccoqFRBX.s:519    .text:0000000000000300 .LVL50
     /tmp/ccoqFRBX.s:524    .text:000000000000030c .LVL51
     /tmp/ccoqFRBX.s:387    .text:000000000000020c .LFB31
     /tmp/ccoqFRBX.s:461    .text:000000000000029c .LFE31
     /tmp/ccoqFRBX.s:1880   .debug_loc:0000000000000082 .LLST6
     /tmp/ccoqFRBX.s:1898   .debug_loc:00000000000000ce .LLST7
     /tmp/ccoqFRBX.s:410    .text:0000000000000238 .LVL40
     /tmp/ccoqFRBX.s:415    .text:0000000000000244 .LVL41
     /tmp/ccoqFRBX.s:440    .text:0000000000000278 .LVL42
     /tmp/ccoqFRBX.s:445    .text:0000000000000284 .LVL43
     /tmp/ccoqFRBX.s:2136   .debug_str:0000000000000314 .LASF36
     /tmp/ccoqFRBX.s:2094   .debug_str:00000000000001ec .LASF37
     /tmp/ccoqFRBX.s:236    .text:0000000000000140 .LFB29
     /tmp/ccoqFRBX.s:372    .text:000000000000020c .LFE29
     /tmp/ccoqFRBX.s:1912   .debug_loc:0000000000000107 .LLST2
     /tmp/ccoqFRBX.s:256    .text:0000000000000158 .LBB12
     /tmp/ccoqFRBX.s:267    .text:0000000000000164 .LBE12
     /tmp/ccoqFRBX.s:1930   .debug_loc:0000000000000153 .LLST3
     /tmp/ccoqFRBX.s:264    .text:0000000000000164 .LVL28
     /tmp/ccoqFRBX.s:290    .text:0000000000000184 .LBB14
     /tmp/ccoqFRBX.s:298    .text:0000000000000190 .LBE14
     /tmp/ccoqFRBX.s:1938   .debug_loc:0000000000000177 .LLST4
     /tmp/ccoqFRBX.s:296    .text:0000000000000190 .LVL30
     /tmp/ccoqFRBX.s:300    .text:0000000000000190 .LBB16
     /tmp/ccoqFRBX.s:308    .text:000000000000019c .LBE16
     /tmp/ccoqFRBX.s:1947   .debug_loc:000000000000019c .LLST5
     /tmp/ccoqFRBX.s:306    .text:000000000000019c .LVL31
     /tmp/ccoqFRBX.s:313    .text:00000000000001a8 .LVL32
     /tmp/ccoqFRBX.s:2046   .debug_str:0000000000000000 .LASF39
     /tmp/ccoqFRBX.s:2062   .debug_str:00000000000000fe .LASF38
     /tmp/ccoqFRBX.s:172    .text:0000000000000140 .LFE26
GAS LISTING /tmp/ccoqFRBX.s 			page 18


     /tmp/ccoqFRBX.s:1955   .debug_loc:00000000000001c0 .LLST0
     /tmp/ccoqFRBX.s:2017   .debug_loc:00000000000002b0 .LLST1
     /tmp/ccoqFRBX.s:41     .text:0000000000000034 .LVL2
     /tmp/ccoqFRBX.s:48     .text:0000000000000044 .LVL3
     /tmp/ccoqFRBX.s:54     .text:0000000000000054 .LVL4
     /tmp/ccoqFRBX.s:63     .text:0000000000000064 .LVL5
     /tmp/ccoqFRBX.s:69     .text:0000000000000074 .LVL6
     /tmp/ccoqFRBX.s:78     .text:0000000000000084 .LVL7
     /tmp/ccoqFRBX.s:84     .text:0000000000000094 .LVL8
     /tmp/ccoqFRBX.s:93     .text:00000000000000a4 .LVL9
     /tmp/ccoqFRBX.s:99     .text:00000000000000b4 .LVL10
     /tmp/ccoqFRBX.s:128    .text:00000000000000e0 .LVL14
     /tmp/ccoqFRBX.s:132    .text:00000000000000ec .LVL15
     /tmp/ccoqFRBX.s:140    .text:00000000000000fc .LVL17
     /tmp/ccoqFRBX.s:144    .text:0000000000000108 .LVL18
     /tmp/ccoqFRBX.s:152    .text:0000000000000118 .LVL20
     /tmp/ccoqFRBX.s:156    .text:0000000000000124 .LVL21
     /tmp/ccoqFRBX.s:164    .text:0000000000000134 .LVL23
     /tmp/ccoqFRBX.s:168    .text:0000000000000140 .LVL24
     /tmp/ccoqFRBX.s:2130   .debug_str:00000000000002ed .LASF51
     /tmp/ccoqFRBX.s:2086   .debug_str:00000000000001be .LASF52
     /tmp/ccoqFRBX.s:2116   .debug_str:000000000000027f .LASF40
     /tmp/ccoqFRBX.s:2124   .debug_str:00000000000002bc .LASF41
     /tmp/ccoqFRBX.s:2144   .debug_str:0000000000000348 .LASF42
     /tmp/ccoqFRBX.s:2146   .debug_str:0000000000000352 .LASF43
     /tmp/ccoqFRBX.s:2112   .debug_str:000000000000026d .LASF44
     /tmp/ccoqFRBX.s:2142   .debug_str:0000000000000341 .LASF45
     /tmp/ccoqFRBX.s:2134   .debug_str:0000000000000304 .LASF46
     /tmp/ccoqFRBX.s:2148   .debug_str:0000000000000358 .LASF53
     /tmp/ccoqFRBX.s:2076   .debug_str:000000000000016e .LASF54
     /tmp/ccoqFRBX.s:470    .text:000000000000029c .LVL45
     /tmp/ccoqFRBX.s:487    .text:00000000000002bc .LVL46
     /tmp/ccoqFRBX.s:535    .text:000000000000031c .LVL52
     /tmp/ccoqFRBX.s:505    .text:00000000000002e4 .LVL49
     /tmp/ccoqFRBX.s:538    .text:0000000000000320 .LVL53
     /tmp/ccoqFRBX.s:390    .text:000000000000020c .LVL38
     /tmp/ccoqFRBX.s:408    .text:0000000000000230 .LVL39
     /tmp/ccoqFRBX.s:454    .text:0000000000000290 .LVL44
     /tmp/ccoqFRBX.s:241    .text:0000000000000140 .LVL25
     /tmp/ccoqFRBX.s:262    .text:000000000000015c .LVL27
     /tmp/ccoqFRBX.s:367    .text:0000000000000204 .LVL37
     /tmp/ccoqFRBX.s:255    .text:0000000000000158 .LVL26
     /tmp/ccoqFRBX.s:289    .text:0000000000000184 .LVL29
     /tmp/ccoqFRBX.s:16     .text:0000000000000000 .LVL0
     /tmp/ccoqFRBX.s:38     .text:000000000000002c .LVL1
     /tmp/ccoqFRBX.s:113    .text:00000000000000c4 .LVL11
     /tmp/ccoqFRBX.s:119    .text:00000000000000d0 .LVL12
     /tmp/ccoqFRBX.s:123    .text:00000000000000d4 .LVL13
     /tmp/ccoqFRBX.s:136    .text:00000000000000f0 .LVL16
     /tmp/ccoqFRBX.s:148    .text:000000000000010c .LVL19
     /tmp/ccoqFRBX.s:160    .text:0000000000000128 .LVL22
     /tmp/ccoqFRBX.s:552    .debug_info:0000000000000000 .Ldebug_info0
     /tmp/ccoqFRBX.s:175    .gcc_except_table:0000000000000000 .LLSDA26
     /tmp/ccoqFRBX.s:374    .gcc_except_table:00000000000000a1 .LLSDA29

UNDEFINED SYMBOLS
mem_alloc
GAS LISTING /tmp/ccoqFRBX.s 			page 19


_Znwm
_ZN9SemaphoreC1Ej
_ZdlPv
_Unwind_Resume
__gxx_personality_v0
__putc
mem_free
_ZN9Semaphore4waitEv
_ZN9Semaphore6signalEv
