GAS LISTING /tmp/ccU1OWIF.s 			page 1


   1              		.file	"buffer_CPP_API.cpp"
   2              		.option pic
   3              		.option norelax
   4              		.text
   5              	.Ltext0:
   6              		.align	2
   7              		.globl	_ZN9BufferCPPC2Ei
   9              	_ZN9BufferCPPC2Ei:
  10              	.LFB27:
  11              		.file 1 "test/buffer_CPP_API.cpp"
   1:test/buffer_CPP_API.cpp **** #include "buffer_CPP_API.hpp"
   2:test/buffer_CPP_API.cpp **** 
   3:test/buffer_CPP_API.cpp **** 
   4:test/buffer_CPP_API.cpp **** BufferCPP::BufferCPP(int _cap) : cap(_cap), head(0), tail(0) {
  12              		.loc 1 4 1
  13              		.cfi_startproc
  14              		.cfi_personality 0x9b,DW.ref.__gxx_personality_v0
  15              		.cfi_lsda 0x1b,.LLSDA27
  16              	.LVL0:
  17 0000 130101FE 		addi	sp,sp,-32
  18              		.cfi_def_cfa_offset 32
  19 0004 233C1100 		sd	ra,24(sp)
  20 0008 23388100 		sd	s0,16(sp)
  21 000c 23349100 		sd	s1,8(sp)
  22 0010 23302101 		sd	s2,0(sp)
  23              		.cfi_offset 1, -8
  24              		.cfi_offset 8, -16
  25              		.cfi_offset 9, -24
  26              		.cfi_offset 18, -32
  27 0014 13040102 		addi	s0,sp,32
  28              		.cfi_def_cfa 8, 0
  29 0018 93040500 		mv	s1,a0
  30              	.LBB2:
  31              		.loc 1 4 60 is_stmt 0
  32 001c 2320B500 		sw	a1,0(a0)
  33 0020 23280500 		sw	zero,16(a0)
  34 0024 232A0500 		sw	zero,20(a0)
   5:test/buffer_CPP_API.cpp ****     buffer = (int *)mem_alloc(sizeof(int) * cap);
  35              		.loc 1 5 5 is_stmt 1
  36              		.loc 1 5 30 is_stmt 0
  37 0028 13952500 		slli	a0,a1,2
  38              	.LVL1:
  39              	.LEHB0:
  40 002c 97000000 		call	mem_alloc@plt
  40      E7800000 
  41              	.LVL2:
  42              		.loc 1 5 12
  43 0034 23B4A400 		sd	a0,8(s1)
   6:test/buffer_CPP_API.cpp ****     itemAvailable = new Semaphore(0);
  44              		.loc 1 6 5 is_stmt 1
  45              		.loc 1 6 36 is_stmt 0
  46 0038 13050001 		li	a0,16
  47 003c 97000000 		call	_Znwm@plt
  47      E7800000 
  48              	.LVL3:
  49              	.LEHE0:
  50 0044 13090500 		mv	s2,a0
GAS LISTING /tmp/ccU1OWIF.s 			page 2


  51 0048 93050000 		li	a1,0
  52              	.LEHB1:
  53 004c 97000000 		call	_ZN9SemaphoreC1Ej@plt
  53      E7800000 
  54              	.LVL4:
  55              	.LEHE1:
  56              		.loc 1 6 19 discriminator 2
  57 0054 23B02403 		sd	s2,32(s1)
   7:test/buffer_CPP_API.cpp ****     spaceAvailable = new Semaphore(cap);
  58              		.loc 1 7 5 is_stmt 1 discriminator 2
  59              		.loc 1 7 39 is_stmt 0 discriminator 2
  60 0058 13050001 		li	a0,16
  61              	.LEHB2:
  62 005c 97000000 		call	_Znwm@plt
  62      E7800000 
  63              	.LVL5:
  64              	.LEHE2:
  65 0064 13090500 		mv	s2,a0
  66 0068 83A50400 		lw	a1,0(s1)
  67              	.LEHB3:
  68 006c 97000000 		call	_ZN9SemaphoreC1Ej@plt
  68      E7800000 
  69              	.LVL6:
  70              	.LEHE3:
  71              		.loc 1 7 20 discriminator 2
  72 0074 23BC2401 		sd	s2,24(s1)
   8:test/buffer_CPP_API.cpp ****     mutexHead = new Semaphore(1);
  73              		.loc 1 8 5 is_stmt 1 discriminator 2
  74              		.loc 1 8 32 is_stmt 0 discriminator 2
  75 0078 13050001 		li	a0,16
  76              	.LEHB4:
  77 007c 97000000 		call	_Znwm@plt
  77      E7800000 
  78              	.LVL7:
  79              	.LEHE4:
  80 0084 13090500 		mv	s2,a0
  81 0088 93051000 		li	a1,1
  82              	.LEHB5:
  83 008c 97000000 		call	_ZN9SemaphoreC1Ej@plt
  83      E7800000 
  84              	.LVL8:
  85              	.LEHE5:
  86              		.loc 1 8 15 discriminator 2
  87 0094 23B42403 		sd	s2,40(s1)
   9:test/buffer_CPP_API.cpp ****     mutexTail = new Semaphore(1);
  88              		.loc 1 9 5 is_stmt 1 discriminator 2
  89              		.loc 1 9 32 is_stmt 0 discriminator 2
  90 0098 13050001 		li	a0,16
  91              	.LEHB6:
  92 009c 97000000 		call	_Znwm@plt
  92      E7800000 
  93              	.LVL9:
  94              	.LEHE6:
  95 00a4 13090500 		mv	s2,a0
  96 00a8 93051000 		li	a1,1
  97              	.LEHB7:
  98 00ac 97000000 		call	_ZN9SemaphoreC1Ej@plt
GAS LISTING /tmp/ccU1OWIF.s 			page 3


  98      E7800000 
  99              	.LVL10:
 100              	.LEHE7:
 101              		.loc 1 9 15 discriminator 2
 102 00b4 23B82403 		sd	s2,48(s1)
 103              	.LBE2:
  10:test/buffer_CPP_API.cpp **** }
 104              		.loc 1 10 1 discriminator 2
 105 00b8 83308101 		ld	ra,24(sp)
 106              		.cfi_remember_state
 107              		.cfi_restore 1
 108 00bc 03340101 		ld	s0,16(sp)
 109              		.cfi_restore 8
 110              		.cfi_def_cfa 2, 32
 111 00c0 83348100 		ld	s1,8(sp)
 112              		.cfi_restore 9
 113              	.LVL11:
 114 00c4 03390100 		ld	s2,0(sp)
 115              		.cfi_restore 18
 116 00c8 13010102 		addi	sp,sp,32
 117              		.cfi_def_cfa_offset 0
 118 00cc 67800000 		jr	ra
 119              	.LVL12:
 120              	.L6:
 121              		.cfi_restore_state
 122 00d0 93040500 		mv	s1,a0
 123              	.LVL13:
 124              	.LBB3:
   6:test/buffer_CPP_API.cpp ****     spaceAvailable = new Semaphore(cap);
 125              		.loc 1 6 36
 126 00d4 13050900 		mv	a0,s2
 127 00d8 97000000 		call	_ZdlPv@plt
 127      E7800000 
 128              	.LVL14:
 129 00e0 13850400 		mv	a0,s1
 130              	.LEHB8:
 131 00e4 97000000 		call	_Unwind_Resume@plt
 131      E7800000 
 132              	.LVL15:
 133              	.LEHE8:
 134              	.L7:
 135 00ec 93040500 		mv	s1,a0
 136              	.LVL16:
   7:test/buffer_CPP_API.cpp ****     mutexHead = new Semaphore(1);
 137              		.loc 1 7 39
 138 00f0 13050900 		mv	a0,s2
 139 00f4 97000000 		call	_ZdlPv@plt
 139      E7800000 
 140              	.LVL17:
 141 00fc 13850400 		mv	a0,s1
 142              	.LEHB9:
 143 0100 97000000 		call	_Unwind_Resume@plt
 143      E7800000 
 144              	.LVL18:
 145              	.LEHE9:
 146              	.L8:
 147 0108 93040500 		mv	s1,a0
GAS LISTING /tmp/ccU1OWIF.s 			page 4


 148              	.LVL19:
   8:test/buffer_CPP_API.cpp ****     mutexTail = new Semaphore(1);
 149              		.loc 1 8 32
 150 010c 13050900 		mv	a0,s2
 151 0110 97000000 		call	_ZdlPv@plt
 151      E7800000 
 152              	.LVL20:
 153 0118 13850400 		mv	a0,s1
 154              	.LEHB10:
 155 011c 97000000 		call	_Unwind_Resume@plt
 155      E7800000 
 156              	.LVL21:
 157              	.LEHE10:
 158              	.L9:
 159 0124 93040500 		mv	s1,a0
 160              	.LVL22:
   9:test/buffer_CPP_API.cpp **** }
 161              		.loc 1 9 32
 162 0128 13050900 		mv	a0,s2
 163 012c 97000000 		call	_ZdlPv@plt
 163      E7800000 
 164              	.LVL23:
 165 0134 13850400 		mv	a0,s1
 166              	.LEHB11:
 167 0138 97000000 		call	_Unwind_Resume@plt
 167      E7800000 
 168              	.LVL24:
 169              	.LEHE11:
 170              	.LBE3:
 171              		.cfi_endproc
 172              	.LFE27:
 173              		.globl	__gxx_personality_v0
 174              		.section	.gcc_except_table,"a",@progbits
 175              	.LLSDA27:
 176 0000 FF       		.byte	0xff
 177 0001 FF       		.byte	0xff
 178 0002 03       		.byte	0x3
 179 0003 9C01     		.byte	0x9c,0x1
 180 0005 00000000 		.4byte	.LEHB0-.LFB27
 181 0009 00000000 		.4byte	.LEHE0-.LEHB0
 182 000d 00000000 		.4byte	0
 183 0011 00       		.byte	0
 184 0012 00000000 		.4byte	.LEHB1-.LFB27
 185 0016 00000000 		.4byte	.LEHE1-.LEHB1
 186 001a 00000000 		.4byte	.L6-.LFB27
 187 001e 00       		.byte	0
 188 001f 00000000 		.4byte	.LEHB2-.LFB27
 189 0023 00000000 		.4byte	.LEHE2-.LEHB2
 190 0027 00000000 		.4byte	0
 191 002b 00       		.byte	0
 192 002c 00000000 		.4byte	.LEHB3-.LFB27
 193 0030 00000000 		.4byte	.LEHE3-.LEHB3
 194 0034 00000000 		.4byte	.L7-.LFB27
 195 0038 00       		.byte	0
 196 0039 00000000 		.4byte	.LEHB4-.LFB27
 197 003d 00000000 		.4byte	.LEHE4-.LEHB4
 198 0041 00000000 		.4byte	0
GAS LISTING /tmp/ccU1OWIF.s 			page 5


 199 0045 00       		.byte	0
 200 0046 00000000 		.4byte	.LEHB5-.LFB27
 201 004a 00000000 		.4byte	.LEHE5-.LEHB5
 202 004e 00000000 		.4byte	.L8-.LFB27
 203 0052 00       		.byte	0
 204 0053 00000000 		.4byte	.LEHB6-.LFB27
 205 0057 00000000 		.4byte	.LEHE6-.LEHB6
 206 005b 00000000 		.4byte	0
 207 005f 00       		.byte	0
 208 0060 00000000 		.4byte	.LEHB7-.LFB27
 209 0064 00000000 		.4byte	.LEHE7-.LEHB7
 210 0068 00000000 		.4byte	.L9-.LFB27
 211 006c 00       		.byte	0
 212 006d 00000000 		.4byte	.LEHB8-.LFB27
 213 0071 00000000 		.4byte	.LEHE8-.LEHB8
 214 0075 00000000 		.4byte	0
 215 0079 00       		.byte	0
 216 007a 00000000 		.4byte	.LEHB9-.LFB27
 217 007e 00000000 		.4byte	.LEHE9-.LEHB9
 218 0082 00000000 		.4byte	0
 219 0086 00       		.byte	0
 220 0087 00000000 		.4byte	.LEHB10-.LFB27
 221 008b 00000000 		.4byte	.LEHE10-.LEHB10
 222 008f 00000000 		.4byte	0
 223 0093 00       		.byte	0
 224 0094 00000000 		.4byte	.LEHB11-.LFB27
 225 0098 00000000 		.4byte	.LEHE11-.LEHB11
 226 009c 00000000 		.4byte	0
 227 00a0 00       		.byte	0
 228              		.text
 230              		.globl	_ZN9BufferCPPC1Ei
 231              		.set	_ZN9BufferCPPC1Ei,_ZN9BufferCPPC2Ei
 232              		.align	2
 233              		.globl	_ZN9BufferCPPD2Ev
 235              	_ZN9BufferCPPD2Ev:
 236              	.LFB30:
  11:test/buffer_CPP_API.cpp **** 
  12:test/buffer_CPP_API.cpp **** BufferCPP::~BufferCPP() {
 237              		.loc 1 12 1 is_stmt 1
 238              		.cfi_startproc
 239              		.cfi_personality 0x9b,DW.ref.__gxx_personality_v0
 240              		.cfi_lsda 0x1b,.LLSDA30
 241              	.LVL25:
 242 0140 130101FE 		addi	sp,sp,-32
 243              		.cfi_def_cfa_offset 32
 244 0144 233C1100 		sd	ra,24(sp)
 245 0148 23388100 		sd	s0,16(sp)
 246 014c 23349100 		sd	s1,8(sp)
 247              		.cfi_offset 1, -8
 248              		.cfi_offset 8, -16
 249              		.cfi_offset 9, -24
 250 0150 13040102 		addi	s0,sp,32
 251              		.cfi_def_cfa 8, 0
 252 0154 93040500 		mv	s1,a0
 253              	.LBB4:
  13:test/buffer_CPP_API.cpp ****     putc('\n');
 254              		.loc 1 13 5
GAS LISTING /tmp/ccU1OWIF.s 			page 6


 255              		.loc 1 13 9 is_stmt 0
 256 0158 1305A000 		li	a0,10
 257              	.LVL26:
 258 015c 97000000 		call	putc@plt
 258      E7800000 
 259              	.LVL27:
 260              	.L14:
  14:test/buffer_CPP_API.cpp ****     //todo
  15:test/buffer_CPP_API.cpp ****     //placeholder
  16:test/buffer_CPP_API.cpp ****     //printf("Buffer deleted!\n");
  17:test/buffer_CPP_API.cpp ****     while (head != tail) {
 261              		.loc 1 17 5 is_stmt 1
 262              		.loc 1 17 17
 263              		.loc 1 17 12 is_stmt 0
 264 0164 83A70401 		lw	a5,16(s1)
 265              		.loc 1 17 20
 266 0168 03A74401 		lw	a4,20(s1)
 267              		.loc 1 17 17
 268 016c 638CE700 		beq	a5,a4,.L13
  18:test/buffer_CPP_API.cpp ****         //todo
  19:test/buffer_CPP_API.cpp ****         //placeholder
  20:test/buffer_CPP_API.cpp ****         //printf("%c ", buffer[head]);
  21:test/buffer_CPP_API.cpp ****         head = (head + 1) % cap;
 269              		.loc 1 21 9 is_stmt 1
 270              		.loc 1 21 22 is_stmt 0
 271 0170 9B871700 		addiw	a5,a5,1
 272              		.loc 1 21 29
 273 0174 03A70400 		lw	a4,0(s1)
 274              		.loc 1 21 27
 275 0178 BBE7E702 		remw	a5,a5,a4
 276              		.loc 1 21 14
 277 017c 23A8F400 		sw	a5,16(s1)
  17:test/buffer_CPP_API.cpp ****         //todo
 278              		.loc 1 17 5
 279 0180 6FF05FFE 		j	.L14
 280              	.L13:
  22:test/buffer_CPP_API.cpp ****     }
  23:test/buffer_CPP_API.cpp ****     putc('!');
 281              		.loc 1 23 5 is_stmt 1
 282              		.loc 1 23 9 is_stmt 0
 283 0184 13051002 		li	a0,33
 284 0188 97000000 		call	putc@plt
 284      E7800000 
 285              	.LVL28:
  24:test/buffer_CPP_API.cpp ****     putc('\n');
 286              		.loc 1 24 5 is_stmt 1
 287              		.loc 1 24 9 is_stmt 0
 288 0190 1305A000 		li	a0,10
 289 0194 97000000 		call	putc@plt
 289      E7800000 
 290              	.LVL29:
  25:test/buffer_CPP_API.cpp **** 
  26:test/buffer_CPP_API.cpp ****     mem_free(buffer);
 291              		.loc 1 26 5 is_stmt 1
 292              		.loc 1 26 13 is_stmt 0
 293 019c 03B58400 		ld	a0,8(s1)
 294 01a0 97000000 		call	mem_free@plt
GAS LISTING /tmp/ccU1OWIF.s 			page 7


 294      E7800000 
 295              	.LVL30:
  27:test/buffer_CPP_API.cpp ****     delete itemAvailable;
 296              		.loc 1 27 5 is_stmt 1
 297              		.loc 1 27 12 is_stmt 0
 298 01a8 03B50402 		ld	a0,32(s1)
 299              		.loc 1 27 25
 300 01ac 63080500 		beqz	a0,.L15
 301              		.loc 1 27 12 discriminator 1
 302 01b0 83370500 		ld	a5,0(a0)
 303 01b4 83B78700 		ld	a5,8(a5)
 304 01b8 E7800700 		jalr	a5
 305              	.LVL31:
 306              	.L15:
  28:test/buffer_CPP_API.cpp ****     delete spaceAvailable;
 307              		.loc 1 28 5 is_stmt 1
 308              		.loc 1 28 12 is_stmt 0
 309 01bc 03B58401 		ld	a0,24(s1)
 310              		.loc 1 28 26
 311 01c0 63080500 		beqz	a0,.L16
 312              		.loc 1 28 12 discriminator 1
 313 01c4 83370500 		ld	a5,0(a0)
 314 01c8 83B78700 		ld	a5,8(a5)
 315 01cc E7800700 		jalr	a5
 316              	.LVL32:
 317              	.L16:
  29:test/buffer_CPP_API.cpp ****     delete mutexTail;
 318              		.loc 1 29 5 is_stmt 1
 319              		.loc 1 29 12 is_stmt 0
 320 01d0 03B50403 		ld	a0,48(s1)
 321              		.loc 1 29 21
 322 01d4 63080500 		beqz	a0,.L17
 323              		.loc 1 29 12 discriminator 1
 324 01d8 83370500 		ld	a5,0(a0)
 325 01dc 83B78700 		ld	a5,8(a5)
 326 01e0 E7800700 		jalr	a5
 327              	.LVL33:
 328              	.L17:
  30:test/buffer_CPP_API.cpp ****     delete mutexHead;
 329              		.loc 1 30 5 is_stmt 1
 330              		.loc 1 30 12 is_stmt 0
 331 01e4 03B58402 		ld	a0,40(s1)
 332              		.loc 1 30 21
 333 01e8 63080500 		beqz	a0,.L12
 334              		.loc 1 30 12 discriminator 1
 335 01ec 83370500 		ld	a5,0(a0)
 336 01f0 83B78700 		ld	a5,8(a5)
 337 01f4 E7800700 		jalr	a5
 338              	.LVL34:
 339              	.L12:
 340              	.LBE4:
  31:test/buffer_CPP_API.cpp **** 
  32:test/buffer_CPP_API.cpp **** }
 341              		.loc 1 32 1
 342 01f8 83308101 		ld	ra,24(sp)
 343              		.cfi_restore 1
 344 01fc 03340101 		ld	s0,16(sp)
GAS LISTING /tmp/ccU1OWIF.s 			page 8


 345              		.cfi_restore 8
 346              		.cfi_def_cfa 2, 32
 347 0200 83348100 		ld	s1,8(sp)
 348              		.cfi_restore 9
 349              	.LVL35:
 350 0204 13010102 		addi	sp,sp,32
 351              		.cfi_def_cfa_offset 0
 352 0208 67800000 		jr	ra
 353              		.cfi_endproc
 354              	.LFE30:
 355              		.section	.gcc_except_table
 356              	.LLSDA30:
 357 00a1 FF       		.byte	0xff
 358 00a2 FF       		.byte	0xff
 359 00a3 03       		.byte	0x3
 360 00a4 00       		.byte	0
 361              		.text
 363              		.globl	_ZN9BufferCPPD1Ev
 364              		.set	_ZN9BufferCPPD1Ev,_ZN9BufferCPPD2Ev
 365              		.align	2
 366              		.globl	_ZN9BufferCPP3putEi
 368              	_ZN9BufferCPP3putEi:
 369              	.LFB32:
  33:test/buffer_CPP_API.cpp **** 
  34:test/buffer_CPP_API.cpp **** void BufferCPP::put(int val) {
 370              		.loc 1 34 30 is_stmt 1
 371              		.cfi_startproc
 372              	.LVL36:
 373 020c 130101FE 		addi	sp,sp,-32
 374              		.cfi_def_cfa_offset 32
 375 0210 233C1100 		sd	ra,24(sp)
 376 0214 23388100 		sd	s0,16(sp)
 377 0218 23349100 		sd	s1,8(sp)
 378 021c 23302101 		sd	s2,0(sp)
 379              		.cfi_offset 1, -8
 380              		.cfi_offset 8, -16
 381              		.cfi_offset 9, -24
 382              		.cfi_offset 18, -32
 383 0220 13040102 		addi	s0,sp,32
 384              		.cfi_def_cfa 8, 0
 385 0224 93040500 		mv	s1,a0
 386 0228 13890500 		mv	s2,a1
  35:test/buffer_CPP_API.cpp ****     spaceAvailable->wait();
 387              		.loc 1 35 5
 388              		.loc 1 35 25 is_stmt 0
 389 022c 03358501 		ld	a0,24(a0)
 390              	.LVL37:
 391 0230 97000000 		call	_ZN9Semaphore4waitEv@plt
 391      E7800000 
 392              	.LVL38:
  36:test/buffer_CPP_API.cpp **** 
  37:test/buffer_CPP_API.cpp ****     mutexTail->wait();
 393              		.loc 1 37 5 is_stmt 1
 394              		.loc 1 37 20 is_stmt 0
 395 0238 03B50403 		ld	a0,48(s1)
 396 023c 97000000 		call	_ZN9Semaphore4waitEv@plt
 396      E7800000 
GAS LISTING /tmp/ccU1OWIF.s 			page 9


 397              	.LVL39:
  38:test/buffer_CPP_API.cpp ****     buffer[tail] = val;
 398              		.loc 1 38 5 is_stmt 1
 399 0244 83B78400 		ld	a5,8(s1)
 400              		.loc 1 38 12 is_stmt 0
 401 0248 03A74401 		lw	a4,20(s1)
 402              		.loc 1 38 16
 403 024c 13172700 		slli	a4,a4,2
 404 0250 B387E700 		add	a5,a5,a4
 405              		.loc 1 38 18
 406 0254 23A02701 		sw	s2,0(a5)
  39:test/buffer_CPP_API.cpp ****     tail = (tail + 1) % cap;
 407              		.loc 1 39 5 is_stmt 1
 408              		.loc 1 39 13 is_stmt 0
 409 0258 83A74401 		lw	a5,20(s1)
 410              		.loc 1 39 18
 411 025c 9B871700 		addiw	a5,a5,1
 412              		.loc 1 39 25
 413 0260 03A70400 		lw	a4,0(s1)
 414              		.loc 1 39 23
 415 0264 BBE7E702 		remw	a5,a5,a4
 416              		.loc 1 39 10
 417 0268 23AAF400 		sw	a5,20(s1)
  40:test/buffer_CPP_API.cpp ****     mutexTail->signal();
 418              		.loc 1 40 5 is_stmt 1
 419              		.loc 1 40 22 is_stmt 0
 420 026c 03B50403 		ld	a0,48(s1)
 421 0270 97000000 		call	_ZN9Semaphore6signalEv@plt
 421      E7800000 
 422              	.LVL40:
  41:test/buffer_CPP_API.cpp **** 
  42:test/buffer_CPP_API.cpp ****     itemAvailable->signal();
 423              		.loc 1 42 5 is_stmt 1
 424              		.loc 1 42 26 is_stmt 0
 425 0278 03B50402 		ld	a0,32(s1)
 426 027c 97000000 		call	_ZN9Semaphore6signalEv@plt
 426      E7800000 
 427              	.LVL41:
  43:test/buffer_CPP_API.cpp **** 
  44:test/buffer_CPP_API.cpp **** }
 428              		.loc 1 44 1
 429 0284 83308101 		ld	ra,24(sp)
 430              		.cfi_restore 1
 431 0288 03340101 		ld	s0,16(sp)
 432              		.cfi_restore 8
 433              		.cfi_def_cfa 2, 32
 434 028c 83348100 		ld	s1,8(sp)
 435              		.cfi_restore 9
 436              	.LVL42:
 437 0290 03390100 		ld	s2,0(sp)
 438              		.cfi_restore 18
 439 0294 13010102 		addi	sp,sp,32
 440              		.cfi_def_cfa_offset 0
 441 0298 67800000 		jr	ra
 442              		.cfi_endproc
 443              	.LFE32:
 445              		.align	2
GAS LISTING /tmp/ccU1OWIF.s 			page 10


 446              		.globl	_ZN9BufferCPP3getEv
 448              	_ZN9BufferCPP3getEv:
 449              	.LFB33:
  45:test/buffer_CPP_API.cpp **** 
  46:test/buffer_CPP_API.cpp **** int BufferCPP::get() {
 450              		.loc 1 46 22 is_stmt 1
 451              		.cfi_startproc
 452              	.LVL43:
 453 029c 130101FE 		addi	sp,sp,-32
 454              		.cfi_def_cfa_offset 32
 455 02a0 233C1100 		sd	ra,24(sp)
 456 02a4 23388100 		sd	s0,16(sp)
 457 02a8 23349100 		sd	s1,8(sp)
 458 02ac 23302101 		sd	s2,0(sp)
 459              		.cfi_offset 1, -8
 460              		.cfi_offset 8, -16
 461              		.cfi_offset 9, -24
 462              		.cfi_offset 18, -32
 463 02b0 13040102 		addi	s0,sp,32
 464              		.cfi_def_cfa 8, 0
 465 02b4 93040500 		mv	s1,a0
  47:test/buffer_CPP_API.cpp ****     itemAvailable->wait();
 466              		.loc 1 47 5
 467              		.loc 1 47 24 is_stmt 0
 468 02b8 03350502 		ld	a0,32(a0)
 469              	.LVL44:
 470 02bc 97000000 		call	_ZN9Semaphore4waitEv@plt
 470      E7800000 
 471              	.LVL45:
  48:test/buffer_CPP_API.cpp **** 
  49:test/buffer_CPP_API.cpp ****     mutexHead->wait();
 472              		.loc 1 49 5 is_stmt 1
 473              		.loc 1 49 20 is_stmt 0
 474 02c4 03B58402 		ld	a0,40(s1)
 475 02c8 97000000 		call	_ZN9Semaphore4waitEv@plt
 475      E7800000 
 476              	.LVL46:
  50:test/buffer_CPP_API.cpp **** 
  51:test/buffer_CPP_API.cpp ****     int ret = buffer[head];
 477              		.loc 1 51 5 is_stmt 1
 478              		.loc 1 51 15 is_stmt 0
 479 02d0 03B78400 		ld	a4,8(s1)
 480              		.loc 1 51 22
 481 02d4 83A70401 		lw	a5,16(s1)
 482              		.loc 1 51 26
 483 02d8 93962700 		slli	a3,a5,2
 484 02dc 3307D700 		add	a4,a4,a3
 485              		.loc 1 51 9
 486 02e0 03290700 		lw	s2,0(a4)
 487              	.LVL47:
  52:test/buffer_CPP_API.cpp ****     head = (head + 1) % cap;
 488              		.loc 1 52 5 is_stmt 1
 489              		.loc 1 52 18 is_stmt 0
 490 02e4 9B871700 		addiw	a5,a5,1
 491              		.loc 1 52 25
 492 02e8 03A70400 		lw	a4,0(s1)
 493              		.loc 1 52 23
GAS LISTING /tmp/ccU1OWIF.s 			page 11


 494 02ec BBE7E702 		remw	a5,a5,a4
 495              		.loc 1 52 10
 496 02f0 23A8F400 		sw	a5,16(s1)
  53:test/buffer_CPP_API.cpp ****     mutexHead->signal();
 497              		.loc 1 53 5 is_stmt 1
 498              		.loc 1 53 22 is_stmt 0
 499 02f4 03B58402 		ld	a0,40(s1)
 500 02f8 97000000 		call	_ZN9Semaphore6signalEv@plt
 500      E7800000 
 501              	.LVL48:
  54:test/buffer_CPP_API.cpp **** 
  55:test/buffer_CPP_API.cpp ****     spaceAvailable->signal();
 502              		.loc 1 55 5 is_stmt 1
 503              		.loc 1 55 27 is_stmt 0
 504 0300 03B58401 		ld	a0,24(s1)
 505 0304 97000000 		call	_ZN9Semaphore6signalEv@plt
 505      E7800000 
 506              	.LVL49:
  56:test/buffer_CPP_API.cpp **** 
  57:test/buffer_CPP_API.cpp ****     return ret;
 507              		.loc 1 57 5 is_stmt 1
  58:test/buffer_CPP_API.cpp **** }
 508              		.loc 1 58 1 is_stmt 0
 509 030c 13050900 		mv	a0,s2
 510 0310 83308101 		ld	ra,24(sp)
 511              		.cfi_restore 1
 512 0314 03340101 		ld	s0,16(sp)
 513              		.cfi_restore 8
 514              		.cfi_def_cfa 2, 32
 515 0318 83348100 		ld	s1,8(sp)
 516              		.cfi_restore 9
 517              	.LVL50:
 518 031c 03390100 		ld	s2,0(sp)
 519              		.cfi_restore 18
 520              	.LVL51:
 521 0320 13010102 		addi	sp,sp,32
 522              		.cfi_def_cfa_offset 0
 523 0324 67800000 		jr	ra
 524              		.cfi_endproc
 525              	.LFE33:
 527              	.Letext0:
 528              		.file 2 "test/../h/../lib/hw.h"
 529              		.file 3 "test/buffer_CPP_API.hpp"
 530              		.file 4 "test/../h/syscall_cpp.hpp"
 531              		.file 5 "test/../h/syscall_c.h"
 2014              		.align	3
 2017              	DW.ref.__gxx_personality_v0:
 2018 0000 00000000 		.dword	__gxx_personality_v0
 2018      00000000 
 2019              		.ident	"GCC: (Ubuntu 9.3.0-17ubuntu1~20.04) 9.3.0"
 2020              		.section	.note.GNU-stack,"",@progbits
GAS LISTING /tmp/ccU1OWIF.s 			page 12

