GAS LISTING /tmp/ccgzP0yn.s 			page 1


   1              		.file	"ConsumerProducer_C_API_test.cpp"
   2              		.option pic
   3              		.option norelax
   4              		.text
   5              	.Ltext0:
   6              		.align	2
   7              		.globl	_Z16producerKeyboardPv
   9              	_Z16producerKeyboardPv:
  10              	.LFB2:
  11              		.file 1 "test/ConsumerProducer_C_API_test.cpp"
   1:test/ConsumerProducer_C_API_test.cpp **** //
   2:test/ConsumerProducer_C_API_test.cpp **** // Created by os on 5/16/22.
   3:test/ConsumerProducer_C_API_test.cpp **** //
   4:test/ConsumerProducer_C_API_test.cpp **** 
   5:test/ConsumerProducer_C_API_test.cpp **** #include "ConsumerProducer_C_API_test.hpp"
   6:test/ConsumerProducer_C_API_test.cpp **** 
   7:test/ConsumerProducer_C_API_test.cpp **** sem_t waitForAll;
   8:test/ConsumerProducer_C_API_test.cpp **** 
   9:test/ConsumerProducer_C_API_test.cpp **** struct thread_data {
  10:test/ConsumerProducer_C_API_test.cpp ****     int id;
  11:test/ConsumerProducer_C_API_test.cpp ****     Buffer *buffer;
  12:test/ConsumerProducer_C_API_test.cpp ****     sem_t wait;
  13:test/ConsumerProducer_C_API_test.cpp **** };
  14:test/ConsumerProducer_C_API_test.cpp **** 
  15:test/ConsumerProducer_C_API_test.cpp **** volatile int threadEnd = 0;
  16:test/ConsumerProducer_C_API_test.cpp **** 
  17:test/ConsumerProducer_C_API_test.cpp **** void producerKeyboard(void *arg) {
  12              		.loc 1 17 34
  13              		.cfi_startproc
  14              	.LVL0:
  15 0000 130101FE 		addi	sp,sp,-32
  16              		.cfi_def_cfa_offset 32
  17 0004 233C1100 		sd	ra,24(sp)
  18 0008 23388100 		sd	s0,16(sp)
  19 000c 23349100 		sd	s1,8(sp)
  20 0010 23302101 		sd	s2,0(sp)
  21              		.cfi_offset 1, -8
  22              		.cfi_offset 8, -16
  23              		.cfi_offset 9, -24
  24              		.cfi_offset 18, -32
  25 0014 13040102 		addi	s0,sp,32
  26              		.cfi_def_cfa 8, 0
  27 0018 93040500 		mv	s1,a0
  18:test/ConsumerProducer_C_API_test.cpp ****     struct thread_data *data = (struct thread_data *) arg;
  28              		.loc 1 18 5
  29              	.LVL1:
  19:test/ConsumerProducer_C_API_test.cpp **** 
  20:test/ConsumerProducer_C_API_test.cpp ****     int key;
  30              		.loc 1 20 5
  21:test/ConsumerProducer_C_API_test.cpp ****     int i = 0;
  31              		.loc 1 21 5
  32              		.loc 1 21 9 is_stmt 0
  33 001c 13090000 		li	s2,0
  34 0020 6F00C000 		j	.L2
  35              	.LVL2:
  36              	.L7:
  22:test/ConsumerProducer_C_API_test.cpp ****     while ((key = __getc()) != 0x1b) {
GAS LISTING /tmp/ccgzP0yn.s 			page 2


  23:test/ConsumerProducer_C_API_test.cpp ****         data->buffer->put(key);
  24:test/ConsumerProducer_C_API_test.cpp ****         i++;
  25:test/ConsumerProducer_C_API_test.cpp **** 
  26:test/ConsumerProducer_C_API_test.cpp ****         if (i % (10 * data->id) == 0) {
  27:test/ConsumerProducer_C_API_test.cpp ****             thread_dispatch();
  37              		.loc 1 27 13 is_stmt 1
  38              		.loc 1 27 28 is_stmt 0
  39 0024 97000000 		call	thread_dispatch@plt
  39      E7800000 
  40              	.LVL3:
  41              	.L2:
  22:test/ConsumerProducer_C_API_test.cpp ****     while ((key = __getc()) != 0x1b) {
  42              		.loc 1 22 5 is_stmt 1
  22:test/ConsumerProducer_C_API_test.cpp ****     while ((key = __getc()) != 0x1b) {
  43              		.loc 1 22 29
  22:test/ConsumerProducer_C_API_test.cpp ****     while ((key = __getc()) != 0x1b) {
  44              		.loc 1 22 25 is_stmt 0
  45 002c 97000000 		call	__getc@plt
  45      E7800000 
  46              	.LVL4:
  22:test/ConsumerProducer_C_API_test.cpp ****     while ((key = __getc()) != 0x1b) {
  47              		.loc 1 22 17
  48 0034 9B050500 		sext.w	a1,a0
  49              	.LVL5:
  22:test/ConsumerProducer_C_API_test.cpp ****     while ((key = __getc()) != 0x1b) {
  50              		.loc 1 22 29
  51 0038 9307B001 		li	a5,27
  52 003c 638AF502 		beq	a1,a5,.L3
  23:test/ConsumerProducer_C_API_test.cpp ****         i++;
  53              		.loc 1 23 9 is_stmt 1
  23:test/ConsumerProducer_C_API_test.cpp ****         i++;
  54              		.loc 1 23 26 is_stmt 0
  55 0040 03B58400 		ld	a0,8(s1)
  56 0044 97000000 		call	_ZN6Buffer3putEi@plt
  56      E7800000 
  57              	.LVL6:
  24:test/ConsumerProducer_C_API_test.cpp **** 
  58              		.loc 1 24 9 is_stmt 1
  24:test/ConsumerProducer_C_API_test.cpp **** 
  59              		.loc 1 24 10 is_stmt 0
  60 004c 1B071900 		addiw	a4,s2,1
  61 0050 1B090700 		sext.w	s2,a4
  62              	.LVL7:
  26:test/ConsumerProducer_C_API_test.cpp ****             thread_dispatch();
  63              		.loc 1 26 9 is_stmt 1
  26:test/ConsumerProducer_C_API_test.cpp ****             thread_dispatch();
  64              		.loc 1 26 29 is_stmt 0
  65 0054 83A60400 		lw	a3,0(s1)
  26:test/ConsumerProducer_C_API_test.cpp ****             thread_dispatch();
  66              		.loc 1 26 21
  67 0058 9B972600 		slliw	a5,a3,2
  68 005c BB87D700 		addw	a5,a5,a3
  69 0060 9B971700 		slliw	a5,a5,1
  26:test/ConsumerProducer_C_API_test.cpp ****             thread_dispatch();
  70              		.loc 1 26 15
  71 0064 BB67F702 		remw	a5,a4,a5
  26:test/ConsumerProducer_C_API_test.cpp ****             thread_dispatch();
GAS LISTING /tmp/ccgzP0yn.s 			page 3


  72              		.loc 1 26 9
  73 0068 E39207FC 		bnez	a5,.L2
  74 006c 6FF09FFB 		j	.L7
  75              	.LVL8:
  76              	.L3:
  28:test/ConsumerProducer_C_API_test.cpp ****         }
  29:test/ConsumerProducer_C_API_test.cpp ****     }
  30:test/ConsumerProducer_C_API_test.cpp **** 
  31:test/ConsumerProducer_C_API_test.cpp ****     threadEnd = 1;
  77              		.loc 1 31 5 is_stmt 1
  78              		.loc 1 31 15 is_stmt 0
  79 0070 93071000 		li	a5,1
  80 0074 17070000 		sw	a5,.LANCHOR0,a4
  80      2320F700 
  32:test/ConsumerProducer_C_API_test.cpp **** 
  33:test/ConsumerProducer_C_API_test.cpp ****     delete data->buffer;
  81              		.loc 1 33 5 is_stmt 1
  82              		.loc 1 33 18 is_stmt 0
  83 007c 03B98400 		ld	s2,8(s1)
  84              	.LVL9:
  85              		.loc 1 33 24
  86 0080 630E0900 		beqz	s2,.L5
  87              		.loc 1 33 18 discriminator 1
  88 0084 13050900 		mv	a0,s2
  89 0088 97000000 		call	_ZN6BufferD1Ev@plt
  89      E7800000 
  90              	.LVL10:
  91 0090 13050900 		mv	a0,s2
  92 0094 97000000 		call	_ZdlPv@plt
  92      E7800000 
  93              	.LVL11:
  94              	.L5:
  34:test/ConsumerProducer_C_API_test.cpp **** 
  35:test/ConsumerProducer_C_API_test.cpp ****     sem_signal(data->wait);
  95              		.loc 1 35 5 is_stmt 1
  96              		.loc 1 35 15 is_stmt 0
  97 009c 03B50401 		ld	a0,16(s1)
  98 00a0 97000000 		call	sem_signal@plt
  98      E7800000 
  99              	.LVL12:
  36:test/ConsumerProducer_C_API_test.cpp **** }
 100              		.loc 1 36 1
 101 00a8 83308101 		ld	ra,24(sp)
 102              		.cfi_restore 1
 103 00ac 03340101 		ld	s0,16(sp)
 104              		.cfi_restore 8
 105              		.cfi_def_cfa 2, 32
 106 00b0 83348100 		ld	s1,8(sp)
 107              		.cfi_restore 9
 108              	.LVL13:
 109 00b4 03390100 		ld	s2,0(sp)
 110              		.cfi_restore 18
 111 00b8 13010102 		addi	sp,sp,32
 112              		.cfi_def_cfa_offset 0
 113 00bc 67800000 		jr	ra
 114              		.cfi_endproc
 115              	.LFE2:
GAS LISTING /tmp/ccgzP0yn.s 			page 4


 117              		.align	2
 118              		.globl	_Z8producerPv
 120              	_Z8producerPv:
 121              	.LFB3:
  37:test/ConsumerProducer_C_API_test.cpp **** 
  38:test/ConsumerProducer_C_API_test.cpp **** void producer(void *arg) {
 122              		.loc 1 38 26 is_stmt 1
 123              		.cfi_startproc
 124              	.LVL14:
 125 00c0 130101FE 		addi	sp,sp,-32
 126              		.cfi_def_cfa_offset 32
 127 00c4 233C1100 		sd	ra,24(sp)
 128 00c8 23388100 		sd	s0,16(sp)
 129 00cc 23349100 		sd	s1,8(sp)
 130 00d0 23302101 		sd	s2,0(sp)
 131              		.cfi_offset 1, -8
 132              		.cfi_offset 8, -16
 133              		.cfi_offset 9, -24
 134              		.cfi_offset 18, -32
 135 00d4 13040102 		addi	s0,sp,32
 136              		.cfi_def_cfa 8, 0
 137 00d8 93040500 		mv	s1,a0
  39:test/ConsumerProducer_C_API_test.cpp ****     struct thread_data *data = (struct thread_data *) arg;
 138              		.loc 1 39 5
 139              	.LVL15:
  40:test/ConsumerProducer_C_API_test.cpp **** 
  41:test/ConsumerProducer_C_API_test.cpp ****     int i = 0;
 140              		.loc 1 41 5
 141              		.loc 1 41 9 is_stmt 0
 142 00dc 13090000 		li	s2,0
 143 00e0 6F00C000 		j	.L9
 144              	.LVL16:
 145              	.L13:
  42:test/ConsumerProducer_C_API_test.cpp ****     while (!threadEnd) {
  43:test/ConsumerProducer_C_API_test.cpp ****         data->buffer->put(data->id + '0');
  44:test/ConsumerProducer_C_API_test.cpp ****         i++;
  45:test/ConsumerProducer_C_API_test.cpp **** 
  46:test/ConsumerProducer_C_API_test.cpp ****         if (i % (10 * data->id) == 0) {
  47:test/ConsumerProducer_C_API_test.cpp ****             thread_dispatch();
 146              		.loc 1 47 13 is_stmt 1
 147              		.loc 1 47 28 is_stmt 0
 148 00e4 97000000 		call	thread_dispatch@plt
 148      E7800000 
 149              	.LVL17:
 150              	.L9:
  42:test/ConsumerProducer_C_API_test.cpp ****     while (!threadEnd) {
 151              		.loc 1 42 5 is_stmt 1
  42:test/ConsumerProducer_C_API_test.cpp ****     while (!threadEnd) {
 152              		.loc 1 42 12
 153 00ec 97070000 		lw	a5,.LANCHOR0
 153      83A70700 
 154 00f4 639E0702 		bnez	a5,.L10
  43:test/ConsumerProducer_C_API_test.cpp ****         i++;
 155              		.loc 1 43 9
  43:test/ConsumerProducer_C_API_test.cpp ****         i++;
 156              		.loc 1 43 33 is_stmt 0
 157 00f8 83A50400 		lw	a1,0(s1)
GAS LISTING /tmp/ccgzP0yn.s 			page 5


  43:test/ConsumerProducer_C_API_test.cpp ****         i++;
 158              		.loc 1 43 26
 159 00fc 9B850503 		addiw	a1,a1,48
 160 0100 03B58400 		ld	a0,8(s1)
 161 0104 97000000 		call	_ZN6Buffer3putEi@plt
 161      E7800000 
 162              	.LVL18:
  44:test/ConsumerProducer_C_API_test.cpp **** 
 163              		.loc 1 44 9 is_stmt 1
  44:test/ConsumerProducer_C_API_test.cpp **** 
 164              		.loc 1 44 10 is_stmt 0
 165 010c 1B071900 		addiw	a4,s2,1
 166 0110 1B090700 		sext.w	s2,a4
 167              	.LVL19:
  46:test/ConsumerProducer_C_API_test.cpp ****             thread_dispatch();
 168              		.loc 1 46 9 is_stmt 1
  46:test/ConsumerProducer_C_API_test.cpp ****             thread_dispatch();
 169              		.loc 1 46 29 is_stmt 0
 170 0114 83A60400 		lw	a3,0(s1)
  46:test/ConsumerProducer_C_API_test.cpp ****             thread_dispatch();
 171              		.loc 1 46 21
 172 0118 9B972600 		slliw	a5,a3,2
 173 011c BB87D700 		addw	a5,a5,a3
 174 0120 9B971700 		slliw	a5,a5,1
  46:test/ConsumerProducer_C_API_test.cpp ****             thread_dispatch();
 175              		.loc 1 46 15
 176 0124 BB67F702 		remw	a5,a4,a5
  46:test/ConsumerProducer_C_API_test.cpp ****             thread_dispatch();
 177              		.loc 1 46 9
 178 0128 E39207FC 		bnez	a5,.L9
 179 012c 6FF09FFB 		j	.L13
 180              	.LVL20:
 181              	.L10:
  48:test/ConsumerProducer_C_API_test.cpp ****         }
  49:test/ConsumerProducer_C_API_test.cpp ****     }
  50:test/ConsumerProducer_C_API_test.cpp **** 
  51:test/ConsumerProducer_C_API_test.cpp ****     sem_signal(data->wait);
 182              		.loc 1 51 5 is_stmt 1
 183              		.loc 1 51 15 is_stmt 0
 184 0130 03B50401 		ld	a0,16(s1)
 185 0134 97000000 		call	sem_signal@plt
 185      E7800000 
 186              	.LVL21:
  52:test/ConsumerProducer_C_API_test.cpp **** }
 187              		.loc 1 52 1
 188 013c 83308101 		ld	ra,24(sp)
 189              		.cfi_restore 1
 190 0140 03340101 		ld	s0,16(sp)
 191              		.cfi_restore 8
 192              		.cfi_def_cfa 2, 32
 193 0144 83348100 		ld	s1,8(sp)
 194              		.cfi_restore 9
 195              	.LVL22:
 196 0148 03390100 		ld	s2,0(sp)
 197              		.cfi_restore 18
 198              	.LVL23:
 199 014c 13010102 		addi	sp,sp,32
GAS LISTING /tmp/ccgzP0yn.s 			page 6


 200              		.cfi_def_cfa_offset 0
 201 0150 67800000 		jr	ra
 202              		.cfi_endproc
 203              	.LFE3:
 205              		.align	2
 206              		.globl	_Z8consumerPv
 208              	_Z8consumerPv:
 209              	.LFB4:
  53:test/ConsumerProducer_C_API_test.cpp **** 
  54:test/ConsumerProducer_C_API_test.cpp **** void consumer(void *arg) {
 210              		.loc 1 54 26 is_stmt 1
 211              		.cfi_startproc
 212              	.LVL24:
 213 0154 130101FD 		addi	sp,sp,-48
 214              		.cfi_def_cfa_offset 48
 215 0158 23341102 		sd	ra,40(sp)
 216 015c 23308102 		sd	s0,32(sp)
 217 0160 233C9100 		sd	s1,24(sp)
 218 0164 23382101 		sd	s2,16(sp)
 219 0168 23343101 		sd	s3,8(sp)
 220              		.cfi_offset 1, -8
 221              		.cfi_offset 8, -16
 222              		.cfi_offset 9, -24
 223              		.cfi_offset 18, -32
 224              		.cfi_offset 19, -40
 225 016c 13040103 		addi	s0,sp,48
 226              		.cfi_def_cfa 8, 0
 227 0170 13090500 		mv	s2,a0
  55:test/ConsumerProducer_C_API_test.cpp ****     struct thread_data *data = (struct thread_data *) arg;
 228              		.loc 1 55 5
 229              	.LVL25:
  56:test/ConsumerProducer_C_API_test.cpp **** 
  57:test/ConsumerProducer_C_API_test.cpp **** 
  58:test/ConsumerProducer_C_API_test.cpp ****     int i = 0;
 230              		.loc 1 58 5
 231              		.loc 1 58 9 is_stmt 0
 232 0174 93090000 		li	s3,0
 233 0178 6F00C001 		j	.L15
 234              	.LVL26:
 235              	.L20:
 236              	.LBB7:
  59:test/ConsumerProducer_C_API_test.cpp ****     while (!threadEnd) {
  60:test/ConsumerProducer_C_API_test.cpp ****         int key = data->buffer->get();
  61:test/ConsumerProducer_C_API_test.cpp ****         i++;
  62:test/ConsumerProducer_C_API_test.cpp **** 
  63:test/ConsumerProducer_C_API_test.cpp ****         putc(key);
  64:test/ConsumerProducer_C_API_test.cpp **** 
  65:test/ConsumerProducer_C_API_test.cpp ****         if (i % (5 * data->id) == 0) {
  66:test/ConsumerProducer_C_API_test.cpp ****             thread_dispatch();
 237              		.loc 1 66 13 is_stmt 1
 238              		.loc 1 66 28 is_stmt 0
 239 017c 97000000 		call	thread_dispatch@plt
 239      E7800000 
 240              	.LVL27:
 241 0184 6F000005 		j	.L17
 242              	.LVL28:
 243              	.L21:
GAS LISTING /tmp/ccgzP0yn.s 			page 7


  67:test/ConsumerProducer_C_API_test.cpp ****         }
  68:test/ConsumerProducer_C_API_test.cpp **** 
  69:test/ConsumerProducer_C_API_test.cpp ****         if (i % 80 == 0) {
  70:test/ConsumerProducer_C_API_test.cpp ****             putc('\n');
 244              		.loc 1 70 13 is_stmt 1
 245              	.LBB8:
 246              	.LBB9:
 247              		.file 2 "test/../h/std.hpp"
   1:test/../h/std.hpp **** //
   2:test/../h/std.hpp **** // Created by os on 5/16/22.
   3:test/../h/std.hpp **** //
   4:test/../h/std.hpp **** 
   5:test/../h/std.hpp **** #ifndef PROJECT_BASE_V1_0_STD_HPP
   6:test/../h/std.hpp **** #define PROJECT_BASE_V1_0_STD_HPP
   7:test/../h/std.hpp **** 
   8:test/../h/std.hpp **** #include "../lib/console.h"
   9:test/../h/std.hpp **** 
  10:test/../h/std.hpp **** inline char getc() {
  11:test/../h/std.hpp ****     return __getc();
  12:test/../h/std.hpp **** }
  13:test/../h/std.hpp **** 
  14:test/../h/std.hpp **** inline void putc(char c) {
  15:test/../h/std.hpp ****     __putc(c);
 248              		.loc 2 15 5
 249              		.loc 2 15 11 is_stmt 0
 250 0188 1305A000 		li	a0,10
 251 018c 97000000 		call	__putc@plt
 251      E7800000 
 252              	.LVL29:
 253              	.L15:
 254              	.LBE9:
 255              	.LBE8:
 256              	.LBE7:
  59:test/ConsumerProducer_C_API_test.cpp ****         int key = data->buffer->get();
 257              		.loc 1 59 5 is_stmt 1
  59:test/ConsumerProducer_C_API_test.cpp ****         int key = data->buffer->get();
 258              		.loc 1 59 12
 259 0194 97070000 		lw	a5,.LANCHOR0
 259      83A70700 
 260 019c 63940704 		bnez	a5,.L16
 261              	.LBB12:
  60:test/ConsumerProducer_C_API_test.cpp ****         i++;
 262              		.loc 1 60 9
  60:test/ConsumerProducer_C_API_test.cpp ****         i++;
 263              		.loc 1 60 36 is_stmt 0
 264 01a0 03358900 		ld	a0,8(s2)
 265 01a4 97000000 		call	_ZN6Buffer3getEv@plt
 265      E7800000 
 266              	.LVL30:
  61:test/ConsumerProducer_C_API_test.cpp **** 
 267              		.loc 1 61 9 is_stmt 1
  61:test/ConsumerProducer_C_API_test.cpp **** 
 268              		.loc 1 61 10 is_stmt 0
 269 01ac 9B841900 		addiw	s1,s3,1
 270 01b0 9B890400 		sext.w	s3,s1
 271              	.LVL31:
  63:test/ConsumerProducer_C_API_test.cpp **** 
GAS LISTING /tmp/ccgzP0yn.s 			page 8


 272              		.loc 1 63 9 is_stmt 1
 273              	.LBB10:
 274              	.LBB11:
 275              		.loc 2 15 5
 276              		.loc 2 15 11 is_stmt 0
 277 01b4 1375F50F 		andi	a0,a0,0xff
 278              	.LVL32:
 279 01b8 97000000 		call	__putc@plt
 279      E7800000 
 280              	.LVL33:
 281              	.LBE11:
 282              	.LBE10:
  65:test/ConsumerProducer_C_API_test.cpp ****             thread_dispatch();
 283              		.loc 1 65 9 is_stmt 1
  65:test/ConsumerProducer_C_API_test.cpp ****             thread_dispatch();
 284              		.loc 1 65 28 is_stmt 0
 285 01c0 03270900 		lw	a4,0(s2)
  65:test/ConsumerProducer_C_API_test.cpp ****             thread_dispatch();
 286              		.loc 1 65 20
 287 01c4 9B172700 		slliw	a5,a4,2
 288 01c8 BB87E700 		addw	a5,a5,a4
  65:test/ConsumerProducer_C_API_test.cpp ****             thread_dispatch();
 289              		.loc 1 65 15
 290 01cc BBE7F402 		remw	a5,s1,a5
  65:test/ConsumerProducer_C_API_test.cpp ****             thread_dispatch();
 291              		.loc 1 65 9
 292 01d0 E38607FA 		beqz	a5,.L20
 293              	.L17:
  69:test/ConsumerProducer_C_API_test.cpp ****             putc('\n');
 294              		.loc 1 69 9 is_stmt 1
  69:test/ConsumerProducer_C_API_test.cpp ****             putc('\n');
 295              		.loc 1 69 15 is_stmt 0
 296 01d4 93070005 		li	a5,80
 297 01d8 BBE4F402 		remw	s1,s1,a5
 298              	.LVL34:
  69:test/ConsumerProducer_C_API_test.cpp ****             putc('\n');
 299              		.loc 1 69 9
 300 01dc E39C04FA 		bnez	s1,.L15
 301 01e0 6FF09FFA 		j	.L21
 302              	.L16:
 303              	.LBE12:
  71:test/ConsumerProducer_C_API_test.cpp ****         }
  72:test/ConsumerProducer_C_API_test.cpp ****     }
  73:test/ConsumerProducer_C_API_test.cpp **** 
  74:test/ConsumerProducer_C_API_test.cpp ****     sem_signal(data->wait);
 304              		.loc 1 74 5 is_stmt 1
 305              		.loc 1 74 15 is_stmt 0
 306 01e4 03350901 		ld	a0,16(s2)
 307 01e8 97000000 		call	sem_signal@plt
 307      E7800000 
 308              	.LVL35:
  75:test/ConsumerProducer_C_API_test.cpp **** }
 309              		.loc 1 75 1
 310 01f0 83308102 		ld	ra,40(sp)
 311              		.cfi_restore 1
 312 01f4 03340102 		ld	s0,32(sp)
 313              		.cfi_restore 8
GAS LISTING /tmp/ccgzP0yn.s 			page 9


 314              		.cfi_def_cfa 2, 48
 315 01f8 83348101 		ld	s1,24(sp)
 316              		.cfi_restore 9
 317 01fc 03390101 		ld	s2,16(sp)
 318              		.cfi_restore 18
 319              	.LVL36:
 320 0200 83398100 		ld	s3,8(sp)
 321              		.cfi_restore 19
 322              	.LVL37:
 323 0204 13010103 		addi	sp,sp,48
 324              		.cfi_def_cfa_offset 0
 325 0208 67800000 		jr	ra
 326              		.cfi_endproc
 327              	.LFE4:
 329              		.section	.rodata.str1.8,"aMS",@progbits,1
 330              		.align	3
 331              	.LC0:
 332 0000 556E6573 		.string	"Unesite broj proizvodjaca?\n"
 332      69746520 
 332      62726F6A 
 332      2070726F 
 332      697A766F 
 333 001c 00000000 		.align	3
 334              	.LC1:
 335 0020 556E6573 		.string	"Unesite velicinu bafera?\n"
 335      69746520 
 335      76656C69 
 335      63696E75 
 335      20626166 
 336 003a 00000000 		.align	3
 336      0000
 337              	.LC2:
 338 0040 42726F6A 		.string	"Broj proizvodjaca "
 338      2070726F 
 338      697A766F 
 338      646A6163 
 338      612000
 339 0053 00000000 		.align	3
 339      00
 340              	.LC3:
 341 0058 20692076 		.string	" i velicina bafera "
 341      656C6963 
 341      696E6120 
 341      62616665 
 341      72612000 
 342 006c 00000000 		.align	3
 343              	.LC4:
 344 0070 2E0A00   		.string	".\n"
 345              		.text
 346              		.align	2
 347              		.globl	_Z22producerConsumer_C_APIv
 349              	_Z22producerConsumer_C_APIv:
 350              	.LFB5:
  76:test/ConsumerProducer_C_API_test.cpp **** 
  77:test/ConsumerProducer_C_API_test.cpp **** //todo
  78:test/ConsumerProducer_C_API_test.cpp **** //threadNuma hardCoded, timer enables itself as soon as
  79:test/ConsumerProducer_C_API_test.cpp **** //code gets into getString
GAS LISTING /tmp/ccgzP0yn.s 			page 10


  80:test/ConsumerProducer_C_API_test.cpp **** //isto za bafer
  81:test/ConsumerProducer_C_API_test.cpp **** void producerConsumer_C_API()
  82:test/ConsumerProducer_C_API_test.cpp **** {
 351              		.loc 1 82 1 is_stmt 1
 352              		.cfi_startproc
 353              		.cfi_personality 0x9b,DW.ref.__gxx_personality_v0
 354              		.cfi_lsda 0x1b,.LLSDA5
 355 020c 130101F2 		addi	sp,sp,-224
 356              		.cfi_def_cfa_offset 224
 357 0210 233C110C 		sd	ra,216(sp)
 358 0214 2338810C 		sd	s0,208(sp)
 359 0218 2334910C 		sd	s1,200(sp)
 360 021c 2330210D 		sd	s2,192(sp)
 361              		.cfi_offset 1, -8
 362              		.cfi_offset 8, -16
 363              		.cfi_offset 9, -24
 364              		.cfi_offset 18, -32
 365 0220 1304010E 		addi	s0,sp,224
 366              		.cfi_def_cfa 8, 0
  83:test/ConsumerProducer_C_API_test.cpp ****     //char input[30];
  84:test/ConsumerProducer_C_API_test.cpp ****     int n, threadNum;
 367              		.loc 1 84 5
  85:test/ConsumerProducer_C_API_test.cpp **** 
  86:test/ConsumerProducer_C_API_test.cpp ****     printString("Unesite broj proizvodjaca?\n");
 368              		.loc 1 86 5
 369              		.loc 1 86 16 is_stmt 0
 370 0224 17050000 		lla	a0,.LC0
 370      13050500 
 371              	.LEHB0:
 372 022c 97000000 		call	_Z11printStringPKc@plt
 372      E7800000 
 373              	.LVL38:
  87:test/ConsumerProducer_C_API_test.cpp ****     //getString(input, 30);
  88:test/ConsumerProducer_C_API_test.cpp ****     threadNum = 5;
 374              		.loc 1 88 5 is_stmt 1
  89:test/ConsumerProducer_C_API_test.cpp **** 
  90:test/ConsumerProducer_C_API_test.cpp ****     printString("Unesite velicinu bafera?\n");
 375              		.loc 1 90 5
 376              		.loc 1 90 16 is_stmt 0
 377 0234 17050000 		lla	a0,.LC1
 377      13050500 
 378 023c 97000000 		call	_Z11printStringPKc@plt
 378      E7800000 
 379              	.LVL39:
  91:test/ConsumerProducer_C_API_test.cpp ****     //getString(input, 30);
  92:test/ConsumerProducer_C_API_test.cpp ****     n = 10;
 380              		.loc 1 92 5 is_stmt 1
  93:test/ConsumerProducer_C_API_test.cpp **** 
  94:test/ConsumerProducer_C_API_test.cpp ****     printString("Broj proizvodjaca "); printInt(threadNum);
 381              		.loc 1 94 5
 382              		.loc 1 94 16 is_stmt 0
 383 0244 17050000 		lla	a0,.LC2
 383      13050500 
 384 024c 97000000 		call	_Z11printStringPKc@plt
 384      E7800000 
 385              	.LVL40:
 386              		.loc 1 94 40 is_stmt 1
GAS LISTING /tmp/ccgzP0yn.s 			page 11


 387              		.loc 1 94 48 is_stmt 0
 388 0254 13060000 		li	a2,0
 389 0258 9305A000 		li	a1,10
 390 025c 13055000 		li	a0,5
 391 0260 97000000 		call	_Z8printIntiii@plt
 391      E7800000 
 392              	.LVL41:
  95:test/ConsumerProducer_C_API_test.cpp ****     printString(" i velicina bafera "); printInt(n);
 393              		.loc 1 95 5 is_stmt 1
 394              		.loc 1 95 16 is_stmt 0
 395 0268 17050000 		lla	a0,.LC3
 395      13050500 
 396 0270 97000000 		call	_Z11printStringPKc@plt
 396      E7800000 
 397              	.LVL42:
 398              		.loc 1 95 41 is_stmt 1
 399              		.loc 1 95 49 is_stmt 0
 400 0278 13060000 		li	a2,0
 401 027c 9305A000 		li	a1,10
 402 0280 1305A000 		li	a0,10
 403 0284 97000000 		call	_Z8printIntiii@plt
 403      E7800000 
 404              	.LVL43:
  96:test/ConsumerProducer_C_API_test.cpp ****     printString(".\n");
 405              		.loc 1 96 5 is_stmt 1
 406              		.loc 1 96 16 is_stmt 0
 407 028c 17050000 		lla	a0,.LC4
 407      13050500 
 408 0294 97000000 		call	_Z11printStringPKc@plt
 408      E7800000 
 409              	.LVL44:
  97:test/ConsumerProducer_C_API_test.cpp **** 
  98:test/ConsumerProducer_C_API_test.cpp ****     Buffer *buffer = new Buffer(n);
 410              		.loc 1 98 5 is_stmt 1
 411              		.loc 1 98 34 is_stmt 0
 412 029c 13058003 		li	a0,56
 413 02a0 97000000 		call	_Znwm@plt
 413      E7800000 
 414              	.LVL45:
 415              	.LEHE0:
 416 02a8 13090500 		mv	s2,a0
 417 02ac 9305A000 		li	a1,10
 418              	.LEHB1:
 419 02b0 97000000 		call	_ZN6BufferC1Ei@plt
 419      E7800000 
 420              	.LVL46:
 421              	.LEHE1:
  99:test/ConsumerProducer_C_API_test.cpp **** 
 100:test/ConsumerProducer_C_API_test.cpp ****     sem_open(&waitForAll, 0);
 422              		.loc 1 100 5 is_stmt 1 discriminator 3
 423              		.loc 1 100 13 is_stmt 0 discriminator 3
 424 02b8 93050000 		li	a1,0
 425 02bc 17050000 		lla	a0,.LANCHOR0+8
 425      13050500 
 426              	.LEHB2:
 427 02c4 97000000 		call	sem_open@plt
 427      E7800000 
GAS LISTING /tmp/ccgzP0yn.s 			page 12


 428              	.LVL47:
 101:test/ConsumerProducer_C_API_test.cpp **** 
 102:test/ConsumerProducer_C_API_test.cpp ****     thread_t threads[threadNum];
 429              		.loc 1 102 5 is_stmt 1 discriminator 3
 103:test/ConsumerProducer_C_API_test.cpp ****     thread_t consumerThread;
 430              		.loc 1 103 5 discriminator 3
 104:test/ConsumerProducer_C_API_test.cpp **** 
 105:test/ConsumerProducer_C_API_test.cpp ****     struct thread_data data[threadNum + 1];
 431              		.loc 1 105 5 discriminator 3
 106:test/ConsumerProducer_C_API_test.cpp **** 
 107:test/ConsumerProducer_C_API_test.cpp ****     data[threadNum].id = threadNum;
 432              		.loc 1 107 5 discriminator 3
 433              		.loc 1 107 24 is_stmt 0 discriminator 3
 434 02cc 93075000 		li	a5,5
 435 02d0 2320F4FC 		sw	a5,-64(s0)
 108:test/ConsumerProducer_C_API_test.cpp ****     data[threadNum].buffer = buffer;
 436              		.loc 1 108 5 is_stmt 1 discriminator 3
 437              		.loc 1 108 28 is_stmt 0 discriminator 3
 438 02d4 233424FD 		sd	s2,-56(s0)
 109:test/ConsumerProducer_C_API_test.cpp ****     data[threadNum].wait = waitForAll;
 439              		.loc 1 109 5 is_stmt 1 discriminator 3
 440              		.loc 1 109 26 is_stmt 0 discriminator 3
 441 02d8 97070000 		ld	a5,.LANCHOR0+8
 441      83B70700 
 442 02e0 2338F4FC 		sd	a5,-48(s0)
 110:test/ConsumerProducer_C_API_test.cpp ****     thread_create(&consumerThread, consumer, data + threadNum);
 443              		.loc 1 110 5 is_stmt 1 discriminator 3
 444              		.loc 1 110 18 is_stmt 0 discriminator 3
 445 02e4 130604FC 		addi	a2,s0,-64
 446 02e8 97050000 		lla	a1,_Z8consumerPv
 446      93850500 
 447 02f0 130584FD 		addi	a0,s0,-40
 448 02f4 97000000 		call	thread_create@plt
 448      E7800000 
 449              	.LVL48:
 450              	.LBB13:
 111:test/ConsumerProducer_C_API_test.cpp **** 
 112:test/ConsumerProducer_C_API_test.cpp ****     for (int i = 0; i < threadNum; i++) {
 451              		.loc 1 112 14 discriminator 3
 452 02fc 93040000 		li	s1,0
 453              	.L25:
 454              	.LVL49:
 455              		.loc 1 112 23 is_stmt 1 discriminator 1
 456 0300 93074000 		li	a5,4
 457 0304 63CC9706 		bgt	s1,a5,.L23
 113:test/ConsumerProducer_C_API_test.cpp ****         data[i].id = i;
 458              		.loc 1 113 9
 459              		.loc 1 113 20 is_stmt 0
 460 0308 93971400 		slli	a5,s1,1
 461 030c B3879700 		add	a5,a5,s1
 462 0310 93973700 		slli	a5,a5,3
 463 0314 130704FE 		addi	a4,s0,-32
 464 0318 B307F700 		add	a5,a4,a5
 465 031c 23A497F6 		sw	s1,-152(a5)
 114:test/ConsumerProducer_C_API_test.cpp ****         data[i].buffer = buffer;
 466              		.loc 1 114 9 is_stmt 1
 467              		.loc 1 114 24 is_stmt 0
GAS LISTING /tmp/ccgzP0yn.s 			page 13


 468 0320 23B827F7 		sd	s2,-144(a5)
 115:test/ConsumerProducer_C_API_test.cpp ****         data[i].wait = waitForAll;
 469              		.loc 1 115 9 is_stmt 1
 470              		.loc 1 115 22 is_stmt 0
 471 0324 17070000 		ld	a4,.LANCHOR0+8
 471      03370700 
 472 032c 23BCE7F6 		sd	a4,-136(a5)
 116:test/ConsumerProducer_C_API_test.cpp **** 
 117:test/ConsumerProducer_C_API_test.cpp ****         thread_create(threads + i,
 473              		.loc 1 117 9 is_stmt 1
 474              		.loc 1 117 33 is_stmt 0
 475 0330 13860400 		mv	a2,s1
 476              		.loc 1 117 31
 477 0334 13953400 		slli	a0,s1,3
 478              		.loc 1 117 22
 479 0338 130704F2 		addi	a4,s0,-224
 480              	.LVL50:
 481 033c 3305A700 		add	a0,a4,a0
 482 0340 63589002 		blez	s1,.L29
 483 0344 97050000 		lla	a1,_Z8producerPv
 483      93850500 
 484              	.L24:
 118:test/ConsumerProducer_C_API_test.cpp ****                       i > 0 ? producer : producerKeyboard,
 119:test/ConsumerProducer_C_API_test.cpp ****                       data + i);
 485              		.loc 1 119 28 discriminator 4
 486 034c 93171600 		slli	a5,a2,1
 487 0350 B387C700 		add	a5,a5,a2
 488 0354 93973700 		slli	a5,a5,3
 117:test/ConsumerProducer_C_API_test.cpp ****                       i > 0 ? producer : producerKeyboard,
 489              		.loc 1 117 22 discriminator 4
 490 0358 130684F4 		addi	a2,s0,-184
 491              	.LVL51:
 492 035c 3306F600 		add	a2,a2,a5
 493              	.LVL52:
 494 0360 97000000 		call	thread_create@plt
 494      E7800000 
 495              	.LVL53:
 112:test/ConsumerProducer_C_API_test.cpp ****         data[i].id = i;
 496              		.loc 1 112 5 is_stmt 1 discriminator 4
 497 0368 9B841400 		addiw	s1,s1,1
 498              	.LVL54:
 499 036c 6FF05FF9 		j	.L25
 500              	.LVL55:
 501              	.L29:
 117:test/ConsumerProducer_C_API_test.cpp ****                       i > 0 ? producer : producerKeyboard,
 502              		.loc 1 117 22 is_stmt 0
 503 0370 97050000 		lla	a1,_Z16producerKeyboardPv
 503      93850500 
 504 0378 6FF05FFD 		j	.L24
 505              	.LVL56:
 506              	.L23:
 507              	.LBE13:
 120:test/ConsumerProducer_C_API_test.cpp ****     }
 121:test/ConsumerProducer_C_API_test.cpp **** 
 122:test/ConsumerProducer_C_API_test.cpp ****     thread_dispatch();
 508              		.loc 1 122 5 is_stmt 1
 509              		.loc 1 122 20 is_stmt 0
GAS LISTING /tmp/ccgzP0yn.s 			page 14


 510 037c 97000000 		call	thread_dispatch@plt
 510      E7800000 
 511              	.LVL57:
 512              	.LBB14:
 123:test/ConsumerProducer_C_API_test.cpp **** 
 124:test/ConsumerProducer_C_API_test.cpp ****     for (int i = 0; i <= threadNum; i++) {
 513              		.loc 1 124 14
 514 0384 93040000 		li	s1,0
 515              	.LVL58:
 516              	.L27:
 517              		.loc 1 124 23 is_stmt 1 discriminator 1
 518 0388 93075000 		li	a5,5
 519 038c 63CE9700 		bgt	s1,a5,.L26
 125:test/ConsumerProducer_C_API_test.cpp ****         sem_wait(waitForAll);
 520              		.loc 1 125 9
 521              		.loc 1 125 17 is_stmt 0
 522 0390 17050000 		ld	a0,.LANCHOR0+8
 522      03350500 
 523 0398 97000000 		call	sem_wait@plt
 523      E7800000 
 524              	.LVL59:
 124:test/ConsumerProducer_C_API_test.cpp ****         sem_wait(waitForAll);
 525              		.loc 1 124 5 is_stmt 1
 526 03a0 9B841400 		addiw	s1,s1,1
 527              	.LVL60:
 528 03a4 6FF05FFE 		j	.L27
 529              	.LVL61:
 530              	.L26:
 531              	.LBE14:
 126:test/ConsumerProducer_C_API_test.cpp ****     }
 127:test/ConsumerProducer_C_API_test.cpp **** 
 128:test/ConsumerProducer_C_API_test.cpp ****     sem_close(waitForAll);
 532              		.loc 1 128 5
 533              		.loc 1 128 14 is_stmt 0
 534 03a8 17050000 		ld	a0,.LANCHOR0+8
 534      03350500 
 535 03b0 97000000 		call	sem_close@plt
 535      E7800000 
 536              	.LVL62:
 129:test/ConsumerProducer_C_API_test.cpp **** }...
 537              		.loc 1 129 1
 538 03b8 8330810D 		ld	ra,216(sp)
 539              		.cfi_remember_state
 540              		.cfi_restore 1
 541 03bc 0334010D 		ld	s0,208(sp)
 542              		.cfi_restore 8
 543              		.cfi_def_cfa 2, 224
 544              	.LVL63:
 545 03c0 8334810C 		ld	s1,200(sp)
 546              		.cfi_restore 9
 547              	.LVL64:
 548 03c4 0339010C 		ld	s2,192(sp)
 549              		.cfi_restore 18
 550              	.LVL65:
 551 03c8 1301010E 		addi	sp,sp,224
 552              		.cfi_def_cfa_offset 0
 553              	.LVL66:
GAS LISTING /tmp/ccgzP0yn.s 			page 15


 554 03cc 67800000 		jr	ra
 555              	.LVL67:
 556              	.L30:
 557              		.cfi_restore_state
 558 03d0 93040500 		mv	s1,a0
  98:test/ConsumerProducer_C_API_test.cpp ****     Buffer *buffer = new Buffer(n);
 559              		.loc 1 98 34
 560 03d4 13050900 		mv	a0,s2
 561 03d8 97000000 		call	_ZdlPv@plt
 561      E7800000 
 562              	.LVL68:
 563 03e0 13850400 		mv	a0,s1
 564 03e4 97000000 		call	_Unwind_Resume@plt
 564      E7800000 
 565              	.LVL69:
 566              	.LEHE2:
 567              		.cfi_endproc
 568              	.LFE5:
 569              		.globl	__gxx_personality_v0
 570              		.section	.gcc_except_table,"a",@progbits
 571              	.LLSDA5:
 572 0000 FF       		.byte	0xff
 573 0001 FF       		.byte	0xff
 574 0002 03       		.byte	0x3
 575 0003 27       		.byte	0x27
 576 0004 00000000 		.4byte	.LEHB0-.LFB5
 577 0008 00000000 		.4byte	.LEHE0-.LEHB0
 578 000c 00000000 		.4byte	0
 579 0010 00       		.byte	0
 580 0011 00000000 		.4byte	.LEHB1-.LFB5
 581 0015 00000000 		.4byte	.LEHE1-.LEHB1
 582 0019 00000000 		.4byte	.L30-.LFB5
 583 001d 00       		.byte	0
 584 001e 00000000 		.4byte	.LEHB2-.LFB5
 585 0022 00000000 		.4byte	.LEHE2-.LEHB2
 586 0026 00000000 		.4byte	0
 587 002a 00       		.byte	0
 588              		.text
 590              		.globl	threadEnd
 591              		.globl	waitForAll
 592              		.bss
 593              		.align	3
 594              		.set	.LANCHOR0,. + 0
 597              	threadEnd:
 598 0000 00000000 		.zero	4
 599 0004 00000000 		.zero	4
 602              	waitForAll:
 603 0008 00000000 		.zero	8
 603      00000000 
 604              		.text
 605              	.Letext0:
 606              		.file 3 "test/../h/../lib/hw.h"
 607              		.file 4 "test/../h/syscall_c.h"
 608              		.file 5 "test/buffer.hpp"
 609              		.file 6 "test/printing.hpp"
 610              		.file 7 "test/../lib/console.h"
 2622              		.align	3
GAS LISTING /tmp/ccgzP0yn.s 			page 16


 2625              	DW.ref.__gxx_personality_v0:
 2626 0000 00000000 		.dword	__gxx_personality_v0
 2626      00000000 
 2627              		.ident	"GCC: (Ubuntu 9.3.0-17ubuntu1~20.04) 9.3.0"
 2628              		.section	.note.GNU-stack,"",@progbits
GAS LISTING /tmp/ccgzP0yn.s 			page 17

