GAS LISTING /tmp/ccFIZwzG.s 			page 1


   1              		.file	"ConsumerProducer_CPP_Sync_API_test.cpp"
   2              		.option pic
   3              		.option norelax
   4              		.text
   5              	.Ltext0:
   6              		.section	.text._ZN8ConsumerD2Ev,"axG",@progbits,_ZN8ConsumerD5Ev,comdat
   7              		.align	2
   8              		.weak	_ZN8ConsumerD2Ev
  10              	_ZN8ConsumerD2Ev:
  11              	.LFB19:
  12              		.file 1 "test/ConsumerProducer_CPP_Sync_API_test.hpp"
   1:test/ConsumerProducer_CPP_Sync_API_test.hpp **** //
   2:test/ConsumerProducer_CPP_Sync_API_test.hpp **** // Created by os on 4/17/22.
   3:test/ConsumerProducer_CPP_Sync_API_test.hpp **** //
   4:test/ConsumerProducer_CPP_Sync_API_test.hpp **** 
   5:test/ConsumerProducer_CPP_Sync_API_test.hpp **** #ifndef XV6_CONSUMERPRODUCER_CPP_Sync_API_TEST_H
   6:test/ConsumerProducer_CPP_Sync_API_test.hpp **** #define XV6_CONSUMERPRODUCER_CPP_Sync_API_TEST_H
   7:test/ConsumerProducer_CPP_Sync_API_test.hpp **** 
   8:test/ConsumerProducer_CPP_Sync_API_test.hpp **** #include "buffer_CPP_API.hpp"
   9:test/ConsumerProducer_CPP_Sync_API_test.hpp **** 
  10:test/ConsumerProducer_CPP_Sync_API_test.hpp **** struct thread_data;
  11:test/ConsumerProducer_CPP_Sync_API_test.hpp **** 
  12:test/ConsumerProducer_CPP_Sync_API_test.hpp **** class ProducerKeyboard:public Thread {
  13:test/ConsumerProducer_CPP_Sync_API_test.hpp ****     thread_data* td;
  14:test/ConsumerProducer_CPP_Sync_API_test.hpp ****     void producerKeyboard(void *arg);
  15:test/ConsumerProducer_CPP_Sync_API_test.hpp **** public:
  16:test/ConsumerProducer_CPP_Sync_API_test.hpp ****     ProducerKeyboard(thread_data* _td):Thread(), td(_td) {}
  17:test/ConsumerProducer_CPP_Sync_API_test.hpp **** 
  18:test/ConsumerProducer_CPP_Sync_API_test.hpp ****     void run() override {
  19:test/ConsumerProducer_CPP_Sync_API_test.hpp ****         producerKeyboard(td);
  20:test/ConsumerProducer_CPP_Sync_API_test.hpp ****     }
  21:test/ConsumerProducer_CPP_Sync_API_test.hpp **** };
  22:test/ConsumerProducer_CPP_Sync_API_test.hpp **** 
  23:test/ConsumerProducer_CPP_Sync_API_test.hpp **** class Producer:public Thread {
  24:test/ConsumerProducer_CPP_Sync_API_test.hpp ****     thread_data* td;
  25:test/ConsumerProducer_CPP_Sync_API_test.hpp ****     void producer(void *arg);
  26:test/ConsumerProducer_CPP_Sync_API_test.hpp **** public:
  27:test/ConsumerProducer_CPP_Sync_API_test.hpp ****     Producer(thread_data* _td):Thread(), td(_td) {}
  28:test/ConsumerProducer_CPP_Sync_API_test.hpp **** 
  29:test/ConsumerProducer_CPP_Sync_API_test.hpp ****     void run() override {
  30:test/ConsumerProducer_CPP_Sync_API_test.hpp ****         producer(td);
  31:test/ConsumerProducer_CPP_Sync_API_test.hpp ****     }
  32:test/ConsumerProducer_CPP_Sync_API_test.hpp **** };
  33:test/ConsumerProducer_CPP_Sync_API_test.hpp **** 
  34:test/ConsumerProducer_CPP_Sync_API_test.hpp **** class Consumer:public Thread {
  13              		.loc 1 34 7
  14              		.cfi_startproc
  15              	.LVL0:
  16 0000 130101FF 		addi	sp,sp,-16
  17              		.cfi_def_cfa_offset 16
  18 0004 23341100 		sd	ra,8(sp)
  19 0008 23308100 		sd	s0,0(sp)
  20              		.cfi_offset 1, -8
  21              		.cfi_offset 8, -16
  22 000c 13040101 		addi	s0,sp,16
  23              		.cfi_def_cfa 8, 0
  24              	.LBB23:
GAS LISTING /tmp/ccFIZwzG.s 			page 2


  25              		.loc 1 34 7 is_stmt 0
  26 0010 97070000 		lla	a5,_ZTV8Consumer+16
  26      93870700 
  27 0018 2330F500 		sd	a5,0(a0)
  28 001c 97000000 		call	_ZN6ThreadD2Ev@plt
  28      E7800000 
  29              	.LVL1:
  30              	.LBE23:
  31 0024 83308100 		ld	ra,8(sp)
  32              		.cfi_restore 1
  33 0028 03340100 		ld	s0,0(sp)
  34              		.cfi_restore 8
  35              		.cfi_def_cfa 2, 16
  36 002c 13010101 		addi	sp,sp,16
  37              		.cfi_def_cfa_offset 0
  38 0030 67800000 		jr	ra
  39              		.cfi_endproc
  40              	.LFE19:
  42              		.weak	_ZN8ConsumerD1Ev
  43              		.set	_ZN8ConsumerD1Ev,_ZN8ConsumerD2Ev
  44              		.section	.text._ZN8ConsumerD0Ev,"axG",@progbits,_ZN8ConsumerD5Ev,comdat
  45              		.align	2
  46              		.weak	_ZN8ConsumerD0Ev
  48              	_ZN8ConsumerD0Ev:
  49              	.LFB21:
  50              		.loc 1 34 7 is_stmt 1
  51              		.cfi_startproc
  52              	.LVL2:
  53 0000 130101FE 		addi	sp,sp,-32
  54              		.cfi_def_cfa_offset 32
  55 0004 233C1100 		sd	ra,24(sp)
  56 0008 23388100 		sd	s0,16(sp)
  57 000c 23349100 		sd	s1,8(sp)
  58              		.cfi_offset 1, -8
  59              		.cfi_offset 8, -16
  60              		.cfi_offset 9, -24
  61 0010 13040102 		addi	s0,sp,32
  62              		.cfi_def_cfa 8, 0
  63 0014 93040500 		mv	s1,a0
  64              	.LVL3:
  65              	.LBB24:
  66              	.LBB25:
  67              		.loc 1 34 7 is_stmt 0
  68 0018 97070000 		lla	a5,_ZTV8Consumer+16
  68      93870700 
  69 0020 2330F500 		sd	a5,0(a0)
  70 0024 97000000 		call	_ZN6ThreadD2Ev@plt
  70      E7800000 
  71              	.LVL4:
  72              	.LBE25:
  73              	.LBE24:
  74 002c 13850400 		mv	a0,s1
  75 0030 97000000 		call	_ZdlPv@plt
  75      E7800000 
  76              	.LVL5:
  77 0038 83308101 		ld	ra,24(sp)
  78              		.cfi_restore 1
GAS LISTING /tmp/ccFIZwzG.s 			page 3


  79 003c 03340101 		ld	s0,16(sp)
  80              		.cfi_restore 8
  81              		.cfi_def_cfa 2, 32
  82 0040 83348100 		ld	s1,8(sp)
  83              		.cfi_restore 9
  84              	.LVL6:
  85 0044 13010102 		addi	sp,sp,32
  86              		.cfi_def_cfa_offset 0
  87 0048 67800000 		jr	ra
  88              		.cfi_endproc
  89              	.LFE21:
  91              		.section	.text._ZN8ProducerD2Ev,"axG",@progbits,_ZN8ProducerD5Ev,comdat
  92              		.align	2
  93              		.weak	_ZN8ProducerD2Ev
  95              	_ZN8ProducerD2Ev:
  96              	.LFB23:
  23:test/ConsumerProducer_CPP_Sync_API_test.hpp ****     thread_data* td;
  97              		.loc 1 23 7 is_stmt 1
  98              		.cfi_startproc
  99              	.LVL7:
 100 0000 130101FF 		addi	sp,sp,-16
 101              		.cfi_def_cfa_offset 16
 102 0004 23341100 		sd	ra,8(sp)
 103 0008 23308100 		sd	s0,0(sp)
 104              		.cfi_offset 1, -8
 105              		.cfi_offset 8, -16
 106 000c 13040101 		addi	s0,sp,16
 107              		.cfi_def_cfa 8, 0
 108              	.LBB26:
  23:test/ConsumerProducer_CPP_Sync_API_test.hpp ****     thread_data* td;
 109              		.loc 1 23 7 is_stmt 0
 110 0010 97070000 		lla	a5,_ZTV8Producer+16
 110      93870700 
 111 0018 2330F500 		sd	a5,0(a0)
 112 001c 97000000 		call	_ZN6ThreadD2Ev@plt
 112      E7800000 
 113              	.LVL8:
 114              	.LBE26:
 115 0024 83308100 		ld	ra,8(sp)
 116              		.cfi_restore 1
 117 0028 03340100 		ld	s0,0(sp)
 118              		.cfi_restore 8
 119              		.cfi_def_cfa 2, 16
 120 002c 13010101 		addi	sp,sp,16
 121              		.cfi_def_cfa_offset 0
 122 0030 67800000 		jr	ra
 123              		.cfi_endproc
 124              	.LFE23:
 126              		.weak	_ZN8ProducerD1Ev
 127              		.set	_ZN8ProducerD1Ev,_ZN8ProducerD2Ev
 128              		.section	.text._ZN8ProducerD0Ev,"axG",@progbits,_ZN8ProducerD5Ev,comdat
 129              		.align	2
 130              		.weak	_ZN8ProducerD0Ev
 132              	_ZN8ProducerD0Ev:
 133              	.LFB25:
  23:test/ConsumerProducer_CPP_Sync_API_test.hpp ****     thread_data* td;
 134              		.loc 1 23 7 is_stmt 1
GAS LISTING /tmp/ccFIZwzG.s 			page 4


 135              		.cfi_startproc
 136              	.LVL9:
 137 0000 130101FE 		addi	sp,sp,-32
 138              		.cfi_def_cfa_offset 32
 139 0004 233C1100 		sd	ra,24(sp)
 140 0008 23388100 		sd	s0,16(sp)
 141 000c 23349100 		sd	s1,8(sp)
 142              		.cfi_offset 1, -8
 143              		.cfi_offset 8, -16
 144              		.cfi_offset 9, -24
 145 0010 13040102 		addi	s0,sp,32
 146              		.cfi_def_cfa 8, 0
 147 0014 93040500 		mv	s1,a0
 148              	.LVL10:
 149              	.LBB27:
 150              	.LBB28:
  23:test/ConsumerProducer_CPP_Sync_API_test.hpp ****     thread_data* td;
 151              		.loc 1 23 7 is_stmt 0
 152 0018 97070000 		lla	a5,_ZTV8Producer+16
 152      93870700 
 153 0020 2330F500 		sd	a5,0(a0)
 154 0024 97000000 		call	_ZN6ThreadD2Ev@plt
 154      E7800000 
 155              	.LVL11:
 156              	.LBE28:
 157              	.LBE27:
 158 002c 13850400 		mv	a0,s1
 159 0030 97000000 		call	_ZdlPv@plt
 159      E7800000 
 160              	.LVL12:
 161 0038 83308101 		ld	ra,24(sp)
 162              		.cfi_restore 1
 163 003c 03340101 		ld	s0,16(sp)
 164              		.cfi_restore 8
 165              		.cfi_def_cfa 2, 32
 166 0040 83348100 		ld	s1,8(sp)
 167              		.cfi_restore 9
 168              	.LVL13:
 169 0044 13010102 		addi	sp,sp,32
 170              		.cfi_def_cfa_offset 0
 171 0048 67800000 		jr	ra
 172              		.cfi_endproc
 173              	.LFE25:
 175              		.section	.text._ZN16ProducerKeyboardD2Ev,"axG",@progbits,_ZN16ProducerKeyboardD5Ev,comdat
 176              		.align	2
 177              		.weak	_ZN16ProducerKeyboardD2Ev
 179              	_ZN16ProducerKeyboardD2Ev:
 180              	.LFB27:
  12:test/ConsumerProducer_CPP_Sync_API_test.hpp ****     thread_data* td;
 181              		.loc 1 12 7 is_stmt 1
 182              		.cfi_startproc
 183              	.LVL14:
 184 0000 130101FF 		addi	sp,sp,-16
 185              		.cfi_def_cfa_offset 16
 186 0004 23341100 		sd	ra,8(sp)
 187 0008 23308100 		sd	s0,0(sp)
 188              		.cfi_offset 1, -8
GAS LISTING /tmp/ccFIZwzG.s 			page 5


 189              		.cfi_offset 8, -16
 190 000c 13040101 		addi	s0,sp,16
 191              		.cfi_def_cfa 8, 0
 192              	.LBB29:
  12:test/ConsumerProducer_CPP_Sync_API_test.hpp ****     thread_data* td;
 193              		.loc 1 12 7 is_stmt 0
 194 0010 97070000 		lla	a5,_ZTV16ProducerKeyboard+16
 194      93870700 
 195 0018 2330F500 		sd	a5,0(a0)
 196 001c 97000000 		call	_ZN6ThreadD2Ev@plt
 196      E7800000 
 197              	.LVL15:
 198              	.LBE29:
 199 0024 83308100 		ld	ra,8(sp)
 200              		.cfi_restore 1
 201 0028 03340100 		ld	s0,0(sp)
 202              		.cfi_restore 8
 203              		.cfi_def_cfa 2, 16
 204 002c 13010101 		addi	sp,sp,16
 205              		.cfi_def_cfa_offset 0
 206 0030 67800000 		jr	ra
 207              		.cfi_endproc
 208              	.LFE27:
 210              		.weak	_ZN16ProducerKeyboardD1Ev
 211              		.set	_ZN16ProducerKeyboardD1Ev,_ZN16ProducerKeyboardD2Ev
 212              		.section	.text._ZN16ProducerKeyboardD0Ev,"axG",@progbits,_ZN16ProducerKeyboardD5Ev,comdat
 213              		.align	2
 214              		.weak	_ZN16ProducerKeyboardD0Ev
 216              	_ZN16ProducerKeyboardD0Ev:
 217              	.LFB29:
  12:test/ConsumerProducer_CPP_Sync_API_test.hpp ****     thread_data* td;
 218              		.loc 1 12 7 is_stmt 1
 219              		.cfi_startproc
 220              	.LVL16:
 221 0000 130101FE 		addi	sp,sp,-32
 222              		.cfi_def_cfa_offset 32
 223 0004 233C1100 		sd	ra,24(sp)
 224 0008 23388100 		sd	s0,16(sp)
 225 000c 23349100 		sd	s1,8(sp)
 226              		.cfi_offset 1, -8
 227              		.cfi_offset 8, -16
 228              		.cfi_offset 9, -24
 229 0010 13040102 		addi	s0,sp,32
 230              		.cfi_def_cfa 8, 0
 231 0014 93040500 		mv	s1,a0
 232              	.LVL17:
 233              	.LBB30:
 234              	.LBB31:
  12:test/ConsumerProducer_CPP_Sync_API_test.hpp ****     thread_data* td;
 235              		.loc 1 12 7 is_stmt 0
 236 0018 97070000 		lla	a5,_ZTV16ProducerKeyboard+16
 236      93870700 
 237 0020 2330F500 		sd	a5,0(a0)
 238 0024 97000000 		call	_ZN6ThreadD2Ev@plt
 238      E7800000 
 239              	.LVL18:
 240              	.LBE31:
GAS LISTING /tmp/ccFIZwzG.s 			page 6


 241              	.LBE30:
 242 002c 13850400 		mv	a0,s1
 243 0030 97000000 		call	_ZdlPv@plt
 243      E7800000 
 244              	.LVL19:
 245 0038 83308101 		ld	ra,24(sp)
 246              		.cfi_restore 1
 247 003c 03340101 		ld	s0,16(sp)
 248              		.cfi_restore 8
 249              		.cfi_def_cfa 2, 32
 250 0040 83348100 		ld	s1,8(sp)
 251              		.cfi_restore 9
 252              	.LVL20:
 253 0044 13010102 		addi	sp,sp,32
 254              		.cfi_def_cfa_offset 0
 255 0048 67800000 		jr	ra
 256              		.cfi_endproc
 257              	.LFE29:
 259              		.text
 260              		.align	2
 261              		.globl	_ZN16ProducerKeyboard16producerKeyboardEPv
 263              	_ZN16ProducerKeyboard16producerKeyboardEPv:
 264              	.LFB14:
 265              		.file 2 "test/ConsumerProducer_CPP_Sync_API_test.cpp"
   1:test/ConsumerProducer_CPP_Sync_API_test.cpp **** //
   2:test/ConsumerProducer_CPP_Sync_API_test.cpp **** // Created by os on 6/2/22.
   3:test/ConsumerProducer_CPP_Sync_API_test.cpp **** //
   4:test/ConsumerProducer_CPP_Sync_API_test.cpp **** 
   5:test/ConsumerProducer_CPP_Sync_API_test.cpp **** #include "ConsumerProducer_CPP_Sync_API_test.hpp"
   6:test/ConsumerProducer_CPP_Sync_API_test.cpp **** #include "printing.hpp"
   7:test/ConsumerProducer_CPP_Sync_API_test.cpp **** 
   8:test/ConsumerProducer_CPP_Sync_API_test.cpp **** extern Semaphore* waitForAll;
   9:test/ConsumerProducer_CPP_Sync_API_test.cpp **** 
  10:test/ConsumerProducer_CPP_Sync_API_test.cpp **** struct thread_data {
  11:test/ConsumerProducer_CPP_Sync_API_test.cpp ****     int id;
  12:test/ConsumerProducer_CPP_Sync_API_test.cpp ****     BufferCPP *buffer;
  13:test/ConsumerProducer_CPP_Sync_API_test.cpp ****     Semaphore* wait;
  14:test/ConsumerProducer_CPP_Sync_API_test.cpp **** };
  15:test/ConsumerProducer_CPP_Sync_API_test.cpp **** 
  16:test/ConsumerProducer_CPP_Sync_API_test.cpp **** extern volatile int threadEnd;
  17:test/ConsumerProducer_CPP_Sync_API_test.cpp **** 
  18:test/ConsumerProducer_CPP_Sync_API_test.cpp **** void ProducerKeyboard::producerKeyboard(void *arg) {
 266              		.loc 2 18 52 is_stmt 1
 267              		.cfi_startproc
 268              	.LVL21:
 269 0000 130101FD 		addi	sp,sp,-48
 270              		.cfi_def_cfa_offset 48
 271 0004 23341102 		sd	ra,40(sp)
 272 0008 23308102 		sd	s0,32(sp)
 273 000c 233C9100 		sd	s1,24(sp)
 274 0010 23382101 		sd	s2,16(sp)
 275 0014 23343101 		sd	s3,8(sp)
 276              		.cfi_offset 1, -8
 277              		.cfi_offset 8, -16
 278              		.cfi_offset 9, -24
 279              		.cfi_offset 18, -32
 280              		.cfi_offset 19, -40
GAS LISTING /tmp/ccFIZwzG.s 			page 7


 281 0018 13040103 		addi	s0,sp,48
 282              		.cfi_def_cfa 8, 0
 283 001c 93090500 		mv	s3,a0
 284 0020 93840500 		mv	s1,a1
  19:test/ConsumerProducer_CPP_Sync_API_test.cpp ****     struct thread_data *data = (struct thread_data *) arg;
 285              		.loc 2 19 5
 286              	.LVL22:
  20:test/ConsumerProducer_CPP_Sync_API_test.cpp **** 
  21:test/ConsumerProducer_CPP_Sync_API_test.cpp ****     int key;
 287              		.loc 2 21 5
  22:test/ConsumerProducer_CPP_Sync_API_test.cpp ****     int i = 0;
 288              		.loc 2 22 5
 289              		.loc 2 22 9 is_stmt 0
 290 0024 13090000 		li	s2,0
 291 0028 6F00C000 		j	.L14
 292              	.LVL23:
 293              	.L18:
  23:test/ConsumerProducer_CPP_Sync_API_test.cpp ****     while ((key = getc()) != 'q') {
  24:test/ConsumerProducer_CPP_Sync_API_test.cpp ****         data->buffer->put(key);
  25:test/ConsumerProducer_CPP_Sync_API_test.cpp ****         i++;
  26:test/ConsumerProducer_CPP_Sync_API_test.cpp **** 
  27:test/ConsumerProducer_CPP_Sync_API_test.cpp ****         if (i % (10 * data->id) == 0) {
  28:test/ConsumerProducer_CPP_Sync_API_test.cpp ****             Thread::dispatch();
 294              		.loc 2 28 13 is_stmt 1
 295              		.loc 2 28 29 is_stmt 0
 296 002c 97000000 		call	_ZN6Thread8dispatchEv@plt
 296      E7800000 
 297              	.LVL24:
 298              	.L14:
  23:test/ConsumerProducer_CPP_Sync_API_test.cpp ****     while ((key = getc()) != 'q') {
 299              		.loc 2 23 5 is_stmt 1
  23:test/ConsumerProducer_CPP_Sync_API_test.cpp ****     while ((key = getc()) != 'q') {
 300              		.loc 2 23 27
  23:test/ConsumerProducer_CPP_Sync_API_test.cpp ****     while ((key = getc()) != 'q') {
 301              		.loc 2 23 23 is_stmt 0
 302 0034 97000000 		call	getc@plt
 302      E7800000 
 303              	.LVL25:
  23:test/ConsumerProducer_CPP_Sync_API_test.cpp ****     while ((key = getc()) != 'q') {
 304              		.loc 2 23 17
 305 003c 9B050500 		sext.w	a1,a0
 306              	.LVL26:
  23:test/ConsumerProducer_CPP_Sync_API_test.cpp ****     while ((key = getc()) != 'q') {
 307              		.loc 2 23 27
 308 0040 93071007 		li	a5,113
 309 0044 638AF502 		beq	a1,a5,.L15
  24:test/ConsumerProducer_CPP_Sync_API_test.cpp ****         i++;
 310              		.loc 2 24 9 is_stmt 1
  24:test/ConsumerProducer_CPP_Sync_API_test.cpp ****         i++;
 311              		.loc 2 24 26 is_stmt 0
 312 0048 03B58400 		ld	a0,8(s1)
 313 004c 97000000 		call	_ZN9BufferCPP3putEi@plt
 313      E7800000 
 314              	.LVL27:
  25:test/ConsumerProducer_CPP_Sync_API_test.cpp **** 
 315              		.loc 2 25 9 is_stmt 1
  25:test/ConsumerProducer_CPP_Sync_API_test.cpp **** 
GAS LISTING /tmp/ccFIZwzG.s 			page 8


 316              		.loc 2 25 10 is_stmt 0
 317 0054 1B071900 		addiw	a4,s2,1
 318 0058 1B090700 		sext.w	s2,a4
 319              	.LVL28:
  27:test/ConsumerProducer_CPP_Sync_API_test.cpp ****             Thread::dispatch();
 320              		.loc 2 27 9 is_stmt 1
  27:test/ConsumerProducer_CPP_Sync_API_test.cpp ****             Thread::dispatch();
 321              		.loc 2 27 29 is_stmt 0
 322 005c 83A60400 		lw	a3,0(s1)
  27:test/ConsumerProducer_CPP_Sync_API_test.cpp ****             Thread::dispatch();
 323              		.loc 2 27 21
 324 0060 9B972600 		slliw	a5,a3,2
 325 0064 BB87D700 		addw	a5,a5,a3
 326 0068 9B971700 		slliw	a5,a5,1
  27:test/ConsumerProducer_CPP_Sync_API_test.cpp ****             Thread::dispatch();
 327              		.loc 2 27 15
 328 006c BB67F702 		remw	a5,a4,a5
  27:test/ConsumerProducer_CPP_Sync_API_test.cpp ****             Thread::dispatch();
 329              		.loc 2 27 9
 330 0070 E39207FC 		bnez	a5,.L14
 331 0074 6FF09FFB 		j	.L18
 332              	.LVL29:
 333              	.L15:
  29:test/ConsumerProducer_CPP_Sync_API_test.cpp ****         }
  30:test/ConsumerProducer_CPP_Sync_API_test.cpp ****     }
  31:test/ConsumerProducer_CPP_Sync_API_test.cpp **** 
  32:test/ConsumerProducer_CPP_Sync_API_test.cpp ****     threadEnd = 1;
 334              		.loc 2 32 5 is_stmt 1
 335              		.loc 2 32 15 is_stmt 0
 336 0078 97070000 		la	a5,threadEnd
 336      83B70700 
 337 0080 13071000 		li	a4,1
 338 0084 23A0E700 		sw	a4,0(a5)
  33:test/ConsumerProducer_CPP_Sync_API_test.cpp ****     td->buffer->put('!');
 339              		.loc 2 33 5 is_stmt 1
 340 0088 83B70901 		ld	a5,16(s3)
 341              		.loc 2 33 20 is_stmt 0
 342 008c 93051002 		li	a1,33
 343              	.LVL30:
 344 0090 03B58700 		ld	a0,8(a5)
 345              	.LVL31:
 346 0094 97000000 		call	_ZN9BufferCPP3putEi@plt
 346      E7800000 
 347              	.LVL32:
  34:test/ConsumerProducer_CPP_Sync_API_test.cpp **** 
  35:test/ConsumerProducer_CPP_Sync_API_test.cpp ****     data->wait->signal();
 348              		.loc 2 35 5 is_stmt 1
 349              		.loc 2 35 23 is_stmt 0
 350 009c 03B50401 		ld	a0,16(s1)
 351 00a0 97000000 		call	_ZN9Semaphore6signalEv@plt
 351      E7800000 
 352              	.LVL33:
  36:test/ConsumerProducer_CPP_Sync_API_test.cpp **** }
 353              		.loc 2 36 1
 354 00a8 83308102 		ld	ra,40(sp)
 355              		.cfi_restore 1
 356 00ac 03340102 		ld	s0,32(sp)
GAS LISTING /tmp/ccFIZwzG.s 			page 9


 357              		.cfi_restore 8
 358              		.cfi_def_cfa 2, 48
 359 00b0 83348101 		ld	s1,24(sp)
 360              		.cfi_restore 9
 361              	.LVL34:
 362 00b4 03390101 		ld	s2,16(sp)
 363              		.cfi_restore 18
 364              	.LVL35:
 365 00b8 83398100 		ld	s3,8(sp)
 366              		.cfi_restore 19
 367              	.LVL36:
 368 00bc 13010103 		addi	sp,sp,48
 369              		.cfi_def_cfa_offset 0
 370 00c0 67800000 		jr	ra
 371              		.cfi_endproc
 372              	.LFE14:
 374              		.section	.text._ZN16ProducerKeyboard3runEv,"axG",@progbits,_ZN16ProducerKeyboard3runEv,comdat
 375              		.align	2
 376              		.weak	_ZN16ProducerKeyboard3runEv
 378              	_ZN16ProducerKeyboard3runEv:
 379              	.LFB5:
  18:test/ConsumerProducer_CPP_Sync_API_test.hpp ****         producerKeyboard(td);
 380              		.loc 1 18 10 is_stmt 1
 381              		.cfi_startproc
 382              	.LVL37:
 383 0000 130101FF 		addi	sp,sp,-16
 384              		.cfi_def_cfa_offset 16
 385 0004 23341100 		sd	ra,8(sp)
 386 0008 23308100 		sd	s0,0(sp)
 387              		.cfi_offset 1, -8
 388              		.cfi_offset 8, -16
 389 000c 13040101 		addi	s0,sp,16
 390              		.cfi_def_cfa 8, 0
  19:test/ConsumerProducer_CPP_Sync_API_test.hpp ****     }
 391              		.loc 1 19 9
  19:test/ConsumerProducer_CPP_Sync_API_test.hpp ****     }
 392              		.loc 1 19 25 is_stmt 0
 393 0010 83350501 		ld	a1,16(a0)
 394 0014 97000000 		call	_ZN16ProducerKeyboard16producerKeyboardEPv
 394      E7800000 
 395              	.LVL38:
  20:test/ConsumerProducer_CPP_Sync_API_test.hpp **** };
 396              		.loc 1 20 5
 397 001c 83308100 		ld	ra,8(sp)
 398              		.cfi_restore 1
 399 0020 03340100 		ld	s0,0(sp)
 400              		.cfi_restore 8
 401              		.cfi_def_cfa 2, 16
 402 0024 13010101 		addi	sp,sp,16
 403              		.cfi_def_cfa_offset 0
 404 0028 67800000 		jr	ra
 405              		.cfi_endproc
 406              	.LFE5:
 408              		.text
 409              		.align	2
 410              		.globl	_ZN8Producer8producerEPv
 412              	_ZN8Producer8producerEPv:
GAS LISTING /tmp/ccFIZwzG.s 			page 10


 413              	.LFB15:
  37:test/ConsumerProducer_CPP_Sync_API_test.cpp **** 
  38:test/ConsumerProducer_CPP_Sync_API_test.cpp **** void Producer::producer(void *arg) {
 414              		.loc 2 38 36 is_stmt 1
 415              		.cfi_startproc
 416              	.LVL39:
 417 00c4 130101FE 		addi	sp,sp,-32
 418              		.cfi_def_cfa_offset 32
 419 00c8 233C1100 		sd	ra,24(sp)
 420 00cc 23388100 		sd	s0,16(sp)
 421 00d0 23349100 		sd	s1,8(sp)
 422 00d4 23302101 		sd	s2,0(sp)
 423              		.cfi_offset 1, -8
 424              		.cfi_offset 8, -16
 425              		.cfi_offset 9, -24
 426              		.cfi_offset 18, -32
 427 00d8 13040102 		addi	s0,sp,32
 428              		.cfi_def_cfa 8, 0
 429 00dc 93840500 		mv	s1,a1
  39:test/ConsumerProducer_CPP_Sync_API_test.cpp ****     struct thread_data *data = (struct thread_data *) arg;
 430              		.loc 2 39 5
 431              	.LVL40:
  40:test/ConsumerProducer_CPP_Sync_API_test.cpp **** 
  41:test/ConsumerProducer_CPP_Sync_API_test.cpp ****     int i = 0;
 432              		.loc 2 41 5
 433              		.loc 2 41 9 is_stmt 0
 434 00e0 13090000 		li	s2,0
 435 00e4 6F00C000 		j	.L22
 436              	.LVL41:
 437              	.L26:
  42:test/ConsumerProducer_CPP_Sync_API_test.cpp ****     while (!threadEnd) {
  43:test/ConsumerProducer_CPP_Sync_API_test.cpp ****         data->buffer->put(data->id + '0');
  44:test/ConsumerProducer_CPP_Sync_API_test.cpp ****         i++;
  45:test/ConsumerProducer_CPP_Sync_API_test.cpp **** 
  46:test/ConsumerProducer_CPP_Sync_API_test.cpp ****         if (i % (10 * data->id) == 0) {
  47:test/ConsumerProducer_CPP_Sync_API_test.cpp ****             Thread::dispatch();
 438              		.loc 2 47 13 is_stmt 1
 439              		.loc 2 47 29 is_stmt 0
 440 00e8 97000000 		call	_ZN6Thread8dispatchEv@plt
 440      E7800000 
 441              	.LVL42:
 442              	.L22:
  42:test/ConsumerProducer_CPP_Sync_API_test.cpp ****     while (!threadEnd) {
 443              		.loc 2 42 5 is_stmt 1
  42:test/ConsumerProducer_CPP_Sync_API_test.cpp ****     while (!threadEnd) {
 444              		.loc 2 42 12
 445 00f0 97070000 		la	a5,threadEnd
 445      83B70700 
 446 00f8 83A70700 		lw	a5,0(a5)
 447 00fc 9B870700 		sext.w	a5,a5
 448 0100 639E0702 		bnez	a5,.L23
  43:test/ConsumerProducer_CPP_Sync_API_test.cpp ****         i++;
 449              		.loc 2 43 9
  43:test/ConsumerProducer_CPP_Sync_API_test.cpp ****         i++;
 450              		.loc 2 43 33 is_stmt 0
 451 0104 83A50400 		lw	a1,0(s1)
  43:test/ConsumerProducer_CPP_Sync_API_test.cpp ****         i++;
GAS LISTING /tmp/ccFIZwzG.s 			page 11


 452              		.loc 2 43 26
 453 0108 9B850503 		addiw	a1,a1,48
 454 010c 03B58400 		ld	a0,8(s1)
 455 0110 97000000 		call	_ZN9BufferCPP3putEi@plt
 455      E7800000 
 456              	.LVL43:
  44:test/ConsumerProducer_CPP_Sync_API_test.cpp **** 
 457              		.loc 2 44 9 is_stmt 1
  44:test/ConsumerProducer_CPP_Sync_API_test.cpp **** 
 458              		.loc 2 44 10 is_stmt 0
 459 0118 1B071900 		addiw	a4,s2,1
 460 011c 1B090700 		sext.w	s2,a4
 461              	.LVL44:
  46:test/ConsumerProducer_CPP_Sync_API_test.cpp ****             Thread::dispatch();
 462              		.loc 2 46 9 is_stmt 1
  46:test/ConsumerProducer_CPP_Sync_API_test.cpp ****             Thread::dispatch();
 463              		.loc 2 46 29 is_stmt 0
 464 0120 83A60400 		lw	a3,0(s1)
  46:test/ConsumerProducer_CPP_Sync_API_test.cpp ****             Thread::dispatch();
 465              		.loc 2 46 21
 466 0124 9B972600 		slliw	a5,a3,2
 467 0128 BB87D700 		addw	a5,a5,a3
 468 012c 9B971700 		slliw	a5,a5,1
  46:test/ConsumerProducer_CPP_Sync_API_test.cpp ****             Thread::dispatch();
 469              		.loc 2 46 15
 470 0130 BB67F702 		remw	a5,a4,a5
  46:test/ConsumerProducer_CPP_Sync_API_test.cpp ****             Thread::dispatch();
 471              		.loc 2 46 9
 472 0134 E39E07FA 		bnez	a5,.L22
 473 0138 6FF01FFB 		j	.L26
 474              	.LVL45:
 475              	.L23:
  48:test/ConsumerProducer_CPP_Sync_API_test.cpp ****         }
  49:test/ConsumerProducer_CPP_Sync_API_test.cpp ****     }
  50:test/ConsumerProducer_CPP_Sync_API_test.cpp **** 
  51:test/ConsumerProducer_CPP_Sync_API_test.cpp ****     data->wait->signal();
 476              		.loc 2 51 5 is_stmt 1
 477              		.loc 2 51 23 is_stmt 0
 478 013c 03B50401 		ld	a0,16(s1)
 479 0140 97000000 		call	_ZN9Semaphore6signalEv@plt
 479      E7800000 
 480              	.LVL46:
  52:test/ConsumerProducer_CPP_Sync_API_test.cpp **** }
 481              		.loc 2 52 1
 482 0148 83308101 		ld	ra,24(sp)
 483              		.cfi_restore 1
 484 014c 03340101 		ld	s0,16(sp)
 485              		.cfi_restore 8
 486              		.cfi_def_cfa 2, 32
 487 0150 83348100 		ld	s1,8(sp)
 488              		.cfi_restore 9
 489              	.LVL47:
 490 0154 03390100 		ld	s2,0(sp)
 491              		.cfi_restore 18
 492              	.LVL48:
 493 0158 13010102 		addi	sp,sp,32
 494              		.cfi_def_cfa_offset 0
GAS LISTING /tmp/ccFIZwzG.s 			page 12


 495 015c 67800000 		jr	ra
 496              		.cfi_endproc
 497              	.LFE15:
 499              		.section	.text._ZN8Producer3runEv,"axG",@progbits,_ZN8Producer3runEv,comdat
 500              		.align	2
 501              		.weak	_ZN8Producer3runEv
 503              	_ZN8Producer3runEv:
 504              	.LFB9:
  29:test/ConsumerProducer_CPP_Sync_API_test.hpp ****         producer(td);
 505              		.loc 1 29 10 is_stmt 1
 506              		.cfi_startproc
 507              	.LVL49:
 508 0000 130101FF 		addi	sp,sp,-16
 509              		.cfi_def_cfa_offset 16
 510 0004 23341100 		sd	ra,8(sp)
 511 0008 23308100 		sd	s0,0(sp)
 512              		.cfi_offset 1, -8
 513              		.cfi_offset 8, -16
 514 000c 13040101 		addi	s0,sp,16
 515              		.cfi_def_cfa 8, 0
  30:test/ConsumerProducer_CPP_Sync_API_test.hpp ****     }
 516              		.loc 1 30 9
  30:test/ConsumerProducer_CPP_Sync_API_test.hpp ****     }
 517              		.loc 1 30 17 is_stmt 0
 518 0010 83350501 		ld	a1,16(a0)
 519 0014 97000000 		call	_ZN8Producer8producerEPv
 519      E7800000 
 520              	.LVL50:
  31:test/ConsumerProducer_CPP_Sync_API_test.hpp **** };
 521              		.loc 1 31 5
 522 001c 83308100 		ld	ra,8(sp)
 523              		.cfi_restore 1
 524 0020 03340100 		ld	s0,0(sp)
 525              		.cfi_restore 8
 526              		.cfi_def_cfa 2, 16
 527 0024 13010101 		addi	sp,sp,16
 528              		.cfi_def_cfa_offset 0
 529 0028 67800000 		jr	ra
 530              		.cfi_endproc
 531              	.LFE9:
 533              		.text
 534              		.align	2
 535              		.globl	_ZN8Consumer8consumerEPv
 537              	_ZN8Consumer8consumerEPv:
 538              	.LFB16:
  53:test/ConsumerProducer_CPP_Sync_API_test.cpp **** 
  54:test/ConsumerProducer_CPP_Sync_API_test.cpp **** void Consumer::consumer(void *arg) {
 539              		.loc 2 54 36 is_stmt 1
 540              		.cfi_startproc
 541              	.LVL51:
 542 0160 130101FD 		addi	sp,sp,-48
 543              		.cfi_def_cfa_offset 48
 544 0164 23341102 		sd	ra,40(sp)
 545 0168 23308102 		sd	s0,32(sp)
 546 016c 233C9100 		sd	s1,24(sp)
 547 0170 23382101 		sd	s2,16(sp)
 548 0174 23343101 		sd	s3,8(sp)
GAS LISTING /tmp/ccFIZwzG.s 			page 13


 549 0178 23304101 		sd	s4,0(sp)
 550              		.cfi_offset 1, -8
 551              		.cfi_offset 8, -16
 552              		.cfi_offset 9, -24
 553              		.cfi_offset 18, -32
 554              		.cfi_offset 19, -40
 555              		.cfi_offset 20, -48
 556 017c 13040103 		addi	s0,sp,48
 557              		.cfi_def_cfa 8, 0
 558 0180 93090500 		mv	s3,a0
 559 0184 13890500 		mv	s2,a1
  55:test/ConsumerProducer_CPP_Sync_API_test.cpp ****     struct thread_data *data = (struct thread_data *) arg;
 560              		.loc 2 55 5
 561              	.LVL52:
  56:test/ConsumerProducer_CPP_Sync_API_test.cpp **** 
  57:test/ConsumerProducer_CPP_Sync_API_test.cpp ****     int i = 0;
 562              		.loc 2 57 5
 563              		.loc 2 57 9 is_stmt 0
 564 0188 130A0000 		li	s4,0
 565 018c 6F00C001 		j	.L30
 566              	.LVL53:
 567              	.L36:
 568              	.LBB32:
  58:test/ConsumerProducer_CPP_Sync_API_test.cpp ****     while (!threadEnd) {
  59:test/ConsumerProducer_CPP_Sync_API_test.cpp ****         int key = data->buffer->get();
  60:test/ConsumerProducer_CPP_Sync_API_test.cpp ****         i++;
  61:test/ConsumerProducer_CPP_Sync_API_test.cpp **** 
  62:test/ConsumerProducer_CPP_Sync_API_test.cpp ****         putc(key);
  63:test/ConsumerProducer_CPP_Sync_API_test.cpp **** 
  64:test/ConsumerProducer_CPP_Sync_API_test.cpp ****         if (i % (5 * data->id) == 0) {
  65:test/ConsumerProducer_CPP_Sync_API_test.cpp ****             Thread::dispatch();
 569              		.loc 2 65 13 is_stmt 1
 570              		.loc 2 65 29 is_stmt 0
 571 0190 97000000 		call	_ZN6Thread8dispatchEv@plt
 571      E7800000 
 572              	.LVL54:
 573 0198 6F008005 		j	.L32
 574              	.LVL55:
 575              	.L37:
  66:test/ConsumerProducer_CPP_Sync_API_test.cpp ****         }
  67:test/ConsumerProducer_CPP_Sync_API_test.cpp **** 
  68:test/ConsumerProducer_CPP_Sync_API_test.cpp ****         if (i % 80 == 0) {
  69:test/ConsumerProducer_CPP_Sync_API_test.cpp ****             putc('\n');
 576              		.loc 2 69 13 is_stmt 1
 577              		.loc 2 69 17 is_stmt 0
 578 019c 1305A000 		li	a0,10
 579 01a0 97000000 		call	putc@plt
 579      E7800000 
 580              	.LVL56:
 581              	.L30:
 582              	.LBE32:
  58:test/ConsumerProducer_CPP_Sync_API_test.cpp ****     while (!threadEnd) {
 583              		.loc 2 58 5 is_stmt 1
  58:test/ConsumerProducer_CPP_Sync_API_test.cpp ****     while (!threadEnd) {
 584              		.loc 2 58 12
 585 01a8 97070000 		la	a5,threadEnd
 585      83B70700 
GAS LISTING /tmp/ccFIZwzG.s 			page 14


 586 01b0 83A70700 		lw	a5,0(a5)
 587 01b4 9B870700 		sext.w	a5,a5
 588 01b8 63920706 		bnez	a5,.L31
 589              	.LBB33:
  59:test/ConsumerProducer_CPP_Sync_API_test.cpp ****         i++;
 590              		.loc 2 59 9
  59:test/ConsumerProducer_CPP_Sync_API_test.cpp ****         i++;
 591              		.loc 2 59 36 is_stmt 0
 592 01bc 03358900 		ld	a0,8(s2)
 593 01c0 97000000 		call	_ZN9BufferCPP3getEv@plt
 593      E7800000 
 594              	.LVL57:
  60:test/ConsumerProducer_CPP_Sync_API_test.cpp **** 
 595              		.loc 2 60 9 is_stmt 1
  60:test/ConsumerProducer_CPP_Sync_API_test.cpp **** 
 596              		.loc 2 60 10 is_stmt 0
 597 01c8 9B041A00 		addiw	s1,s4,1
 598 01cc 1B8A0400 		sext.w	s4,s1
 599              	.LVL58:
  62:test/ConsumerProducer_CPP_Sync_API_test.cpp **** 
 600              		.loc 2 62 9 is_stmt 1
  62:test/ConsumerProducer_CPP_Sync_API_test.cpp **** 
 601              		.loc 2 62 13 is_stmt 0
 602 01d0 1375F50F 		andi	a0,a0,0xff
 603              	.LVL59:
 604 01d4 97000000 		call	putc@plt
 604      E7800000 
 605              	.LVL60:
  64:test/ConsumerProducer_CPP_Sync_API_test.cpp ****             Thread::dispatch();
 606              		.loc 2 64 9 is_stmt 1
  64:test/ConsumerProducer_CPP_Sync_API_test.cpp ****             Thread::dispatch();
 607              		.loc 2 64 28 is_stmt 0
 608 01dc 03270900 		lw	a4,0(s2)
  64:test/ConsumerProducer_CPP_Sync_API_test.cpp ****             Thread::dispatch();
 609              		.loc 2 64 20
 610 01e0 9B172700 		slliw	a5,a4,2
 611 01e4 BB87E700 		addw	a5,a5,a4
  64:test/ConsumerProducer_CPP_Sync_API_test.cpp ****             Thread::dispatch();
 612              		.loc 2 64 15
 613 01e8 BBE7F402 		remw	a5,s1,a5
  64:test/ConsumerProducer_CPP_Sync_API_test.cpp ****             Thread::dispatch();
 614              		.loc 2 64 9
 615 01ec E38207FA 		beqz	a5,.L36
 616              	.L32:
  68:test/ConsumerProducer_CPP_Sync_API_test.cpp ****             putc('\n');
 617              		.loc 2 68 9 is_stmt 1
  68:test/ConsumerProducer_CPP_Sync_API_test.cpp ****             putc('\n');
 618              		.loc 2 68 15 is_stmt 0
 619 01f0 93070005 		li	a5,80
 620 01f4 BBE4F402 		remw	s1,s1,a5
 621              	.LVL61:
  68:test/ConsumerProducer_CPP_Sync_API_test.cpp ****             putc('\n');
 622              		.loc 2 68 9
 623 01f8 E39804FA 		bnez	s1,.L30
 624 01fc 6FF01FFA 		j	.L37
 625              	.L38:
 626              	.LBE33:
GAS LISTING /tmp/ccFIZwzG.s 			page 15


 627              	.LBB34:
  70:test/ConsumerProducer_CPP_Sync_API_test.cpp ****         }
  71:test/ConsumerProducer_CPP_Sync_API_test.cpp ****     }
  72:test/ConsumerProducer_CPP_Sync_API_test.cpp **** 
  73:test/ConsumerProducer_CPP_Sync_API_test.cpp **** 
  74:test/ConsumerProducer_CPP_Sync_API_test.cpp ****     while (td->buffer->getCnt() > 0) {
  75:test/ConsumerProducer_CPP_Sync_API_test.cpp ****         int key = td->buffer->get();
 628              		.loc 2 75 9 is_stmt 1
 629              		.loc 2 75 19 is_stmt 0
 630 0200 83B70901 		ld	a5,16(s3)
 631              		.loc 2 75 34
 632 0204 03B58700 		ld	a0,8(a5)
 633 0208 97000000 		call	_ZN9BufferCPP3getEv@plt
 633      E7800000 
 634              	.LVL62:
  76:test/ConsumerProducer_CPP_Sync_API_test.cpp ****         Console::putc(key);
 635              		.loc 2 76 9 is_stmt 1
 636              		.loc 2 76 22 is_stmt 0
 637 0210 1375F50F 		andi	a0,a0,0xff
 638              	.LVL63:
 639 0214 97000000 		call	_ZN7Console4putcEc@plt
 639      E7800000 
 640              	.LVL64:
 641              	.L31:
 642              	.LBE34:
  74:test/ConsumerProducer_CPP_Sync_API_test.cpp ****         int key = td->buffer->get();
 643              		.loc 2 74 5 is_stmt 1
  74:test/ConsumerProducer_CPP_Sync_API_test.cpp ****         int key = td->buffer->get();
 644              		.loc 2 74 33
  74:test/ConsumerProducer_CPP_Sync_API_test.cpp ****         int key = td->buffer->get();
 645              		.loc 2 74 12 is_stmt 0
 646 021c 83B70901 		ld	a5,16(s3)
  74:test/ConsumerProducer_CPP_Sync_API_test.cpp ****         int key = td->buffer->get();
 647              		.loc 2 74 30
 648 0220 03B58700 		ld	a0,8(a5)
 649 0224 97000000 		call	_ZN9BufferCPP6getCntEv@plt
 649      E7800000 
 650              	.LVL65:
  74:test/ConsumerProducer_CPP_Sync_API_test.cpp ****         int key = td->buffer->get();
 651              		.loc 2 74 33
 652 022c E34AA0FC 		bgtz	a0,.L38
  77:test/ConsumerProducer_CPP_Sync_API_test.cpp ****     }
  78:test/ConsumerProducer_CPP_Sync_API_test.cpp **** 
  79:test/ConsumerProducer_CPP_Sync_API_test.cpp ****     data->wait->signal();
 653              		.loc 2 79 5 is_stmt 1
 654              		.loc 2 79 23 is_stmt 0
 655 0230 03350901 		ld	a0,16(s2)
 656 0234 97000000 		call	_ZN9Semaphore6signalEv@plt
 656      E7800000 
 657              	.LVL66:
  80:test/ConsumerProducer_CPP_Sync_API_test.cpp **** }
 658              		.loc 2 80 1
 659 023c 83308102 		ld	ra,40(sp)
 660              		.cfi_restore 1
 661 0240 03340102 		ld	s0,32(sp)
 662              		.cfi_restore 8
 663              		.cfi_def_cfa 2, 48
GAS LISTING /tmp/ccFIZwzG.s 			page 16


 664 0244 83348101 		ld	s1,24(sp)
 665              		.cfi_restore 9
 666 0248 03390101 		ld	s2,16(sp)
 667              		.cfi_restore 18
 668              	.LVL67:
 669 024c 83398100 		ld	s3,8(sp)
 670              		.cfi_restore 19
 671              	.LVL68:
 672 0250 033A0100 		ld	s4,0(sp)
 673              		.cfi_restore 20
 674              	.LVL69:
 675 0254 13010103 		addi	sp,sp,48
 676              		.cfi_def_cfa_offset 0
 677 0258 67800000 		jr	ra
 678              		.cfi_endproc
 679              	.LFE16:
 681              		.section	.text._ZN8Consumer3runEv,"axG",@progbits,_ZN8Consumer3runEv,comdat
 682              		.align	2
 683              		.weak	_ZN8Consumer3runEv
 685              	_ZN8Consumer3runEv:
 686              	.LFB13:
  35:test/ConsumerProducer_CPP_Sync_API_test.hpp ****     thread_data* td;
  36:test/ConsumerProducer_CPP_Sync_API_test.hpp ****     void consumer(void *arg);
  37:test/ConsumerProducer_CPP_Sync_API_test.hpp **** public:
  38:test/ConsumerProducer_CPP_Sync_API_test.hpp ****     Consumer(thread_data* _td):Thread(), td(_td) {}
  39:test/ConsumerProducer_CPP_Sync_API_test.hpp **** 
  40:test/ConsumerProducer_CPP_Sync_API_test.hpp ****     void run() override {
 687              		.loc 1 40 10 is_stmt 1
 688              		.cfi_startproc
 689              	.LVL70:
 690 0000 130101FF 		addi	sp,sp,-16
 691              		.cfi_def_cfa_offset 16
 692 0004 23341100 		sd	ra,8(sp)
 693 0008 23308100 		sd	s0,0(sp)
 694              		.cfi_offset 1, -8
 695              		.cfi_offset 8, -16
 696 000c 13040101 		addi	s0,sp,16
 697              		.cfi_def_cfa 8, 0
  41:test/ConsumerProducer_CPP_Sync_API_test.hpp ****         consumer(td);
 698              		.loc 1 41 9
 699              		.loc 1 41 17 is_stmt 0
 700 0010 83350501 		ld	a1,16(a0)
 701 0014 97000000 		call	_ZN8Consumer8consumerEPv
 701      E7800000 
 702              	.LVL71:
  42:test/ConsumerProducer_CPP_Sync_API_test.hpp ****     }
 703              		.loc 1 42 5
 704 001c 83308100 		ld	ra,8(sp)
 705              		.cfi_restore 1
 706 0020 03340100 		ld	s0,0(sp)
 707              		.cfi_restore 8
 708              		.cfi_def_cfa 2, 16
 709 0024 13010101 		addi	sp,sp,16
 710              		.cfi_def_cfa_offset 0
 711 0028 67800000 		jr	ra
 712              		.cfi_endproc
 713              	.LFE13:
GAS LISTING /tmp/ccFIZwzG.s 			page 17


 715              		.section	.rodata.str1.8,"aMS",@progbits,1
 716              		.align	3
 717              	.LC0:
 718 0000 556E6573 		.string	"Unesite broj proizvodjaca?\n"
 718      69746520 
 718      62726F6A 
 718      2070726F 
 718      697A766F 
 719 001c 00000000 		.align	3
 720              	.LC1:
 721 0020 556E6573 		.string	"Unesite velicinu bafera?\n"
 721      69746520 
 721      76656C69 
 721      63696E75 
 721      20626166 
 722 003a 00000000 		.align	3
 722      0000
 723              	.LC2:
 724 0040 42726F6A 		.string	"Broj proizvodjaca "
 724      2070726F 
 724      697A766F 
 724      646A6163 
 724      612000
 725 0053 00000000 		.align	3
 725      00
 726              	.LC3:
 727 0058 20692076 		.string	" i velicina bafera "
 727      656C6963 
 727      696E6120 
 727      62616665 
 727      72612000 
 728 006c 00000000 		.align	3
 729              	.LC4:
 730 0070 2E0A00   		.string	".\n"
 731 0073 00000000 		.align	3
 731      00
 732              	.LC5:
 733 0078 42726F6A 		.string	"Broj proizvodjaca ne sme biti manji od velicine bafera!\n"
 733      2070726F 
 733      697A766F 
 733      646A6163 
 733      61206E65 
 734 00b1 00000000 		.align	3
 734      000000
 735              	.LC6:
 736 00b8 42726F6A 		.string	"Broj proizvodjaca mora biti veci od nula!\n"
 736      2070726F 
 736      697A766F 
 736      646A6163 
 736      61206D6F 
 737              		.text
 738              		.align	2
 739              		.globl	_Z29producerConsumer_CPP_Sync_APIv
 741              	_Z29producerConsumer_CPP_Sync_APIv:
 742              	.LFB17:
  81:test/ConsumerProducer_CPP_Sync_API_test.cpp **** 
  82:test/ConsumerProducer_CPP_Sync_API_test.cpp **** void producerConsumer_CPP_Sync_API()
GAS LISTING /tmp/ccFIZwzG.s 			page 18


  83:test/ConsumerProducer_CPP_Sync_API_test.cpp **** {
 743              		.loc 2 83 1 is_stmt 1
 744              		.cfi_startproc
 745              		.cfi_personality 0x9b,DW.ref.__gxx_personality_v0
 746              		.cfi_lsda 0x1b,.LLSDA17
 747 025c 130101F8 		addi	sp,sp,-128
 748              		.cfi_def_cfa_offset 128
 749 0260 233C1106 		sd	ra,120(sp)
 750 0264 23388106 		sd	s0,112(sp)
 751 0268 23349106 		sd	s1,104(sp)
 752 026c 23302107 		sd	s2,96(sp)
 753 0270 233C3105 		sd	s3,88(sp)
 754 0274 23384105 		sd	s4,80(sp)
 755 0278 23345105 		sd	s5,72(sp)
 756 027c 23306105 		sd	s6,64(sp)
 757 0280 233C7103 		sd	s7,56(sp)
 758 0284 23388103 		sd	s8,48(sp)
 759 0288 23349103 		sd	s9,40(sp)
 760              		.cfi_offset 1, -8
 761              		.cfi_offset 8, -16
 762              		.cfi_offset 9, -24
 763              		.cfi_offset 18, -32
 764              		.cfi_offset 19, -40
 765              		.cfi_offset 20, -48
 766              		.cfi_offset 21, -56
 767              		.cfi_offset 22, -64
 768              		.cfi_offset 23, -72
 769              		.cfi_offset 24, -80
 770              		.cfi_offset 25, -88
 771 028c 13040108 		addi	s0,sp,128
 772              		.cfi_def_cfa 8, 0
  84:test/ConsumerProducer_CPP_Sync_API_test.cpp ****     threadEnd = 0;
  85:test/ConsumerProducer_CPP_Sync_API_test.cpp ****     char input[30];
  86:test/ConsumerProducer_CPP_Sync_API_test.cpp ****     int n, threadNum;
  87:test/ConsumerProducer_CPP_Sync_API_test.cpp **** 
  88:test/ConsumerProducer_CPP_Sync_API_test.cpp ****     printString("Unesite broj proizvodjaca?\n");
  89:test/ConsumerProducer_CPP_Sync_API_test.cpp ****     getString(input, 30);
  90:test/ConsumerProducer_CPP_Sync_API_test.cpp ****     threadNum = stringToInt(input);
  91:test/ConsumerProducer_CPP_Sync_API_test.cpp **** 
  92:test/ConsumerProducer_CPP_Sync_API_test.cpp ****     printString("Unesite velicinu bafera?\n");
  93:test/ConsumerProducer_CPP_Sync_API_test.cpp ****     getString(input, 30);
  94:test/ConsumerProducer_CPP_Sync_API_test.cpp ****     n = stringToInt(input);
  95:test/ConsumerProducer_CPP_Sync_API_test.cpp **** 
  96:test/ConsumerProducer_CPP_Sync_API_test.cpp ****     printString("Broj proizvodjaca "); printInt(threadNum);
  97:test/ConsumerProducer_CPP_Sync_API_test.cpp ****     printString(" i velicina bafera "); printInt(n);
  98:test/ConsumerProducer_CPP_Sync_API_test.cpp ****     printString(".\n");
  99:test/ConsumerProducer_CPP_Sync_API_test.cpp **** 
 100:test/ConsumerProducer_CPP_Sync_API_test.cpp ****     if(threadNum > n) {
 101:test/ConsumerProducer_CPP_Sync_API_test.cpp ****         printString("Broj proizvodjaca ne sme biti manji od velicine bafera!\n");
 102:test/ConsumerProducer_CPP_Sync_API_test.cpp ****         return;
 103:test/ConsumerProducer_CPP_Sync_API_test.cpp ****     } else if (threadNum < 1) {
 104:test/ConsumerProducer_CPP_Sync_API_test.cpp ****         printString("Broj proizvodjaca mora biti veci od nula!\n");
 105:test/ConsumerProducer_CPP_Sync_API_test.cpp ****         return;
 106:test/ConsumerProducer_CPP_Sync_API_test.cpp ****     }
 107:test/ConsumerProducer_CPP_Sync_API_test.cpp **** 
 108:test/ConsumerProducer_CPP_Sync_API_test.cpp ****     BufferCPP *buffer = new BufferCPP(n);
 109:test/ConsumerProducer_CPP_Sync_API_test.cpp **** 
GAS LISTING /tmp/ccFIZwzG.s 			page 19


 110:test/ConsumerProducer_CPP_Sync_API_test.cpp ****     waitForAll = new Semaphore(0);
 111:test/ConsumerProducer_CPP_Sync_API_test.cpp **** 
 112:test/ConsumerProducer_CPP_Sync_API_test.cpp ****     Thread* threads[threadNum];
 113:test/ConsumerProducer_CPP_Sync_API_test.cpp ****     Thread* consumerThread;
 114:test/ConsumerProducer_CPP_Sync_API_test.cpp **** 
 115:test/ConsumerProducer_CPP_Sync_API_test.cpp ****     struct thread_data data[threadNum + 1];
 116:test/ConsumerProducer_CPP_Sync_API_test.cpp **** 
 117:test/ConsumerProducer_CPP_Sync_API_test.cpp ****     data[threadNum].id = threadNum;
 118:test/ConsumerProducer_CPP_Sync_API_test.cpp ****     data[threadNum].buffer = buffer;
 119:test/ConsumerProducer_CPP_Sync_API_test.cpp ****     data[threadNum].wait = waitForAll;
 120:test/ConsumerProducer_CPP_Sync_API_test.cpp ****     consumerThread = new Consumer(data+threadNum);
 121:test/ConsumerProducer_CPP_Sync_API_test.cpp ****     consumerThread->start();
 122:test/ConsumerProducer_CPP_Sync_API_test.cpp **** 
 123:test/ConsumerProducer_CPP_Sync_API_test.cpp ****     for (int i = 0; i < threadNum; i++) {
 124:test/ConsumerProducer_CPP_Sync_API_test.cpp ****         data[i].id = i;
 125:test/ConsumerProducer_CPP_Sync_API_test.cpp ****         data[i].buffer = buffer;
 126:test/ConsumerProducer_CPP_Sync_API_test.cpp ****         data[i].wait = waitForAll;
 127:test/ConsumerProducer_CPP_Sync_API_test.cpp **** 
 128:test/ConsumerProducer_CPP_Sync_API_test.cpp ****         if(i>0) {
 129:test/ConsumerProducer_CPP_Sync_API_test.cpp ****             threads[i] = new Producer(data+i);
 130:test/ConsumerProducer_CPP_Sync_API_test.cpp ****         } else {
 131:test/ConsumerProducer_CPP_Sync_API_test.cpp ****             threads[i] = new ProducerKeyboard(data+i);
 132:test/ConsumerProducer_CPP_Sync_API_test.cpp ****         }
 133:test/ConsumerProducer_CPP_Sync_API_test.cpp **** 
 134:test/ConsumerProducer_CPP_Sync_API_test.cpp ****         threads[i]->start();
 135:test/ConsumerProducer_CPP_Sync_API_test.cpp ****     }
 136:test/ConsumerProducer_CPP_Sync_API_test.cpp **** 
 137:test/ConsumerProducer_CPP_Sync_API_test.cpp ****     Thread::dispatch();
 138:test/ConsumerProducer_CPP_Sync_API_test.cpp **** 
 139:test/ConsumerProducer_CPP_Sync_API_test.cpp ****     for (int i = 0; i <= threadNum; i++) {
 140:test/ConsumerProducer_CPP_Sync_API_test.cpp ****         waitForAll->wait();
 141:test/ConsumerProducer_CPP_Sync_API_test.cpp ****     }
 142:test/ConsumerProducer_CPP_Sync_API_test.cpp **** 
 143:test/ConsumerProducer_CPP_Sync_API_test.cpp ****     for (int i = 0; i < threadNum; i++) {
 144:test/ConsumerProducer_CPP_Sync_API_test.cpp ****         delete threads[i];
 145:test/ConsumerProducer_CPP_Sync_API_test.cpp ****     }
 146:test/ConsumerProducer_CPP_Sync_API_test.cpp ****     delete consumerThread;
 147:test/ConsumerProducer_CPP_Sync_API_test.cpp ****     delete waitForAll;
 148:test/ConsumerProducer_CPP_Sync_API_test.cpp ****     delete buffer;
 773              		.loc 2 148 18 is_stmt 0
 774 0290 930B0100 		mv	s7,sp
  84:test/ConsumerProducer_CPP_Sync_API_test.cpp ****     threadEnd = 0;
 775              		.loc 2 84 5 is_stmt 1
  84:test/ConsumerProducer_CPP_Sync_API_test.cpp ****     threadEnd = 0;
 776              		.loc 2 84 15 is_stmt 0
 777 0294 97070000 		la	a5,threadEnd
 777      83B70700 
 778 029c 23A00700 		sw	zero,0(a5)
  85:test/ConsumerProducer_CPP_Sync_API_test.cpp ****     int n, threadNum;
 779              		.loc 2 85 5 is_stmt 1
  86:test/ConsumerProducer_CPP_Sync_API_test.cpp **** 
 780              		.loc 2 86 5
  88:test/ConsumerProducer_CPP_Sync_API_test.cpp ****     getString(input, 30);
 781              		.loc 2 88 5
  88:test/ConsumerProducer_CPP_Sync_API_test.cpp ****     getString(input, 30);
 782              		.loc 2 88 16 is_stmt 0
 783 02a0 17050000 		lla	a0,.LC0
GAS LISTING /tmp/ccFIZwzG.s 			page 20


 783      13050500 
 784              	.LEHB0:
 785 02a8 97000000 		call	_Z11printStringPKc@plt
 785      E7800000 
 786              	.LVL72:
  89:test/ConsumerProducer_CPP_Sync_API_test.cpp ****     threadNum = stringToInt(input);
 787              		.loc 2 89 5 is_stmt 1
  89:test/ConsumerProducer_CPP_Sync_API_test.cpp ****     threadNum = stringToInt(input);
 788              		.loc 2 89 14 is_stmt 0
 789 02b0 9305E001 		li	a1,30
 790 02b4 930404F8 		addi	s1,s0,-128
 791 02b8 13850400 		mv	a0,s1
 792 02bc 97000000 		call	_Z9getStringPci@plt
 792      E7800000 
 793              	.LVL73:
  90:test/ConsumerProducer_CPP_Sync_API_test.cpp **** 
 794              		.loc 2 90 5 is_stmt 1
  90:test/ConsumerProducer_CPP_Sync_API_test.cpp **** 
 795              		.loc 2 90 28 is_stmt 0
 796 02c4 13850400 		mv	a0,s1
 797 02c8 97000000 		call	_Z11stringToIntPKc@plt
 797      E7800000 
 798              	.LVL74:
 799 02d0 13090500 		mv	s2,a0
 800              	.LVL75:
  92:test/ConsumerProducer_CPP_Sync_API_test.cpp ****     getString(input, 30);
 801              		.loc 2 92 5 is_stmt 1
  92:test/ConsumerProducer_CPP_Sync_API_test.cpp ****     getString(input, 30);
 802              		.loc 2 92 16 is_stmt 0
 803 02d4 17050000 		lla	a0,.LC1
 803      13050500 
 804 02dc 97000000 		call	_Z11printStringPKc@plt
 804      E7800000 
 805              	.LVL76:
  93:test/ConsumerProducer_CPP_Sync_API_test.cpp ****     n = stringToInt(input);
 806              		.loc 2 93 5 is_stmt 1
  93:test/ConsumerProducer_CPP_Sync_API_test.cpp ****     n = stringToInt(input);
 807              		.loc 2 93 14 is_stmt 0
 808 02e4 9305E001 		li	a1,30
 809 02e8 13850400 		mv	a0,s1
 810 02ec 97000000 		call	_Z9getStringPci@plt
 810      E7800000 
 811              	.LVL77:
  94:test/ConsumerProducer_CPP_Sync_API_test.cpp **** 
 812              		.loc 2 94 5 is_stmt 1
  94:test/ConsumerProducer_CPP_Sync_API_test.cpp **** 
 813              		.loc 2 94 20 is_stmt 0
 814 02f4 13850400 		mv	a0,s1
 815 02f8 97000000 		call	_Z11stringToIntPKc@plt
 815      E7800000 
 816              	.LVL78:
 817 0300 93040500 		mv	s1,a0
 818              	.LVL79:
  96:test/ConsumerProducer_CPP_Sync_API_test.cpp ****     printString(" i velicina bafera "); printInt(n);
 819              		.loc 2 96 5 is_stmt 1
  96:test/ConsumerProducer_CPP_Sync_API_test.cpp ****     printString(" i velicina bafera "); printInt(n);
 820              		.loc 2 96 16 is_stmt 0
GAS LISTING /tmp/ccFIZwzG.s 			page 21


 821 0304 17050000 		lla	a0,.LC2
 821      13050500 
 822 030c 97000000 		call	_Z11printStringPKc@plt
 822      E7800000 
 823              	.LVL80:
  96:test/ConsumerProducer_CPP_Sync_API_test.cpp ****     printString(" i velicina bafera "); printInt(n);
 824              		.loc 2 96 40 is_stmt 1
  96:test/ConsumerProducer_CPP_Sync_API_test.cpp ****     printString(" i velicina bafera "); printInt(n);
 825              		.loc 2 96 48 is_stmt 0
 826 0314 13060000 		li	a2,0
 827 0318 9305A000 		li	a1,10
 828 031c 13050900 		mv	a0,s2
 829 0320 97000000 		call	_Z8printIntiii@plt
 829      E7800000 
 830              	.LVL81:
  97:test/ConsumerProducer_CPP_Sync_API_test.cpp ****     printString(".\n");
 831              		.loc 2 97 5 is_stmt 1
  97:test/ConsumerProducer_CPP_Sync_API_test.cpp ****     printString(".\n");
 832              		.loc 2 97 16 is_stmt 0
 833 0328 17050000 		lla	a0,.LC3
 833      13050500 
 834 0330 97000000 		call	_Z11printStringPKc@plt
 834      E7800000 
 835              	.LVL82:
  97:test/ConsumerProducer_CPP_Sync_API_test.cpp ****     printString(".\n");
 836              		.loc 2 97 41 is_stmt 1
  97:test/ConsumerProducer_CPP_Sync_API_test.cpp ****     printString(".\n");
 837              		.loc 2 97 49 is_stmt 0
 838 0338 13060000 		li	a2,0
 839 033c 9305A000 		li	a1,10
 840 0340 13850400 		mv	a0,s1
 841 0344 97000000 		call	_Z8printIntiii@plt
 841      E7800000 
 842              	.LVL83:
  98:test/ConsumerProducer_CPP_Sync_API_test.cpp **** 
 843              		.loc 2 98 5 is_stmt 1
  98:test/ConsumerProducer_CPP_Sync_API_test.cpp **** 
 844              		.loc 2 98 16 is_stmt 0
 845 034c 17050000 		lla	a0,.LC4
 845      13050500 
 846 0354 97000000 		call	_Z11printStringPKc@plt
 846      E7800000 
 847              	.LVL84:
 100:test/ConsumerProducer_CPP_Sync_API_test.cpp ****         printString("Broj proizvodjaca ne sme biti manji od velicine bafera!\n");
 848              		.loc 2 100 5 is_stmt 1
 849 035c 63C42403 		bgt	s2,s1,.L69
 103:test/ConsumerProducer_CPP_Sync_API_test.cpp ****         printString("Broj proizvodjaca mora biti veci od nula!\n");
 850              		.loc 2 103 12
 851 0360 635C2003 		blez	s2,.L70
 108:test/ConsumerProducer_CPP_Sync_API_test.cpp **** 
 852              		.loc 2 108 5
 108:test/ConsumerProducer_CPP_Sync_API_test.cpp **** 
 853              		.loc 2 108 40 is_stmt 0
 854 0364 13058003 		li	a0,56
 855 0368 97000000 		call	_Znwm@plt
 855      E7800000 
 856              	.LVL85:
GAS LISTING /tmp/ccFIZwzG.s 			page 22


 857              	.LEHE0:
 858 0370 930A0500 		mv	s5,a0
 859 0374 93850400 		mv	a1,s1
 860              	.LEHB1:
 861 0378 97000000 		call	_ZN9BufferCPPC1Ei@plt
 861      E7800000 
 862              	.LVL86:
 863              	.LEHE1:
 864 0380 6F000003 		j	.L71
 865              	.L69:
 101:test/ConsumerProducer_CPP_Sync_API_test.cpp ****         return;
 866              		.loc 2 101 9 is_stmt 1
 101:test/ConsumerProducer_CPP_Sync_API_test.cpp ****         return;
 867              		.loc 2 101 20 is_stmt 0
 868 0384 17050000 		lla	a0,.LC5
 868      13050500 
 869              	.LEHB2:
 870 038c 97000000 		call	_Z11printStringPKc@plt
 870      E7800000 
 871              	.LVL87:
 102:test/ConsumerProducer_CPP_Sync_API_test.cpp ****     } else if (threadNum < 1) {
 872              		.loc 2 102 9 is_stmt 1
 873 0394 6F004001 		j	.L43
 874              	.L70:
 104:test/ConsumerProducer_CPP_Sync_API_test.cpp ****         return;
 875              		.loc 2 104 9
 104:test/ConsumerProducer_CPP_Sync_API_test.cpp ****         return;
 876              		.loc 2 104 20 is_stmt 0
 877 0398 17050000 		lla	a0,.LC6
 877      13050500 
 878 03a0 97000000 		call	_Z11printStringPKc@plt
 878      E7800000 
 879              	.LVL88:
 105:test/ConsumerProducer_CPP_Sync_API_test.cpp ****     }
 880              		.loc 2 105 9 is_stmt 1
 881              	.L43:
 882 03a8 13810B00 		mv	sp,s7
 883 03ac 6F00C024 		j	.L41
 884              	.L71:
 885              	.LVL89:
 110:test/ConsumerProducer_CPP_Sync_API_test.cpp **** 
 886              		.loc 2 110 5 discriminator 3
 110:test/ConsumerProducer_CPP_Sync_API_test.cpp **** 
 887              		.loc 2 110 33 is_stmt 0 discriminator 3
 888 03b0 13050001 		li	a0,16
 889 03b4 97000000 		call	_Znwm@plt
 889      E7800000 
 890              	.LVL90:
 891              	.LEHE2:
 892 03bc 93040500 		mv	s1,a0
 893              	.LVL91:
 894 03c0 93050000 		li	a1,0
 895              	.LEHB3:
 896 03c4 97000000 		call	_ZN9SemaphoreC1Ej@plt
 896      E7800000 
 897              	.LVL92:
 898              	.LEHE3:
GAS LISTING /tmp/ccFIZwzG.s 			page 23


 110:test/ConsumerProducer_CPP_Sync_API_test.cpp **** 
 899              		.loc 2 110 16 discriminator 3
 900 03cc 17070000 		la	a4,waitForAll
 900      03370700 
 901 03d4 23309700 		sd	s1,0(a4)
 112:test/ConsumerProducer_CPP_Sync_API_test.cpp ****     Thread* consumerThread;
 902              		.loc 2 112 5 is_stmt 1 discriminator 3
 903              	.LVL93:
 112:test/ConsumerProducer_CPP_Sync_API_test.cpp ****     Thread* consumerThread;
 904              		.loc 2 112 13 is_stmt 0 discriminator 3
 905 03d8 93173900 		slli	a5,s2,3
 906 03dc 9387F700 		addi	a5,a5,15
 907 03e0 93F707FF 		andi	a5,a5,-16
 908 03e4 3301F140 		sub	sp,sp,a5
 909 03e8 93090100 		mv	s3,sp
 910              	.LVL94:
 113:test/ConsumerProducer_CPP_Sync_API_test.cpp **** 
 911              		.loc 2 113 5 is_stmt 1 discriminator 3
 115:test/ConsumerProducer_CPP_Sync_API_test.cpp **** 
 912              		.loc 2 115 5 discriminator 3
 115:test/ConsumerProducer_CPP_Sync_API_test.cpp **** 
 913              		.loc 2 115 39 is_stmt 0 discriminator 3
 914 03ec 9B061900 		addiw	a3,s2,1
 915              	.LVL95:
 115:test/ConsumerProducer_CPP_Sync_API_test.cpp **** 
 916              		.loc 2 115 24 discriminator 3
 917 03f0 93971600 		slli	a5,a3,1
 918 03f4 B387D700 		add	a5,a5,a3
 919 03f8 93973700 		slli	a5,a5,3
 920 03fc 9387F700 		addi	a5,a5,15
 921 0400 93F707FF 		andi	a5,a5,-16
 922 0404 3301F140 		sub	sp,sp,a5
 923              	.LVL96:
 924 0408 130A0100 		mv	s4,sp
 925              	.LVL97:
 117:test/ConsumerProducer_CPP_Sync_API_test.cpp ****     data[threadNum].buffer = buffer;
 926              		.loc 2 117 5 is_stmt 1 discriminator 3
 117:test/ConsumerProducer_CPP_Sync_API_test.cpp ****     data[threadNum].buffer = buffer;
 927              		.loc 2 117 24 is_stmt 0 discriminator 3
 928 040c 93141900 		slli	s1,s2,1
 929 0410 B3872401 		add	a5,s1,s2
 930 0414 93973700 		slli	a5,a5,3
 931 0418 B307FA00 		add	a5,s4,a5
 932 041c 23A02701 		sw	s2,0(a5)
 118:test/ConsumerProducer_CPP_Sync_API_test.cpp ****     data[threadNum].wait = waitForAll;
 933              		.loc 2 118 5 is_stmt 1 discriminator 3
 118:test/ConsumerProducer_CPP_Sync_API_test.cpp ****     data[threadNum].wait = waitForAll;
 934              		.loc 2 118 28 is_stmt 0 discriminator 3
 935 0420 23B45701 		sd	s5,8(a5)
 119:test/ConsumerProducer_CPP_Sync_API_test.cpp ****     consumerThread = new Consumer(data+threadNum);
 936              		.loc 2 119 5 is_stmt 1 discriminator 3
 119:test/ConsumerProducer_CPP_Sync_API_test.cpp ****     consumerThread = new Consumer(data+threadNum);
 937              		.loc 2 119 26 is_stmt 0 discriminator 3
 938 0424 03370700 		ld	a4,0(a4)
 939 0428 23B8E700 		sd	a4,16(a5)
 120:test/ConsumerProducer_CPP_Sync_API_test.cpp ****     consumerThread->start();
 940              		.loc 2 120 5 is_stmt 1 discriminator 3
GAS LISTING /tmp/ccFIZwzG.s 			page 24


 120:test/ConsumerProducer_CPP_Sync_API_test.cpp ****     consumerThread->start();
 941              		.loc 2 120 49 is_stmt 0 discriminator 3
 942 042c 13058001 		li	a0,24
 943              	.LEHB4:
 944 0430 97000000 		call	_Znwm@plt
 944      E7800000 
 945              	.LVL98:
 946              	.LEHE4:
 947 0438 130B0500 		mv	s6,a0
 120:test/ConsumerProducer_CPP_Sync_API_test.cpp ****     consumerThread->start();
 948              		.loc 2 120 39 discriminator 3
 949 043c B3842401 		add	s1,s1,s2
 950 0440 93943400 		slli	s1,s1,3
 120:test/ConsumerProducer_CPP_Sync_API_test.cpp ****     consumerThread->start();
 951              		.loc 2 120 49 discriminator 3
 952 0444 B3049A00 		add	s1,s4,s1
 953              	.LVL99:
 954              	.LEHB5:
 955              	.LBB35:
 956              	.LBB36:
  38:test/ConsumerProducer_CPP_Sync_API_test.hpp **** 
 957              		.loc 1 38 48 discriminator 3
 958 0448 97000000 		call	_ZN6ThreadC2Ev@plt
 958      E7800000 
 959              	.LVL100:
 960              	.LEHE5:
  38:test/ConsumerProducer_CPP_Sync_API_test.hpp **** 
 961              		.loc 1 38 48
 962 0450 97070000 		lla	a5,_ZTV8Consumer+16
 962      93870700 
 963 0458 2330FB00 		sd	a5,0(s6)
 964 045c 23389B00 		sd	s1,16(s6)
 965              	.LVL101:
 966              	.LBE36:
 967              	.LBE35:
 121:test/ConsumerProducer_CPP_Sync_API_test.cpp **** 
 968              		.loc 2 121 5 is_stmt 1
 121:test/ConsumerProducer_CPP_Sync_API_test.cpp **** 
 969              		.loc 2 121 26 is_stmt 0
 970 0460 13050B00 		mv	a0,s6
 971              	.LEHB6:
 972 0464 97000000 		call	_ZN6Thread5startEv@plt
 972      E7800000 
 973              	.LVL102:
 974              	.LBB37:
 123:test/ConsumerProducer_CPP_Sync_API_test.cpp ****         data[i].id = i;
 975              		.loc 2 123 14
 976 046c 93040000 		li	s1,0
 977 0470 6F008003 		j	.L48
 978              	.LVL103:
 979              	.L72:
 980              	.LBB38:
 981              	.LBB39:
  27:test/ConsumerProducer_CPP_Sync_API_test.hpp **** 
 982              		.loc 1 27 48
 983 0474 97070000 		lla	a5,_ZTV8Producer+16
 983      93870700 
GAS LISTING /tmp/ccFIZwzG.s 			page 25


 984 047c 23B0FC00 		sd	a5,0(s9)
 985 0480 23B88C01 		sd	s8,16(s9)
 986              	.LVL104:
 987              	.LBE39:
 988              	.LBE38:
 129:test/ConsumerProducer_CPP_Sync_API_test.cpp ****         } else {
 989              		.loc 2 129 24
 990 0484 93973400 		slli	a5,s1,3
 991 0488 B387F900 		add	a5,s3,a5
 992 048c 23B09701 		sd	s9,0(a5)
 993              	.L47:
 134:test/ConsumerProducer_CPP_Sync_API_test.cpp ****     }
 994              		.loc 2 134 9 is_stmt 1
 134:test/ConsumerProducer_CPP_Sync_API_test.cpp ****     }
 995              		.loc 2 134 18 is_stmt 0
 996 0490 93973400 		slli	a5,s1,3
 997 0494 B387F900 		add	a5,s3,a5
 134:test/ConsumerProducer_CPP_Sync_API_test.cpp ****     }
 998              		.loc 2 134 26
 999 0498 03B50700 		ld	a0,0(a5)
 1000 049c 97000000 		call	_ZN6Thread5startEv@plt
 1000      E7800000 
 1001              	.LVL105:
 123:test/ConsumerProducer_CPP_Sync_API_test.cpp ****         data[i].id = i;
 1002              		.loc 2 123 5 is_stmt 1
 1003 04a4 9B841400 		addiw	s1,s1,1
 1004              	.LVL106:
 1005              	.L48:
 123:test/ConsumerProducer_CPP_Sync_API_test.cpp ****         data[i].id = i;
 1006              		.loc 2 123 23 discriminator 1
 1007 04a8 63D2240B 		bge	s1,s2,.L45
 124:test/ConsumerProducer_CPP_Sync_API_test.cpp ****         data[i].buffer = buffer;
 1008              		.loc 2 124 9
 124:test/ConsumerProducer_CPP_Sync_API_test.cpp ****         data[i].buffer = buffer;
 1009              		.loc 2 124 20 is_stmt 0
 1010 04ac 93971400 		slli	a5,s1,1
 1011 04b0 B3879700 		add	a5,a5,s1
 1012 04b4 93973700 		slli	a5,a5,3
 1013 04b8 B307FA00 		add	a5,s4,a5
 1014 04bc 23A09700 		sw	s1,0(a5)
 125:test/ConsumerProducer_CPP_Sync_API_test.cpp ****         data[i].wait = waitForAll;
 1015              		.loc 2 125 9 is_stmt 1
 125:test/ConsumerProducer_CPP_Sync_API_test.cpp ****         data[i].wait = waitForAll;
 1016              		.loc 2 125 24 is_stmt 0
 1017 04c0 23B45701 		sd	s5,8(a5)
 126:test/ConsumerProducer_CPP_Sync_API_test.cpp **** 
 1018              		.loc 2 126 9 is_stmt 1
 126:test/ConsumerProducer_CPP_Sync_API_test.cpp **** 
 1019              		.loc 2 126 22 is_stmt 0
 1020 04c4 17070000 		la	a4,waitForAll
 1020      03370700 
 1021 04cc 03370700 		ld	a4,0(a4)
 1022 04d0 23B8E700 		sd	a4,16(a5)
 128:test/ConsumerProducer_CPP_Sync_API_test.cpp ****             threads[i] = new Producer(data+i);
 1023              		.loc 2 128 9 is_stmt 1
 1024 04d4 63589002 		blez	s1,.L46
 129:test/ConsumerProducer_CPP_Sync_API_test.cpp ****         } else {
GAS LISTING /tmp/ccFIZwzG.s 			page 26


 1025              		.loc 2 129 13
 129:test/ConsumerProducer_CPP_Sync_API_test.cpp ****         } else {
 1026              		.loc 2 129 45 is_stmt 0
 1027 04d8 13058001 		li	a0,24
 1028 04dc 97000000 		call	_Znwm@plt
 1028      E7800000 
 1029              	.LVL107:
 1030              	.LEHE6:
 1031 04e4 930C0500 		mv	s9,a0
 129:test/ConsumerProducer_CPP_Sync_API_test.cpp ****         } else {
 1032              		.loc 2 129 43
 1033 04e8 139C1400 		slli	s8,s1,1
 1034 04ec 330C9C00 		add	s8,s8,s1
 1035 04f0 131C3C00 		slli	s8,s8,3
 129:test/ConsumerProducer_CPP_Sync_API_test.cpp ****         } else {
 1036              		.loc 2 129 45
 1037 04f4 330C8A01 		add	s8,s4,s8
 1038              	.LVL108:
 1039              	.LEHB7:
 1040              	.LBB41:
 1041              	.LBB40:
  27:test/ConsumerProducer_CPP_Sync_API_test.hpp **** 
 1042              		.loc 1 27 48
 1043 04f8 97000000 		call	_ZN6ThreadC2Ev@plt
 1043      E7800000 
 1044              	.LVL109:
 1045              	.LEHE7:
 1046 0500 6FF05FF7 		j	.L72
 1047              	.LVL110:
 1048              	.L46:
 1049              	.LBE40:
 1050              	.LBE41:
 131:test/ConsumerProducer_CPP_Sync_API_test.cpp ****         }
 1051              		.loc 2 131 13 is_stmt 1
 131:test/ConsumerProducer_CPP_Sync_API_test.cpp ****         }
 1052              		.loc 2 131 53 is_stmt 0
 1053 0504 13058001 		li	a0,24
 1054              	.LEHB8:
 1055 0508 97000000 		call	_Znwm@plt
 1055      E7800000 
 1056              	.LVL111:
 1057              	.LEHE8:
 1058 0510 930C0500 		mv	s9,a0
 131:test/ConsumerProducer_CPP_Sync_API_test.cpp ****         }
 1059              		.loc 2 131 51
 1060 0514 139C1400 		slli	s8,s1,1
 1061 0518 330C9C00 		add	s8,s8,s1
 1062 051c 131C3C00 		slli	s8,s8,3
 131:test/ConsumerProducer_CPP_Sync_API_test.cpp ****         }
 1063              		.loc 2 131 53
 1064 0520 330C8A01 		add	s8,s4,s8
 1065              	.LVL112:
 1066              	.LEHB9:
 1067              	.LBB42:
 1068              	.LBB43:
  16:test/ConsumerProducer_CPP_Sync_API_test.hpp **** 
 1069              		.loc 1 16 56
GAS LISTING /tmp/ccFIZwzG.s 			page 27


 1070 0524 97000000 		call	_ZN6ThreadC2Ev@plt
 1070      E7800000 
 1071              	.LVL113:
 1072              	.LEHE9:
 1073 052c 97070000 		lla	a5,_ZTV16ProducerKeyboard+16
 1073      93870700 
 1074 0534 23B0FC00 		sd	a5,0(s9)
 1075 0538 23B88C01 		sd	s8,16(s9)
 1076              	.LVL114:
 1077              	.LBE43:
 1078              	.LBE42:
 131:test/ConsumerProducer_CPP_Sync_API_test.cpp ****         }
 1079              		.loc 2 131 24
 1080 053c 93973400 		slli	a5,s1,3
 1081 0540 B387F900 		add	a5,s3,a5
 1082 0544 23B09701 		sd	s9,0(a5)
 1083 0548 6FF09FF4 		j	.L47
 1084              	.L45:
 1085              	.LBE37:
 137:test/ConsumerProducer_CPP_Sync_API_test.cpp **** 
 1086              		.loc 2 137 5 is_stmt 1
 1087              	.LEHB10:
 137:test/ConsumerProducer_CPP_Sync_API_test.cpp **** 
 1088              		.loc 2 137 21 is_stmt 0
 1089 054c 97000000 		call	_ZN6Thread8dispatchEv@plt
 1089      E7800000 
 1090              	.LVL115:
 1091              	.LBB44:
 139:test/ConsumerProducer_CPP_Sync_API_test.cpp ****         waitForAll->wait();
 1092              		.loc 2 139 14
 1093 0554 93040000 		li	s1,0
 1094              	.LVL116:
 1095              	.L50:
 139:test/ConsumerProducer_CPP_Sync_API_test.cpp ****         waitForAll->wait();
 1096              		.loc 2 139 23 is_stmt 1 discriminator 1
 1097 0558 63409902 		bgt	s1,s2,.L62
 140:test/ConsumerProducer_CPP_Sync_API_test.cpp ****     }
 1098              		.loc 2 140 9
 140:test/ConsumerProducer_CPP_Sync_API_test.cpp ****     }
 1099              		.loc 2 140 25 is_stmt 0
 1100 055c 97070000 		la	a5,waitForAll
 1100      83B70700 
 1101 0564 03B50700 		ld	a0,0(a5)
 1102 0568 97000000 		call	_ZN9Semaphore4waitEv@plt
 1102      E7800000 
 1103              	.LVL117:
 139:test/ConsumerProducer_CPP_Sync_API_test.cpp ****         waitForAll->wait();
 1104              		.loc 2 139 5 is_stmt 1
 1105 0570 9B841400 		addiw	s1,s1,1
 1106              	.LVL118:
 1107 0574 6FF05FFE 		j	.L50
 1108              	.LVL119:
 1109              	.L62:
 1110              	.LBE44:
 1111              	.LBB45:
 143:test/ConsumerProducer_CPP_Sync_API_test.cpp ****         delete threads[i];
 1112              		.loc 2 143 14 is_stmt 0
GAS LISTING /tmp/ccFIZwzG.s 			page 28


 1113 0578 93040000 		li	s1,0
 1114              	.LVL120:
 1115 057c 6F008000 		j	.L49
 1116              	.LVL121:
 1117              	.L52:
 143:test/ConsumerProducer_CPP_Sync_API_test.cpp ****         delete threads[i];
 1118              		.loc 2 143 5 is_stmt 1 discriminator 2
 1119 0580 9B841400 		addiw	s1,s1,1
 1120              	.LVL122:
 1121              	.L49:
 143:test/ConsumerProducer_CPP_Sync_API_test.cpp ****         delete threads[i];
 1122              		.loc 2 143 23 discriminator 1
 1123 0584 63D22403 		bge	s1,s2,.L51
 144:test/ConsumerProducer_CPP_Sync_API_test.cpp ****     }
 1124              		.loc 2 144 9
 144:test/ConsumerProducer_CPP_Sync_API_test.cpp ****     }
 1125              		.loc 2 144 25 is_stmt 0
 1126 0588 93973400 		slli	a5,s1,3
 1127 058c B387F900 		add	a5,s3,a5
 1128 0590 03B50700 		ld	a0,0(a5)
 144:test/ConsumerProducer_CPP_Sync_API_test.cpp ****     }
 1129              		.loc 2 144 26
 1130 0594 E30605FE 		beqz	a0,.L52
 144:test/ConsumerProducer_CPP_Sync_API_test.cpp ****     }
 1131              		.loc 2 144 25 discriminator 1
 1132 0598 83370500 		ld	a5,0(a0)
 1133 059c 83B78700 		ld	a5,8(a5)
 1134 05a0 E7800700 		jalr	a5
 1135              	.LVL123:
 1136 05a4 6FF0DFFD 		j	.L52
 1137              	.L51:
 1138              	.LBE45:
 146:test/ConsumerProducer_CPP_Sync_API_test.cpp ****     delete waitForAll;
 1139              		.loc 2 146 5 is_stmt 1
 146:test/ConsumerProducer_CPP_Sync_API_test.cpp ****     delete waitForAll;
 1140              		.loc 2 146 26 is_stmt 0
 1141 05a8 630A0B00 		beqz	s6,.L53
 146:test/ConsumerProducer_CPP_Sync_API_test.cpp ****     delete waitForAll;
 1142              		.loc 2 146 12 discriminator 1
 1143 05ac 83370B00 		ld	a5,0(s6)
 1144 05b0 83B78700 		ld	a5,8(a5)
 1145 05b4 13050B00 		mv	a0,s6
 1146 05b8 E7800700 		jalr	a5
 1147              	.LVL124:
 1148              	.L53:
 147:test/ConsumerProducer_CPP_Sync_API_test.cpp ****     delete buffer;
 1149              		.loc 2 147 5 is_stmt 1
 147:test/ConsumerProducer_CPP_Sync_API_test.cpp ****     delete buffer;
 1150              		.loc 2 147 12 is_stmt 0
 1151 05bc 97070000 		la	a5,waitForAll
 1151      83B70700 
 1152 05c4 03B50700 		ld	a0,0(a5)
 147:test/ConsumerProducer_CPP_Sync_API_test.cpp ****     delete buffer;
 1153              		.loc 2 147 22
 1154 05c8 63080500 		beqz	a0,.L54
 147:test/ConsumerProducer_CPP_Sync_API_test.cpp ****     delete buffer;
 1155              		.loc 2 147 12 discriminator 1
GAS LISTING /tmp/ccFIZwzG.s 			page 29


 1156 05cc 83370500 		ld	a5,0(a0)
 1157 05d0 83B78700 		ld	a5,8(a5)
 1158 05d4 E7800700 		jalr	a5
 1159              	.LVL125:
 1160              	.L54:
 1161              		.loc 2 148 5 is_stmt 1
 1162              		.loc 2 148 18 is_stmt 0
 1163 05d8 638E0A00 		beqz	s5,.L55
 1164              		.loc 2 148 12 discriminator 1
 1165 05dc 13850A00 		mv	a0,s5
 1166 05e0 97000000 		call	_ZN9BufferCPPD1Ev@plt
 1166      E7800000 
 1167              	.LVL126:
 1168 05e8 13850A00 		mv	a0,s5
 1169 05ec 97000000 		call	_ZdlPv@plt
 1169      E7800000 
 1170              	.LVL127:
 1171              	.LEHE10:
 1172              	.L55:
 1173 05f4 13810B00 		mv	sp,s7
 1174              	.LVL128:
 1175              	.L41:
 149:test/ConsumerProducer_CPP_Sync_API_test.cpp **** 
 150:test/ConsumerProducer_CPP_Sync_API_test.cpp **** }...
 1176              		.loc 2 150 1
 1177 05f8 130104F8 		addi	sp,s0,-128
 1178              		.cfi_remember_state
 1179              		.cfi_def_cfa 2, 128
 1180 05fc 83308107 		ld	ra,120(sp)
 1181              		.cfi_restore 1
 1182 0600 03340107 		ld	s0,112(sp)
 1183              		.cfi_restore 8
 1184 0604 83348106 		ld	s1,104(sp)
 1185              		.cfi_restore 9
 1186 0608 03390106 		ld	s2,96(sp)
 1187              		.cfi_restore 18
 1188              	.LVL129:
 1189 060c 83398105 		ld	s3,88(sp)
 1190              		.cfi_restore 19
 1191 0610 033A0105 		ld	s4,80(sp)
 1192              		.cfi_restore 20
 1193 0614 833A8104 		ld	s5,72(sp)
 1194              		.cfi_restore 21
 1195 0618 033B0104 		ld	s6,64(sp)
 1196              		.cfi_restore 22
 1197 061c 833B8103 		ld	s7,56(sp)
 1198              		.cfi_restore 23
 1199 0620 033C0103 		ld	s8,48(sp)
 1200              		.cfi_restore 24
 1201 0624 833C8102 		ld	s9,40(sp)
 1202              		.cfi_restore 25
 1203 0628 13010108 		addi	sp,sp,128
 1204              		.cfi_def_cfa_offset 0
 1205 062c 67800000 		jr	ra
 1206              	.LVL130:
 1207              	.L63:
 1208              		.cfi_restore_state
GAS LISTING /tmp/ccFIZwzG.s 			page 30


 1209 0630 93040500 		mv	s1,a0
 1210              	.LVL131:
 108:test/ConsumerProducer_CPP_Sync_API_test.cpp ****     BufferCPP *buffer = new BufferCPP(n);
 1211              		.loc 2 108 40
 1212 0634 13850A00 		mv	a0,s5
 1213 0638 97000000 		call	_ZdlPv@plt
 1213      E7800000 
 1214              	.LVL132:
 1215 0640 13850400 		mv	a0,s1
 1216              	.LEHB11:
 1217 0644 97000000 		call	_Unwind_Resume@plt
 1217      E7800000 
 1218              	.LVL133:
 1219              	.LEHE11:
 1220              	.L64:
 1221 064c 13090500 		mv	s2,a0
 1222              	.LVL134:
 110:test/ConsumerProducer_CPP_Sync_API_test.cpp ****     waitForAll = new Semaphore(0);
 1223              		.loc 2 110 33
 1224 0650 13850400 		mv	a0,s1
 1225 0654 97000000 		call	_ZdlPv@plt
 1225      E7800000 
 1226              	.LVL135:
 1227 065c 13050900 		mv	a0,s2
 1228              	.LEHB12:
 1229 0660 97000000 		call	_Unwind_Resume@plt
 1229      E7800000 
 1230              	.LVL136:
 1231              	.LEHE12:
 1232              	.L65:
 1233 0668 93040500 		mv	s1,a0
 1234              	.LVL137:
 120:test/ConsumerProducer_CPP_Sync_API_test.cpp ****     consumerThread = new Consumer(data+threadNum);
 1235              		.loc 2 120 49
 1236 066c 13050B00 		mv	a0,s6
 1237 0670 97000000 		call	_ZdlPv@plt
 1237      E7800000 
 1238              	.LVL138:
 1239 0678 13850400 		mv	a0,s1
 1240              	.LEHB13:
 1241 067c 97000000 		call	_Unwind_Resume@plt
 1241      E7800000 
 1242              	.LVL139:
 1243              	.LEHE13:
 1244              	.L66:
 1245 0684 93040500 		mv	s1,a0
 1246              	.LVL140:
 1247              	.LBB46:
 129:test/ConsumerProducer_CPP_Sync_API_test.cpp ****             threads[i] = new Producer(data+i);
 1248              		.loc 2 129 45
 1249 0688 13850C00 		mv	a0,s9
 1250 068c 97000000 		call	_ZdlPv@plt
 1250      E7800000 
 1251              	.LVL141:
 1252 0694 13850400 		mv	a0,s1
 1253              	.LEHB14:
 1254 0698 97000000 		call	_Unwind_Resume@plt
GAS LISTING /tmp/ccFIZwzG.s 			page 31


 1254      E7800000 
 1255              	.LVL142:
 1256              	.LEHE14:
 1257              	.L67:
 1258 06a0 93040500 		mv	s1,a0
 1259              	.LVL143:
 131:test/ConsumerProducer_CPP_Sync_API_test.cpp ****             threads[i] = new ProducerKeyboard(data+i);
 1260              		.loc 2 131 53
 1261 06a4 13850C00 		mv	a0,s9
 1262 06a8 97000000 		call	_ZdlPv@plt
 1262      E7800000 
 1263              	.LVL144:
 1264 06b0 13850400 		mv	a0,s1
 1265              	.LEHB15:
 1266 06b4 97000000 		call	_Unwind_Resume@plt
 1266      E7800000 
 1267              	.LVL145:
 1268              	.LEHE15:
 1269              	.LBE46:
 1270              		.cfi_endproc
 1271              	.LFE17:
 1272              		.globl	__gxx_personality_v0
 1273              		.section	.gcc_except_table,"a",@progbits
 1274              	.LLSDA17:
 1275 0000 FF       		.byte	0xff
 1276 0001 FF       		.byte	0xff
 1277 0002 03       		.byte	0x3
 1278 0003 D001     		.byte	0xd0,0x1
 1279 0005 00000000 		.4byte	.LEHB0-.LFB17
 1280 0009 00000000 		.4byte	.LEHE0-.LEHB0
 1281 000d 00000000 		.4byte	0
 1282 0011 00       		.byte	0
 1283 0012 00000000 		.4byte	.LEHB1-.LFB17
 1284 0016 00000000 		.4byte	.LEHE1-.LEHB1
 1285 001a 00000000 		.4byte	.L63-.LFB17
 1286 001e 00       		.byte	0
 1287 001f 00000000 		.4byte	.LEHB2-.LFB17
 1288 0023 00000000 		.4byte	.LEHE2-.LEHB2
 1289 0027 00000000 		.4byte	0
 1290 002b 00       		.byte	0
 1291 002c 00000000 		.4byte	.LEHB3-.LFB17
 1292 0030 00000000 		.4byte	.LEHE3-.LEHB3
 1293 0034 00000000 		.4byte	.L64-.LFB17
 1294 0038 00       		.byte	0
 1295 0039 00000000 		.4byte	.LEHB4-.LFB17
 1296 003d 00000000 		.4byte	.LEHE4-.LEHB4
 1297 0041 00000000 		.4byte	0
 1298 0045 00       		.byte	0
 1299 0046 00000000 		.4byte	.LEHB5-.LFB17
 1300 004a 00000000 		.4byte	.LEHE5-.LEHB5
 1301 004e 00000000 		.4byte	.L65-.LFB17
 1302 0052 00       		.byte	0
 1303 0053 00000000 		.4byte	.LEHB6-.LFB17
 1304 0057 00000000 		.4byte	.LEHE6-.LEHB6
 1305 005b 00000000 		.4byte	0
 1306 005f 00       		.byte	0
 1307 0060 00000000 		.4byte	.LEHB7-.LFB17
GAS LISTING /tmp/ccFIZwzG.s 			page 32


 1308 0064 00000000 		.4byte	.LEHE7-.LEHB7
 1309 0068 00000000 		.4byte	.L66-.LFB17
 1310 006c 00       		.byte	0
 1311 006d 00000000 		.4byte	.LEHB8-.LFB17
 1312 0071 00000000 		.4byte	.LEHE8-.LEHB8
 1313 0075 00000000 		.4byte	0
 1314 0079 00       		.byte	0
 1315 007a 00000000 		.4byte	.LEHB9-.LFB17
 1316 007e 00000000 		.4byte	.LEHE9-.LEHB9
 1317 0082 00000000 		.4byte	.L67-.LFB17
 1318 0086 00       		.byte	0
 1319 0087 00000000 		.4byte	.LEHB10-.LFB17
 1320 008b 00000000 		.4byte	.LEHE10-.LEHB10
 1321 008f 00000000 		.4byte	0
 1322 0093 00       		.byte	0
 1323 0094 00000000 		.4byte	.LEHB11-.LFB17
 1324 0098 00000000 		.4byte	.LEHE11-.LEHB11
 1325 009c 00000000 		.4byte	0
 1326 00a0 00       		.byte	0
 1327 00a1 00000000 		.4byte	.LEHB12-.LFB17
 1328 00a5 00000000 		.4byte	.LEHE12-.LEHB12
 1329 00a9 00000000 		.4byte	0
 1330 00ad 00       		.byte	0
 1331 00ae 00000000 		.4byte	.LEHB13-.LFB17
 1332 00b2 00000000 		.4byte	.LEHE13-.LEHB13
 1333 00b6 00000000 		.4byte	0
 1334 00ba 00       		.byte	0
 1335 00bb 00000000 		.4byte	.LEHB14-.LFB17
 1336 00bf 00000000 		.4byte	.LEHE14-.LEHB14
 1337 00c3 00000000 		.4byte	0
 1338 00c7 00       		.byte	0
 1339 00c8 00000000 		.4byte	.LEHB15-.LFB17
 1340 00cc 00000000 		.4byte	.LEHE15-.LEHB15
 1341 00d0 00000000 		.4byte	0
 1342 00d4 00       		.byte	0
 1343              		.text
 1345              		.weak	_ZTV16ProducerKeyboard
 1346              		.section	.data.rel.ro.local._ZTV16ProducerKeyboard,"awG",@progbits,_ZTV16ProducerKeyboard,comdat
 1347              		.align	3
 1350              	_ZTV16ProducerKeyboard:
 1351 0000 00000000 		.dword	0
 1351      00000000 
 1352 0008 00000000 		.dword	0
 1352      00000000 
 1353 0010 00000000 		.dword	_ZN16ProducerKeyboardD1Ev
 1353      00000000 
 1354 0018 00000000 		.dword	_ZN16ProducerKeyboardD0Ev
 1354      00000000 
 1355 0020 00000000 		.dword	_ZN16ProducerKeyboard3runEv
 1355      00000000 
 1356              		.weak	_ZTV8Producer
 1357              		.section	.data.rel.ro.local._ZTV8Producer,"awG",@progbits,_ZTV8Producer,comdat
 1358              		.align	3
 1361              	_ZTV8Producer:
 1362 0000 00000000 		.dword	0
 1362      00000000 
 1363 0008 00000000 		.dword	0
GAS LISTING /tmp/ccFIZwzG.s 			page 33


 1363      00000000 
 1364 0010 00000000 		.dword	_ZN8ProducerD1Ev
 1364      00000000 
 1365 0018 00000000 		.dword	_ZN8ProducerD0Ev
 1365      00000000 
 1366 0020 00000000 		.dword	_ZN8Producer3runEv
 1366      00000000 
 1367              		.weak	_ZTV8Consumer
 1368              		.section	.data.rel.ro.local._ZTV8Consumer,"awG",@progbits,_ZTV8Consumer,comdat
 1369              		.align	3
 1372              	_ZTV8Consumer:
 1373 0000 00000000 		.dword	0
 1373      00000000 
 1374 0008 00000000 		.dword	0
 1374      00000000 
 1375 0010 00000000 		.dword	_ZN8ConsumerD1Ev
 1375      00000000 
 1376 0018 00000000 		.dword	_ZN8ConsumerD0Ev
 1376      00000000 
 1377 0020 00000000 		.dword	_ZN8Consumer3runEv
 1377      00000000 
 1378              		.text
 1379              	.Letext0:
 1380              		.file 3 "test/../h/../lib/hw.h"
 1381              		.file 4 "test/../h/syscall_cpp.hpp"
 1382              		.file 5 "test/buffer_CPP_API.hpp"
 1383              		.file 6 "test/printing.hpp"
 1384              		.file 7 "test/../h/syscall_c.h"
 5313              		.align	3
 5316              	DW.ref.__gxx_personality_v0:
 5317 0000 00000000 		.dword	__gxx_personality_v0
 5317      00000000 
 5318              		.ident	"GCC: (Ubuntu 9.3.0-17ubuntu1~20.04) 9.3.0"
 5319              		.section	.note.GNU-stack,"",@progbits
GAS LISTING /tmp/ccFIZwzG.s 			page 34


DEFINED SYMBOLS
                            *ABS*:0000000000000000 ConsumerProducer_CPP_Sync_API_test.cpp
     /tmp/ccFIZwzG.s:10     .text._ZN8ConsumerD2Ev:0000000000000000 _ZN8ConsumerD2Ev
     /tmp/ccFIZwzG.s:14     .text._ZN8ConsumerD2Ev:0000000000000000 .L0 
     /tmp/ccFIZwzG.s:16     .text._ZN8ConsumerD2Ev:0000000000000000 .L0 
     /tmp/ccFIZwzG.s:17     .text._ZN8ConsumerD2Ev:0000000000000004 .L0 
     /tmp/ccFIZwzG.s:20     .text._ZN8ConsumerD2Ev:000000000000000c .L0 
     /tmp/ccFIZwzG.s:21     .text._ZN8ConsumerD2Ev:000000000000000c .L0 
     /tmp/ccFIZwzG.s:23     .text._ZN8ConsumerD2Ev:0000000000000010 .L0 
     /tmp/ccFIZwzG.s:1372   .data.rel.ro.local._ZTV8Consumer:0000000000000000 _ZTV8Consumer
     /tmp/ccFIZwzG.s:26     .text._ZN8ConsumerD2Ev:0000000000000010 .L0 
     /tmp/ccFIZwzG.s:32     .text._ZN8ConsumerD2Ev:0000000000000028 .L0 
     /tmp/ccFIZwzG.s:34     .text._ZN8ConsumerD2Ev:000000000000002c .L0 
     /tmp/ccFIZwzG.s:35     .text._ZN8ConsumerD2Ev:000000000000002c .L0 
     /tmp/ccFIZwzG.s:37     .text._ZN8ConsumerD2Ev:0000000000000030 .L0 
     /tmp/ccFIZwzG.s:39     .text._ZN8ConsumerD2Ev:0000000000000034 .L0 
     /tmp/ccFIZwzG.s:10     .text._ZN8ConsumerD2Ev:0000000000000000 _ZN8ConsumerD1Ev
     /tmp/ccFIZwzG.s:48     .text._ZN8ConsumerD0Ev:0000000000000000 _ZN8ConsumerD0Ev
     /tmp/ccFIZwzG.s:51     .text._ZN8ConsumerD0Ev:0000000000000000 .L0 
     /tmp/ccFIZwzG.s:53     .text._ZN8ConsumerD0Ev:0000000000000000 .L0 
     /tmp/ccFIZwzG.s:54     .text._ZN8ConsumerD0Ev:0000000000000004 .L0 
     /tmp/ccFIZwzG.s:58     .text._ZN8ConsumerD0Ev:0000000000000010 .L0 
     /tmp/ccFIZwzG.s:59     .text._ZN8ConsumerD0Ev:0000000000000010 .L0 
     /tmp/ccFIZwzG.s:60     .text._ZN8ConsumerD0Ev:0000000000000010 .L0 
     /tmp/ccFIZwzG.s:62     .text._ZN8ConsumerD0Ev:0000000000000014 .L0 
     /tmp/ccFIZwzG.s:68     .text._ZN8ConsumerD0Ev:0000000000000018 .L0 
     /tmp/ccFIZwzG.s:78     .text._ZN8ConsumerD0Ev:000000000000003c .L0 
     /tmp/ccFIZwzG.s:80     .text._ZN8ConsumerD0Ev:0000000000000040 .L0 
     /tmp/ccFIZwzG.s:81     .text._ZN8ConsumerD0Ev:0000000000000040 .L0 
     /tmp/ccFIZwzG.s:83     .text._ZN8ConsumerD0Ev:0000000000000044 .L0 
     /tmp/ccFIZwzG.s:86     .text._ZN8ConsumerD0Ev:0000000000000048 .L0 
     /tmp/ccFIZwzG.s:88     .text._ZN8ConsumerD0Ev:000000000000004c .L0 
     /tmp/ccFIZwzG.s:95     .text._ZN8ProducerD2Ev:0000000000000000 _ZN8ProducerD2Ev
     /tmp/ccFIZwzG.s:98     .text._ZN8ProducerD2Ev:0000000000000000 .L0 
     /tmp/ccFIZwzG.s:100    .text._ZN8ProducerD2Ev:0000000000000000 .L0 
     /tmp/ccFIZwzG.s:101    .text._ZN8ProducerD2Ev:0000000000000004 .L0 
     /tmp/ccFIZwzG.s:104    .text._ZN8ProducerD2Ev:000000000000000c .L0 
     /tmp/ccFIZwzG.s:105    .text._ZN8ProducerD2Ev:000000000000000c .L0 
     /tmp/ccFIZwzG.s:107    .text._ZN8ProducerD2Ev:0000000000000010 .L0 
     /tmp/ccFIZwzG.s:1361   .data.rel.ro.local._ZTV8Producer:0000000000000000 _ZTV8Producer
     /tmp/ccFIZwzG.s:110    .text._ZN8ProducerD2Ev:0000000000000010 .L0 
     /tmp/ccFIZwzG.s:116    .text._ZN8ProducerD2Ev:0000000000000028 .L0 
     /tmp/ccFIZwzG.s:118    .text._ZN8ProducerD2Ev:000000000000002c .L0 
     /tmp/ccFIZwzG.s:119    .text._ZN8ProducerD2Ev:000000000000002c .L0 
     /tmp/ccFIZwzG.s:121    .text._ZN8ProducerD2Ev:0000000000000030 .L0 
     /tmp/ccFIZwzG.s:123    .text._ZN8ProducerD2Ev:0000000000000034 .L0 
     /tmp/ccFIZwzG.s:95     .text._ZN8ProducerD2Ev:0000000000000000 _ZN8ProducerD1Ev
     /tmp/ccFIZwzG.s:132    .text._ZN8ProducerD0Ev:0000000000000000 _ZN8ProducerD0Ev
     /tmp/ccFIZwzG.s:135    .text._ZN8ProducerD0Ev:0000000000000000 .L0 
     /tmp/ccFIZwzG.s:137    .text._ZN8ProducerD0Ev:0000000000000000 .L0 
     /tmp/ccFIZwzG.s:138    .text._ZN8ProducerD0Ev:0000000000000004 .L0 
     /tmp/ccFIZwzG.s:142    .text._ZN8ProducerD0Ev:0000000000000010 .L0 
     /tmp/ccFIZwzG.s:143    .text._ZN8ProducerD0Ev:0000000000000010 .L0 
     /tmp/ccFIZwzG.s:144    .text._ZN8ProducerD0Ev:0000000000000010 .L0 
     /tmp/ccFIZwzG.s:146    .text._ZN8ProducerD0Ev:0000000000000014 .L0 
     /tmp/ccFIZwzG.s:152    .text._ZN8ProducerD0Ev:0000000000000018 .L0 
     /tmp/ccFIZwzG.s:162    .text._ZN8ProducerD0Ev:000000000000003c .L0 
GAS LISTING /tmp/ccFIZwzG.s 			page 35


     /tmp/ccFIZwzG.s:164    .text._ZN8ProducerD0Ev:0000000000000040 .L0 
     /tmp/ccFIZwzG.s:165    .text._ZN8ProducerD0Ev:0000000000000040 .L0 
     /tmp/ccFIZwzG.s:167    .text._ZN8ProducerD0Ev:0000000000000044 .L0 
     /tmp/ccFIZwzG.s:170    .text._ZN8ProducerD0Ev:0000000000000048 .L0 
     /tmp/ccFIZwzG.s:172    .text._ZN8ProducerD0Ev:000000000000004c .L0 
     /tmp/ccFIZwzG.s:179    .text._ZN16ProducerKeyboardD2Ev:0000000000000000 _ZN16ProducerKeyboardD2Ev
     /tmp/ccFIZwzG.s:182    .text._ZN16ProducerKeyboardD2Ev:0000000000000000 .L0 
     /tmp/ccFIZwzG.s:184    .text._ZN16ProducerKeyboardD2Ev:0000000000000000 .L0 
     /tmp/ccFIZwzG.s:185    .text._ZN16ProducerKeyboardD2Ev:0000000000000004 .L0 
     /tmp/ccFIZwzG.s:188    .text._ZN16ProducerKeyboardD2Ev:000000000000000c .L0 
     /tmp/ccFIZwzG.s:189    .text._ZN16ProducerKeyboardD2Ev:000000000000000c .L0 
     /tmp/ccFIZwzG.s:191    .text._ZN16ProducerKeyboardD2Ev:0000000000000010 .L0 
     /tmp/ccFIZwzG.s:1350   .data.rel.ro.local._ZTV16ProducerKeyboard:0000000000000000 _ZTV16ProducerKeyboard
     /tmp/ccFIZwzG.s:194    .text._ZN16ProducerKeyboardD2Ev:0000000000000010 .L0 
     /tmp/ccFIZwzG.s:200    .text._ZN16ProducerKeyboardD2Ev:0000000000000028 .L0 
     /tmp/ccFIZwzG.s:202    .text._ZN16ProducerKeyboardD2Ev:000000000000002c .L0 
     /tmp/ccFIZwzG.s:203    .text._ZN16ProducerKeyboardD2Ev:000000000000002c .L0 
     /tmp/ccFIZwzG.s:205    .text._ZN16ProducerKeyboardD2Ev:0000000000000030 .L0 
     /tmp/ccFIZwzG.s:207    .text._ZN16ProducerKeyboardD2Ev:0000000000000034 .L0 
     /tmp/ccFIZwzG.s:179    .text._ZN16ProducerKeyboardD2Ev:0000000000000000 _ZN16ProducerKeyboardD1Ev
     /tmp/ccFIZwzG.s:216    .text._ZN16ProducerKeyboardD0Ev:0000000000000000 _ZN16ProducerKeyboardD0Ev
     /tmp/ccFIZwzG.s:219    .text._ZN16ProducerKeyboardD0Ev:0000000000000000 .L0 
     /tmp/ccFIZwzG.s:221    .text._ZN16ProducerKeyboardD0Ev:0000000000000000 .L0 
     /tmp/ccFIZwzG.s:222    .text._ZN16ProducerKeyboardD0Ev:0000000000000004 .L0 
     /tmp/ccFIZwzG.s:226    .text._ZN16ProducerKeyboardD0Ev:0000000000000010 .L0 
     /tmp/ccFIZwzG.s:227    .text._ZN16ProducerKeyboardD0Ev:0000000000000010 .L0 
     /tmp/ccFIZwzG.s:228    .text._ZN16ProducerKeyboardD0Ev:0000000000000010 .L0 
     /tmp/ccFIZwzG.s:230    .text._ZN16ProducerKeyboardD0Ev:0000000000000014 .L0 
     /tmp/ccFIZwzG.s:236    .text._ZN16ProducerKeyboardD0Ev:0000000000000018 .L0 
     /tmp/ccFIZwzG.s:246    .text._ZN16ProducerKeyboardD0Ev:000000000000003c .L0 
     /tmp/ccFIZwzG.s:248    .text._ZN16ProducerKeyboardD0Ev:0000000000000040 .L0 
     /tmp/ccFIZwzG.s:249    .text._ZN16ProducerKeyboardD0Ev:0000000000000040 .L0 
     /tmp/ccFIZwzG.s:251    .text._ZN16ProducerKeyboardD0Ev:0000000000000044 .L0 
     /tmp/ccFIZwzG.s:254    .text._ZN16ProducerKeyboardD0Ev:0000000000000048 .L0 
     /tmp/ccFIZwzG.s:256    .text._ZN16ProducerKeyboardD0Ev:000000000000004c .L0 
     /tmp/ccFIZwzG.s:263    .text:0000000000000000 _ZN16ProducerKeyboard16producerKeyboardEPv
     /tmp/ccFIZwzG.s:267    .text:0000000000000000 .L0 
     /tmp/ccFIZwzG.s:269    .text:0000000000000000 .L0 
     /tmp/ccFIZwzG.s:270    .text:0000000000000004 .L0 
     /tmp/ccFIZwzG.s:276    .text:0000000000000018 .L0 
     /tmp/ccFIZwzG.s:277    .text:0000000000000018 .L0 
     /tmp/ccFIZwzG.s:278    .text:0000000000000018 .L0 
     /tmp/ccFIZwzG.s:279    .text:0000000000000018 .L0 
     /tmp/ccFIZwzG.s:280    .text:0000000000000018 .L0 
     /tmp/ccFIZwzG.s:282    .text:000000000000001c .L0 
     /tmp/ccFIZwzG.s:287    .text:0000000000000024 .L0 
     /tmp/ccFIZwzG.s:288    .text:0000000000000024 .L0 
     /tmp/ccFIZwzG.s:289    .text:0000000000000024 .L0 
     /tmp/ccFIZwzG.s:290    .text:0000000000000024 .L0 
     /tmp/ccFIZwzG.s:295    .text:000000000000002c .L0 
     /tmp/ccFIZwzG.s:296    .text:000000000000002c .L0 
     /tmp/ccFIZwzG.s:300    .text:0000000000000034 .L0 
     /tmp/ccFIZwzG.s:301    .text:0000000000000034 .L0 
     /tmp/ccFIZwzG.s:302    .text:0000000000000034 .L0 
     /tmp/ccFIZwzG.s:305    .text:000000000000003c .L0 
     /tmp/ccFIZwzG.s:308    .text:0000000000000040 .L0 
     /tmp/ccFIZwzG.s:311    .text:0000000000000048 .L0 
GAS LISTING /tmp/ccFIZwzG.s 			page 36


     /tmp/ccFIZwzG.s:312    .text:0000000000000048 .L0 
     /tmp/ccFIZwzG.s:316    .text:0000000000000054 .L0 
     /tmp/ccFIZwzG.s:317    .text:0000000000000054 .L0 
     /tmp/ccFIZwzG.s:321    .text:000000000000005c .L0 
     /tmp/ccFIZwzG.s:322    .text:000000000000005c .L0 
     /tmp/ccFIZwzG.s:324    .text:0000000000000060 .L0 
     /tmp/ccFIZwzG.s:328    .text:000000000000006c .L0 
     /tmp/ccFIZwzG.s:330    .text:0000000000000070 .L0 
     /tmp/ccFIZwzG.s:335    .text:0000000000000078 .L0 
     /tmp/ccFIZwzG.s:336    .text:0000000000000078 .L0 
     /tmp/ccFIZwzG.s:340    .text:0000000000000088 .L0 
     /tmp/ccFIZwzG.s:342    .text:000000000000008c .L0 
     /tmp/ccFIZwzG.s:349    .text:000000000000009c .L0 
     /tmp/ccFIZwzG.s:350    .text:000000000000009c .L0 
     /tmp/ccFIZwzG.s:354    .text:00000000000000a8 .L0 
     /tmp/ccFIZwzG.s:355    .text:00000000000000ac .L0 
     /tmp/ccFIZwzG.s:357    .text:00000000000000b0 .L0 
     /tmp/ccFIZwzG.s:358    .text:00000000000000b0 .L0 
     /tmp/ccFIZwzG.s:360    .text:00000000000000b4 .L0 
     /tmp/ccFIZwzG.s:363    .text:00000000000000b8 .L0 
     /tmp/ccFIZwzG.s:366    .text:00000000000000bc .L0 
     /tmp/ccFIZwzG.s:369    .text:00000000000000c0 .L0 
     /tmp/ccFIZwzG.s:371    .text:00000000000000c4 .L0 
     /tmp/ccFIZwzG.s:378    .text._ZN16ProducerKeyboard3runEv:0000000000000000 _ZN16ProducerKeyboard3runEv
     /tmp/ccFIZwzG.s:381    .text._ZN16ProducerKeyboard3runEv:0000000000000000 .L0 
     /tmp/ccFIZwzG.s:383    .text._ZN16ProducerKeyboard3runEv:0000000000000000 .L0 
     /tmp/ccFIZwzG.s:384    .text._ZN16ProducerKeyboard3runEv:0000000000000004 .L0 
     /tmp/ccFIZwzG.s:387    .text._ZN16ProducerKeyboard3runEv:000000000000000c .L0 
     /tmp/ccFIZwzG.s:388    .text._ZN16ProducerKeyboard3runEv:000000000000000c .L0 
     /tmp/ccFIZwzG.s:390    .text._ZN16ProducerKeyboard3runEv:0000000000000010 .L0 
     /tmp/ccFIZwzG.s:392    .text._ZN16ProducerKeyboard3runEv:0000000000000010 .L0 
     /tmp/ccFIZwzG.s:393    .text._ZN16ProducerKeyboard3runEv:0000000000000010 .L0 
     /tmp/ccFIZwzG.s:397    .text._ZN16ProducerKeyboard3runEv:000000000000001c .L0 
     /tmp/ccFIZwzG.s:398    .text._ZN16ProducerKeyboard3runEv:0000000000000020 .L0 
     /tmp/ccFIZwzG.s:400    .text._ZN16ProducerKeyboard3runEv:0000000000000024 .L0 
     /tmp/ccFIZwzG.s:401    .text._ZN16ProducerKeyboard3runEv:0000000000000024 .L0 
     /tmp/ccFIZwzG.s:403    .text._ZN16ProducerKeyboard3runEv:0000000000000028 .L0 
     /tmp/ccFIZwzG.s:405    .text._ZN16ProducerKeyboard3runEv:000000000000002c .L0 
     /tmp/ccFIZwzG.s:412    .text:00000000000000c4 _ZN8Producer8producerEPv
     /tmp/ccFIZwzG.s:415    .text:00000000000000c4 .L0 
     /tmp/ccFIZwzG.s:417    .text:00000000000000c4 .L0 
     /tmp/ccFIZwzG.s:418    .text:00000000000000c8 .L0 
     /tmp/ccFIZwzG.s:423    .text:00000000000000d8 .L0 
     /tmp/ccFIZwzG.s:424    .text:00000000000000d8 .L0 
     /tmp/ccFIZwzG.s:425    .text:00000000000000d8 .L0 
     /tmp/ccFIZwzG.s:426    .text:00000000000000d8 .L0 
     /tmp/ccFIZwzG.s:428    .text:00000000000000dc .L0 
     /tmp/ccFIZwzG.s:432    .text:00000000000000e0 .L0 
     /tmp/ccFIZwzG.s:433    .text:00000000000000e0 .L0 
     /tmp/ccFIZwzG.s:434    .text:00000000000000e0 .L0 
     /tmp/ccFIZwzG.s:439    .text:00000000000000e8 .L0 
     /tmp/ccFIZwzG.s:440    .text:00000000000000e8 .L0 
     /tmp/ccFIZwzG.s:444    .text:00000000000000f0 .L0 
     /tmp/ccFIZwzG.s:445    .text:00000000000000f0 .L0 
     /tmp/ccFIZwzG.s:450    .text:0000000000000104 .L0 
     /tmp/ccFIZwzG.s:451    .text:0000000000000104 .L0 
     /tmp/ccFIZwzG.s:453    .text:0000000000000108 .L0 
GAS LISTING /tmp/ccFIZwzG.s 			page 37


     /tmp/ccFIZwzG.s:458    .text:0000000000000118 .L0 
     /tmp/ccFIZwzG.s:459    .text:0000000000000118 .L0 
     /tmp/ccFIZwzG.s:463    .text:0000000000000120 .L0 
     /tmp/ccFIZwzG.s:464    .text:0000000000000120 .L0 
     /tmp/ccFIZwzG.s:466    .text:0000000000000124 .L0 
     /tmp/ccFIZwzG.s:470    .text:0000000000000130 .L0 
     /tmp/ccFIZwzG.s:472    .text:0000000000000134 .L0 
     /tmp/ccFIZwzG.s:477    .text:000000000000013c .L0 
     /tmp/ccFIZwzG.s:478    .text:000000000000013c .L0 
     /tmp/ccFIZwzG.s:482    .text:0000000000000148 .L0 
     /tmp/ccFIZwzG.s:483    .text:000000000000014c .L0 
     /tmp/ccFIZwzG.s:485    .text:0000000000000150 .L0 
     /tmp/ccFIZwzG.s:486    .text:0000000000000150 .L0 
     /tmp/ccFIZwzG.s:488    .text:0000000000000154 .L0 
     /tmp/ccFIZwzG.s:491    .text:0000000000000158 .L0 
     /tmp/ccFIZwzG.s:494    .text:000000000000015c .L0 
     /tmp/ccFIZwzG.s:496    .text:0000000000000160 .L0 
     /tmp/ccFIZwzG.s:503    .text._ZN8Producer3runEv:0000000000000000 _ZN8Producer3runEv
     /tmp/ccFIZwzG.s:506    .text._ZN8Producer3runEv:0000000000000000 .L0 
     /tmp/ccFIZwzG.s:508    .text._ZN8Producer3runEv:0000000000000000 .L0 
     /tmp/ccFIZwzG.s:509    .text._ZN8Producer3runEv:0000000000000004 .L0 
     /tmp/ccFIZwzG.s:512    .text._ZN8Producer3runEv:000000000000000c .L0 
     /tmp/ccFIZwzG.s:513    .text._ZN8Producer3runEv:000000000000000c .L0 
     /tmp/ccFIZwzG.s:515    .text._ZN8Producer3runEv:0000000000000010 .L0 
     /tmp/ccFIZwzG.s:517    .text._ZN8Producer3runEv:0000000000000010 .L0 
     /tmp/ccFIZwzG.s:518    .text._ZN8Producer3runEv:0000000000000010 .L0 
     /tmp/ccFIZwzG.s:522    .text._ZN8Producer3runEv:000000000000001c .L0 
     /tmp/ccFIZwzG.s:523    .text._ZN8Producer3runEv:0000000000000020 .L0 
     /tmp/ccFIZwzG.s:525    .text._ZN8Producer3runEv:0000000000000024 .L0 
     /tmp/ccFIZwzG.s:526    .text._ZN8Producer3runEv:0000000000000024 .L0 
     /tmp/ccFIZwzG.s:528    .text._ZN8Producer3runEv:0000000000000028 .L0 
     /tmp/ccFIZwzG.s:530    .text._ZN8Producer3runEv:000000000000002c .L0 
     /tmp/ccFIZwzG.s:537    .text:0000000000000160 _ZN8Consumer8consumerEPv
     /tmp/ccFIZwzG.s:540    .text:0000000000000160 .L0 
     /tmp/ccFIZwzG.s:542    .text:0000000000000160 .L0 
     /tmp/ccFIZwzG.s:543    .text:0000000000000164 .L0 
     /tmp/ccFIZwzG.s:550    .text:000000000000017c .L0 
     /tmp/ccFIZwzG.s:551    .text:000000000000017c .L0 
     /tmp/ccFIZwzG.s:552    .text:000000000000017c .L0 
     /tmp/ccFIZwzG.s:553    .text:000000000000017c .L0 
     /tmp/ccFIZwzG.s:554    .text:000000000000017c .L0 
     /tmp/ccFIZwzG.s:555    .text:000000000000017c .L0 
     /tmp/ccFIZwzG.s:557    .text:0000000000000180 .L0 
     /tmp/ccFIZwzG.s:562    .text:0000000000000188 .L0 
     /tmp/ccFIZwzG.s:563    .text:0000000000000188 .L0 
     /tmp/ccFIZwzG.s:564    .text:0000000000000188 .L0 
     /tmp/ccFIZwzG.s:570    .text:0000000000000190 .L0 
     /tmp/ccFIZwzG.s:571    .text:0000000000000190 .L0 
     /tmp/ccFIZwzG.s:577    .text:000000000000019c .L0 
     /tmp/ccFIZwzG.s:578    .text:000000000000019c .L0 
     /tmp/ccFIZwzG.s:584    .text:00000000000001a8 .L0 
     /tmp/ccFIZwzG.s:585    .text:00000000000001a8 .L0 
     /tmp/ccFIZwzG.s:591    .text:00000000000001bc .L0 
     /tmp/ccFIZwzG.s:592    .text:00000000000001bc .L0 
     /tmp/ccFIZwzG.s:596    .text:00000000000001c8 .L0 
     /tmp/ccFIZwzG.s:597    .text:00000000000001c8 .L0 
     /tmp/ccFIZwzG.s:601    .text:00000000000001d0 .L0 
GAS LISTING /tmp/ccFIZwzG.s 			page 38


     /tmp/ccFIZwzG.s:602    .text:00000000000001d0 .L0 
     /tmp/ccFIZwzG.s:607    .text:00000000000001dc .L0 
     /tmp/ccFIZwzG.s:608    .text:00000000000001dc .L0 
     /tmp/ccFIZwzG.s:610    .text:00000000000001e0 .L0 
     /tmp/ccFIZwzG.s:613    .text:00000000000001e8 .L0 
     /tmp/ccFIZwzG.s:615    .text:00000000000001ec .L0 
     /tmp/ccFIZwzG.s:618    .text:00000000000001f0 .L0 
     /tmp/ccFIZwzG.s:619    .text:00000000000001f0 .L0 
     /tmp/ccFIZwzG.s:623    .text:00000000000001f8 .L0 
     /tmp/ccFIZwzG.s:629    .text:0000000000000200 .L0 
     /tmp/ccFIZwzG.s:630    .text:0000000000000200 .L0 
     /tmp/ccFIZwzG.s:632    .text:0000000000000204 .L0 
     /tmp/ccFIZwzG.s:636    .text:0000000000000210 .L0 
     /tmp/ccFIZwzG.s:637    .text:0000000000000210 .L0 
     /tmp/ccFIZwzG.s:644    .text:000000000000021c .L0 
     /tmp/ccFIZwzG.s:645    .text:000000000000021c .L0 
     /tmp/ccFIZwzG.s:646    .text:000000000000021c .L0 
     /tmp/ccFIZwzG.s:648    .text:0000000000000220 .L0 
     /tmp/ccFIZwzG.s:652    .text:000000000000022c .L0 
     /tmp/ccFIZwzG.s:654    .text:0000000000000230 .L0 
     /tmp/ccFIZwzG.s:655    .text:0000000000000230 .L0 
     /tmp/ccFIZwzG.s:659    .text:000000000000023c .L0 
     /tmp/ccFIZwzG.s:660    .text:0000000000000240 .L0 
     /tmp/ccFIZwzG.s:662    .text:0000000000000244 .L0 
     /tmp/ccFIZwzG.s:663    .text:0000000000000244 .L0 
     /tmp/ccFIZwzG.s:665    .text:0000000000000248 .L0 
     /tmp/ccFIZwzG.s:667    .text:000000000000024c .L0 
     /tmp/ccFIZwzG.s:670    .text:0000000000000250 .L0 
     /tmp/ccFIZwzG.s:673    .text:0000000000000254 .L0 
     /tmp/ccFIZwzG.s:676    .text:0000000000000258 .L0 
     /tmp/ccFIZwzG.s:678    .text:000000000000025c .L0 
     /tmp/ccFIZwzG.s:685    .text._ZN8Consumer3runEv:0000000000000000 _ZN8Consumer3runEv
     /tmp/ccFIZwzG.s:688    .text._ZN8Consumer3runEv:0000000000000000 .L0 
     /tmp/ccFIZwzG.s:690    .text._ZN8Consumer3runEv:0000000000000000 .L0 
     /tmp/ccFIZwzG.s:691    .text._ZN8Consumer3runEv:0000000000000004 .L0 
     /tmp/ccFIZwzG.s:694    .text._ZN8Consumer3runEv:000000000000000c .L0 
     /tmp/ccFIZwzG.s:695    .text._ZN8Consumer3runEv:000000000000000c .L0 
     /tmp/ccFIZwzG.s:697    .text._ZN8Consumer3runEv:0000000000000010 .L0 
     /tmp/ccFIZwzG.s:699    .text._ZN8Consumer3runEv:0000000000000010 .L0 
     /tmp/ccFIZwzG.s:700    .text._ZN8Consumer3runEv:0000000000000010 .L0 
     /tmp/ccFIZwzG.s:704    .text._ZN8Consumer3runEv:000000000000001c .L0 
     /tmp/ccFIZwzG.s:705    .text._ZN8Consumer3runEv:0000000000000020 .L0 
     /tmp/ccFIZwzG.s:707    .text._ZN8Consumer3runEv:0000000000000024 .L0 
     /tmp/ccFIZwzG.s:708    .text._ZN8Consumer3runEv:0000000000000024 .L0 
     /tmp/ccFIZwzG.s:710    .text._ZN8Consumer3runEv:0000000000000028 .L0 
     /tmp/ccFIZwzG.s:712    .text._ZN8Consumer3runEv:000000000000002c .L0 
     /tmp/ccFIZwzG.s:741    .text:000000000000025c _Z29producerConsumer_CPP_Sync_APIv
     /tmp/ccFIZwzG.s:744    .text:000000000000025c .L0 
     /tmp/ccFIZwzG.s:5316   .data.rel.local.DW.ref.__gxx_personality_v0:0000000000000000 DW.ref.__gxx_personality_v0
     /tmp/ccFIZwzG.s:747    .text:000000000000025c .L0 
     /tmp/ccFIZwzG.s:748    .text:0000000000000260 .L0 
     /tmp/ccFIZwzG.s:760    .text:000000000000028c .L0 
     /tmp/ccFIZwzG.s:761    .text:000000000000028c .L0 
     /tmp/ccFIZwzG.s:762    .text:000000000000028c .L0 
     /tmp/ccFIZwzG.s:763    .text:000000000000028c .L0 
     /tmp/ccFIZwzG.s:764    .text:000000000000028c .L0 
     /tmp/ccFIZwzG.s:765    .text:000000000000028c .L0 
GAS LISTING /tmp/ccFIZwzG.s 			page 39


     /tmp/ccFIZwzG.s:766    .text:000000000000028c .L0 
     /tmp/ccFIZwzG.s:767    .text:000000000000028c .L0 
     /tmp/ccFIZwzG.s:768    .text:000000000000028c .L0 
     /tmp/ccFIZwzG.s:769    .text:000000000000028c .L0 
     /tmp/ccFIZwzG.s:770    .text:000000000000028c .L0 
     /tmp/ccFIZwzG.s:772    .text:0000000000000290 .L0 
     /tmp/ccFIZwzG.s:774    .text:0000000000000290 .L0 
     /tmp/ccFIZwzG.s:776    .text:0000000000000294 .L0 
     /tmp/ccFIZwzG.s:777    .text:0000000000000294 .L0 
     /tmp/ccFIZwzG.s:780    .text:00000000000002a0 .L0 
     /tmp/ccFIZwzG.s:781    .text:00000000000002a0 .L0 
     /tmp/ccFIZwzG.s:782    .text:00000000000002a0 .L0 
     /tmp/ccFIZwzG.s:783    .text:00000000000002a0 .L0 
     /tmp/ccFIZwzG.s:788    .text:00000000000002b0 .L0 
     /tmp/ccFIZwzG.s:789    .text:00000000000002b0 .L0 
     /tmp/ccFIZwzG.s:795    .text:00000000000002c4 .L0 
     /tmp/ccFIZwzG.s:796    .text:00000000000002c4 .L0 
     /tmp/ccFIZwzG.s:802    .text:00000000000002d4 .L0 
     /tmp/ccFIZwzG.s:803    .text:00000000000002d4 .L0 
     /tmp/ccFIZwzG.s:807    .text:00000000000002e4 .L0 
     /tmp/ccFIZwzG.s:808    .text:00000000000002e4 .L0 
     /tmp/ccFIZwzG.s:813    .text:00000000000002f4 .L0 
     /tmp/ccFIZwzG.s:814    .text:00000000000002f4 .L0 
     /tmp/ccFIZwzG.s:820    .text:0000000000000304 .L0 
     /tmp/ccFIZwzG.s:821    .text:0000000000000304 .L0 
     /tmp/ccFIZwzG.s:825    .text:0000000000000314 .L0 
     /tmp/ccFIZwzG.s:826    .text:0000000000000314 .L0 
     /tmp/ccFIZwzG.s:832    .text:0000000000000328 .L0 
     /tmp/ccFIZwzG.s:833    .text:0000000000000328 .L0 
     /tmp/ccFIZwzG.s:837    .text:0000000000000338 .L0 
     /tmp/ccFIZwzG.s:838    .text:0000000000000338 .L0 
     /tmp/ccFIZwzG.s:844    .text:000000000000034c .L0 
     /tmp/ccFIZwzG.s:845    .text:000000000000034c .L0 
     /tmp/ccFIZwzG.s:849    .text:000000000000035c .L0 
     /tmp/ccFIZwzG.s:851    .text:0000000000000360 .L0 
     /tmp/ccFIZwzG.s:853    .text:0000000000000364 .L0 
     /tmp/ccFIZwzG.s:854    .text:0000000000000364 .L0 
     /tmp/ccFIZwzG.s:867    .text:0000000000000384 .L0 
     /tmp/ccFIZwzG.s:868    .text:0000000000000384 .L0 
     /tmp/ccFIZwzG.s:873    .text:0000000000000394 .L0 
     /tmp/ccFIZwzG.s:876    .text:0000000000000398 .L0 
     /tmp/ccFIZwzG.s:877    .text:0000000000000398 .L0 
     /tmp/ccFIZwzG.s:882    .text:00000000000003a8 .L0 
     /tmp/ccFIZwzG.s:887    .text:00000000000003b0 .L0 
     /tmp/ccFIZwzG.s:888    .text:00000000000003b0 .L0 
     /tmp/ccFIZwzG.s:900    .text:00000000000003cc .L0 
     /tmp/ccFIZwzG.s:904    .text:00000000000003d8 .L0 
     /tmp/ccFIZwzG.s:905    .text:00000000000003d8 .L0 
     /tmp/ccFIZwzG.s:912    .text:00000000000003ec .L0 
     /tmp/ccFIZwzG.s:913    .text:00000000000003ec .L0 
     /tmp/ccFIZwzG.s:914    .text:00000000000003ec .L0 
     /tmp/ccFIZwzG.s:917    .text:00000000000003f0 .L0 
     /tmp/ccFIZwzG.s:927    .text:000000000000040c .L0 
     /tmp/ccFIZwzG.s:928    .text:000000000000040c .L0 
     /tmp/ccFIZwzG.s:934    .text:0000000000000420 .L0 
     /tmp/ccFIZwzG.s:935    .text:0000000000000420 .L0 
     /tmp/ccFIZwzG.s:937    .text:0000000000000424 .L0 
GAS LISTING /tmp/ccFIZwzG.s 			page 40


     /tmp/ccFIZwzG.s:938    .text:0000000000000424 .L0 
     /tmp/ccFIZwzG.s:941    .text:000000000000042c .L0 
     /tmp/ccFIZwzG.s:942    .text:000000000000042c .L0 
     /tmp/ccFIZwzG.s:949    .text:000000000000043c .L0 
     /tmp/ccFIZwzG.s:952    .text:0000000000000444 .L0 
     /tmp/ccFIZwzG.s:958    .text:0000000000000448 .L0 
     /tmp/ccFIZwzG.s:962    .text:0000000000000450 .L0 
     /tmp/ccFIZwzG.s:969    .text:0000000000000460 .L0 
     /tmp/ccFIZwzG.s:970    .text:0000000000000460 .L0 
     /tmp/ccFIZwzG.s:976    .text:000000000000046c .L0 
     /tmp/ccFIZwzG.s:983    .text:0000000000000474 .L0 
     /tmp/ccFIZwzG.s:990    .text:0000000000000484 .L0 
     /tmp/ccFIZwzG.s:995    .text:0000000000000490 .L0 
     /tmp/ccFIZwzG.s:996    .text:0000000000000490 .L0 
     /tmp/ccFIZwzG.s:999    .text:0000000000000498 .L0 
     /tmp/ccFIZwzG.s:1003   .text:00000000000004a4 .L0 
     /tmp/ccFIZwzG.s:1007   .text:00000000000004a8 .L0 
     /tmp/ccFIZwzG.s:1009   .text:00000000000004ac .L0 
     /tmp/ccFIZwzG.s:1010   .text:00000000000004ac .L0 
     /tmp/ccFIZwzG.s:1016   .text:00000000000004c0 .L0 
     /tmp/ccFIZwzG.s:1017   .text:00000000000004c0 .L0 
     /tmp/ccFIZwzG.s:1019   .text:00000000000004c4 .L0 
     /tmp/ccFIZwzG.s:1020   .text:00000000000004c4 .L0 
     /tmp/ccFIZwzG.s:1024   .text:00000000000004d4 .L0 
     /tmp/ccFIZwzG.s:1026   .text:00000000000004d8 .L0 
     /tmp/ccFIZwzG.s:1027   .text:00000000000004d8 .L0 
     /tmp/ccFIZwzG.s:1033   .text:00000000000004e8 .L0 
     /tmp/ccFIZwzG.s:1037   .text:00000000000004f4 .L0 
     /tmp/ccFIZwzG.s:1043   .text:00000000000004f8 .L0 
     /tmp/ccFIZwzG.s:1052   .text:0000000000000504 .L0 
     /tmp/ccFIZwzG.s:1053   .text:0000000000000504 .L0 
     /tmp/ccFIZwzG.s:1060   .text:0000000000000514 .L0 
     /tmp/ccFIZwzG.s:1064   .text:0000000000000520 .L0 
     /tmp/ccFIZwzG.s:1070   .text:0000000000000524 .L0 
     /tmp/ccFIZwzG.s:1080   .text:000000000000053c .L0 
     /tmp/ccFIZwzG.s:1088   .text:000000000000054c .L0 
     /tmp/ccFIZwzG.s:1089   .text:000000000000054c .L0 
     /tmp/ccFIZwzG.s:1093   .text:0000000000000554 .L0 
     /tmp/ccFIZwzG.s:1097   .text:0000000000000558 .L0 
     /tmp/ccFIZwzG.s:1099   .text:000000000000055c .L0 
     /tmp/ccFIZwzG.s:1100   .text:000000000000055c .L0 
     /tmp/ccFIZwzG.s:1105   .text:0000000000000570 .L0 
     /tmp/ccFIZwzG.s:1113   .text:0000000000000578 .L0 
     /tmp/ccFIZwzG.s:1119   .text:0000000000000580 .L0 
     /tmp/ccFIZwzG.s:1123   .text:0000000000000584 .L0 
     /tmp/ccFIZwzG.s:1125   .text:0000000000000588 .L0 
     /tmp/ccFIZwzG.s:1126   .text:0000000000000588 .L0 
     /tmp/ccFIZwzG.s:1130   .text:0000000000000594 .L0 
     /tmp/ccFIZwzG.s:1132   .text:0000000000000598 .L0 
     /tmp/ccFIZwzG.s:1140   .text:00000000000005a8 .L0 
     /tmp/ccFIZwzG.s:1141   .text:00000000000005a8 .L0 
     /tmp/ccFIZwzG.s:1143   .text:00000000000005ac .L0 
     /tmp/ccFIZwzG.s:1150   .text:00000000000005bc .L0 
     /tmp/ccFIZwzG.s:1151   .text:00000000000005bc .L0 
     /tmp/ccFIZwzG.s:1154   .text:00000000000005c8 .L0 
     /tmp/ccFIZwzG.s:1156   .text:00000000000005cc .L0 
     /tmp/ccFIZwzG.s:1162   .text:00000000000005d8 .L0 
GAS LISTING /tmp/ccFIZwzG.s 			page 41


     /tmp/ccFIZwzG.s:1163   .text:00000000000005d8 .L0 
     /tmp/ccFIZwzG.s:1165   .text:00000000000005dc .L0 
     /tmp/ccFIZwzG.s:1177   .text:00000000000005f8 .L0 
     /tmp/ccFIZwzG.s:1178   .text:00000000000005fc .L0 
     /tmp/ccFIZwzG.s:1179   .text:00000000000005fc .L0 
     /tmp/ccFIZwzG.s:1181   .text:0000000000000600 .L0 
     /tmp/ccFIZwzG.s:1183   .text:0000000000000604 .L0 
     /tmp/ccFIZwzG.s:1185   .text:0000000000000608 .L0 
     /tmp/ccFIZwzG.s:1187   .text:000000000000060c .L0 
     /tmp/ccFIZwzG.s:1190   .text:0000000000000610 .L0 
     /tmp/ccFIZwzG.s:1192   .text:0000000000000614 .L0 
     /tmp/ccFIZwzG.s:1194   .text:0000000000000618 .L0 
     /tmp/ccFIZwzG.s:1196   .text:000000000000061c .L0 
     /tmp/ccFIZwzG.s:1198   .text:0000000000000620 .L0 
     /tmp/ccFIZwzG.s:1200   .text:0000000000000624 .L0 
     /tmp/ccFIZwzG.s:1202   .text:0000000000000628 .L0 
     /tmp/ccFIZwzG.s:1204   .text:000000000000062c .L0 
     /tmp/ccFIZwzG.s:1208   .text:0000000000000630 .L0 
     /tmp/ccFIZwzG.s:1212   .text:0000000000000634 .L0 
     /tmp/ccFIZwzG.s:1224   .text:0000000000000650 .L0 
     /tmp/ccFIZwzG.s:1236   .text:000000000000066c .L0 
     /tmp/ccFIZwzG.s:1249   .text:0000000000000688 .L0 
     /tmp/ccFIZwzG.s:1261   .text:00000000000006a4 .L0 
     /tmp/ccFIZwzG.s:1270   .text:00000000000006bc .L0 
     /tmp/ccFIZwzG.s:44     .text._ZN8ConsumerD2Ev:0000000000000034 .L0 
     /tmp/ccFIZwzG.s:91     .text._ZN8ConsumerD0Ev:000000000000004c .L0 
     /tmp/ccFIZwzG.s:128    .text._ZN8ProducerD2Ev:0000000000000034 .L0 
     /tmp/ccFIZwzG.s:175    .text._ZN8ProducerD0Ev:000000000000004c .L0 
     /tmp/ccFIZwzG.s:212    .text._ZN16ProducerKeyboardD2Ev:0000000000000034 .L0 
     /tmp/ccFIZwzG.s:259    .text._ZN16ProducerKeyboardD0Ev:000000000000004c .L0 
     /tmp/ccFIZwzG.s:1385   .text:00000000000006bc .L0 
     /tmp/ccFIZwzG.s:408    .text._ZN16ProducerKeyboard3runEv:000000000000002c .L0 
     /tmp/ccFIZwzG.s:533    .text._ZN8Producer3runEv:000000000000002c .L0 
     /tmp/ccFIZwzG.s:715    .text._ZN8Consumer3runEv:000000000000002c .L0 
     /tmp/ccFIZwzG.s:336    .text:0000000000000078 .L0 
     /tmp/ccFIZwzG.s:445    .text:00000000000000f0 .L0 
     /tmp/ccFIZwzG.s:585    .text:00000000000001a8 .L0 
     /tmp/ccFIZwzG.s:777    .text:0000000000000294 .L0 
     /tmp/ccFIZwzG.s:717    .rodata.str1.8:0000000000000000 .LC0
     /tmp/ccFIZwzG.s:783    .text:00000000000002a0 .L0 
     /tmp/ccFIZwzG.s:720    .rodata.str1.8:0000000000000020 .LC1
     /tmp/ccFIZwzG.s:803    .text:00000000000002d4 .L0 
     /tmp/ccFIZwzG.s:723    .rodata.str1.8:0000000000000040 .LC2
     /tmp/ccFIZwzG.s:821    .text:0000000000000304 .L0 
     /tmp/ccFIZwzG.s:726    .rodata.str1.8:0000000000000058 .LC3
     /tmp/ccFIZwzG.s:833    .text:0000000000000328 .L0 
     /tmp/ccFIZwzG.s:729    .rodata.str1.8:0000000000000070 .LC4
     /tmp/ccFIZwzG.s:845    .text:000000000000034c .L0 
     /tmp/ccFIZwzG.s:732    .rodata.str1.8:0000000000000078 .LC5
     /tmp/ccFIZwzG.s:868    .text:0000000000000384 .L0 
     /tmp/ccFIZwzG.s:735    .rodata.str1.8:00000000000000b8 .LC6
     /tmp/ccFIZwzG.s:877    .text:0000000000000398 .L0 
     /tmp/ccFIZwzG.s:900    .text:00000000000003cc .L0 
     /tmp/ccFIZwzG.s:962    .text:0000000000000450 .L0 
     /tmp/ccFIZwzG.s:983    .text:0000000000000474 .L0 
     /tmp/ccFIZwzG.s:1020   .text:00000000000004c4 .L0 
     /tmp/ccFIZwzG.s:1073   .text:000000000000052c .L0 
GAS LISTING /tmp/ccFIZwzG.s 			page 42


     /tmp/ccFIZwzG.s:1100   .text:000000000000055c .L0 
     /tmp/ccFIZwzG.s:1151   .text:00000000000005bc .L0 
     /tmp/ccFIZwzG.s:298    .text:0000000000000034 .L14
     /tmp/ccFIZwzG.s:333    .text:0000000000000078 .L15
     /tmp/ccFIZwzG.s:293    .text:000000000000002c .L18
     /tmp/ccFIZwzG.s:442    .text:00000000000000f0 .L22
     /tmp/ccFIZwzG.s:475    .text:000000000000013c .L23
     /tmp/ccFIZwzG.s:437    .text:00000000000000e8 .L26
     /tmp/ccFIZwzG.s:581    .text:00000000000001a8 .L30
     /tmp/ccFIZwzG.s:616    .text:00000000000001f0 .L32
     /tmp/ccFIZwzG.s:641    .text:000000000000021c .L31
     /tmp/ccFIZwzG.s:567    .text:0000000000000190 .L36
     /tmp/ccFIZwzG.s:575    .text:000000000000019c .L37
     /tmp/ccFIZwzG.s:625    .text:0000000000000200 .L38
     /tmp/ccFIZwzG.s:865    .text:0000000000000384 .L69
     /tmp/ccFIZwzG.s:874    .text:0000000000000398 .L70
     /tmp/ccFIZwzG.s:884    .text:00000000000003b0 .L71
     /tmp/ccFIZwzG.s:881    .text:00000000000003a8 .L43
     /tmp/ccFIZwzG.s:1175   .text:00000000000005f8 .L41
     /tmp/ccFIZwzG.s:1005   .text:00000000000004a8 .L48
     /tmp/ccFIZwzG.s:1084   .text:000000000000054c .L45
     /tmp/ccFIZwzG.s:1048   .text:0000000000000504 .L46
     /tmp/ccFIZwzG.s:979    .text:0000000000000474 .L72
     /tmp/ccFIZwzG.s:993    .text:0000000000000490 .L47
     /tmp/ccFIZwzG.s:1109   .text:0000000000000578 .L62
     /tmp/ccFIZwzG.s:1095   .text:0000000000000558 .L50
     /tmp/ccFIZwzG.s:1121   .text:0000000000000584 .L49
     /tmp/ccFIZwzG.s:1137   .text:00000000000005a8 .L51
     /tmp/ccFIZwzG.s:1117   .text:0000000000000580 .L52
     /tmp/ccFIZwzG.s:1148   .text:00000000000005bc .L53
     /tmp/ccFIZwzG.s:1160   .text:00000000000005d8 .L54
     /tmp/ccFIZwzG.s:1172   .text:00000000000005f4 .L55
     /tmp/ccFIZwzG.s:26     .text._ZN8ConsumerD2Ev:0000000000000010 .L0 
     /tmp/ccFIZwzG.s:68     .text._ZN8ConsumerD0Ev:0000000000000018 .L0 
     /tmp/ccFIZwzG.s:110    .text._ZN8ProducerD2Ev:0000000000000010 .L0 
     /tmp/ccFIZwzG.s:152    .text._ZN8ProducerD0Ev:0000000000000018 .L0 
     /tmp/ccFIZwzG.s:194    .text._ZN16ProducerKeyboardD2Ev:0000000000000010 .L0 
     /tmp/ccFIZwzG.s:236    .text._ZN16ProducerKeyboardD0Ev:0000000000000018 .L0 
     /tmp/ccFIZwzG.s:784    .text:00000000000002a8 .LEHB0
     /tmp/ccFIZwzG.s:742    .text:000000000000025c .LFB17
     /tmp/ccFIZwzG.s:857    .text:0000000000000370 .LEHE0
     /tmp/ccFIZwzG.s:860    .text:0000000000000378 .LEHB1
     /tmp/ccFIZwzG.s:863    .text:0000000000000380 .LEHE1
     /tmp/ccFIZwzG.s:1207   .text:0000000000000630 .L63
     /tmp/ccFIZwzG.s:869    .text:000000000000038c .LEHB2
     /tmp/ccFIZwzG.s:891    .text:00000000000003bc .LEHE2
     /tmp/ccFIZwzG.s:895    .text:00000000000003c4 .LEHB3
     /tmp/ccFIZwzG.s:898    .text:00000000000003cc .LEHE3
     /tmp/ccFIZwzG.s:1220   .text:000000000000064c .L64
     /tmp/ccFIZwzG.s:943    .text:0000000000000430 .LEHB4
     /tmp/ccFIZwzG.s:946    .text:0000000000000438 .LEHE4
     /tmp/ccFIZwzG.s:954    .text:0000000000000448 .LEHB5
     /tmp/ccFIZwzG.s:960    .text:0000000000000450 .LEHE5
     /tmp/ccFIZwzG.s:1232   .text:0000000000000668 .L65
     /tmp/ccFIZwzG.s:971    .text:0000000000000464 .LEHB6
     /tmp/ccFIZwzG.s:1030   .text:00000000000004e4 .LEHE6
     /tmp/ccFIZwzG.s:1039   .text:00000000000004f8 .LEHB7
GAS LISTING /tmp/ccFIZwzG.s 			page 43


     /tmp/ccFIZwzG.s:1045   .text:0000000000000500 .LEHE7
     /tmp/ccFIZwzG.s:1244   .text:0000000000000684 .L66
     /tmp/ccFIZwzG.s:1054   .text:0000000000000508 .LEHB8
     /tmp/ccFIZwzG.s:1057   .text:0000000000000510 .LEHE8
     /tmp/ccFIZwzG.s:1066   .text:0000000000000524 .LEHB9
     /tmp/ccFIZwzG.s:1072   .text:000000000000052c .LEHE9
     /tmp/ccFIZwzG.s:1257   .text:00000000000006a0 .L67
     /tmp/ccFIZwzG.s:1087   .text:000000000000054c .LEHB10
     /tmp/ccFIZwzG.s:1171   .text:00000000000005f4 .LEHE10
     /tmp/ccFIZwzG.s:1216   .text:0000000000000644 .LEHB11
     /tmp/ccFIZwzG.s:1219   .text:000000000000064c .LEHE11
     /tmp/ccFIZwzG.s:1228   .text:0000000000000660 .LEHB12
     /tmp/ccFIZwzG.s:1231   .text:0000000000000668 .LEHE12
     /tmp/ccFIZwzG.s:1240   .text:000000000000067c .LEHB13
     /tmp/ccFIZwzG.s:1243   .text:0000000000000684 .LEHE13
     /tmp/ccFIZwzG.s:1253   .text:0000000000000698 .LEHB14
     /tmp/ccFIZwzG.s:1256   .text:00000000000006a0 .LEHE14
     /tmp/ccFIZwzG.s:1265   .text:00000000000006b4 .LEHB15
     /tmp/ccFIZwzG.s:1268   .text:00000000000006bc .LEHE15
     /tmp/ccFIZwzG.s:3351   .debug_abbrev:0000000000000000 .Ldebug_abbrev0
     /tmp/ccFIZwzG.s:5108   .debug_str:00000000000000a9 .LASF102
     /tmp/ccFIZwzG.s:5306   .debug_str:00000000000007d1 .LASF103
     /tmp/ccFIZwzG.s:5132   .debug_str:000000000000021d .LASF104
     /tmp/ccFIZwzG.s:5040   .debug_ranges:0000000000000000 .Ldebug_ranges0
     /tmp/ccFIZwzG.s:5082   .debug_line:0000000000000000 .Ldebug_line0
     /tmp/ccFIZwzG.s:5206   .debug_str:0000000000000471 .LASF0
     /tmp/ccFIZwzG.s:5222   .debug_str:00000000000004e2 .LASF1
     /tmp/ccFIZwzG.s:5194   .debug_str:0000000000000404 .LASF2
     /tmp/ccFIZwzG.s:5178   .debug_str:00000000000003ae .LASF4
     /tmp/ccFIZwzG.s:5262   .debug_str:000000000000064d .LASF3
     /tmp/ccFIZwzG.s:5110   .debug_str:000000000000016d .LASF5
     /tmp/ccFIZwzG.s:5228   .debug_str:0000000000000524 .LASF6
     /tmp/ccFIZwzG.s:5204   .debug_str:000000000000045e .LASF7
     /tmp/ccFIZwzG.s:5280   .debug_str:00000000000006e2 .LASF8
     /tmp/ccFIZwzG.s:5162   .debug_str:000000000000030f .LASF9
     /tmp/ccFIZwzG.s:5238   .debug_str:0000000000000572 .LASF10
     /tmp/ccFIZwzG.s:5270   .debug_str:000000000000068a .LASF11
     /tmp/ccFIZwzG.s:5116   .debug_str:000000000000019e .LASF12
     /tmp/ccFIZwzG.s:5086   .debug_str:000000000000000a .LASF13
     /tmp/ccFIZwzG.s:5128   .debug_str:00000000000001f9 .LASF14
     /tmp/ccFIZwzG.s:5258   .debug_str:0000000000000614 .LASF15
     /tmp/ccFIZwzG.s:5134   .debug_str:0000000000000240 .LASF16
     /tmp/ccFIZwzG.s:5174   .debug_str:000000000000039a .LASF18
     /tmp/ccFIZwzG.s:5088   .debug_str:000000000000001a .LASF101
     /tmp/ccFIZwzG.s:5124   .debug_str:00000000000001dd .LASF105
     /tmp/ccFIZwzG.s:5198   .debug_str:0000000000000430 .LASF38
     /tmp/ccFIZwzG.s:5224   .debug_str:00000000000004f5 .LASF106
     /tmp/ccFIZwzG.s:5230   .debug_str:0000000000000537 .LASF17
     /tmp/ccFIZwzG.s:5254   .debug_str:0000000000000603 .LASF19
     /tmp/ccFIZwzG.s:5256   .debug_str:000000000000060d .LASF20
     /tmp/ccFIZwzG.s:5138   .debug_str:0000000000000267 .LASF21
     /tmp/ccFIZwzG.s:5192   .debug_str:00000000000003ff .LASF22
     /tmp/ccFIZwzG.s:5144   .debug_str:0000000000000280 .LASF23
     /tmp/ccFIZwzG.s:5166   .debug_str:0000000000000326 .LASF24
     /tmp/ccFIZwzG.s:5190   .debug_str:00000000000003f5 .LASF25
     /tmp/ccFIZwzG.s:5210   .debug_str:0000000000000497 .LASF26
     /tmp/ccFIZwzG.s:5212   .debug_str:00000000000004a1 .LASF28
GAS LISTING /tmp/ccFIZwzG.s 			page 44


     /tmp/ccFIZwzG.s:5184   .debug_str:00000000000003d3 .LASF27
     /tmp/ccFIZwzG.s:5282   .debug_str:00000000000006f2 .LASF29
     /tmp/ccFIZwzG.s:5168   .debug_str:0000000000000334 .LASF107
     /tmp/ccFIZwzG.s:5112   .debug_str:0000000000000174 .LASF108
     /tmp/ccFIZwzG.s:5104   .debug_str:000000000000008b .LASF30
     /tmp/ccFIZwzG.s:5106   .debug_str:0000000000000092 .LASF31
     /tmp/ccFIZwzG.s:5084   .debug_str:0000000000000000 .LASF45
     /tmp/ccFIZwzG.s:5250   .debug_str:00000000000005d7 .LASF32
     /tmp/ccFIZwzG.s:5148   .debug_str:00000000000002a0 .LASF34
     /tmp/ccFIZwzG.s:5252   .debug_str:00000000000005ec .LASF33
     /tmp/ccFIZwzG.s:5232   .debug_str:000000000000053c .LASF35
     /tmp/ccFIZwzG.s:5152   .debug_str:00000000000002bf .LASF36
     /tmp/ccFIZwzG.s:5160   .debug_str:0000000000000303 .LASF109
     /tmp/ccFIZwzG.s:5180   .debug_str:00000000000003b5 .LASF37
     /tmp/ccFIZwzG.s:5118   .debug_str:00000000000001ae .LASF39
     /tmp/ccFIZwzG.s:5158   .debug_str:00000000000002f0 .LASF40
     /tmp/ccFIZwzG.s:5182   .debug_str:00000000000003bf .LASF41
     /tmp/ccFIZwzG.s:5120   .debug_str:00000000000001b7 .LASF43
     /tmp/ccFIZwzG.s:5298   .debug_str:0000000000000783 .LASF55
     /tmp/ccFIZwzG.s:5154   .debug_str:00000000000002ca .LASF42
     /tmp/ccFIZwzG.s:5278   .debug_str:00000000000006cf .LASF58
     /tmp/ccFIZwzG.s:5214   .debug_str:00000000000004b3 .LASF44
     /tmp/ccFIZwzG.s:5136   .debug_str:0000000000000256 .LASF61
     /tmp/ccFIZwzG.s:5276   .debug_str:00000000000006c8 .LASF46
     /tmp/ccFIZwzG.s:5288   .debug_str:0000000000000724 .LASF47
     /tmp/ccFIZwzG.s:5302   .debug_str:00000000000007ad .LASF48
     /tmp/ccFIZwzG.s:5114   .debug_str:0000000000000188 .LASF49
     /tmp/ccFIZwzG.s:5164   .debug_str:000000000000031d .LASF50
     /tmp/ccFIZwzG.s:5218   .debug_str:00000000000004d0 .LASF51
     /tmp/ccFIZwzG.s:5272   .debug_str:0000000000000699 .LASF52
     /tmp/ccFIZwzG.s:5240   .debug_str:0000000000000581 .LASF53
     /tmp/ccFIZwzG.s:5220   .debug_str:00000000000004d9 .LASF54
     /tmp/ccFIZwzG.s:5208   .debug_str:000000000000047e .LASF56
     /tmp/ccFIZwzG.s:5196   .debug_str:0000000000000412 .LASF57
     /tmp/ccFIZwzG.s:5284   .debug_str:0000000000000704 .LASF59
     /tmp/ccFIZwzG.s:5100   .debug_str:0000000000000063 .LASF60
     /tmp/ccFIZwzG.s:5268   .debug_str:0000000000000679 .LASF62
     /tmp/ccFIZwzG.s:5300   .debug_str:000000000000079c .LASF63
     /tmp/ccFIZwzG.s:5226   .debug_str:0000000000000508 .LASF64
     /tmp/ccFIZwzG.s:5122   .debug_str:00000000000001c0 .LASF65
     /tmp/ccFIZwzG.s:5234   .debug_str:0000000000000543 .LASF66
     /tmp/ccFIZwzG.s:5172   .debug_str:000000000000036f .LASF67
     /tmp/ccFIZwzG.s:5170   .debug_str:0000000000000348 .LASF68
     /tmp/ccFIZwzG.s:5274   .debug_str:00000000000006ac .LASF69
     /tmp/ccFIZwzG.s:5090   .debug_str:000000000000001f .LASF70
     /tmp/ccFIZwzG.s:5292   .debug_str:0000000000000747 .LASF71
     /tmp/ccFIZwzG.s:5246   .debug_str:00000000000005cd .LASF72
     /tmp/ccFIZwzG.s:5264   .debug_str:000000000000065f .LASF73
     /tmp/ccFIZwzG.s:5150   .debug_str:00000000000002a5 .LASF74
     /tmp/ccFIZwzG.s:217    .text._ZN16ProducerKeyboardD0Ev:0000000000000000 .LFB29
     /tmp/ccFIZwzG.s:257    .text._ZN16ProducerKeyboardD0Ev:000000000000004c .LFE29
     /tmp/ccFIZwzG.s:4303   .debug_loc:0000000000000000 .LLST7
     /tmp/ccFIZwzG.s:233    .text._ZN16ProducerKeyboardD0Ev:0000000000000018 .LBB30
     /tmp/ccFIZwzG.s:241    .text._ZN16ProducerKeyboardD0Ev:000000000000002c .LBE30
     /tmp/ccFIZwzG.s:4321   .debug_loc:000000000000004c .LLST8
     /tmp/ccFIZwzG.s:239    .text._ZN16ProducerKeyboardD0Ev:000000000000002c .LVL18
     /tmp/ccFIZwzG.s:244    .text._ZN16ProducerKeyboardD0Ev:0000000000000038 .LVL19
GAS LISTING /tmp/ccFIZwzG.s 			page 45


     /tmp/ccFIZwzG.s:5200   .debug_str:0000000000000435 .LASF75
     /tmp/ccFIZwzG.s:180    .text._ZN16ProducerKeyboardD2Ev:0000000000000000 .LFB27
     /tmp/ccFIZwzG.s:208    .text._ZN16ProducerKeyboardD2Ev:0000000000000034 .LFE27
     /tmp/ccFIZwzG.s:4332   .debug_loc:0000000000000082 .LLST6
     /tmp/ccFIZwzG.s:197    .text._ZN16ProducerKeyboardD2Ev:0000000000000024 .LVL15
     /tmp/ccFIZwzG.s:5146   .debug_str:000000000000028f .LASF76
     /tmp/ccFIZwzG.s:133    .text._ZN8ProducerD0Ev:0000000000000000 .LFB25
     /tmp/ccFIZwzG.s:173    .text._ZN8ProducerD0Ev:000000000000004c .LFE25
     /tmp/ccFIZwzG.s:4346   .debug_loc:00000000000000bb .LLST4
     /tmp/ccFIZwzG.s:149    .text._ZN8ProducerD0Ev:0000000000000018 .LBB27
     /tmp/ccFIZwzG.s:157    .text._ZN8ProducerD0Ev:000000000000002c .LBE27
     /tmp/ccFIZwzG.s:4364   .debug_loc:0000000000000107 .LLST5
     /tmp/ccFIZwzG.s:155    .text._ZN8ProducerD0Ev:000000000000002c .LVL11
     /tmp/ccFIZwzG.s:160    .text._ZN8ProducerD0Ev:0000000000000038 .LVL12
     /tmp/ccFIZwzG.s:5092   .debug_str:0000000000000031 .LASF77
     /tmp/ccFIZwzG.s:96     .text._ZN8ProducerD2Ev:0000000000000000 .LFB23
     /tmp/ccFIZwzG.s:124    .text._ZN8ProducerD2Ev:0000000000000034 .LFE23
     /tmp/ccFIZwzG.s:4375   .debug_loc:000000000000013d .LLST3
     /tmp/ccFIZwzG.s:113    .text._ZN8ProducerD2Ev:0000000000000024 .LVL8
     /tmp/ccFIZwzG.s:5242   .debug_str:0000000000000595 .LASF78
     /tmp/ccFIZwzG.s:49     .text._ZN8ConsumerD0Ev:0000000000000000 .LFB21
     /tmp/ccFIZwzG.s:89     .text._ZN8ConsumerD0Ev:000000000000004c .LFE21
     /tmp/ccFIZwzG.s:4389   .debug_loc:0000000000000176 .LLST1
     /tmp/ccFIZwzG.s:65     .text._ZN8ConsumerD0Ev:0000000000000018 .LBB24
     /tmp/ccFIZwzG.s:73     .text._ZN8ConsumerD0Ev:000000000000002c .LBE24
     /tmp/ccFIZwzG.s:4407   .debug_loc:00000000000001c2 .LLST2
     /tmp/ccFIZwzG.s:71     .text._ZN8ConsumerD0Ev:000000000000002c .LVL4
     /tmp/ccFIZwzG.s:76     .text._ZN8ConsumerD0Ev:0000000000000038 .LVL5
     /tmp/ccFIZwzG.s:5186   .debug_str:00000000000003de .LASF79
     /tmp/ccFIZwzG.s:11     .text._ZN8ConsumerD2Ev:0000000000000000 .LFB19
     /tmp/ccFIZwzG.s:40     .text._ZN8ConsumerD2Ev:0000000000000034 .LFE19
     /tmp/ccFIZwzG.s:4418   .debug_loc:00000000000001f8 .LLST0
     /tmp/ccFIZwzG.s:29     .text._ZN8ConsumerD2Ev:0000000000000024 .LVL1
     /tmp/ccFIZwzG.s:5102   .debug_str:000000000000006d .LASF80
     /tmp/ccFIZwzG.s:5260   .debug_str:000000000000062a .LASF110
     /tmp/ccFIZwzG.s:1271   .text:00000000000006bc .LFE17
     /tmp/ccFIZwzG.s:5098   .debug_str:000000000000005d .LASF81
     /tmp/ccFIZwzG.s:4432   .debug_loc:0000000000000231 .LLST31
     /tmp/ccFIZwzG.s:5142   .debug_str:0000000000000276 .LASF82
     /tmp/ccFIZwzG.s:4443   .debug_loc:0000000000000267 .LLST32
     /tmp/ccFIZwzG.s:4458   .debug_loc:00000000000002b0 .LLST33
     /tmp/ccFIZwzG.s:5156   .debug_str:00000000000002e8 .LASF83
     /tmp/ccFIZwzG.s:4469   .debug_loc:00000000000002e6 .LLST34
     /tmp/ccFIZwzG.s:5294   .debug_str:0000000000000761 .LASF84
     /tmp/ccFIZwzG.s:4487   .debug_loc:0000000000000332 .LLST35
     /tmp/ccFIZwzG.s:5248   .debug_str:00000000000005d2 .LASF85
     /tmp/ccFIZwzG.s:4498   .debug_loc:0000000000000368 .LLST36
     /tmp/ccFIZwzG.s:4511   .debug_loc:00000000000003a0 .LLST39
     /tmp/ccFIZwzG.s:980    .text:0000000000000474 .LBB38
     /tmp/ccFIZwzG.s:4526   .debug_loc:00000000000003e9 .LLST40
     /tmp/ccFIZwzG.s:4541   .debug_loc:0000000000000432 .LLST41
     /tmp/ccFIZwzG.s:1044   .text:0000000000000500 .LVL109
     /tmp/ccFIZwzG.s:1067   .text:0000000000000524 .LBB42
     /tmp/ccFIZwzG.s:1078   .text:000000000000053c .LBE42
     /tmp/ccFIZwzG.s:4560   .debug_loc:000000000000048e .LLST42
     /tmp/ccFIZwzG.s:4571   .debug_loc:00000000000004c4 .LLST43
     /tmp/ccFIZwzG.s:1071   .text:000000000000052c .LVL113
GAS LISTING /tmp/ccFIZwzG.s 			page 46


     /tmp/ccFIZwzG.s:1001   .text:00000000000004a4 .LVL105
     /tmp/ccFIZwzG.s:1029   .text:00000000000004e4 .LVL107
     /tmp/ccFIZwzG.s:1056   .text:0000000000000510 .LVL111
     /tmp/ccFIZwzG.s:1251   .text:0000000000000694 .LVL141
     /tmp/ccFIZwzG.s:1263   .text:00000000000006b0 .LVL144
     /tmp/ccFIZwzG.s:1091   .text:0000000000000554 .LBB44
     /tmp/ccFIZwzG.s:1110   .text:0000000000000578 .LBE44
     /tmp/ccFIZwzG.s:4586   .debug_loc:000000000000050d .LLST44
     /tmp/ccFIZwzG.s:1103   .text:0000000000000570 .LVL117
     /tmp/ccFIZwzG.s:1111   .text:0000000000000578 .LBB45
     /tmp/ccFIZwzG.s:1138   .text:00000000000005a8 .LBE45
     /tmp/ccFIZwzG.s:4597   .debug_loc:0000000000000543 .LLST45
     /tmp/ccFIZwzG.s:4604   .debug_loc:0000000000000566 .LLST28
     /tmp/ccFIZwzG.s:4635   .debug_loc:00000000000005b0 .LLST30
     /tmp/ccFIZwzG.s:955    .text:0000000000000448 .LBB35
     /tmp/ccFIZwzG.s:967    .text:0000000000000460 .LBE35
     /tmp/ccFIZwzG.s:4666   .debug_loc:00000000000005fa .LLST37
     /tmp/ccFIZwzG.s:4693   .debug_loc:000000000000064f .LLST38
     /tmp/ccFIZwzG.s:959    .text:0000000000000450 .LVL100
     /tmp/ccFIZwzG.s:786    .text:00000000000002b0 .LVL72
     /tmp/ccFIZwzG.s:793    .text:00000000000002c4 .LVL73
     /tmp/ccFIZwzG.s:798    .text:00000000000002d0 .LVL74
     /tmp/ccFIZwzG.s:805    .text:00000000000002e4 .LVL76
     /tmp/ccFIZwzG.s:811    .text:00000000000002f4 .LVL77
     /tmp/ccFIZwzG.s:816    .text:0000000000000300 .LVL78
     /tmp/ccFIZwzG.s:823    .text:0000000000000314 .LVL80
     /tmp/ccFIZwzG.s:830    .text:0000000000000328 .LVL81
     /tmp/ccFIZwzG.s:835    .text:0000000000000338 .LVL82
     /tmp/ccFIZwzG.s:842    .text:000000000000034c .LVL83
     /tmp/ccFIZwzG.s:847    .text:000000000000035c .LVL84
     /tmp/ccFIZwzG.s:856    .text:0000000000000370 .LVL85
     /tmp/ccFIZwzG.s:862    .text:0000000000000380 .LVL86
     /tmp/ccFIZwzG.s:871    .text:0000000000000394 .LVL87
     /tmp/ccFIZwzG.s:879    .text:00000000000003a8 .LVL88
     /tmp/ccFIZwzG.s:890    .text:00000000000003bc .LVL90
     /tmp/ccFIZwzG.s:897    .text:00000000000003cc .LVL92
     /tmp/ccFIZwzG.s:945    .text:0000000000000438 .LVL98
     /tmp/ccFIZwzG.s:973    .text:000000000000046c .LVL102
     /tmp/ccFIZwzG.s:1090   .text:0000000000000554 .LVL115
     /tmp/ccFIZwzG.s:1147   .text:00000000000005bc .LVL124
     /tmp/ccFIZwzG.s:1167   .text:00000000000005e8 .LVL126
     /tmp/ccFIZwzG.s:1170   .text:00000000000005f4 .LVL127
     /tmp/ccFIZwzG.s:1214   .text:0000000000000640 .LVL132
     /tmp/ccFIZwzG.s:1218   .text:000000000000064c .LVL133
     /tmp/ccFIZwzG.s:1226   .text:000000000000065c .LVL135
     /tmp/ccFIZwzG.s:1230   .text:0000000000000668 .LVL136
     /tmp/ccFIZwzG.s:1238   .text:0000000000000678 .LVL138
     /tmp/ccFIZwzG.s:1242   .text:0000000000000684 .LVL139
     /tmp/ccFIZwzG.s:1255   .text:00000000000006a0 .LVL142
     /tmp/ccFIZwzG.s:1267   .text:00000000000006bc .LVL145
     /tmp/ccFIZwzG.s:538    .text:0000000000000160 .LFB16
     /tmp/ccFIZwzG.s:679    .text:000000000000025c .LFE16
     /tmp/ccFIZwzG.s:4708   .debug_loc:0000000000000698 .LLST20
     /tmp/ccFIZwzG.s:4726   .debug_loc:00000000000006e4 .LLST21
     /tmp/ccFIZwzG.s:4744   .debug_loc:0000000000000730 .LLST22
     /tmp/ccFIZwzG.s:4762   .debug_loc:000000000000077c .LLST23
     /tmp/ccFIZwzG.s:4786   .debug_loc:00000000000007ec .LLST24
GAS LISTING /tmp/ccFIZwzG.s 			page 47


     /tmp/ccFIZwzG.s:572    .text:0000000000000198 .LVL54
     /tmp/ccFIZwzG.s:580    .text:00000000000001a8 .LVL56
     /tmp/ccFIZwzG.s:594    .text:00000000000001c8 .LVL57
     /tmp/ccFIZwzG.s:605    .text:00000000000001dc .LVL60
     /tmp/ccFIZwzG.s:627    .text:0000000000000200 .LBB34
     /tmp/ccFIZwzG.s:642    .text:000000000000021c .LBE34
     /tmp/ccFIZwzG.s:4793   .debug_loc:000000000000080f .LLST25
     /tmp/ccFIZwzG.s:634    .text:0000000000000210 .LVL62
     /tmp/ccFIZwzG.s:640    .text:000000000000021c .LVL64
     /tmp/ccFIZwzG.s:650    .text:000000000000022c .LVL65
     /tmp/ccFIZwzG.s:657    .text:000000000000023c .LVL66
     /tmp/ccFIZwzG.s:413    .text:00000000000000c4 .LFB15
     /tmp/ccFIZwzG.s:497    .text:0000000000000160 .LFE15
     /tmp/ccFIZwzG.s:4800   .debug_loc:0000000000000832 .LLST15
     /tmp/ccFIZwzG.s:4814   .debug_loc:000000000000086b .LLST16
     /tmp/ccFIZwzG.s:4832   .debug_loc:00000000000008b7 .LLST17
     /tmp/ccFIZwzG.s:4850   .debug_loc:0000000000000903 .LLST18
     /tmp/ccFIZwzG.s:441    .text:00000000000000f0 .LVL42
     /tmp/ccFIZwzG.s:456    .text:0000000000000118 .LVL43
     /tmp/ccFIZwzG.s:480    .text:0000000000000148 .LVL46
     /tmp/ccFIZwzG.s:264    .text:0000000000000000 .LFB14
     /tmp/ccFIZwzG.s:372    .text:00000000000000c4 .LFE14
     /tmp/ccFIZwzG.s:4874   .debug_loc:0000000000000973 .LLST9
     /tmp/ccFIZwzG.s:4892   .debug_loc:00000000000009bf .LLST10
     /tmp/ccFIZwzG.s:4910   .debug_loc:0000000000000a0b .LLST11
     /tmp/ccFIZwzG.s:4928   .debug_loc:0000000000000a57 .LLST12
     /tmp/ccFIZwzG.s:4943   .debug_loc:0000000000000aa0 .LLST13
     /tmp/ccFIZwzG.s:297    .text:0000000000000034 .LVL24
     /tmp/ccFIZwzG.s:303    .text:000000000000003c .LVL25
     /tmp/ccFIZwzG.s:314    .text:0000000000000054 .LVL27
     /tmp/ccFIZwzG.s:347    .text:000000000000009c .LVL32
     /tmp/ccFIZwzG.s:352    .text:00000000000000a8 .LVL33
     /tmp/ccFIZwzG.s:686    .text._ZN8Consumer3runEv:0000000000000000 .LFB13
     /tmp/ccFIZwzG.s:713    .text._ZN8Consumer3runEv:000000000000002c .LFE13
     /tmp/ccFIZwzG.s:4967   .debug_loc:0000000000000b10 .LLST26
     /tmp/ccFIZwzG.s:702    .text._ZN8Consumer3runEv:000000000000001c .LVL71
     /tmp/ccFIZwzG.s:5304   .debug_str:00000000000007b3 .LASF86
     /tmp/ccFIZwzG.s:504    .text._ZN8Producer3runEv:0000000000000000 .LFB9
     /tmp/ccFIZwzG.s:531    .text._ZN8Producer3runEv:000000000000002c .LFE9
     /tmp/ccFIZwzG.s:4981   .debug_loc:0000000000000b49 .LLST19
     /tmp/ccFIZwzG.s:520    .text._ZN8Producer3runEv:000000000000001c .LVL50
     /tmp/ccFIZwzG.s:5236   .debug_str:0000000000000554 .LASF87
     /tmp/ccFIZwzG.s:379    .text._ZN16ProducerKeyboard3runEv:0000000000000000 .LFB5
     /tmp/ccFIZwzG.s:406    .text._ZN16ProducerKeyboard3runEv:000000000000002c .LFE5
     /tmp/ccFIZwzG.s:4995   .debug_loc:0000000000000b82 .LLST14
     /tmp/ccFIZwzG.s:395    .text._ZN16ProducerKeyboard3runEv:000000000000001c .LVL38
     /tmp/ccFIZwzG.s:5244   .debug_str:00000000000005a6 .LASF88
     /tmp/ccFIZwzG.s:5308   .debug_str:00000000000007fd .LASF89
     /tmp/ccFIZwzG.s:5266   .debug_str:0000000000000669 .LASF90
     /tmp/ccFIZwzG.s:5188   .debug_str:00000000000003ef .LASF91
     /tmp/ccFIZwzG.s:5286   .debug_str:0000000000000717 .LASF92
     /tmp/ccFIZwzG.s:5296   .debug_str:0000000000000770 .LASF93
     /tmp/ccFIZwzG.s:5094   .debug_str:0000000000000042 .LASF94
     /tmp/ccFIZwzG.s:5290   .debug_str:0000000000000737 .LASF95
     /tmp/ccFIZwzG.s:5140   .debug_str:000000000000026c .LASF96
     /tmp/ccFIZwzG.s:5216   .debug_str:00000000000004bd .LASF97
     /tmp/ccFIZwzG.s:5176   .debug_str:00000000000003a2 .LASF98
GAS LISTING /tmp/ccFIZwzG.s 			page 48


     /tmp/ccFIZwzG.s:5202   .debug_str:000000000000044f .LASF99
     /tmp/ccFIZwzG.s:5126   .debug_str:00000000000001f0 .LASF100
     /tmp/ccFIZwzG.s:5096   .debug_str:000000000000004e .LASF111
     /tmp/ccFIZwzG.s:5130   .debug_str:0000000000000205 .LASF112
     /tmp/ccFIZwzG.s:220    .text._ZN16ProducerKeyboardD0Ev:0000000000000000 .LVL16
     /tmp/ccFIZwzG.s:252    .text._ZN16ProducerKeyboardD0Ev:0000000000000044 .LVL20
     /tmp/ccFIZwzG.s:232    .text._ZN16ProducerKeyboardD0Ev:0000000000000018 .LVL17
     /tmp/ccFIZwzG.s:183    .text._ZN16ProducerKeyboardD2Ev:0000000000000000 .LVL14
     /tmp/ccFIZwzG.s:136    .text._ZN8ProducerD0Ev:0000000000000000 .LVL9
     /tmp/ccFIZwzG.s:168    .text._ZN8ProducerD0Ev:0000000000000044 .LVL13
     /tmp/ccFIZwzG.s:148    .text._ZN8ProducerD0Ev:0000000000000018 .LVL10
     /tmp/ccFIZwzG.s:99     .text._ZN8ProducerD2Ev:0000000000000000 .LVL7
     /tmp/ccFIZwzG.s:52     .text._ZN8ConsumerD0Ev:0000000000000000 .LVL2
     /tmp/ccFIZwzG.s:84     .text._ZN8ConsumerD0Ev:0000000000000044 .LVL6
     /tmp/ccFIZwzG.s:64     .text._ZN8ConsumerD0Ev:0000000000000018 .LVL3
     /tmp/ccFIZwzG.s:15     .text._ZN8ConsumerD2Ev:0000000000000000 .LVL0
     /tmp/ccFIZwzG.s:818    .text:0000000000000304 .LVL79
     /tmp/ccFIZwzG.s:893    .text:00000000000003c0 .LVL91
     /tmp/ccFIZwzG.s:1206   .text:0000000000000630 .LVL130
     /tmp/ccFIZwzG.s:1210   .text:0000000000000634 .LVL131
     /tmp/ccFIZwzG.s:800    .text:00000000000002d4 .LVL75
     /tmp/ccFIZwzG.s:1188   .text:000000000000060c .LVL129
     /tmp/ccFIZwzG.s:1222   .text:0000000000000650 .LVL134
     /tmp/ccFIZwzG.s:885    .text:00000000000003b0 .LVL89
     /tmp/ccFIZwzG.s:1174   .text:00000000000005f8 .LVL128
     /tmp/ccFIZwzG.s:910    .text:00000000000003ec .LVL94
     /tmp/ccFIZwzG.s:923    .text:0000000000000408 .LVL96
     /tmp/ccFIZwzG.s:965    .text:0000000000000460 .LVL101
     /tmp/ccFIZwzG.s:925    .text:000000000000040c .LVL97
     /tmp/ccFIZwzG.s:978    .text:0000000000000474 .LVL103
     /tmp/ccFIZwzG.s:1094   .text:0000000000000558 .LVL116
     /tmp/ccFIZwzG.s:1246   .text:0000000000000688 .LVL140
     /tmp/ccFIZwzG.s:1259   .text:00000000000006a4 .LVL143
     /tmp/ccFIZwzG.s:986    .text:0000000000000484 .LVL104
     /tmp/ccFIZwzG.s:1038   .text:00000000000004f8 .LVL108
     /tmp/ccFIZwzG.s:1047   .text:0000000000000504 .LVL110
     /tmp/ccFIZwzG.s:1065   .text:0000000000000524 .LVL112
     /tmp/ccFIZwzG.s:1076   .text:000000000000053c .LVL114
     /tmp/ccFIZwzG.s:1106   .text:0000000000000574 .LVL118
     /tmp/ccFIZwzG.s:1108   .text:0000000000000578 .LVL119
     /tmp/ccFIZwzG.s:1114   .text:000000000000057c .LVL120
     /tmp/ccFIZwzG.s:1116   .text:0000000000000580 .LVL121
     /tmp/ccFIZwzG.s:903    .text:00000000000003d8 .LVL93
     /tmp/ccFIZwzG.s:915    .text:00000000000003f0 .LVL95
     /tmp/ccFIZwzG.s:953    .text:0000000000000448 .LVL99
     /tmp/ccFIZwzG.s:1234   .text:000000000000066c .LVL137
     /tmp/ccFIZwzG.s:541    .text:0000000000000160 .LVL51
     /tmp/ccFIZwzG.s:566    .text:0000000000000190 .LVL53
     /tmp/ccFIZwzG.s:671    .text:0000000000000250 .LVL68
     /tmp/ccFIZwzG.s:668    .text:000000000000024c .LVL67
     /tmp/ccFIZwzG.s:561    .text:0000000000000188 .LVL52
     /tmp/ccFIZwzG.s:574    .text:000000000000019c .LVL55
     /tmp/ccFIZwzG.s:599    .text:00000000000001d0 .LVL58
     /tmp/ccFIZwzG.s:621    .text:00000000000001f8 .LVL61
     /tmp/ccFIZwzG.s:674    .text:0000000000000254 .LVL69
     /tmp/ccFIZwzG.s:603    .text:00000000000001d4 .LVL59
     /tmp/ccFIZwzG.s:638    .text:0000000000000214 .LVL63
GAS LISTING /tmp/ccFIZwzG.s 			page 49


     /tmp/ccFIZwzG.s:416    .text:00000000000000c4 .LVL39
     /tmp/ccFIZwzG.s:436    .text:00000000000000e8 .LVL41
     /tmp/ccFIZwzG.s:489    .text:0000000000000154 .LVL47
     /tmp/ccFIZwzG.s:431    .text:00000000000000e0 .LVL40
     /tmp/ccFIZwzG.s:461    .text:0000000000000120 .LVL44
     /tmp/ccFIZwzG.s:474    .text:000000000000013c .LVL45
     /tmp/ccFIZwzG.s:492    .text:0000000000000158 .LVL48
     /tmp/ccFIZwzG.s:268    .text:0000000000000000 .LVL21
     /tmp/ccFIZwzG.s:292    .text:000000000000002c .LVL23
     /tmp/ccFIZwzG.s:367    .text:00000000000000bc .LVL36
     /tmp/ccFIZwzG.s:361    .text:00000000000000b4 .LVL34
     /tmp/ccFIZwzG.s:286    .text:0000000000000024 .LVL22
     /tmp/ccFIZwzG.s:306    .text:0000000000000040 .LVL26
     /tmp/ccFIZwzG.s:332    .text:0000000000000078 .LVL29
     /tmp/ccFIZwzG.s:343    .text:0000000000000090 .LVL30
     /tmp/ccFIZwzG.s:345    .text:0000000000000094 .LVL31
     /tmp/ccFIZwzG.s:319    .text:000000000000005c .LVL28
     /tmp/ccFIZwzG.s:364    .text:00000000000000b8 .LVL35
     /tmp/ccFIZwzG.s:689    .text._ZN8Consumer3runEv:0000000000000000 .LVL70
     /tmp/ccFIZwzG.s:507    .text._ZN8Producer3runEv:0000000000000000 .LVL49
     /tmp/ccFIZwzG.s:382    .text._ZN16ProducerKeyboard3runEv:0000000000000000 .LVL37
     /tmp/ccFIZwzG.s:1386   .debug_info:0000000000000000 .Ldebug_info0
     /tmp/ccFIZwzG.s:5      .text:0000000000000000 .Ltext0
     /tmp/ccFIZwzG.s:1379   .text:00000000000006bc .Letext0
     /tmp/ccFIZwzG.s:568    .text:0000000000000190 .LBB32
     /tmp/ccFIZwzG.s:582    .text:00000000000001a8 .LBE32
     /tmp/ccFIZwzG.s:589    .text:00000000000001bc .LBB33
     /tmp/ccFIZwzG.s:626    .text:0000000000000200 .LBE33
     /tmp/ccFIZwzG.s:974    .text:000000000000046c .LBB37
     /tmp/ccFIZwzG.s:1085   .text:000000000000054c .LBE37
     /tmp/ccFIZwzG.s:1247   .text:0000000000000688 .LBB46
     /tmp/ccFIZwzG.s:1269   .text:00000000000006bc .LBE46
     /tmp/ccFIZwzG.s:988    .text:0000000000000484 .LBE38
     /tmp/ccFIZwzG.s:1040   .text:00000000000004f8 .LBB41
     /tmp/ccFIZwzG.s:1050   .text:0000000000000504 .LBE41
     /tmp/ccFIZwzG.s:1274   .gcc_except_table:0000000000000000 .LLSDA17
                           .group:0000000000000000 _ZN8ConsumerD5Ev
                           .group:0000000000000000 _ZN8ProducerD5Ev
                           .group:0000000000000000 _ZN16ProducerKeyboardD5Ev

UNDEFINED SYMBOLS
_ZN6ThreadD2Ev
_ZdlPv
_ZN6Thread8dispatchEv
getc
_ZN9BufferCPP3putEi
threadEnd
_ZN9Semaphore6signalEv
putc
_ZN9BufferCPP3getEv
_ZN7Console4putcEc
_ZN9BufferCPP6getCntEv
_Z11printStringPKc
_Z9getStringPci
_Z11stringToIntPKc
_Z8printIntiii
_Znwm
GAS LISTING /tmp/ccFIZwzG.s 			page 50


_ZN9BufferCPPC1Ei
_ZN9SemaphoreC1Ej
waitForAll
_ZN6ThreadC2Ev
_ZN6Thread5startEv
_ZN9Semaphore4waitEv
_ZN9BufferCPPD1Ev
_Unwind_Resume
__gxx_personality_v0
