GAS LISTING /tmp/cchSgExa.s 			page 1


   1              		.file	"ConsumerProducer_C_API_test.cpp"
   2              		.option pic
   3              		.option norelax
   4              		.text
   5              	.Ltext0:
   6              		.section	.rodata.str1.8,"aMS",@progbits,1
   7              		.align	3
   8              	.LC0:
   9 0000 50726F64 		.string	"Producer started...\n"
   9      75636572 
   9      20737461 
   9      72746564 
   9      2E2E2E0A 
  10 0015 000000   		.align	3
  11              	.LC1:
  12 0018 70726F64 		.string	"producer i : "
  12      75636572 
  12      2069203A 
  12      2000
  13 0026 0000     		.align	3
  14              	.LC2:
  15 0028 70757420 		.string	"put "
  15      00
  16 002d 000000   		.align	3
  17              	.LC3:
  18 0030 64697370 		.string	"dispatching\n"
  18      61746368 
  18      696E670A 
  18      00
  19 003d 000000   		.align	3
  20              	.LC4:
  21 0040 70726F64 		.string	"producer done\n"
  21      75636572 
  21      20646F6E 
  21      650A00
  22              		.text
  23              		.align	2
  24              		.globl	_Z8producerPv
  26              	_Z8producerPv:
  27              	.LFB19:
  28              		.file 1 "test/ConsumerProducer_C_API_test.cpp"
   1:test/ConsumerProducer_C_API_test.cpp **** //
   2:test/ConsumerProducer_C_API_test.cpp **** // Created by os on 5/16/22.
   3:test/ConsumerProducer_C_API_test.cpp **** //
   4:test/ConsumerProducer_C_API_test.cpp **** 
   5:test/ConsumerProducer_C_API_test.cpp **** #include "ConsumerProducer_C_API_test.hpp"
   6:test/ConsumerProducer_C_API_test.cpp **** #include "../h/Riscv.hpp"
   7:test/ConsumerProducer_C_API_test.cpp **** sem_t waitForAll;
   8:test/ConsumerProducer_C_API_test.cpp **** 
   9:test/ConsumerProducer_C_API_test.cpp **** struct thread_data {
  10:test/ConsumerProducer_C_API_test.cpp ****     int id;
  11:test/ConsumerProducer_C_API_test.cpp ****     Buffer *buffer;
  12:test/ConsumerProducer_C_API_test.cpp ****     sem_t wait;
  13:test/ConsumerProducer_C_API_test.cpp **** };
  14:test/ConsumerProducer_C_API_test.cpp **** 
  15:test/ConsumerProducer_C_API_test.cpp **** volatile int threadEnd = 0;
  16:test/ConsumerProducer_C_API_test.cpp **** 
GAS LISTING /tmp/cchSgExa.s 			page 2


  17:test/ConsumerProducer_C_API_test.cpp **** void producerKeyboard(void *arg) {
  18:test/ConsumerProducer_C_API_test.cpp ****     struct thread_data *data = (struct thread_data *) arg;
  19:test/ConsumerProducer_C_API_test.cpp **** 
  20:test/ConsumerProducer_C_API_test.cpp ****     int key;
  21:test/ConsumerProducer_C_API_test.cpp ****     int i = 0;
  22:test/ConsumerProducer_C_API_test.cpp ****     while ((key = __getc()) != 0x1b) {
  23:test/ConsumerProducer_C_API_test.cpp ****         data->buffer->put(key);
  24:test/ConsumerProducer_C_API_test.cpp ****         i++;
  25:test/ConsumerProducer_C_API_test.cpp **** 
  26:test/ConsumerProducer_C_API_test.cpp ****         if (i % (10 * data->id) == 0) {
  27:test/ConsumerProducer_C_API_test.cpp ****             thread_dispatch();
  28:test/ConsumerProducer_C_API_test.cpp ****         }
  29:test/ConsumerProducer_C_API_test.cpp ****     }
  30:test/ConsumerProducer_C_API_test.cpp **** 
  31:test/ConsumerProducer_C_API_test.cpp ****     threadEnd = 1;
  32:test/ConsumerProducer_C_API_test.cpp **** 
  33:test/ConsumerProducer_C_API_test.cpp ****     delete data->buffer;
  34:test/ConsumerProducer_C_API_test.cpp **** 
  35:test/ConsumerProducer_C_API_test.cpp ****     sem_signal(data->wait);
  36:test/ConsumerProducer_C_API_test.cpp **** }
  37:test/ConsumerProducer_C_API_test.cpp **** 
  38:test/ConsumerProducer_C_API_test.cpp **** void producer(void *arg) {
  29              		.loc 1 38 26
  30              		.cfi_startproc
  31              	.LVL0:
  32 0000 130101FE 		addi	sp,sp,-32
  33              		.cfi_def_cfa_offset 32
  34 0004 233C1100 		sd	ra,24(sp)
  35 0008 23388100 		sd	s0,16(sp)
  36 000c 23349100 		sd	s1,8(sp)
  37 0010 23302101 		sd	s2,0(sp)
  38              		.cfi_offset 1, -8
  39              		.cfi_offset 8, -16
  40              		.cfi_offset 9, -24
  41              		.cfi_offset 18, -32
  42 0014 13040102 		addi	s0,sp,32
  43              		.cfi_def_cfa 8, 0
  44 0018 93040500 		mv	s1,a0
  39:test/ConsumerProducer_C_API_test.cpp ****     struct thread_data *data = (struct thread_data *) arg;
  45              		.loc 1 39 5
  46              	.LVL1:
  40:test/ConsumerProducer_C_API_test.cpp **** 
  41:test/ConsumerProducer_C_API_test.cpp ****     Riscv::printString("Producer started...\n");
  47              		.loc 1 41 5
  48              		.loc 1 41 23 is_stmt 0
  49 001c 17050000 		lla	a0,.LC0
  49      13050500 
  50              	.LVL2:
  51 0024 97000000 		call	_ZN5Riscv11printStringEPKc@plt
  51      E7800000 
  52              	.LVL3:
  42:test/ConsumerProducer_C_API_test.cpp **** 
  43:test/ConsumerProducer_C_API_test.cpp ****     int i = 0;
  53              		.loc 1 43 5 is_stmt 1
  54              		.loc 1 43 9 is_stmt 0
  55 002c 13090000 		li	s2,0
  56              	.LVL4:
GAS LISTING /tmp/cchSgExa.s 			page 3


  57              	.L2:
  44:test/ConsumerProducer_C_API_test.cpp ****     while (!threadEnd)
  58              		.loc 1 44 5 is_stmt 1
  59              		.loc 1 44 12
  60 0030 97070000 		lw	a5,.LANCHOR0
  60      83A70700 
  61 0038 6394070A 		bnez	a5,.L3
  45:test/ConsumerProducer_C_API_test.cpp ****     {
  46:test/ConsumerProducer_C_API_test.cpp ****         Riscv::printString("producer i : ");
  62              		.loc 1 46 9
  63              		.loc 1 46 27 is_stmt 0
  64 003c 17050000 		lla	a0,.LC1
  64      13050500 
  65 0044 97000000 		call	_ZN5Riscv11printStringEPKc@plt
  65      E7800000 
  66              	.LVL5:
  47:test/ConsumerProducer_C_API_test.cpp ****         Riscv::printInteger(i);
  67              		.loc 1 47 9 is_stmt 1
  68              		.loc 1 47 28 is_stmt 0
  69 004c 13050900 		mv	a0,s2
  70 0050 97000000 		call	_ZN5Riscv12printIntegerEm@plt
  70      E7800000 
  71              	.LVL6:
  48:test/ConsumerProducer_C_API_test.cpp ****         Riscv::printString("put ");
  72              		.loc 1 48 9 is_stmt 1
  73              		.loc 1 48 27 is_stmt 0
  74 0058 17050000 		lla	a0,.LC2
  74      13050500 
  75 0060 97000000 		call	_ZN5Riscv11printStringEPKc@plt
  75      E7800000 
  76              	.LVL7:
  49:test/ConsumerProducer_C_API_test.cpp ****         Riscv::printInteger(data->id + '0');
  77              		.loc 1 49 9 is_stmt 1
  78              		.loc 1 49 35 is_stmt 0
  79 0068 03A50400 		lw	a0,0(s1)
  80              		.loc 1 49 28
  81 006c 1B050503 		addiw	a0,a0,48
  82 0070 97000000 		call	_ZN5Riscv12printIntegerEm@plt
  82      E7800000 
  83              	.LVL8:
  50:test/ConsumerProducer_C_API_test.cpp ****         data->buffer->put(data->id + '0');
  84              		.loc 1 50 9 is_stmt 1
  85              		.loc 1 50 33 is_stmt 0
  86 0078 83A50400 		lw	a1,0(s1)
  87              		.loc 1 50 26
  88 007c 9B850503 		addiw	a1,a1,48
  89 0080 03B58400 		ld	a0,8(s1)
  90 0084 97000000 		call	_ZN6Buffer3putEi@plt
  90      E7800000 
  91              	.LVL9:
  51:test/ConsumerProducer_C_API_test.cpp ****         i++;
  92              		.loc 1 51 9 is_stmt 1
  93              		.loc 1 51 10 is_stmt 0
  94 008c 1B071900 		addiw	a4,s2,1
  95 0090 1B090700 		sext.w	s2,a4
  96              	.LVL10:
  52:test/ConsumerProducer_C_API_test.cpp **** 
GAS LISTING /tmp/cchSgExa.s 			page 4


  53:test/ConsumerProducer_C_API_test.cpp ****         if (i % (10 * data->id) == 0) {
  97              		.loc 1 53 9 is_stmt 1
  98              		.loc 1 53 29 is_stmt 0
  99 0094 83A60400 		lw	a3,0(s1)
 100              		.loc 1 53 21
 101 0098 9B972600 		slliw	a5,a3,2
 102 009c BB87D700 		addw	a5,a5,a3
 103 00a0 9B971700 		slliw	a5,a5,1
 104              		.loc 1 53 15
 105 00a4 BB67F702 		remw	a5,a4,a5
 106              		.loc 1 53 9
 107 00a8 638E0700 		beqz	a5,.L7
 108              	.LVL11:
 109              	.L4:
  54:test/ConsumerProducer_C_API_test.cpp ****             Riscv::printString("dispatching\n");
  55:test/ConsumerProducer_C_API_test.cpp ****             thread_dispatch();
  56:test/ConsumerProducer_C_API_test.cpp ****         }
  57:test/ConsumerProducer_C_API_test.cpp **** 
  58:test/ConsumerProducer_C_API_test.cpp ****         if(i == 10)
 110              		.loc 1 58 9 is_stmt 1
 111 00ac 9307A000 		li	a5,10
 112 00b0 E310F9F8 		bne	s2,a5,.L2
  59:test/ConsumerProducer_C_API_test.cpp ****             threadEnd = 1;
 113              		.loc 1 59 13
 114              		.loc 1 59 23 is_stmt 0
 115 00b4 93071000 		li	a5,1
 116 00b8 17070000 		sw	a5,.LANCHOR0,a4
 116      2320F700 
 117 00c0 6FF01FF7 		j	.L2
 118              	.LVL12:
 119              	.L7:
  54:test/ConsumerProducer_C_API_test.cpp ****             Riscv::printString("dispatching\n");
 120              		.loc 1 54 13 is_stmt 1
  54:test/ConsumerProducer_C_API_test.cpp ****             Riscv::printString("dispatching\n");
 121              		.loc 1 54 31 is_stmt 0
 122 00c4 17050000 		lla	a0,.LC3
 122      13050500 
 123 00cc 97000000 		call	_ZN5Riscv11printStringEPKc@plt
 123      E7800000 
 124              	.LVL13:
  55:test/ConsumerProducer_C_API_test.cpp ****         }
 125              		.loc 1 55 13 is_stmt 1
  55:test/ConsumerProducer_C_API_test.cpp ****         }
 126              		.loc 1 55 28 is_stmt 0
 127 00d4 97000000 		call	thread_dispatch@plt
 127      E7800000 
 128              	.LVL14:
 129 00dc 6FF01FFD 		j	.L4
 130              	.L3:
  60:test/ConsumerProducer_C_API_test.cpp ****     }
  61:test/ConsumerProducer_C_API_test.cpp **** 
  62:test/ConsumerProducer_C_API_test.cpp ****     Riscv::printString("producer done\n");
 131              		.loc 1 62 5 is_stmt 1
 132              		.loc 1 62 23 is_stmt 0
 133 00e0 17050000 		lla	a0,.LC4
 133      13050500 
 134 00e8 97000000 		call	_ZN5Riscv11printStringEPKc@plt
GAS LISTING /tmp/cchSgExa.s 			page 5


 134      E7800000 
 135              	.LVL15:
  63:test/ConsumerProducer_C_API_test.cpp ****     sem_signal(data->wait);
 136              		.loc 1 63 5 is_stmt 1
 137              		.loc 1 63 15 is_stmt 0
 138 00f0 03B50401 		ld	a0,16(s1)
 139 00f4 97000000 		call	sem_signal@plt
 139      E7800000 
 140              	.LVL16:
  64:test/ConsumerProducer_C_API_test.cpp **** }
 141              		.loc 1 64 1
 142 00fc 83308101 		ld	ra,24(sp)
 143              		.cfi_restore 1
 144 0100 03340101 		ld	s0,16(sp)
 145              		.cfi_restore 8
 146              		.cfi_def_cfa 2, 32
 147 0104 83348100 		ld	s1,8(sp)
 148              		.cfi_restore 9
 149              	.LVL17:
 150 0108 03390100 		ld	s2,0(sp)
 151              		.cfi_restore 18
 152              	.LVL18:
 153 010c 13010102 		addi	sp,sp,32
 154              		.cfi_def_cfa_offset 0
 155 0110 67800000 		jr	ra
 156              		.cfi_endproc
 157              	.LFE19:
 159              		.section	.rodata.str1.8
 160 004f 00       		.align	3
 161              	.LC5:
 162 0050 436F6E73 		.string	"Consumer started...\n"
 162      756D6572 
 162      20737461 
 162      72746564 
 162      2E2E2E0A 
 163 0065 000000   		.align	3
 164              	.LC6:
 165 0068 636F6E73 		.string	"consumer i : "
 165      756D6572 
 165      2069203A 
 165      2000
 166 0076 0000     		.align	3
 167              	.LC7:
 168 0078 67657420 		.string	"get "
 168      00
 169 007d 000000   		.align	3
 170              	.LC8:
 171 0080 0A00     		.string	"\n"
 172 0082 00000000 		.align	3
 172      0000
 173              	.LC9:
 174 0088 636F6E73 		.string	"consumer done\n"
 174      756D6572 
 174      20646F6E 
 174      650A00
 175              		.text
 176              		.align	2
GAS LISTING /tmp/cchSgExa.s 			page 6


 177              		.globl	_Z8consumerPv
 179              	_Z8consumerPv:
 180              	.LFB20:
  65:test/ConsumerProducer_C_API_test.cpp **** 
  66:test/ConsumerProducer_C_API_test.cpp **** void consumer(void *arg) {
 181              		.loc 1 66 26 is_stmt 1
 182              		.cfi_startproc
 183              	.LVL19:
 184 0114 130101FD 		addi	sp,sp,-48
 185              		.cfi_def_cfa_offset 48
 186 0118 23341102 		sd	ra,40(sp)
 187 011c 23308102 		sd	s0,32(sp)
 188 0120 233C9100 		sd	s1,24(sp)
 189 0124 23382101 		sd	s2,16(sp)
 190 0128 23343101 		sd	s3,8(sp)
 191 012c 23304101 		sd	s4,0(sp)
 192              		.cfi_offset 1, -8
 193              		.cfi_offset 8, -16
 194              		.cfi_offset 9, -24
 195              		.cfi_offset 18, -32
 196              		.cfi_offset 19, -40
 197              		.cfi_offset 20, -48
 198 0130 13040103 		addi	s0,sp,48
 199              		.cfi_def_cfa 8, 0
 200 0134 130A0500 		mv	s4,a0
  67:test/ConsumerProducer_C_API_test.cpp ****     struct thread_data *data = (struct thread_data *) arg;
 201              		.loc 1 67 5
 202              	.LVL20:
  68:test/ConsumerProducer_C_API_test.cpp **** 
  69:test/ConsumerProducer_C_API_test.cpp ****     Riscv::printString("Consumer started...\n");
 203              		.loc 1 69 5
 204              		.loc 1 69 23 is_stmt 0
 205 0138 17050000 		lla	a0,.LC5
 205      13050500 
 206              	.LVL21:
 207 0140 97000000 		call	_ZN5Riscv11printStringEPKc@plt
 207      E7800000 
 208              	.LVL22:
  70:test/ConsumerProducer_C_API_test.cpp **** 
  71:test/ConsumerProducer_C_API_test.cpp ****     int i = 0;
 209              		.loc 1 71 5 is_stmt 1
 210              		.loc 1 71 9 is_stmt 0
 211 0148 93090000 		li	s3,0
 212 014c 6F000003 		j	.L9
 213              	.LVL23:
 214              	.L14:
 215              	.LBB2:
  72:test/ConsumerProducer_C_API_test.cpp ****     while (!threadEnd) {
  73:test/ConsumerProducer_C_API_test.cpp ****         Riscv::printString("consumer i : ");
  74:test/ConsumerProducer_C_API_test.cpp ****         Riscv::printInteger(i);
  75:test/ConsumerProducer_C_API_test.cpp ****         int key = data->buffer->get();
  76:test/ConsumerProducer_C_API_test.cpp ****         i++;
  77:test/ConsumerProducer_C_API_test.cpp **** 
  78:test/ConsumerProducer_C_API_test.cpp ****         //putc(key);
  79:test/ConsumerProducer_C_API_test.cpp ****         Riscv::printString("get ");
  80:test/ConsumerProducer_C_API_test.cpp ****         Riscv::printInteger(key);
  81:test/ConsumerProducer_C_API_test.cpp **** 
GAS LISTING /tmp/cchSgExa.s 			page 7


  82:test/ConsumerProducer_C_API_test.cpp ****         if (i % (5 * data->id) == 0) {
  83:test/ConsumerProducer_C_API_test.cpp ****             Riscv::printString("dispatching\n");
 216              		.loc 1 83 13 is_stmt 1
 217              		.loc 1 83 31 is_stmt 0
 218 0150 17050000 		lla	a0,.LC3
 218      13050500 
 219 0158 97000000 		call	_ZN5Riscv11printStringEPKc@plt
 219      E7800000 
 220              	.LVL24:
  84:test/ConsumerProducer_C_API_test.cpp ****             thread_dispatch();
 221              		.loc 1 84 13 is_stmt 1
 222              		.loc 1 84 28 is_stmt 0
 223 0160 97000000 		call	thread_dispatch@plt
 223      E7800000 
 224              	.LVL25:
 225 0168 6F004008 		j	.L11
 226              	.LVL26:
 227              	.L15:
  85:test/ConsumerProducer_C_API_test.cpp ****         }
  86:test/ConsumerProducer_C_API_test.cpp **** 
  87:test/ConsumerProducer_C_API_test.cpp ****         if (i % 80 == 0) {
  88:test/ConsumerProducer_C_API_test.cpp ****            Riscv::printString("\n");
 228              		.loc 1 88 12 is_stmt 1
 229              		.loc 1 88 30 is_stmt 0
 230 016c 17050000 		lla	a0,.LC8
 230      13050500 
 231 0174 97000000 		call	_ZN5Riscv11printStringEPKc@plt
 231      E7800000 
 232              	.LVL27:
 233              	.L9:
 234              	.LBE2:
  72:test/ConsumerProducer_C_API_test.cpp ****         Riscv::printString("consumer i : ");
 235              		.loc 1 72 5 is_stmt 1
  72:test/ConsumerProducer_C_API_test.cpp ****         Riscv::printString("consumer i : ");
 236              		.loc 1 72 12
 237 017c 97070000 		lw	a5,.LANCHOR0
 237      83A70700 
 238 0184 639C0706 		bnez	a5,.L10
 239              	.LBB3:
  73:test/ConsumerProducer_C_API_test.cpp ****         Riscv::printInteger(i);
 240              		.loc 1 73 9
  73:test/ConsumerProducer_C_API_test.cpp ****         Riscv::printInteger(i);
 241              		.loc 1 73 27 is_stmt 0
 242 0188 17050000 		lla	a0,.LC6
 242      13050500 
 243 0190 97000000 		call	_ZN5Riscv11printStringEPKc@plt
 243      E7800000 
 244              	.LVL28:
  74:test/ConsumerProducer_C_API_test.cpp ****         int key = data->buffer->get();
 245              		.loc 1 74 9 is_stmt 1
  74:test/ConsumerProducer_C_API_test.cpp ****         int key = data->buffer->get();
 246              		.loc 1 74 28 is_stmt 0
 247 0198 13850900 		mv	a0,s3
 248 019c 97000000 		call	_ZN5Riscv12printIntegerEm@plt
 248      E7800000 
 249              	.LVL29:
  75:test/ConsumerProducer_C_API_test.cpp ****         i++;
GAS LISTING /tmp/cchSgExa.s 			page 8


 250              		.loc 1 75 9 is_stmt 1
  75:test/ConsumerProducer_C_API_test.cpp ****         i++;
 251              		.loc 1 75 36 is_stmt 0
 252 01a4 03358A00 		ld	a0,8(s4)
 253 01a8 97000000 		call	_ZN6Buffer3getEv@plt
 253      E7800000 
 254              	.LVL30:
 255 01b0 13090500 		mv	s2,a0
 256              	.LVL31:
  76:test/ConsumerProducer_C_API_test.cpp **** 
 257              		.loc 1 76 9 is_stmt 1
  76:test/ConsumerProducer_C_API_test.cpp **** 
 258              		.loc 1 76 10 is_stmt 0
 259 01b4 9B841900 		addiw	s1,s3,1
 260 01b8 9B890400 		sext.w	s3,s1
 261              	.LVL32:
  79:test/ConsumerProducer_C_API_test.cpp ****         Riscv::printInteger(key);
 262              		.loc 1 79 9 is_stmt 1
  79:test/ConsumerProducer_C_API_test.cpp ****         Riscv::printInteger(key);
 263              		.loc 1 79 27 is_stmt 0
 264 01bc 17050000 		lla	a0,.LC7
 264      13050500 
 265 01c4 97000000 		call	_ZN5Riscv11printStringEPKc@plt
 265      E7800000 
 266              	.LVL33:
  80:test/ConsumerProducer_C_API_test.cpp **** 
 267              		.loc 1 80 9 is_stmt 1
  80:test/ConsumerProducer_C_API_test.cpp **** 
 268              		.loc 1 80 28 is_stmt 0
 269 01cc 13050900 		mv	a0,s2
 270 01d0 97000000 		call	_ZN5Riscv12printIntegerEm@plt
 270      E7800000 
 271              	.LVL34:
  82:test/ConsumerProducer_C_API_test.cpp ****             Riscv::printString("dispatching\n");
 272              		.loc 1 82 9 is_stmt 1
  82:test/ConsumerProducer_C_API_test.cpp ****             Riscv::printString("dispatching\n");
 273              		.loc 1 82 28 is_stmt 0
 274 01d8 03270A00 		lw	a4,0(s4)
  82:test/ConsumerProducer_C_API_test.cpp ****             Riscv::printString("dispatching\n");
 275              		.loc 1 82 20
 276 01dc 9B172700 		slliw	a5,a4,2
 277 01e0 BB87E700 		addw	a5,a5,a4
  82:test/ConsumerProducer_C_API_test.cpp ****             Riscv::printString("dispatching\n");
 278              		.loc 1 82 15
 279 01e4 BBE7F402 		remw	a5,s1,a5
  82:test/ConsumerProducer_C_API_test.cpp ****             Riscv::printString("dispatching\n");
 280              		.loc 1 82 9
 281 01e8 E38407F6 		beqz	a5,.L14
 282              	.L11:
  87:test/ConsumerProducer_C_API_test.cpp ****            Riscv::printString("\n");
 283              		.loc 1 87 9 is_stmt 1
  87:test/ConsumerProducer_C_API_test.cpp ****            Riscv::printString("\n");
 284              		.loc 1 87 15 is_stmt 0
 285 01ec 93070005 		li	a5,80
 286 01f0 BBE4F402 		remw	s1,s1,a5
 287              	.LVL35:
  87:test/ConsumerProducer_C_API_test.cpp ****            Riscv::printString("\n");
GAS LISTING /tmp/cchSgExa.s 			page 9


 288              		.loc 1 87 9
 289 01f4 E39404F8 		bnez	s1,.L9
 290 01f8 6FF05FF7 		j	.L15
 291              	.LVL36:
 292              	.L10:
 293              	.LBE3:
  89:test/ConsumerProducer_C_API_test.cpp ****         }
  90:test/ConsumerProducer_C_API_test.cpp ****     }
  91:test/ConsumerProducer_C_API_test.cpp **** 
  92:test/ConsumerProducer_C_API_test.cpp ****     Riscv::printString("consumer done\n");
 294              		.loc 1 92 5 is_stmt 1
 295              		.loc 1 92 23 is_stmt 0
 296 01fc 17050000 		lla	a0,.LC9
 296      13050500 
 297 0204 97000000 		call	_ZN5Riscv11printStringEPKc@plt
 297      E7800000 
 298              	.LVL37:
  93:test/ConsumerProducer_C_API_test.cpp ****     sem_signal(data->wait);
 299              		.loc 1 93 5 is_stmt 1
 300              		.loc 1 93 15 is_stmt 0
 301 020c 03350A01 		ld	a0,16(s4)
 302 0210 97000000 		call	sem_signal@plt
 302      E7800000 
 303              	.LVL38:
  94:test/ConsumerProducer_C_API_test.cpp **** }
 304              		.loc 1 94 1
 305 0218 83308102 		ld	ra,40(sp)
 306              		.cfi_restore 1
 307 021c 03340102 		ld	s0,32(sp)
 308              		.cfi_restore 8
 309              		.cfi_def_cfa 2, 48
 310 0220 83348101 		ld	s1,24(sp)
 311              		.cfi_restore 9
 312 0224 03390101 		ld	s2,16(sp)
 313              		.cfi_restore 18
 314 0228 83398100 		ld	s3,8(sp)
 315              		.cfi_restore 19
 316              	.LVL39:
 317 022c 033A0100 		ld	s4,0(sp)
 318              		.cfi_restore 20
 319              	.LVL40:
 320 0230 13010103 		addi	sp,sp,48
 321              		.cfi_def_cfa_offset 0
 322 0234 67800000 		jr	ra
 323              		.cfi_endproc
 324              	.LFE20:
 326              		.align	2
 327              		.globl	_Z16producerKeyboardPv
 329              	_Z16producerKeyboardPv:
 330              	.LFB18:
  17:test/ConsumerProducer_C_API_test.cpp ****     struct thread_data *data = (struct thread_data *) arg;
 331              		.loc 1 17 34 is_stmt 1
 332              		.cfi_startproc
 333              	.LVL41:
 334 0238 130101FE 		addi	sp,sp,-32
 335              		.cfi_def_cfa_offset 32
 336 023c 233C1100 		sd	ra,24(sp)
GAS LISTING /tmp/cchSgExa.s 			page 10


 337 0240 23388100 		sd	s0,16(sp)
 338 0244 23349100 		sd	s1,8(sp)
 339 0248 23302101 		sd	s2,0(sp)
 340              		.cfi_offset 1, -8
 341              		.cfi_offset 8, -16
 342              		.cfi_offset 9, -24
 343              		.cfi_offset 18, -32
 344 024c 13040102 		addi	s0,sp,32
 345              		.cfi_def_cfa 8, 0
 346 0250 93040500 		mv	s1,a0
  18:test/ConsumerProducer_C_API_test.cpp **** 
 347              		.loc 1 18 5
 348              	.LVL42:
  20:test/ConsumerProducer_C_API_test.cpp ****     int i = 0;
 349              		.loc 1 20 5
  21:test/ConsumerProducer_C_API_test.cpp ****     while ((key = __getc()) != 0x1b) {
 350              		.loc 1 21 5
  21:test/ConsumerProducer_C_API_test.cpp ****     while ((key = __getc()) != 0x1b) {
 351              		.loc 1 21 9 is_stmt 0
 352 0254 13090000 		li	s2,0
 353 0258 6F00C000 		j	.L17
 354              	.LVL43:
 355              	.L22:
  27:test/ConsumerProducer_C_API_test.cpp ****         }
 356              		.loc 1 27 13 is_stmt 1
  27:test/ConsumerProducer_C_API_test.cpp ****         }
 357              		.loc 1 27 28 is_stmt 0
 358 025c 97000000 		call	thread_dispatch@plt
 358      E7800000 
 359              	.LVL44:
 360              	.L17:
  22:test/ConsumerProducer_C_API_test.cpp ****         data->buffer->put(key);
 361              		.loc 1 22 5 is_stmt 1
  22:test/ConsumerProducer_C_API_test.cpp ****         data->buffer->put(key);
 362              		.loc 1 22 29
  22:test/ConsumerProducer_C_API_test.cpp ****         data->buffer->put(key);
 363              		.loc 1 22 25 is_stmt 0
 364 0264 97000000 		call	__getc@plt
 364      E7800000 
 365              	.LVL45:
  22:test/ConsumerProducer_C_API_test.cpp ****         data->buffer->put(key);
 366              		.loc 1 22 17
 367 026c 9B050500 		sext.w	a1,a0
 368              	.LVL46:
  22:test/ConsumerProducer_C_API_test.cpp ****         data->buffer->put(key);
 369              		.loc 1 22 29
 370 0270 9307B001 		li	a5,27
 371 0274 638AF502 		beq	a1,a5,.L18
  23:test/ConsumerProducer_C_API_test.cpp ****         i++;
 372              		.loc 1 23 9 is_stmt 1
  23:test/ConsumerProducer_C_API_test.cpp ****         i++;
 373              		.loc 1 23 26 is_stmt 0
 374 0278 03B58400 		ld	a0,8(s1)
 375 027c 97000000 		call	_ZN6Buffer3putEi@plt
 375      E7800000 
 376              	.LVL47:
  24:test/ConsumerProducer_C_API_test.cpp **** 
GAS LISTING /tmp/cchSgExa.s 			page 11


 377              		.loc 1 24 9 is_stmt 1
  24:test/ConsumerProducer_C_API_test.cpp **** 
 378              		.loc 1 24 10 is_stmt 0
 379 0284 1B071900 		addiw	a4,s2,1
 380 0288 1B090700 		sext.w	s2,a4
 381              	.LVL48:
  26:test/ConsumerProducer_C_API_test.cpp ****             thread_dispatch();
 382              		.loc 1 26 9 is_stmt 1
  26:test/ConsumerProducer_C_API_test.cpp ****             thread_dispatch();
 383              		.loc 1 26 29 is_stmt 0
 384 028c 83A60400 		lw	a3,0(s1)
  26:test/ConsumerProducer_C_API_test.cpp ****             thread_dispatch();
 385              		.loc 1 26 21
 386 0290 9B972600 		slliw	a5,a3,2
 387 0294 BB87D700 		addw	a5,a5,a3
 388 0298 9B971700 		slliw	a5,a5,1
  26:test/ConsumerProducer_C_API_test.cpp ****             thread_dispatch();
 389              		.loc 1 26 15
 390 029c BB67F702 		remw	a5,a4,a5
  26:test/ConsumerProducer_C_API_test.cpp ****             thread_dispatch();
 391              		.loc 1 26 9
 392 02a0 E39207FC 		bnez	a5,.L17
 393 02a4 6FF09FFB 		j	.L22
 394              	.LVL49:
 395              	.L18:
  31:test/ConsumerProducer_C_API_test.cpp **** 
 396              		.loc 1 31 5 is_stmt 1
  31:test/ConsumerProducer_C_API_test.cpp **** 
 397              		.loc 1 31 15 is_stmt 0
 398 02a8 93071000 		li	a5,1
 399 02ac 17070000 		sw	a5,.LANCHOR0,a4
 399      2320F700 
  33:test/ConsumerProducer_C_API_test.cpp **** 
 400              		.loc 1 33 5 is_stmt 1
  33:test/ConsumerProducer_C_API_test.cpp **** 
 401              		.loc 1 33 18 is_stmt 0
 402 02b4 03B98400 		ld	s2,8(s1)
 403              	.LVL50:
  33:test/ConsumerProducer_C_API_test.cpp **** 
 404              		.loc 1 33 24
 405 02b8 630E0900 		beqz	s2,.L20
  33:test/ConsumerProducer_C_API_test.cpp **** 
 406              		.loc 1 33 18 discriminator 1
 407 02bc 13050900 		mv	a0,s2
 408 02c0 97000000 		call	_ZN6BufferD1Ev@plt
 408      E7800000 
 409              	.LVL51:
 410 02c8 13050900 		mv	a0,s2
 411 02cc 97000000 		call	_ZdlPv@plt
 411      E7800000 
 412              	.LVL52:
 413              	.L20:
  35:test/ConsumerProducer_C_API_test.cpp **** }
 414              		.loc 1 35 5 is_stmt 1
  35:test/ConsumerProducer_C_API_test.cpp **** }
 415              		.loc 1 35 15 is_stmt 0
 416 02d4 03B50401 		ld	a0,16(s1)
GAS LISTING /tmp/cchSgExa.s 			page 12


 417 02d8 97000000 		call	sem_signal@plt
 417      E7800000 
 418              	.LVL53:
  36:test/ConsumerProducer_C_API_test.cpp **** 
 419              		.loc 1 36 1
 420 02e0 83308101 		ld	ra,24(sp)
 421              		.cfi_restore 1
 422 02e4 03340101 		ld	s0,16(sp)
 423              		.cfi_restore 8
 424              		.cfi_def_cfa 2, 32
 425 02e8 83348100 		ld	s1,8(sp)
 426              		.cfi_restore 9
 427              	.LVL54:
 428 02ec 03390100 		ld	s2,0(sp)
 429              		.cfi_restore 18
 430 02f0 13010102 		addi	sp,sp,32
 431              		.cfi_def_cfa_offset 0
 432 02f4 67800000 		jr	ra
 433              		.cfi_endproc
 434              	.LFE18:
 436              		.section	.rodata.str1.8
 437 0097 00       		.align	3
 438              	.LC10:
 439 0098 556E6573 		.string	"Unesite broj proizvodjaca?\n"
 439      69746520 
 439      62726F6A 
 439      2070726F 
 439      697A766F 
 440 00b4 00000000 		.align	3
 441              	.LC11:
 442 00b8 556E6573 		.string	"Unesite velicinu bafera?\n"
 442      69746520 
 442      76656C69 
 442      63696E75 
 442      20626166 
 443 00d2 00000000 		.align	3
 443      0000
 444              	.LC12:
 445 00d8 42726F6A 		.string	"Broj proizvodjaca "
 445      2070726F 
 445      697A766F 
 445      646A6163 
 445      612000
 446 00eb 00000000 		.align	3
 446      00
 447              	.LC13:
 448 00f0 20692076 		.string	" i velicina bafera "
 448      656C6963 
 448      696E6120 
 448      62616665 
 448      72612000 
 449 0104 00000000 		.align	3
 450              	.LC14:
 451 0108 2E0A00   		.string	".\n"
 452              		.text
 453              		.align	2
 454              		.globl	_Z22producerConsumer_C_APIv
GAS LISTING /tmp/cchSgExa.s 			page 13


 456              	_Z22producerConsumer_C_APIv:
 457              	.LFB21:
  95:test/ConsumerProducer_C_API_test.cpp **** 
  96:test/ConsumerProducer_C_API_test.cpp **** //todo
  97:test/ConsumerProducer_C_API_test.cpp **** //threadNuma hardCoded, timer enables itself as soon as
  98:test/ConsumerProducer_C_API_test.cpp **** //code gets into getString
  99:test/ConsumerProducer_C_API_test.cpp **** //isto za bafer
 100:test/ConsumerProducer_C_API_test.cpp **** void producerConsumer_C_API()
 101:test/ConsumerProducer_C_API_test.cpp **** {
 458              		.loc 1 101 1 is_stmt 1
 459              		.cfi_startproc
 460              		.cfi_personality 0x9b,DW.ref.__gxx_personality_v0
 461              		.cfi_lsda 0x1b,.LLSDA21
 462 02f8 130101FA 		addi	sp,sp,-96
 463              		.cfi_def_cfa_offset 96
 464 02fc 233C1104 		sd	ra,88(sp)
 465 0300 23388104 		sd	s0,80(sp)
 466 0304 23349104 		sd	s1,72(sp)
 467 0308 23302105 		sd	s2,64(sp)
 468              		.cfi_offset 1, -8
 469              		.cfi_offset 8, -16
 470              		.cfi_offset 9, -24
 471              		.cfi_offset 18, -32
 472 030c 13040106 		addi	s0,sp,96
 473              		.cfi_def_cfa 8, 0
 102:test/ConsumerProducer_C_API_test.cpp ****     //char input[30];
 103:test/ConsumerProducer_C_API_test.cpp ****     int n, threadNum;
 474              		.loc 1 103 5
 104:test/ConsumerProducer_C_API_test.cpp **** 
 105:test/ConsumerProducer_C_API_test.cpp ****     printString("Unesite broj proizvodjaca?\n");
 475              		.loc 1 105 5
 476              		.loc 1 105 16 is_stmt 0
 477 0310 17050000 		lla	a0,.LC10
 477      13050500 
 478              	.LEHB0:
 479 0318 97000000 		call	_Z11printStringPKc@plt
 479      E7800000 
 480              	.LVL55:
 106:test/ConsumerProducer_C_API_test.cpp ****     //getString(input, 30);
 107:test/ConsumerProducer_C_API_test.cpp ****     threadNum = 1;
 481              		.loc 1 107 5 is_stmt 1
 108:test/ConsumerProducer_C_API_test.cpp **** 
 109:test/ConsumerProducer_C_API_test.cpp ****     printString("Unesite velicinu bafera?\n");
 482              		.loc 1 109 5
 483              		.loc 1 109 16 is_stmt 0
 484 0320 17050000 		lla	a0,.LC11
 484      13050500 
 485 0328 97000000 		call	_Z11printStringPKc@plt
 485      E7800000 
 486              	.LVL56:
 110:test/ConsumerProducer_C_API_test.cpp ****     //getString(input, 30);
 111:test/ConsumerProducer_C_API_test.cpp ****     n = 3;
 487              		.loc 1 111 5 is_stmt 1
 112:test/ConsumerProducer_C_API_test.cpp **** 
 113:test/ConsumerProducer_C_API_test.cpp ****     printString("Broj proizvodjaca "); printInt(threadNum);
 488              		.loc 1 113 5
 489              		.loc 1 113 16 is_stmt 0
GAS LISTING /tmp/cchSgExa.s 			page 14


 490 0330 17050000 		lla	a0,.LC12
 490      13050500 
 491 0338 97000000 		call	_Z11printStringPKc@plt
 491      E7800000 
 492              	.LVL57:
 493              		.loc 1 113 40 is_stmt 1
 494              		.loc 1 113 48 is_stmt 0
 495 0340 13060000 		li	a2,0
 496 0344 9305A000 		li	a1,10
 497 0348 13051000 		li	a0,1
 498 034c 97000000 		call	_Z8printIntiii@plt
 498      E7800000 
 499              	.LVL58:
 114:test/ConsumerProducer_C_API_test.cpp ****     printString(" i velicina bafera "); printInt(n);
 500              		.loc 1 114 5 is_stmt 1
 501              		.loc 1 114 16 is_stmt 0
 502 0354 17050000 		lla	a0,.LC13
 502      13050500 
 503 035c 97000000 		call	_Z11printStringPKc@plt
 503      E7800000 
 504              	.LVL59:
 505              		.loc 1 114 41 is_stmt 1
 506              		.loc 1 114 49 is_stmt 0
 507 0364 13060000 		li	a2,0
 508 0368 9305A000 		li	a1,10
 509 036c 13053000 		li	a0,3
 510 0370 97000000 		call	_Z8printIntiii@plt
 510      E7800000 
 511              	.LVL60:
 115:test/ConsumerProducer_C_API_test.cpp ****     printString(".\n");
 512              		.loc 1 115 5 is_stmt 1
 513              		.loc 1 115 16 is_stmt 0
 514 0378 17050000 		lla	a0,.LC14
 514      13050500 
 515 0380 97000000 		call	_Z11printStringPKc@plt
 515      E7800000 
 516              	.LVL61:
 116:test/ConsumerProducer_C_API_test.cpp **** 
 117:test/ConsumerProducer_C_API_test.cpp ****     Buffer *buffer = new Buffer(n);
 517              		.loc 1 117 5 is_stmt 1
 518              		.loc 1 117 34 is_stmt 0
 519 0388 13058003 		li	a0,56
 520 038c 97000000 		call	_Znwm@plt
 520      E7800000 
 521              	.LVL62:
 522              	.LEHE0:
 523 0394 13090500 		mv	s2,a0
 524 0398 93053000 		li	a1,3
 525              	.LEHB1:
 526 039c 97000000 		call	_ZN6BufferC1Ei@plt
 526      E7800000 
 527              	.LVL63:
 528              	.LEHE1:
 118:test/ConsumerProducer_C_API_test.cpp **** 
 119:test/ConsumerProducer_C_API_test.cpp ****     sem_open(&waitForAll, 0);
 529              		.loc 1 119 5 is_stmt 1 discriminator 3
 530              		.loc 1 119 13 is_stmt 0 discriminator 3
GAS LISTING /tmp/cchSgExa.s 			page 15


 531 03a4 93050000 		li	a1,0
 532 03a8 17050000 		lla	a0,.LANCHOR0+8
 532      13050500 
 533              	.LEHB2:
 534 03b0 97000000 		call	sem_open@plt
 534      E7800000 
 535              	.LVL64:
 120:test/ConsumerProducer_C_API_test.cpp **** 
 121:test/ConsumerProducer_C_API_test.cpp ****     thread_t threads[threadNum];
 536              		.loc 1 121 5 is_stmt 1 discriminator 3
 122:test/ConsumerProducer_C_API_test.cpp ****     thread_t consumerThread;
 537              		.loc 1 122 5 discriminator 3
 123:test/ConsumerProducer_C_API_test.cpp **** 
 124:test/ConsumerProducer_C_API_test.cpp ****     struct thread_data data[threadNum + 1];
 538              		.loc 1 124 5 discriminator 3
 125:test/ConsumerProducer_C_API_test.cpp **** 
 126:test/ConsumerProducer_C_API_test.cpp ****     data[threadNum].id = threadNum;
 539              		.loc 1 126 5 discriminator 3
 540              		.loc 1 126 24 is_stmt 0 discriminator 3
 541 03b8 93071000 		li	a5,1
 542 03bc 232CF4FA 		sw	a5,-72(s0)
 127:test/ConsumerProducer_C_API_test.cpp ****     data[threadNum].buffer = buffer;
 543              		.loc 1 127 5 is_stmt 1 discriminator 3
 544              		.loc 1 127 28 is_stmt 0 discriminator 3
 545 03c0 233024FD 		sd	s2,-64(s0)
 128:test/ConsumerProducer_C_API_test.cpp ****     data[threadNum].wait = waitForAll;
 546              		.loc 1 128 5 is_stmt 1 discriminator 3
 547              		.loc 1 128 26 is_stmt 0 discriminator 3
 548 03c4 97070000 		ld	a5,.LANCHOR0+8
 548      83B70700 
 549 03cc 2334F4FC 		sd	a5,-56(s0)
 129:test/ConsumerProducer_C_API_test.cpp ****     thread_create(&consumerThread, consumer, data + threadNum);
 550              		.loc 1 129 5 is_stmt 1 discriminator 3
 551              		.loc 1 129 18 is_stmt 0 discriminator 3
 552 03d0 130684FB 		addi	a2,s0,-72
 553 03d4 97050000 		lla	a1,_Z8consumerPv
 553      93850500 
 554 03dc 130504FD 		addi	a0,s0,-48
 555 03e0 97000000 		call	thread_create@plt
 555      E7800000 
 556              	.LVL65:
 557              	.LBB4:
 130:test/ConsumerProducer_C_API_test.cpp **** 
 131:test/ConsumerProducer_C_API_test.cpp ****     for (int i = 0; i < threadNum; i++) {
 558              		.loc 1 131 14 discriminator 3
 559 03e8 93040000 		li	s1,0
 560              	.L25:
 561              	.LVL66:
 562              		.loc 1 131 23 is_stmt 1 discriminator 1
 563 03ec 63409006 		bgtz	s1,.L24
 132:test/ConsumerProducer_C_API_test.cpp ****         data[i].id = i;
 564              		.loc 1 132 9
 565              		.loc 1 132 20 is_stmt 0
 566 03f0 13961400 		slli	a2,s1,1
 567 03f4 B3079600 		add	a5,a2,s1
 568 03f8 93973700 		slli	a5,a5,3
 569 03fc 130704FE 		addi	a4,s0,-32
GAS LISTING /tmp/cchSgExa.s 			page 16


 570 0400 B307F700 		add	a5,a4,a5
 571 0404 23A097FC 		sw	s1,-64(a5)
 133:test/ConsumerProducer_C_API_test.cpp ****         data[i].buffer = buffer;
 572              		.loc 1 133 9 is_stmt 1
 573              		.loc 1 133 24 is_stmt 0
 574 0408 23B427FD 		sd	s2,-56(a5)
 134:test/ConsumerProducer_C_API_test.cpp ****         data[i].wait = waitForAll;
 575              		.loc 1 134 9 is_stmt 1
 576              		.loc 1 134 22 is_stmt 0
 577 040c 17070000 		ld	a4,.LANCHOR0+8
 577      03370700 
 578 0414 23B8E7FC 		sd	a4,-48(a5)
 135:test/ConsumerProducer_C_API_test.cpp **** 
 136:test/ConsumerProducer_C_API_test.cpp ****         //todo changed
 137:test/ConsumerProducer_C_API_test.cpp ****         //thread_create(threads + i,
 138:test/ConsumerProducer_C_API_test.cpp ****         //              i > 0 ? producer : producerKeyboard,
 139:test/ConsumerProducer_C_API_test.cpp ****         //              data + i);
 140:test/ConsumerProducer_C_API_test.cpp **** 
 141:test/ConsumerProducer_C_API_test.cpp ****         thread_create(threads + i, producer, data + i);
 579              		.loc 1 141 9 is_stmt 1
 580              		.loc 1 141 31 is_stmt 0
 581 0418 93973400 		slli	a5,s1,3
 582              		.loc 1 141 51
 583 041c 33069600 		add	a2,a2,s1
 584 0420 13163600 		slli	a2,a2,3
 585              		.loc 1 141 22
 586 0424 130704FA 		addi	a4,s0,-96
 587              	.LVL67:
 588 0428 3306C700 		add	a2,a4,a2
 589 042c 97050000 		lla	a1,_Z8producerPv
 589      93850500 
 590 0434 130584FD 		addi	a0,s0,-40
 591              	.LVL68:
 592 0438 3305F500 		add	a0,a0,a5
 593              	.LVL69:
 594 043c 97000000 		call	thread_create@plt
 594      E7800000 
 595              	.LVL70:
 131:test/ConsumerProducer_C_API_test.cpp ****         data[i].id = i;
 596              		.loc 1 131 5 is_stmt 1
 597 0444 9B841400 		addiw	s1,s1,1
 598              	.LVL71:
 599 0448 6FF05FFA 		j	.L25
 600              	.LVL72:
 601              	.L24:
 602              	.LBE4:
 142:test/ConsumerProducer_C_API_test.cpp **** 
 143:test/ConsumerProducer_C_API_test.cpp ****     }
 144:test/ConsumerProducer_C_API_test.cpp **** 
 145:test/ConsumerProducer_C_API_test.cpp ****     thread_dispatch();
 603              		.loc 1 145 5
 604              		.loc 1 145 20 is_stmt 0
 605 044c 97000000 		call	thread_dispatch@plt
 605      E7800000 
 606              	.LVL73:
 607              	.LBB5:
 146:test/ConsumerProducer_C_API_test.cpp **** 
GAS LISTING /tmp/cchSgExa.s 			page 17


 147:test/ConsumerProducer_C_API_test.cpp ****     for (int i = 0; i <= threadNum; i++) {
 608              		.loc 1 147 14
 609 0454 93040000 		li	s1,0
 610              	.LVL74:
 611 0458 6F008001 		j	.L27
 612              	.LVL75:
 613              	.L32:
 148:test/ConsumerProducer_C_API_test.cpp ****         sem_wait(waitForAll);
 614              		.loc 1 148 9 is_stmt 1
 615              		.loc 1 148 17 is_stmt 0
 616 045c 17050000 		ld	a0,.LANCHOR0+8
 616      03350500 
 617 0464 97000000 		call	sem_wait@plt
 617      E7800000 
 618              	.LVL76:
 147:test/ConsumerProducer_C_API_test.cpp ****         sem_wait(waitForAll);
 619              		.loc 1 147 5 is_stmt 1
 620 046c 9B841400 		addiw	s1,s1,1
 621              	.LVL77:
 622              	.L27:
 147:test/ConsumerProducer_C_API_test.cpp ****         sem_wait(waitForAll);
 623              		.loc 1 147 23 discriminator 1
 624 0470 93071000 		li	a5,1
 625 0474 E3D497FE 		ble	s1,a5,.L32
 626              	.LBE5:
 149:test/ConsumerProducer_C_API_test.cpp ****     }
 150:test/ConsumerProducer_C_API_test.cpp **** 
 151:test/ConsumerProducer_C_API_test.cpp ****     sem_close(waitForAll);
 627              		.loc 1 151 5
 628              		.loc 1 151 14 is_stmt 0
 629 0478 17050000 		ld	a0,.LANCHOR0+8
 629      03350500 
 630 0480 97000000 		call	sem_close@plt
 630      E7800000 
 631              	.LVL78:
 152:test/ConsumerProducer_C_API_test.cpp **** }...
 632              		.loc 1 152 1
 633 0488 83308105 		ld	ra,88(sp)
 634              		.cfi_remember_state
 635              		.cfi_restore 1
 636 048c 03340105 		ld	s0,80(sp)
 637              		.cfi_restore 8
 638              		.cfi_def_cfa 2, 96
 639              	.LVL79:
 640 0490 83348104 		ld	s1,72(sp)
 641              		.cfi_restore 9
 642              	.LVL80:
 643 0494 03390104 		ld	s2,64(sp)
 644              		.cfi_restore 18
 645              	.LVL81:
 646 0498 13010106 		addi	sp,sp,96
 647              		.cfi_def_cfa_offset 0
 648              	.LVL82:
 649 049c 67800000 		jr	ra
 650              	.LVL83:
 651              	.L29:
 652              		.cfi_restore_state
GAS LISTING /tmp/cchSgExa.s 			page 18


 653 04a0 93040500 		mv	s1,a0
 117:test/ConsumerProducer_C_API_test.cpp ****     Buffer *buffer = new Buffer(n);
 654              		.loc 1 117 34
 655 04a4 13050900 		mv	a0,s2
 656 04a8 97000000 		call	_ZdlPv@plt
 656      E7800000 
 657              	.LVL84:
 658 04b0 13850400 		mv	a0,s1
 659 04b4 97000000 		call	_Unwind_Resume@plt
 659      E7800000 
 660              	.LVL85:
 661              	.LEHE2:
 662              		.cfi_endproc
 663              	.LFE21:
 664              		.globl	__gxx_personality_v0
 665              		.section	.gcc_except_table,"a",@progbits
 666              	.LLSDA21:
 667 0000 FF       		.byte	0xff
 668 0001 FF       		.byte	0xff
 669 0002 03       		.byte	0x3
 670 0003 27       		.byte	0x27
 671 0004 00000000 		.4byte	.LEHB0-.LFB21
 672 0008 00000000 		.4byte	.LEHE0-.LEHB0
 673 000c 00000000 		.4byte	0
 674 0010 00       		.byte	0
 675 0011 00000000 		.4byte	.LEHB1-.LFB21
 676 0015 00000000 		.4byte	.LEHE1-.LEHB1
 677 0019 00000000 		.4byte	.L29-.LFB21
 678 001d 00       		.byte	0
 679 001e 00000000 		.4byte	.LEHB2-.LFB21
 680 0022 00000000 		.4byte	.LEHE2-.LEHB2
 681 0026 00000000 		.4byte	0
 682 002a 00       		.byte	0
 683              		.text
 685              		.globl	threadEnd
 686              		.globl	waitForAll
 687              		.bss
 688              		.align	3
 689              		.set	.LANCHOR0,. + 0
 692              	threadEnd:
 693 0000 00000000 		.zero	4
 694 0004 00000000 		.zero	4
 697              	waitForAll:
 698 0008 00000000 		.zero	8
 698      00000000 
 699              		.text
 700              	.Letext0:
 701              		.file 2 "test/../h/../lib/hw.h"
 702              		.file 3 "test/../h/syscall_c.h"
 703              		.file 4 "test/buffer.hpp"
 704              		.file 5 "test/../h/Riscv.hpp"
 705              		.file 6 "test/printing.hpp"
 706              		.file 7 "test/../lib/console.h"
 3347              		.align	3
 3350              	DW.ref.__gxx_personality_v0:
 3351 0000 00000000 		.dword	__gxx_personality_v0
 3351      00000000 
GAS LISTING /tmp/cchSgExa.s 			page 19


 3352              		.ident	"GCC: (Ubuntu 9.3.0-17ubuntu1~20.04) 9.3.0"
 3353              		.section	.note.GNU-stack,"",@progbits
GAS LISTING /tmp/cchSgExa.s 			page 20


DEFINED SYMBOLS
                            *ABS*:0000000000000000 ConsumerProducer_C_API_test.cpp
     /tmp/cchSgExa.s:26     .text:0000000000000000 _Z8producerPv
     /tmp/cchSgExa.s:30     .text:0000000000000000 .L0 
     /tmp/cchSgExa.s:32     .text:0000000000000000 .L0 
     /tmp/cchSgExa.s:33     .text:0000000000000004 .L0 
     /tmp/cchSgExa.s:38     .text:0000000000000014 .L0 
     /tmp/cchSgExa.s:39     .text:0000000000000014 .L0 
     /tmp/cchSgExa.s:40     .text:0000000000000014 .L0 
     /tmp/cchSgExa.s:41     .text:0000000000000014 .L0 
     /tmp/cchSgExa.s:43     .text:0000000000000018 .L0 
     /tmp/cchSgExa.s:47     .text:000000000000001c .L0 
     /tmp/cchSgExa.s:48     .text:000000000000001c .L0 
     /tmp/cchSgExa.s:49     .text:000000000000001c .L0 
     /tmp/cchSgExa.s:54     .text:000000000000002c .L0 
     /tmp/cchSgExa.s:55     .text:000000000000002c .L0 
     /tmp/cchSgExa.s:59     .text:0000000000000030 .L0 
     /tmp/cchSgExa.s:60     .text:0000000000000030 .L0 
     /tmp/cchSgExa.s:63     .text:000000000000003c .L0 
     /tmp/cchSgExa.s:64     .text:000000000000003c .L0 
     /tmp/cchSgExa.s:68     .text:000000000000004c .L0 
     /tmp/cchSgExa.s:69     .text:000000000000004c .L0 
     /tmp/cchSgExa.s:73     .text:0000000000000058 .L0 
     /tmp/cchSgExa.s:74     .text:0000000000000058 .L0 
     /tmp/cchSgExa.s:78     .text:0000000000000068 .L0 
     /tmp/cchSgExa.s:79     .text:0000000000000068 .L0 
     /tmp/cchSgExa.s:81     .text:000000000000006c .L0 
     /tmp/cchSgExa.s:85     .text:0000000000000078 .L0 
     /tmp/cchSgExa.s:86     .text:0000000000000078 .L0 
     /tmp/cchSgExa.s:88     .text:000000000000007c .L0 
     /tmp/cchSgExa.s:93     .text:000000000000008c .L0 
     /tmp/cchSgExa.s:94     .text:000000000000008c .L0 
     /tmp/cchSgExa.s:98     .text:0000000000000094 .L0 
     /tmp/cchSgExa.s:99     .text:0000000000000094 .L0 
     /tmp/cchSgExa.s:101    .text:0000000000000098 .L0 
     /tmp/cchSgExa.s:105    .text:00000000000000a4 .L0 
     /tmp/cchSgExa.s:107    .text:00000000000000a8 .L0 
     /tmp/cchSgExa.s:111    .text:00000000000000ac .L0 
     /tmp/cchSgExa.s:114    .text:00000000000000b4 .L0 
     /tmp/cchSgExa.s:115    .text:00000000000000b4 .L0 
     /tmp/cchSgExa.s:121    .text:00000000000000c4 .L0 
     /tmp/cchSgExa.s:122    .text:00000000000000c4 .L0 
     /tmp/cchSgExa.s:126    .text:00000000000000d4 .L0 
     /tmp/cchSgExa.s:127    .text:00000000000000d4 .L0 
     /tmp/cchSgExa.s:132    .text:00000000000000e0 .L0 
     /tmp/cchSgExa.s:133    .text:00000000000000e0 .L0 
     /tmp/cchSgExa.s:137    .text:00000000000000f0 .L0 
     /tmp/cchSgExa.s:138    .text:00000000000000f0 .L0 
     /tmp/cchSgExa.s:142    .text:00000000000000fc .L0 
     /tmp/cchSgExa.s:143    .text:0000000000000100 .L0 
     /tmp/cchSgExa.s:145    .text:0000000000000104 .L0 
     /tmp/cchSgExa.s:146    .text:0000000000000104 .L0 
     /tmp/cchSgExa.s:148    .text:0000000000000108 .L0 
     /tmp/cchSgExa.s:151    .text:000000000000010c .L0 
     /tmp/cchSgExa.s:154    .text:0000000000000110 .L0 
     /tmp/cchSgExa.s:156    .text:0000000000000114 .L0 
     /tmp/cchSgExa.s:179    .text:0000000000000114 _Z8consumerPv
GAS LISTING /tmp/cchSgExa.s 			page 21


     /tmp/cchSgExa.s:182    .text:0000000000000114 .L0 
     /tmp/cchSgExa.s:184    .text:0000000000000114 .L0 
     /tmp/cchSgExa.s:185    .text:0000000000000118 .L0 
     /tmp/cchSgExa.s:192    .text:0000000000000130 .L0 
     /tmp/cchSgExa.s:193    .text:0000000000000130 .L0 
     /tmp/cchSgExa.s:194    .text:0000000000000130 .L0 
     /tmp/cchSgExa.s:195    .text:0000000000000130 .L0 
     /tmp/cchSgExa.s:196    .text:0000000000000130 .L0 
     /tmp/cchSgExa.s:197    .text:0000000000000130 .L0 
     /tmp/cchSgExa.s:199    .text:0000000000000134 .L0 
     /tmp/cchSgExa.s:203    .text:0000000000000138 .L0 
     /tmp/cchSgExa.s:204    .text:0000000000000138 .L0 
     /tmp/cchSgExa.s:205    .text:0000000000000138 .L0 
     /tmp/cchSgExa.s:210    .text:0000000000000148 .L0 
     /tmp/cchSgExa.s:211    .text:0000000000000148 .L0 
     /tmp/cchSgExa.s:217    .text:0000000000000150 .L0 
     /tmp/cchSgExa.s:218    .text:0000000000000150 .L0 
     /tmp/cchSgExa.s:222    .text:0000000000000160 .L0 
     /tmp/cchSgExa.s:223    .text:0000000000000160 .L0 
     /tmp/cchSgExa.s:229    .text:000000000000016c .L0 
     /tmp/cchSgExa.s:230    .text:000000000000016c .L0 
     /tmp/cchSgExa.s:236    .text:000000000000017c .L0 
     /tmp/cchSgExa.s:237    .text:000000000000017c .L0 
     /tmp/cchSgExa.s:241    .text:0000000000000188 .L0 
     /tmp/cchSgExa.s:242    .text:0000000000000188 .L0 
     /tmp/cchSgExa.s:246    .text:0000000000000198 .L0 
     /tmp/cchSgExa.s:247    .text:0000000000000198 .L0 
     /tmp/cchSgExa.s:251    .text:00000000000001a4 .L0 
     /tmp/cchSgExa.s:252    .text:00000000000001a4 .L0 
     /tmp/cchSgExa.s:258    .text:00000000000001b4 .L0 
     /tmp/cchSgExa.s:259    .text:00000000000001b4 .L0 
     /tmp/cchSgExa.s:263    .text:00000000000001bc .L0 
     /tmp/cchSgExa.s:264    .text:00000000000001bc .L0 
     /tmp/cchSgExa.s:268    .text:00000000000001cc .L0 
     /tmp/cchSgExa.s:269    .text:00000000000001cc .L0 
     /tmp/cchSgExa.s:273    .text:00000000000001d8 .L0 
     /tmp/cchSgExa.s:274    .text:00000000000001d8 .L0 
     /tmp/cchSgExa.s:276    .text:00000000000001dc .L0 
     /tmp/cchSgExa.s:279    .text:00000000000001e4 .L0 
     /tmp/cchSgExa.s:281    .text:00000000000001e8 .L0 
     /tmp/cchSgExa.s:284    .text:00000000000001ec .L0 
     /tmp/cchSgExa.s:285    .text:00000000000001ec .L0 
     /tmp/cchSgExa.s:289    .text:00000000000001f4 .L0 
     /tmp/cchSgExa.s:295    .text:00000000000001fc .L0 
     /tmp/cchSgExa.s:296    .text:00000000000001fc .L0 
     /tmp/cchSgExa.s:300    .text:000000000000020c .L0 
     /tmp/cchSgExa.s:301    .text:000000000000020c .L0 
     /tmp/cchSgExa.s:305    .text:0000000000000218 .L0 
     /tmp/cchSgExa.s:306    .text:000000000000021c .L0 
     /tmp/cchSgExa.s:308    .text:0000000000000220 .L0 
     /tmp/cchSgExa.s:309    .text:0000000000000220 .L0 
     /tmp/cchSgExa.s:311    .text:0000000000000224 .L0 
     /tmp/cchSgExa.s:313    .text:0000000000000228 .L0 
     /tmp/cchSgExa.s:315    .text:000000000000022c .L0 
     /tmp/cchSgExa.s:318    .text:0000000000000230 .L0 
     /tmp/cchSgExa.s:321    .text:0000000000000234 .L0 
     /tmp/cchSgExa.s:323    .text:0000000000000238 .L0 
GAS LISTING /tmp/cchSgExa.s 			page 22


     /tmp/cchSgExa.s:329    .text:0000000000000238 _Z16producerKeyboardPv
     /tmp/cchSgExa.s:332    .text:0000000000000238 .L0 
     /tmp/cchSgExa.s:334    .text:0000000000000238 .L0 
     /tmp/cchSgExa.s:335    .text:000000000000023c .L0 
     /tmp/cchSgExa.s:340    .text:000000000000024c .L0 
     /tmp/cchSgExa.s:341    .text:000000000000024c .L0 
     /tmp/cchSgExa.s:342    .text:000000000000024c .L0 
     /tmp/cchSgExa.s:343    .text:000000000000024c .L0 
     /tmp/cchSgExa.s:345    .text:0000000000000250 .L0 
     /tmp/cchSgExa.s:349    .text:0000000000000254 .L0 
     /tmp/cchSgExa.s:350    .text:0000000000000254 .L0 
     /tmp/cchSgExa.s:351    .text:0000000000000254 .L0 
     /tmp/cchSgExa.s:352    .text:0000000000000254 .L0 
     /tmp/cchSgExa.s:357    .text:000000000000025c .L0 
     /tmp/cchSgExa.s:358    .text:000000000000025c .L0 
     /tmp/cchSgExa.s:362    .text:0000000000000264 .L0 
     /tmp/cchSgExa.s:363    .text:0000000000000264 .L0 
     /tmp/cchSgExa.s:364    .text:0000000000000264 .L0 
     /tmp/cchSgExa.s:367    .text:000000000000026c .L0 
     /tmp/cchSgExa.s:370    .text:0000000000000270 .L0 
     /tmp/cchSgExa.s:373    .text:0000000000000278 .L0 
     /tmp/cchSgExa.s:374    .text:0000000000000278 .L0 
     /tmp/cchSgExa.s:378    .text:0000000000000284 .L0 
     /tmp/cchSgExa.s:379    .text:0000000000000284 .L0 
     /tmp/cchSgExa.s:383    .text:000000000000028c .L0 
     /tmp/cchSgExa.s:384    .text:000000000000028c .L0 
     /tmp/cchSgExa.s:386    .text:0000000000000290 .L0 
     /tmp/cchSgExa.s:390    .text:000000000000029c .L0 
     /tmp/cchSgExa.s:392    .text:00000000000002a0 .L0 
     /tmp/cchSgExa.s:397    .text:00000000000002a8 .L0 
     /tmp/cchSgExa.s:398    .text:00000000000002a8 .L0 
     /tmp/cchSgExa.s:401    .text:00000000000002b4 .L0 
     /tmp/cchSgExa.s:402    .text:00000000000002b4 .L0 
     /tmp/cchSgExa.s:405    .text:00000000000002b8 .L0 
     /tmp/cchSgExa.s:407    .text:00000000000002bc .L0 
     /tmp/cchSgExa.s:415    .text:00000000000002d4 .L0 
     /tmp/cchSgExa.s:416    .text:00000000000002d4 .L0 
     /tmp/cchSgExa.s:420    .text:00000000000002e0 .L0 
     /tmp/cchSgExa.s:421    .text:00000000000002e4 .L0 
     /tmp/cchSgExa.s:423    .text:00000000000002e8 .L0 
     /tmp/cchSgExa.s:424    .text:00000000000002e8 .L0 
     /tmp/cchSgExa.s:426    .text:00000000000002ec .L0 
     /tmp/cchSgExa.s:429    .text:00000000000002f0 .L0 
     /tmp/cchSgExa.s:431    .text:00000000000002f4 .L0 
     /tmp/cchSgExa.s:433    .text:00000000000002f8 .L0 
     /tmp/cchSgExa.s:456    .text:00000000000002f8 _Z22producerConsumer_C_APIv
     /tmp/cchSgExa.s:459    .text:00000000000002f8 .L0 
     /tmp/cchSgExa.s:3350   .data.rel.local.DW.ref.__gxx_personality_v0:0000000000000000 DW.ref.__gxx_personality_v0
     /tmp/cchSgExa.s:462    .text:00000000000002f8 .L0 
     /tmp/cchSgExa.s:463    .text:00000000000002fc .L0 
     /tmp/cchSgExa.s:468    .text:000000000000030c .L0 
     /tmp/cchSgExa.s:469    .text:000000000000030c .L0 
     /tmp/cchSgExa.s:470    .text:000000000000030c .L0 
     /tmp/cchSgExa.s:471    .text:000000000000030c .L0 
     /tmp/cchSgExa.s:473    .text:0000000000000310 .L0 
     /tmp/cchSgExa.s:475    .text:0000000000000310 .L0 
     /tmp/cchSgExa.s:476    .text:0000000000000310 .L0 
GAS LISTING /tmp/cchSgExa.s 			page 23


     /tmp/cchSgExa.s:477    .text:0000000000000310 .L0 
     /tmp/cchSgExa.s:482    .text:0000000000000320 .L0 
     /tmp/cchSgExa.s:483    .text:0000000000000320 .L0 
     /tmp/cchSgExa.s:484    .text:0000000000000320 .L0 
     /tmp/cchSgExa.s:488    .text:0000000000000330 .L0 
     /tmp/cchSgExa.s:489    .text:0000000000000330 .L0 
     /tmp/cchSgExa.s:490    .text:0000000000000330 .L0 
     /tmp/cchSgExa.s:494    .text:0000000000000340 .L0 
     /tmp/cchSgExa.s:495    .text:0000000000000340 .L0 
     /tmp/cchSgExa.s:501    .text:0000000000000354 .L0 
     /tmp/cchSgExa.s:502    .text:0000000000000354 .L0 
     /tmp/cchSgExa.s:506    .text:0000000000000364 .L0 
     /tmp/cchSgExa.s:507    .text:0000000000000364 .L0 
     /tmp/cchSgExa.s:513    .text:0000000000000378 .L0 
     /tmp/cchSgExa.s:514    .text:0000000000000378 .L0 
     /tmp/cchSgExa.s:518    .text:0000000000000388 .L0 
     /tmp/cchSgExa.s:519    .text:0000000000000388 .L0 
     /tmp/cchSgExa.s:530    .text:00000000000003a4 .L0 
     /tmp/cchSgExa.s:531    .text:00000000000003a4 .L0 
     /tmp/cchSgExa.s:537    .text:00000000000003b8 .L0 
     /tmp/cchSgExa.s:538    .text:00000000000003b8 .L0 
     /tmp/cchSgExa.s:539    .text:00000000000003b8 .L0 
     /tmp/cchSgExa.s:540    .text:00000000000003b8 .L0 
     /tmp/cchSgExa.s:541    .text:00000000000003b8 .L0 
     /tmp/cchSgExa.s:544    .text:00000000000003c0 .L0 
     /tmp/cchSgExa.s:545    .text:00000000000003c0 .L0 
     /tmp/cchSgExa.s:547    .text:00000000000003c4 .L0 
     /tmp/cchSgExa.s:548    .text:00000000000003c4 .L0 
     /tmp/cchSgExa.s:551    .text:00000000000003d0 .L0 
     /tmp/cchSgExa.s:552    .text:00000000000003d0 .L0 
     /tmp/cchSgExa.s:559    .text:00000000000003e8 .L0 
     /tmp/cchSgExa.s:563    .text:00000000000003ec .L0 
     /tmp/cchSgExa.s:565    .text:00000000000003f0 .L0 
     /tmp/cchSgExa.s:566    .text:00000000000003f0 .L0 
     /tmp/cchSgExa.s:573    .text:0000000000000408 .L0 
     /tmp/cchSgExa.s:574    .text:0000000000000408 .L0 
     /tmp/cchSgExa.s:576    .text:000000000000040c .L0 
     /tmp/cchSgExa.s:577    .text:000000000000040c .L0 
     /tmp/cchSgExa.s:580    .text:0000000000000418 .L0 
     /tmp/cchSgExa.s:581    .text:0000000000000418 .L0 
     /tmp/cchSgExa.s:583    .text:000000000000041c .L0 
     /tmp/cchSgExa.s:586    .text:0000000000000424 .L0 
     /tmp/cchSgExa.s:597    .text:0000000000000444 .L0 
     /tmp/cchSgExa.s:604    .text:000000000000044c .L0 
     /tmp/cchSgExa.s:605    .text:000000000000044c .L0 
     /tmp/cchSgExa.s:609    .text:0000000000000454 .L0 
     /tmp/cchSgExa.s:615    .text:000000000000045c .L0 
     /tmp/cchSgExa.s:616    .text:000000000000045c .L0 
     /tmp/cchSgExa.s:620    .text:000000000000046c .L0 
     /tmp/cchSgExa.s:624    .text:0000000000000470 .L0 
     /tmp/cchSgExa.s:628    .text:0000000000000478 .L0 
     /tmp/cchSgExa.s:629    .text:0000000000000478 .L0 
     /tmp/cchSgExa.s:633    .text:0000000000000488 .L0 
     /tmp/cchSgExa.s:634    .text:000000000000048c .L0 
     /tmp/cchSgExa.s:635    .text:000000000000048c .L0 
     /tmp/cchSgExa.s:637    .text:0000000000000490 .L0 
     /tmp/cchSgExa.s:638    .text:0000000000000490 .L0 
GAS LISTING /tmp/cchSgExa.s 			page 24


     /tmp/cchSgExa.s:641    .text:0000000000000494 .L0 
     /tmp/cchSgExa.s:644    .text:0000000000000498 .L0 
     /tmp/cchSgExa.s:647    .text:000000000000049c .L0 
     /tmp/cchSgExa.s:652    .text:00000000000004a0 .L0 
     /tmp/cchSgExa.s:655    .text:00000000000004a4 .L0 
     /tmp/cchSgExa.s:662    .text:00000000000004bc .L0 
     /tmp/cchSgExa.s:692    .bss:0000000000000000 threadEnd
     /tmp/cchSgExa.s:697    .bss:0000000000000008 waitForAll
     /tmp/cchSgExa.s:689    .bss:0000000000000000 .LANCHOR0
     /tmp/cchSgExa.s:707    .text:00000000000004bc .L0 
     /tmp/cchSgExa.s:8      .rodata.str1.8:0000000000000000 .LC0
     /tmp/cchSgExa.s:49     .text:000000000000001c .L0 
     /tmp/cchSgExa.s:60     .text:0000000000000030 .L0 
     /tmp/cchSgExa.s:11     .rodata.str1.8:0000000000000018 .LC1
     /tmp/cchSgExa.s:64     .text:000000000000003c .L0 
     /tmp/cchSgExa.s:14     .rodata.str1.8:0000000000000028 .LC2
     /tmp/cchSgExa.s:74     .text:0000000000000058 .L0 
     /tmp/cchSgExa.s:116    .text:00000000000000b8 .L0 
     /tmp/cchSgExa.s:17     .rodata.str1.8:0000000000000030 .LC3
     /tmp/cchSgExa.s:122    .text:00000000000000c4 .L0 
     /tmp/cchSgExa.s:20     .rodata.str1.8:0000000000000040 .LC4
     /tmp/cchSgExa.s:133    .text:00000000000000e0 .L0 
     /tmp/cchSgExa.s:161    .rodata.str1.8:0000000000000050 .LC5
     /tmp/cchSgExa.s:205    .text:0000000000000138 .L0 
     /tmp/cchSgExa.s:218    .text:0000000000000150 .L0 
     /tmp/cchSgExa.s:170    .rodata.str1.8:0000000000000080 .LC8
     /tmp/cchSgExa.s:230    .text:000000000000016c .L0 
     /tmp/cchSgExa.s:237    .text:000000000000017c .L0 
     /tmp/cchSgExa.s:164    .rodata.str1.8:0000000000000068 .LC6
     /tmp/cchSgExa.s:242    .text:0000000000000188 .L0 
     /tmp/cchSgExa.s:167    .rodata.str1.8:0000000000000078 .LC7
     /tmp/cchSgExa.s:264    .text:00000000000001bc .L0 
     /tmp/cchSgExa.s:173    .rodata.str1.8:0000000000000088 .LC9
     /tmp/cchSgExa.s:296    .text:00000000000001fc .L0 
     /tmp/cchSgExa.s:399    .text:00000000000002ac .L0 
     /tmp/cchSgExa.s:438    .rodata.str1.8:0000000000000098 .LC10
     /tmp/cchSgExa.s:477    .text:0000000000000310 .L0 
     /tmp/cchSgExa.s:441    .rodata.str1.8:00000000000000b8 .LC11
     /tmp/cchSgExa.s:484    .text:0000000000000320 .L0 
     /tmp/cchSgExa.s:444    .rodata.str1.8:00000000000000d8 .LC12
     /tmp/cchSgExa.s:490    .text:0000000000000330 .L0 
     /tmp/cchSgExa.s:447    .rodata.str1.8:00000000000000f0 .LC13
     /tmp/cchSgExa.s:502    .text:0000000000000354 .L0 
     /tmp/cchSgExa.s:450    .rodata.str1.8:0000000000000108 .LC14
     /tmp/cchSgExa.s:514    .text:0000000000000378 .L0 
     /tmp/cchSgExa.s:532    .text:00000000000003a8 .L0 
     /tmp/cchSgExa.s:548    .text:00000000000003c4 .L0 
     /tmp/cchSgExa.s:553    .text:00000000000003d4 .L0 
     /tmp/cchSgExa.s:577    .text:000000000000040c .L0 
     /tmp/cchSgExa.s:589    .text:000000000000042c .L0 
     /tmp/cchSgExa.s:616    .text:000000000000045c .L0 
     /tmp/cchSgExa.s:629    .text:0000000000000478 .L0 
     /tmp/cchSgExa.s:130    .text:00000000000000e0 .L3
     /tmp/cchSgExa.s:119    .text:00000000000000c4 .L7
     /tmp/cchSgExa.s:57     .text:0000000000000030 .L2
     /tmp/cchSgExa.s:109    .text:00000000000000ac .L4
     /tmp/cchSgExa.s:233    .text:000000000000017c .L9
GAS LISTING /tmp/cchSgExa.s 			page 25


     /tmp/cchSgExa.s:282    .text:00000000000001ec .L11
     /tmp/cchSgExa.s:292    .text:00000000000001fc .L10
     /tmp/cchSgExa.s:214    .text:0000000000000150 .L14
     /tmp/cchSgExa.s:227    .text:000000000000016c .L15
     /tmp/cchSgExa.s:360    .text:0000000000000264 .L17
     /tmp/cchSgExa.s:395    .text:00000000000002a8 .L18
     /tmp/cchSgExa.s:355    .text:000000000000025c .L22
     /tmp/cchSgExa.s:413    .text:00000000000002d4 .L20
     /tmp/cchSgExa.s:601    .text:000000000000044c .L24
     /tmp/cchSgExa.s:560    .text:00000000000003ec .L25
     /tmp/cchSgExa.s:622    .text:0000000000000470 .L27
     /tmp/cchSgExa.s:613    .text:000000000000045c .L32
     /tmp/cchSgExa.s:478    .text:0000000000000318 .LEHB0
     /tmp/cchSgExa.s:457    .text:00000000000002f8 .LFB21
     /tmp/cchSgExa.s:522    .text:0000000000000394 .LEHE0
     /tmp/cchSgExa.s:525    .text:000000000000039c .LEHB1
     /tmp/cchSgExa.s:528    .text:00000000000003a4 .LEHE1
     /tmp/cchSgExa.s:651    .text:00000000000004a0 .L29
     /tmp/cchSgExa.s:533    .text:00000000000003b0 .LEHB2
     /tmp/cchSgExa.s:661    .text:00000000000004bc .LEHE2
     /tmp/cchSgExa.s:2095   .debug_abbrev:0000000000000000 .Ldebug_abbrev0
     /tmp/cchSgExa.s:3150   .debug_str:0000000000000298 .LASF134
     /tmp/cchSgExa.s:3208   .debug_str:000000000000050e .LASF135
     /tmp/cchSgExa.s:3118   .debug_str:0000000000000198 .LASF136
     /tmp/cchSgExa.s:5      .text:0000000000000000 .Ltext0
     /tmp/cchSgExa.s:700    .text:00000000000004bc .Letext0
     /tmp/cchSgExa.s:3066   .debug_line:0000000000000000 .Ldebug_line0
     /tmp/cchSgExa.s:3222   .debug_str:0000000000000594 .LASF0
     /tmp/cchSgExa.s:3240   .debug_str:00000000000005f4 .LASF1
     /tmp/cchSgExa.s:3206   .debug_str:0000000000000500 .LASF2
     /tmp/cchSgExa.s:3180   .debug_str:000000000000042d .LASF4
     /tmp/cchSgExa.s:3276   .debug_str:0000000000000725 .LASF3
     /tmp/cchSgExa.s:3094   .debug_str:00000000000000c8 .LASF5
     /tmp/cchSgExa.s:3246   .debug_str:0000000000000625 .LASF6
     /tmp/cchSgExa.s:3220   .debug_str:0000000000000581 .LASF7
     /tmp/cchSgExa.s:3310   .debug_str:0000000000000811 .LASF8
     /tmp/cchSgExa.s:3164   .debug_str:0000000000000392 .LASF9
     /tmp/cchSgExa.s:3258   .debug_str:000000000000069e .LASF10
     /tmp/cchSgExa.s:3296   .debug_str:00000000000007b2 .LASF11
     /tmp/cchSgExa.s:3100   .debug_str:00000000000000f5 .LASF12
     /tmp/cchSgExa.s:3074   .debug_str:000000000000002b .LASF13
     /tmp/cchSgExa.s:3112   .debug_str:000000000000016b .LASF14
     /tmp/cchSgExa.s:3270   .debug_str:00000000000006e6 .LASF15
     /tmp/cchSgExa.s:3120   .debug_str:00000000000001bb .LASF16
     /tmp/cchSgExa.s:3068   .debug_str:0000000000000000 .LASF17
     /tmp/cchSgExa.s:3140   .debug_str:000000000000025e .LASF18
     /tmp/cchSgExa.s:3328   .debug_str:0000000000000880 .LASF26
     /tmp/cchSgExa.s:3268   .debug_str:00000000000006df .LASF19
     /tmp/cchSgExa.s:3126   .debug_str:00000000000001f3 .LASF20
     /tmp/cchSgExa.s:3204   .debug_str:00000000000004fb .LASF21
     /tmp/cchSgExa.s:3138   .debug_str:000000000000024f .LASF22
     /tmp/cchSgExa.s:3170   .debug_str:00000000000003ca .LASF23
     /tmp/cchSgExa.s:3200   .debug_str:00000000000004d3 .LASF24
     /tmp/cchSgExa.s:3228   .debug_str:00000000000005bf .LASF25
     /tmp/cchSgExa.s:3154   .debug_str:0000000000000351 .LASF28
     /tmp/cchSgExa.s:3210   .debug_str:0000000000000533 .LASF27
     /tmp/cchSgExa.s:3244   .debug_str:0000000000000616 .LASF29
GAS LISTING /tmp/cchSgExa.s 			page 26


     /tmp/cchSgExa.s:3340   .debug_str:00000000000008ca .LASF30
     /tmp/cchSgExa.s:3272   .debug_str:00000000000006fc .LASF31
     /tmp/cchSgExa.s:3236   .debug_str:00000000000005e5 .LASF32
     /tmp/cchSgExa.s:3230   .debug_str:00000000000005c9 .LASF33
     /tmp/cchSgExa.s:3088   .debug_str:0000000000000090 .LASF35
     /tmp/cchSgExa.s:3214   .debug_str:0000000000000545 .LASF34
     /tmp/cchSgExa.s:3156   .debug_str:0000000000000360 .LASF36
     /tmp/cchSgExa.s:3232   .debug_str:00000000000005d4 .LASF37
     /tmp/cchSgExa.s:3132   .debug_str:000000000000021b .LASF38
     /tmp/cchSgExa.s:3130   .debug_str:000000000000020b .LASF43
     /tmp/cchSgExa.s:3078   .debug_str:0000000000000044 .LASF45
     /tmp/cchSgExa.s:3102   .debug_str:0000000000000105 .LASF39
     /tmp/cchSgExa.s:3202   .debug_str:00000000000004dd .LASF40
     /tmp/cchSgExa.s:3216   .debug_str:0000000000000550 .LASF41
     /tmp/cchSgExa.s:3218   .debug_str:0000000000000562 .LASF42
     /tmp/cchSgExa.s:3188   .debug_str:0000000000000457 .LASF44
     /tmp/cchSgExa.s:3104   .debug_str:0000000000000116 .LASF46
     /tmp/cchSgExa.s:3152   .debug_str:0000000000000344 .LASF47
     /tmp/cchSgExa.s:3098   .debug_str:00000000000000db .LASF48
     /tmp/cchSgExa.s:3090   .debug_str:00000000000000a8 .LASF49
     /tmp/cchSgExa.s:3082   .debug_str:0000000000000068 .LASF50
     /tmp/cchSgExa.s:3286   .debug_str:000000000000076e .LASF51
     /tmp/cchSgExa.s:3072   .debug_str:0000000000000011 .LASF52
     /tmp/cchSgExa.s:3076   .debug_str:000000000000003b .LASF55
     /tmp/cchSgExa.s:3284   .debug_str:0000000000000759 .LASF57
     /tmp/cchSgExa.s:3136   .debug_str:0000000000000246 .LASF53
     /tmp/cchSgExa.s:3134   .debug_str:0000000000000231 .LASF54
     /tmp/cchSgExa.s:3278   .debug_str:0000000000000737 .LASF56
     /tmp/cchSgExa.s:3260   .debug_str:00000000000006ad .LASF58
     /tmp/cchSgExa.s:3266   .debug_str:00000000000006d8 .LASF59
     /tmp/cchSgExa.s:3290   .debug_str:0000000000000783 .LASF60
     /tmp/cchSgExa.s:3324   .debug_str:0000000000000865 .LASF61
     /tmp/cchSgExa.s:3122   .debug_str:00000000000001d1 .LASF62
     /tmp/cchSgExa.s:3070   .debug_str:0000000000000009 .LASF63
     /tmp/cchSgExa.s:3172   .debug_str:00000000000003d8 .LASF64
     /tmp/cchSgExa.s:3142   .debug_str:0000000000000264 .LASF65
     /tmp/cchSgExa.s:3106   .debug_str:0000000000000131 .LASF66
     /tmp/cchSgExa.s:3338   .debug_str:00000000000008c2 .LASF67
     /tmp/cchSgExa.s:3144   .debug_str:000000000000026c .LASF68
     /tmp/cchSgExa.s:3224   .debug_str:00000000000005a1 .LASF69
     /tmp/cchSgExa.s:3326   .debug_str:000000000000086d .LASF70
     /tmp/cchSgExa.s:3086   .debug_str:0000000000000089 .LASF71
     /tmp/cchSgExa.s:3298   .debug_str:00000000000007c1 .LASF72
     /tmp/cchSgExa.s:3160   .debug_str:0000000000000380 .LASF73
     /tmp/cchSgExa.s:3292   .debug_str:0000000000000796 .LASF74
     /tmp/cchSgExa.s:3084   .debug_str:0000000000000083 .LASF75
     /tmp/cchSgExa.s:3342   .debug_str:00000000000008db .LASF76
     /tmp/cchSgExa.s:3336   .debug_str:00000000000008b7 .LASF77
     /tmp/cchSgExa.s:3274   .debug_str:000000000000070d .LASF78
     /tmp/cchSgExa.s:3186   .debug_str:000000000000044c .LASF79
     /tmp/cchSgExa.s:3196   .debug_str:00000000000004ac .LASF80
     /tmp/cchSgExa.s:3110   .debug_str:0000000000000161 .LASF81
     /tmp/cchSgExa.s:3176   .debug_str:00000000000003fb .LASF82
     /tmp/cchSgExa.s:3212   .debug_str:000000000000053b .LASF83
     /tmp/cchSgExa.s:3168   .debug_str:00000000000003b4 .LASF84
     /tmp/cchSgExa.s:3280   .debug_str:000000000000073e .LASF85
     /tmp/cchSgExa.s:3332   .debug_str:0000000000000896 .LASF86
GAS LISTING /tmp/cchSgExa.s 			page 27


     /tmp/cchSgExa.s:3198   .debug_str:00000000000004c4 .LASF87
     /tmp/cchSgExa.s:3108   .debug_str:0000000000000145 .LASF88
     /tmp/cchSgExa.s:3316   .debug_str:0000000000000835 .LASF89
     /tmp/cchSgExa.s:3190   .debug_str:0000000000000463 .LASF90
     /tmp/cchSgExa.s:3254   .debug_str:000000000000065f .LASF91
     /tmp/cchSgExa.s:3256   .debug_str:0000000000000678 .LASF92
     /tmp/cchSgExa.s:3318   .debug_str:000000000000084a .LASF93
     /tmp/cchSgExa.s:3288   .debug_str:000000000000077b .LASF94
     /tmp/cchSgExa.s:3252   .debug_str:0000000000000650 .LASF95
     /tmp/cchSgExa.s:3096   .debug_str:00000000000000cf .LASF96
     /tmp/cchSgExa.s:3262   .debug_str:00000000000006c0 .LASF97
     /tmp/cchSgExa.s:3092   .debug_str:00000000000000b6 .LASF98
     /tmp/cchSgExa.s:3248   .debug_str:0000000000000638 .LASF99
     /tmp/cchSgExa.s:3148   .debug_str:0000000000000285 .LASF100
     /tmp/cchSgExa.s:3166   .debug_str:00000000000003a0 .LASF101
     /tmp/cchSgExa.s:3250   .debug_str:000000000000064b .LASF102
     /tmp/cchSgExa.s:3304   .debug_str:00000000000007ee .LASF103
     /tmp/cchSgExa.s:3162   .debug_str:0000000000000386 .LASF137
     /tmp/cchSgExa.s:3146   .debug_str:0000000000000280 .LASF104
     /tmp/cchSgExa.s:3184   .debug_str:0000000000000442 .LASF105
     /tmp/cchSgExa.s:3226   .debug_str:00000000000005a8 .LASF110
     /tmp/cchSgExa.s:3178   .debug_str:0000000000000411 .LASF112
     /tmp/cchSgExa.s:663    .text:00000000000004bc .LFE21
     /tmp/cchSgExa.s:3294   .debug_str:00000000000007a8 .LASF106
     /tmp/cchSgExa.s:2763   .debug_loc:0000000000000000 .LLST13
     /tmp/cchSgExa.s:3158   .debug_str:0000000000000378 .LASF107
     /tmp/cchSgExa.s:2770   .debug_loc:0000000000000023 .LLST14
     /tmp/cchSgExa.s:3330   .debug_str:0000000000000887 .LASF108
     /tmp/cchSgExa.s:3264   .debug_str:00000000000006d3 .LASF109
     /tmp/cchSgExa.s:2798   .debug_loc:0000000000000097 .LLST15
     /tmp/cchSgExa.s:557    .text:00000000000003e8 .LBB4
     /tmp/cchSgExa.s:602    .text:000000000000044c .LBE4
     /tmp/cchSgExa.s:2821   .debug_loc:00000000000000f8 .LLST16
     /tmp/cchSgExa.s:595    .text:0000000000000444 .LVL70
     /tmp/cchSgExa.s:607    .text:0000000000000454 .LBB5
     /tmp/cchSgExa.s:626    .text:0000000000000478 .LBE5
     /tmp/cchSgExa.s:2832   .debug_loc:000000000000012e .LLST17
     /tmp/cchSgExa.s:618    .text:000000000000046c .LVL76
     /tmp/cchSgExa.s:480    .text:0000000000000320 .LVL55
     /tmp/cchSgExa.s:486    .text:0000000000000330 .LVL56
     /tmp/cchSgExa.s:492    .text:0000000000000340 .LVL57
     /tmp/cchSgExa.s:499    .text:0000000000000354 .LVL58
     /tmp/cchSgExa.s:504    .text:0000000000000364 .LVL59
     /tmp/cchSgExa.s:511    .text:0000000000000378 .LVL60
     /tmp/cchSgExa.s:516    .text:0000000000000388 .LVL61
     /tmp/cchSgExa.s:521    .text:0000000000000394 .LVL62
     /tmp/cchSgExa.s:527    .text:00000000000003a4 .LVL63
     /tmp/cchSgExa.s:535    .text:00000000000003b8 .LVL64
     /tmp/cchSgExa.s:556    .text:00000000000003e8 .LVL65
     /tmp/cchSgExa.s:606    .text:0000000000000454 .LVL73
     /tmp/cchSgExa.s:631    .text:0000000000000488 .LVL78
     /tmp/cchSgExa.s:657    .text:00000000000004b0 .LVL84
     /tmp/cchSgExa.s:660    .text:00000000000004bc .LVL85
     /tmp/cchSgExa.s:3334   .debug_str:00000000000008ae .LASF111
     /tmp/cchSgExa.s:3182   .debug_str:0000000000000434 .LASF113
     /tmp/cchSgExa.s:180    .text:0000000000000114 .LFB20
     /tmp/cchSgExa.s:324    .text:0000000000000238 .LFE20
GAS LISTING /tmp/cchSgExa.s 			page 28


     /tmp/cchSgExa.s:2839   .debug_loc:0000000000000151 .LLST3
     /tmp/cchSgExa.s:2857   .debug_loc:000000000000019d .LLST4
     /tmp/cchSgExa.s:2875   .debug_loc:00000000000001e9 .LLST5
     /tmp/cchSgExa.s:3058   .debug_ranges:0000000000000000 .Ldebug_ranges0
     /tmp/cchSgExa.s:2899   .debug_loc:0000000000000259 .LLST6
     /tmp/cchSgExa.s:220    .text:0000000000000160 .LVL24
     /tmp/cchSgExa.s:224    .text:0000000000000168 .LVL25
     /tmp/cchSgExa.s:232    .text:000000000000017c .LVL27
     /tmp/cchSgExa.s:244    .text:0000000000000198 .LVL28
     /tmp/cchSgExa.s:249    .text:00000000000001a4 .LVL29
     /tmp/cchSgExa.s:254    .text:00000000000001b0 .LVL30
     /tmp/cchSgExa.s:266    .text:00000000000001cc .LVL33
     /tmp/cchSgExa.s:271    .text:00000000000001d8 .LVL34
     /tmp/cchSgExa.s:208    .text:0000000000000148 .LVL22
     /tmp/cchSgExa.s:298    .text:000000000000020c .LVL37
     /tmp/cchSgExa.s:303    .text:0000000000000218 .LVL38
     /tmp/cchSgExa.s:3238   .debug_str:00000000000005eb .LASF114
     /tmp/cchSgExa.s:3306   .debug_str:00000000000007f9 .LASF115
     /tmp/cchSgExa.s:27     .text:0000000000000000 .LFB19
     /tmp/cchSgExa.s:157    .text:0000000000000114 .LFE19
     /tmp/cchSgExa.s:2910   .debug_loc:000000000000028f .LLST0
     /tmp/cchSgExa.s:2928   .debug_loc:00000000000002db .LLST1
     /tmp/cchSgExa.s:2946   .debug_loc:0000000000000327 .LLST2
     /tmp/cchSgExa.s:52     .text:000000000000002c .LVL3
     /tmp/cchSgExa.s:66     .text:000000000000004c .LVL5
     /tmp/cchSgExa.s:71     .text:0000000000000058 .LVL6
     /tmp/cchSgExa.s:76     .text:0000000000000068 .LVL7
     /tmp/cchSgExa.s:83     .text:0000000000000078 .LVL8
     /tmp/cchSgExa.s:91     .text:000000000000008c .LVL9
     /tmp/cchSgExa.s:124    .text:00000000000000d4 .LVL13
     /tmp/cchSgExa.s:128    .text:00000000000000dc .LVL14
     /tmp/cchSgExa.s:135    .text:00000000000000f0 .LVL15
     /tmp/cchSgExa.s:140    .text:00000000000000fc .LVL16
     /tmp/cchSgExa.s:3302   .debug_str:00000000000007dd .LASF116
     /tmp/cchSgExa.s:3192   .debug_str:0000000000000485 .LASF117
     /tmp/cchSgExa.s:330    .text:0000000000000238 .LFB18
     /tmp/cchSgExa.s:434    .text:00000000000002f8 .LFE18
     /tmp/cchSgExa.s:2974   .debug_loc:00000000000003aa .LLST7
     /tmp/cchSgExa.s:2992   .debug_loc:00000000000003f6 .LLST8
     /tmp/cchSgExa.s:3010   .debug_loc:0000000000000442 .LLST9
     /tmp/cchSgExa.s:3021   .debug_loc:0000000000000478 .LLST10
     /tmp/cchSgExa.s:359    .text:0000000000000264 .LVL44
     /tmp/cchSgExa.s:365    .text:000000000000026c .LVL45
     /tmp/cchSgExa.s:376    .text:0000000000000284 .LVL47
     /tmp/cchSgExa.s:409    .text:00000000000002c8 .LVL51
     /tmp/cchSgExa.s:412    .text:00000000000002d4 .LVL52
     /tmp/cchSgExa.s:418    .text:00000000000002e0 .LVL53
     /tmp/cchSgExa.s:3124   .debug_str:00000000000001e5 .LASF118
     /tmp/cchSgExa.s:3114   .debug_str:0000000000000177 .LASF119
     /tmp/cchSgExa.s:3128   .debug_str:00000000000001f8 .LASF120
     /tmp/cchSgExa.s:3242   .debug_str:0000000000000607 .LASF121
     /tmp/cchSgExa.s:3300   .debug_str:00000000000007d4 .LASF122
     /tmp/cchSgExa.s:3080   .debug_str:0000000000000062 .LASF126
     /tmp/cchSgExa.s:3322   .debug_str:0000000000000858 .LASF128
     /tmp/cchSgExa.s:3314   .debug_str:000000000000082c .LASF123
     /tmp/cchSgExa.s:3194   .debug_str:000000000000049c .LASF124
     /tmp/cchSgExa.s:3308   .debug_str:0000000000000807 .LASF125
GAS LISTING /tmp/cchSgExa.s 			page 29


     /tmp/cchSgExa.s:3234   .debug_str:00000000000005de .LASF127
     /tmp/cchSgExa.s:3282   .debug_str:0000000000000749 .LASF129
     /tmp/cchSgExa.s:3174   .debug_str:00000000000003ec .LASF130
     /tmp/cchSgExa.s:3116   .debug_str:0000000000000180 .LASF131
     /tmp/cchSgExa.s:3312   .debug_str:0000000000000821 .LASF132
     /tmp/cchSgExa.s:3320   .debug_str:0000000000000851 .LASF133
     /tmp/cchSgExa.s:645    .text:0000000000000498 .LVL81
     /tmp/cchSgExa.s:591    .text:0000000000000438 .LVL68
     /tmp/cchSgExa.s:593    .text:000000000000043c .LVL69
     /tmp/cchSgExa.s:639    .text:0000000000000490 .LVL79
     /tmp/cchSgExa.s:648    .text:000000000000049c .LVL82
     /tmp/cchSgExa.s:650    .text:00000000000004a0 .LVL83
     /tmp/cchSgExa.s:587    .text:0000000000000428 .LVL67
     /tmp/cchSgExa.s:561    .text:00000000000003ec .LVL66
     /tmp/cchSgExa.s:598    .text:0000000000000448 .LVL71
     /tmp/cchSgExa.s:600    .text:000000000000044c .LVL72
     /tmp/cchSgExa.s:610    .text:0000000000000458 .LVL74
     /tmp/cchSgExa.s:612    .text:000000000000045c .LVL75
     /tmp/cchSgExa.s:642    .text:0000000000000494 .LVL80
     /tmp/cchSgExa.s:183    .text:0000000000000114 .LVL19
     /tmp/cchSgExa.s:206    .text:0000000000000140 .LVL21
     /tmp/cchSgExa.s:319    .text:0000000000000230 .LVL40
     /tmp/cchSgExa.s:202    .text:0000000000000138 .LVL20
     /tmp/cchSgExa.s:213    .text:0000000000000150 .LVL23
     /tmp/cchSgExa.s:226    .text:000000000000016c .LVL26
     /tmp/cchSgExa.s:261    .text:00000000000001bc .LVL32
     /tmp/cchSgExa.s:287    .text:00000000000001f4 .LVL35
     /tmp/cchSgExa.s:316    .text:000000000000022c .LVL39
     /tmp/cchSgExa.s:256    .text:00000000000001b4 .LVL31
     /tmp/cchSgExa.s:291    .text:00000000000001fc .LVL36
     /tmp/cchSgExa.s:31     .text:0000000000000000 .LVL0
     /tmp/cchSgExa.s:50     .text:0000000000000024 .LVL2
     /tmp/cchSgExa.s:149    .text:0000000000000108 .LVL17
     /tmp/cchSgExa.s:46     .text:000000000000001c .LVL1
     /tmp/cchSgExa.s:56     .text:0000000000000030 .LVL4
     /tmp/cchSgExa.s:96     .text:0000000000000094 .LVL10
     /tmp/cchSgExa.s:108    .text:00000000000000ac .LVL11
     /tmp/cchSgExa.s:118    .text:00000000000000c4 .LVL12
     /tmp/cchSgExa.s:152    .text:000000000000010c .LVL18
     /tmp/cchSgExa.s:333    .text:0000000000000238 .LVL41
     /tmp/cchSgExa.s:354    .text:000000000000025c .LVL43
     /tmp/cchSgExa.s:427    .text:00000000000002ec .LVL54
     /tmp/cchSgExa.s:348    .text:0000000000000254 .LVL42
     /tmp/cchSgExa.s:368    .text:0000000000000270 .LVL46
     /tmp/cchSgExa.s:394    .text:00000000000002a8 .LVL49
     /tmp/cchSgExa.s:381    .text:000000000000028c .LVL48
     /tmp/cchSgExa.s:403    .text:00000000000002b8 .LVL50
     /tmp/cchSgExa.s:708    .debug_info:0000000000000000 .Ldebug_info0
     /tmp/cchSgExa.s:215    .text:0000000000000150 .LBB2
     /tmp/cchSgExa.s:234    .text:000000000000017c .LBE2
     /tmp/cchSgExa.s:239    .text:0000000000000188 .LBB3
     /tmp/cchSgExa.s:293    .text:00000000000001fc .LBE3
     /tmp/cchSgExa.s:666    .gcc_except_table:0000000000000000 .LLSDA21

UNDEFINED SYMBOLS
_ZN5Riscv11printStringEPKc
_ZN5Riscv12printIntegerEm
GAS LISTING /tmp/cchSgExa.s 			page 30


_ZN6Buffer3putEi
thread_dispatch
sem_signal
_ZN6Buffer3getEv
__getc
_ZN6BufferD1Ev
_ZdlPv
_Z11printStringPKc
_Z8printIntiii
_Znwm
_ZN6BufferC1Ei
sem_open
thread_create
sem_wait
sem_close
_Unwind_Resume
__gxx_personality_v0
