GAS LISTING /tmp/ccLgm2id.s 			page 1


   1              		.file	"ConsumerProducer_C_API_test.cpp"
   2              		.option pic
   3              		.option norelax
   4              		.text
   5              	.Ltext0:
   6              		.align	2
   7              		.globl	_Z16producerKeyboardPv
   9              	_Z16producerKeyboardPv:
  10              	.LFB19:
  11              		.file 1 "test/ConsumerProducer_C_API_test.cpp"
   1:test/ConsumerProducer_C_API_test.cpp **** //
   2:test/ConsumerProducer_C_API_test.cpp **** // Created by os on 5/16/22.
   3:test/ConsumerProducer_C_API_test.cpp **** //
   4:test/ConsumerProducer_C_API_test.cpp **** 
   5:test/ConsumerProducer_C_API_test.cpp **** #include "ConsumerProducer_C_API_test.hpp"
   6:test/ConsumerProducer_C_API_test.cpp **** #include "../h/Riscv.hpp"
   7:test/ConsumerProducer_C_API_test.cpp **** 
   8:test/ConsumerProducer_C_API_test.cpp **** sem_t waitForAll;
   9:test/ConsumerProducer_C_API_test.cpp **** 
  10:test/ConsumerProducer_C_API_test.cpp **** struct thread_data {
  11:test/ConsumerProducer_C_API_test.cpp ****     int id;
  12:test/ConsumerProducer_C_API_test.cpp ****     Buffer *buffer;
  13:test/ConsumerProducer_C_API_test.cpp ****     sem_t wait;
  14:test/ConsumerProducer_C_API_test.cpp **** };
  15:test/ConsumerProducer_C_API_test.cpp **** 
  16:test/ConsumerProducer_C_API_test.cpp **** volatile int threadEnd = 0;
  17:test/ConsumerProducer_C_API_test.cpp **** 
  18:test/ConsumerProducer_C_API_test.cpp **** void producerKeyboard(void *arg) {
  12              		.loc 1 18 34
  13              		.cfi_startproc
  14              	.LVL0:
  15 0000 130101FE 		addi	sp,sp,-32
  16              		.cfi_def_cfa_offset 32
  17 0004 233C1100 		sd	ra,24(sp)
  18 0008 23388100 		sd	s0,16(sp)
  19 000c 23349100 		sd	s1,8(sp)
  20 0010 23302101 		sd	s2,0(sp)
  21              		.cfi_offset 1, -8
  22              		.cfi_offset 8, -16
  23              		.cfi_offset 9, -24
  24              		.cfi_offset 18, -32
  25 0014 13040102 		addi	s0,sp,32
  26              		.cfi_def_cfa 8, 0
  27 0018 93040500 		mv	s1,a0
  19:test/ConsumerProducer_C_API_test.cpp ****     struct thread_data *data = (struct thread_data *) arg;
  28              		.loc 1 19 5
  29              	.LVL1:
  20:test/ConsumerProducer_C_API_test.cpp **** 
  21:test/ConsumerProducer_C_API_test.cpp ****     int key;
  30              		.loc 1 21 5
  22:test/ConsumerProducer_C_API_test.cpp ****     int i = 0;
  31              		.loc 1 22 5
  32              		.loc 1 22 9 is_stmt 0
  33 001c 13090000 		li	s2,0
  34 0020 6F00C000 		j	.L2
  35              	.LVL2:
  36              	.L7:
GAS LISTING /tmp/ccLgm2id.s 			page 2


  23:test/ConsumerProducer_C_API_test.cpp ****     while ((key = getc()) != 'q') {
  24:test/ConsumerProducer_C_API_test.cpp ****         data->buffer->put(key);
  25:test/ConsumerProducer_C_API_test.cpp ****         i++;
  26:test/ConsumerProducer_C_API_test.cpp **** 
  27:test/ConsumerProducer_C_API_test.cpp ****         if (i % (10 * data->id) == 0) {
  28:test/ConsumerProducer_C_API_test.cpp ****             thread_dispatch();
  37              		.loc 1 28 13 is_stmt 1
  38              		.loc 1 28 28 is_stmt 0
  39 0024 97000000 		call	thread_dispatch@plt
  39      E7800000 
  40              	.LVL3:
  41              	.L2:
  23:test/ConsumerProducer_C_API_test.cpp ****     while ((key = getc()) != 'q') {
  42              		.loc 1 23 5 is_stmt 1
  23:test/ConsumerProducer_C_API_test.cpp ****     while ((key = getc()) != 'q') {
  43              		.loc 1 23 27
  23:test/ConsumerProducer_C_API_test.cpp ****     while ((key = getc()) != 'q') {
  44              		.loc 1 23 23 is_stmt 0
  45 002c 97000000 		call	getc@plt
  45      E7800000 
  46              	.LVL4:
  23:test/ConsumerProducer_C_API_test.cpp ****     while ((key = getc()) != 'q') {
  47              		.loc 1 23 17
  48 0034 9B050500 		sext.w	a1,a0
  49              	.LVL5:
  23:test/ConsumerProducer_C_API_test.cpp ****     while ((key = getc()) != 'q') {
  50              		.loc 1 23 27
  51 0038 93071007 		li	a5,113
  52 003c 638AF502 		beq	a1,a5,.L3
  24:test/ConsumerProducer_C_API_test.cpp ****         i++;
  53              		.loc 1 24 9 is_stmt 1
  24:test/ConsumerProducer_C_API_test.cpp ****         i++;
  54              		.loc 1 24 26 is_stmt 0
  55 0040 03B58400 		ld	a0,8(s1)
  56 0044 97000000 		call	_ZN6Buffer3putEi@plt
  56      E7800000 
  57              	.LVL6:
  25:test/ConsumerProducer_C_API_test.cpp **** 
  58              		.loc 1 25 9 is_stmt 1
  25:test/ConsumerProducer_C_API_test.cpp **** 
  59              		.loc 1 25 10 is_stmt 0
  60 004c 1B071900 		addiw	a4,s2,1
  61 0050 1B090700 		sext.w	s2,a4
  62              	.LVL7:
  27:test/ConsumerProducer_C_API_test.cpp ****             thread_dispatch();
  63              		.loc 1 27 9 is_stmt 1
  27:test/ConsumerProducer_C_API_test.cpp ****             thread_dispatch();
  64              		.loc 1 27 29 is_stmt 0
  65 0054 83A60400 		lw	a3,0(s1)
  27:test/ConsumerProducer_C_API_test.cpp ****             thread_dispatch();
  66              		.loc 1 27 21
  67 0058 9B972600 		slliw	a5,a3,2
  68 005c BB87D700 		addw	a5,a5,a3
  69 0060 9B971700 		slliw	a5,a5,1
  27:test/ConsumerProducer_C_API_test.cpp ****             thread_dispatch();
  70              		.loc 1 27 15
  71 0064 BB67F702 		remw	a5,a4,a5
GAS LISTING /tmp/ccLgm2id.s 			page 3


  27:test/ConsumerProducer_C_API_test.cpp ****             thread_dispatch();
  72              		.loc 1 27 9
  73 0068 E39207FC 		bnez	a5,.L2
  74 006c 6FF09FFB 		j	.L7
  75              	.LVL8:
  76              	.L3:
  29:test/ConsumerProducer_C_API_test.cpp ****         }
  30:test/ConsumerProducer_C_API_test.cpp ****     }
  31:test/ConsumerProducer_C_API_test.cpp **** 
  32:test/ConsumerProducer_C_API_test.cpp ****     threadEnd = 1;
  77              		.loc 1 32 5 is_stmt 1
  78              		.loc 1 32 15 is_stmt 0
  79 0070 93071000 		li	a5,1
  80 0074 17070000 		sw	a5,.LANCHOR0,a4
  80      2320F700 
  33:test/ConsumerProducer_C_API_test.cpp **** 
  34:test/ConsumerProducer_C_API_test.cpp ****     delete data->buffer;
  81              		.loc 1 34 5 is_stmt 1
  82              		.loc 1 34 18 is_stmt 0
  83 007c 03B98400 		ld	s2,8(s1)
  84              	.LVL9:
  85              		.loc 1 34 24
  86 0080 630E0900 		beqz	s2,.L5
  87              		.loc 1 34 18 discriminator 1
  88 0084 13050900 		mv	a0,s2
  89 0088 97000000 		call	_ZN6BufferD1Ev@plt
  89      E7800000 
  90              	.LVL10:
  91 0090 13050900 		mv	a0,s2
  92 0094 97000000 		call	_ZdlPv@plt
  92      E7800000 
  93              	.LVL11:
  94              	.L5:
  35:test/ConsumerProducer_C_API_test.cpp **** 
  36:test/ConsumerProducer_C_API_test.cpp ****     sem_signal(data->wait);
  95              		.loc 1 36 5 is_stmt 1
  96              		.loc 1 36 15 is_stmt 0
  97 009c 03B50401 		ld	a0,16(s1)
  98 00a0 97000000 		call	sem_signal@plt
  98      E7800000 
  99              	.LVL12:
  37:test/ConsumerProducer_C_API_test.cpp **** }
 100              		.loc 1 37 1
 101 00a8 83308101 		ld	ra,24(sp)
 102              		.cfi_restore 1
 103 00ac 03340101 		ld	s0,16(sp)
 104              		.cfi_restore 8
 105              		.cfi_def_cfa 2, 32
 106 00b0 83348100 		ld	s1,8(sp)
 107              		.cfi_restore 9
 108              	.LVL13:
 109 00b4 03390100 		ld	s2,0(sp)
 110              		.cfi_restore 18
 111 00b8 13010102 		addi	sp,sp,32
 112              		.cfi_def_cfa_offset 0
 113 00bc 67800000 		jr	ra
 114              		.cfi_endproc
GAS LISTING /tmp/ccLgm2id.s 			page 4


 115              	.LFE19:
 117              		.align	2
 118              		.globl	_Z8producerPv
 120              	_Z8producerPv:
 121              	.LFB20:
  38:test/ConsumerProducer_C_API_test.cpp **** 
  39:test/ConsumerProducer_C_API_test.cpp **** void producer(void *arg) {
 122              		.loc 1 39 26 is_stmt 1
 123              		.cfi_startproc
 124              	.LVL14:
 125 00c0 130101FE 		addi	sp,sp,-32
 126              		.cfi_def_cfa_offset 32
 127 00c4 233C1100 		sd	ra,24(sp)
 128 00c8 23388100 		sd	s0,16(sp)
 129 00cc 23349100 		sd	s1,8(sp)
 130 00d0 23302101 		sd	s2,0(sp)
 131              		.cfi_offset 1, -8
 132              		.cfi_offset 8, -16
 133              		.cfi_offset 9, -24
 134              		.cfi_offset 18, -32
 135 00d4 13040102 		addi	s0,sp,32
 136              		.cfi_def_cfa 8, 0
 137 00d8 93040500 		mv	s1,a0
  40:test/ConsumerProducer_C_API_test.cpp ****     struct thread_data *data = (struct thread_data *) arg;
 138              		.loc 1 40 5
 139              	.LVL15:
  41:test/ConsumerProducer_C_API_test.cpp **** 
  42:test/ConsumerProducer_C_API_test.cpp ****     int i = 0;
 140              		.loc 1 42 5
 141              		.loc 1 42 9 is_stmt 0
 142 00dc 13090000 		li	s2,0
 143 00e0 6F00C000 		j	.L9
 144              	.LVL16:
 145              	.L13:
  43:test/ConsumerProducer_C_API_test.cpp ****     while (!threadEnd) {
  44:test/ConsumerProducer_C_API_test.cpp ****         data->buffer->put(data->id + '0');
  45:test/ConsumerProducer_C_API_test.cpp ****         i++;
  46:test/ConsumerProducer_C_API_test.cpp **** 
  47:test/ConsumerProducer_C_API_test.cpp ****         if (i % (10 * data->id) == 0) {
  48:test/ConsumerProducer_C_API_test.cpp ****             thread_dispatch();
 146              		.loc 1 48 13 is_stmt 1
 147              		.loc 1 48 28 is_stmt 0
 148 00e4 97000000 		call	thread_dispatch@plt
 148      E7800000 
 149              	.LVL17:
 150              	.L9:
  43:test/ConsumerProducer_C_API_test.cpp ****     while (!threadEnd) {
 151              		.loc 1 43 5 is_stmt 1
  43:test/ConsumerProducer_C_API_test.cpp ****     while (!threadEnd) {
 152              		.loc 1 43 12
 153 00ec 97070000 		lw	a5,.LANCHOR0
 153      83A70700 
 154 00f4 639E0702 		bnez	a5,.L10
  44:test/ConsumerProducer_C_API_test.cpp ****         i++;
 155              		.loc 1 44 9
  44:test/ConsumerProducer_C_API_test.cpp ****         i++;
 156              		.loc 1 44 33 is_stmt 0
GAS LISTING /tmp/ccLgm2id.s 			page 5


 157 00f8 83A50400 		lw	a1,0(s1)
  44:test/ConsumerProducer_C_API_test.cpp ****         i++;
 158              		.loc 1 44 26
 159 00fc 9B850503 		addiw	a1,a1,48
 160 0100 03B58400 		ld	a0,8(s1)
 161 0104 97000000 		call	_ZN6Buffer3putEi@plt
 161      E7800000 
 162              	.LVL18:
  45:test/ConsumerProducer_C_API_test.cpp **** 
 163              		.loc 1 45 9 is_stmt 1
  45:test/ConsumerProducer_C_API_test.cpp **** 
 164              		.loc 1 45 10 is_stmt 0
 165 010c 1B071900 		addiw	a4,s2,1
 166 0110 1B090700 		sext.w	s2,a4
 167              	.LVL19:
  47:test/ConsumerProducer_C_API_test.cpp ****             thread_dispatch();
 168              		.loc 1 47 9 is_stmt 1
  47:test/ConsumerProducer_C_API_test.cpp ****             thread_dispatch();
 169              		.loc 1 47 29 is_stmt 0
 170 0114 83A60400 		lw	a3,0(s1)
  47:test/ConsumerProducer_C_API_test.cpp ****             thread_dispatch();
 171              		.loc 1 47 21
 172 0118 9B972600 		slliw	a5,a3,2
 173 011c BB87D700 		addw	a5,a5,a3
 174 0120 9B971700 		slliw	a5,a5,1
  47:test/ConsumerProducer_C_API_test.cpp ****             thread_dispatch();
 175              		.loc 1 47 15
 176 0124 BB67F702 		remw	a5,a4,a5
  47:test/ConsumerProducer_C_API_test.cpp ****             thread_dispatch();
 177              		.loc 1 47 9
 178 0128 E39207FC 		bnez	a5,.L9
 179 012c 6FF09FFB 		j	.L13
 180              	.LVL20:
 181              	.L10:
  49:test/ConsumerProducer_C_API_test.cpp ****         }
  50:test/ConsumerProducer_C_API_test.cpp ****     }
  51:test/ConsumerProducer_C_API_test.cpp **** 
  52:test/ConsumerProducer_C_API_test.cpp ****     sem_signal(data->wait);
 182              		.loc 1 52 5 is_stmt 1
 183              		.loc 1 52 15 is_stmt 0
 184 0130 03B50401 		ld	a0,16(s1)
 185 0134 97000000 		call	sem_signal@plt
 185      E7800000 
 186              	.LVL21:
  53:test/ConsumerProducer_C_API_test.cpp **** }
 187              		.loc 1 53 1
 188 013c 83308101 		ld	ra,24(sp)
 189              		.cfi_restore 1
 190 0140 03340101 		ld	s0,16(sp)
 191              		.cfi_restore 8
 192              		.cfi_def_cfa 2, 32
 193 0144 83348100 		ld	s1,8(sp)
 194              		.cfi_restore 9
 195              	.LVL22:
 196 0148 03390100 		ld	s2,0(sp)
 197              		.cfi_restore 18
 198              	.LVL23:
GAS LISTING /tmp/ccLgm2id.s 			page 6


 199 014c 13010102 		addi	sp,sp,32
 200              		.cfi_def_cfa_offset 0
 201 0150 67800000 		jr	ra
 202              		.cfi_endproc
 203              	.LFE20:
 205              		.align	2
 206              		.globl	_Z8consumerPv
 208              	_Z8consumerPv:
 209              	.LFB21:
  54:test/ConsumerProducer_C_API_test.cpp **** 
  55:test/ConsumerProducer_C_API_test.cpp **** void consumer(void *arg) {
 210              		.loc 1 55 26 is_stmt 1
 211              		.cfi_startproc
 212              	.LVL24:
 213 0154 130101FD 		addi	sp,sp,-48
 214              		.cfi_def_cfa_offset 48
 215 0158 23341102 		sd	ra,40(sp)
 216 015c 23308102 		sd	s0,32(sp)
 217 0160 233C9100 		sd	s1,24(sp)
 218 0164 23382101 		sd	s2,16(sp)
 219 0168 23343101 		sd	s3,8(sp)
 220              		.cfi_offset 1, -8
 221              		.cfi_offset 8, -16
 222              		.cfi_offset 9, -24
 223              		.cfi_offset 18, -32
 224              		.cfi_offset 19, -40
 225 016c 13040103 		addi	s0,sp,48
 226              		.cfi_def_cfa 8, 0
 227 0170 13090500 		mv	s2,a0
  56:test/ConsumerProducer_C_API_test.cpp ****     struct thread_data *data = (struct thread_data *) arg;
 228              		.loc 1 56 5
 229              	.LVL25:
  57:test/ConsumerProducer_C_API_test.cpp **** 
  58:test/ConsumerProducer_C_API_test.cpp **** 
  59:test/ConsumerProducer_C_API_test.cpp ****     int i = 0;
 230              		.loc 1 59 5
 231              		.loc 1 59 9 is_stmt 0
 232 0174 93090000 		li	s3,0
 233 0178 6F00C001 		j	.L15
 234              	.LVL26:
 235              	.L20:
 236              	.LBB2:
  60:test/ConsumerProducer_C_API_test.cpp ****     while (!threadEnd) {
  61:test/ConsumerProducer_C_API_test.cpp ****         int key = data->buffer->get();
  62:test/ConsumerProducer_C_API_test.cpp ****         i++;
  63:test/ConsumerProducer_C_API_test.cpp **** 
  64:test/ConsumerProducer_C_API_test.cpp ****         putc(key);
  65:test/ConsumerProducer_C_API_test.cpp **** 
  66:test/ConsumerProducer_C_API_test.cpp ****         if (i % (5 * data->id) == 0) {
  67:test/ConsumerProducer_C_API_test.cpp ****             thread_dispatch();
 237              		.loc 1 67 13 is_stmt 1
 238              		.loc 1 67 28 is_stmt 0
 239 017c 97000000 		call	thread_dispatch@plt
 239      E7800000 
 240              	.LVL27:
 241 0184 6F000005 		j	.L17
 242              	.LVL28:
GAS LISTING /tmp/ccLgm2id.s 			page 7


 243              	.L21:
  68:test/ConsumerProducer_C_API_test.cpp ****         }
  69:test/ConsumerProducer_C_API_test.cpp **** 
  70:test/ConsumerProducer_C_API_test.cpp ****         if (i % 80 == 0) {
  71:test/ConsumerProducer_C_API_test.cpp ****             putc('\n');
 244              		.loc 1 71 13 is_stmt 1
 245              		.loc 1 71 17 is_stmt 0
 246 0188 1305A000 		li	a0,10
 247 018c 97000000 		call	putc@plt
 247      E7800000 
 248              	.LVL29:
 249              	.L15:
 250              	.LBE2:
  60:test/ConsumerProducer_C_API_test.cpp ****     while (!threadEnd) {
 251              		.loc 1 60 5 is_stmt 1
  60:test/ConsumerProducer_C_API_test.cpp ****     while (!threadEnd) {
 252              		.loc 1 60 12
 253 0194 97070000 		lw	a5,.LANCHOR0
 253      83A70700 
 254 019c 63940704 		bnez	a5,.L16
 255              	.LBB3:
  61:test/ConsumerProducer_C_API_test.cpp ****         i++;
 256              		.loc 1 61 9
  61:test/ConsumerProducer_C_API_test.cpp ****         i++;
 257              		.loc 1 61 36 is_stmt 0
 258 01a0 03358900 		ld	a0,8(s2)
 259 01a4 97000000 		call	_ZN6Buffer3getEv@plt
 259      E7800000 
 260              	.LVL30:
  62:test/ConsumerProducer_C_API_test.cpp **** 
 261              		.loc 1 62 9 is_stmt 1
  62:test/ConsumerProducer_C_API_test.cpp **** 
 262              		.loc 1 62 10 is_stmt 0
 263 01ac 9B841900 		addiw	s1,s3,1
 264 01b0 9B890400 		sext.w	s3,s1
 265              	.LVL31:
  64:test/ConsumerProducer_C_API_test.cpp **** 
 266              		.loc 1 64 9 is_stmt 1
  64:test/ConsumerProducer_C_API_test.cpp **** 
 267              		.loc 1 64 13 is_stmt 0
 268 01b4 1375F50F 		andi	a0,a0,0xff
 269              	.LVL32:
 270 01b8 97000000 		call	putc@plt
 270      E7800000 
 271              	.LVL33:
  66:test/ConsumerProducer_C_API_test.cpp ****             thread_dispatch();
 272              		.loc 1 66 9 is_stmt 1
  66:test/ConsumerProducer_C_API_test.cpp ****             thread_dispatch();
 273              		.loc 1 66 28 is_stmt 0
 274 01c0 03270900 		lw	a4,0(s2)
  66:test/ConsumerProducer_C_API_test.cpp ****             thread_dispatch();
 275              		.loc 1 66 20
 276 01c4 9B172700 		slliw	a5,a4,2
 277 01c8 BB87E700 		addw	a5,a5,a4
  66:test/ConsumerProducer_C_API_test.cpp ****             thread_dispatch();
 278              		.loc 1 66 15
 279 01cc BBE7F402 		remw	a5,s1,a5
GAS LISTING /tmp/ccLgm2id.s 			page 8


  66:test/ConsumerProducer_C_API_test.cpp ****             thread_dispatch();
 280              		.loc 1 66 9
 281 01d0 E38607FA 		beqz	a5,.L20
 282              	.L17:
  70:test/ConsumerProducer_C_API_test.cpp ****             putc('\n');
 283              		.loc 1 70 9 is_stmt 1
  70:test/ConsumerProducer_C_API_test.cpp ****             putc('\n');
 284              		.loc 1 70 15 is_stmt 0
 285 01d4 93070005 		li	a5,80
 286 01d8 BBE4F402 		remw	s1,s1,a5
 287              	.LVL34:
  70:test/ConsumerProducer_C_API_test.cpp ****             putc('\n');
 288              		.loc 1 70 9
 289 01dc E39C04FA 		bnez	s1,.L15
 290 01e0 6FF09FFA 		j	.L21
 291              	.L16:
 292              	.LBE3:
  72:test/ConsumerProducer_C_API_test.cpp ****         }
  73:test/ConsumerProducer_C_API_test.cpp ****     }
  74:test/ConsumerProducer_C_API_test.cpp **** 
  75:test/ConsumerProducer_C_API_test.cpp ****     sem_signal(data->wait);
 293              		.loc 1 75 5 is_stmt 1
 294              		.loc 1 75 15 is_stmt 0
 295 01e4 03350901 		ld	a0,16(s2)
 296 01e8 97000000 		call	sem_signal@plt
 296      E7800000 
 297              	.LVL35:
  76:test/ConsumerProducer_C_API_test.cpp **** }
 298              		.loc 1 76 1
 299 01f0 83308102 		ld	ra,40(sp)
 300              		.cfi_restore 1
 301 01f4 03340102 		ld	s0,32(sp)
 302              		.cfi_restore 8
 303              		.cfi_def_cfa 2, 48
 304 01f8 83348101 		ld	s1,24(sp)
 305              		.cfi_restore 9
 306 01fc 03390101 		ld	s2,16(sp)
 307              		.cfi_restore 18
 308              	.LVL36:
 309 0200 83398100 		ld	s3,8(sp)
 310              		.cfi_restore 19
 311              	.LVL37:
 312 0204 13010103 		addi	sp,sp,48
 313              		.cfi_def_cfa_offset 0
 314 0208 67800000 		jr	ra
 315              		.cfi_endproc
 316              	.LFE21:
 318              		.section	.rodata.str1.8,"aMS",@progbits,1
 319              		.align	3
 320              	.LC0:
 321 0000 556E6573 		.string	"Unesite broj proizvodjaca?\n"
 321      69746520 
 321      62726F6A 
 321      2070726F 
 321      697A766F 
 322 001c 00000000 		.align	3
 323              	.LC1:
GAS LISTING /tmp/ccLgm2id.s 			page 9


 324 0020 556E6573 		.string	"Unesite velicinu bafera?\n"
 324      69746520 
 324      76656C69 
 324      63696E75 
 324      20626166 
 325 003a 00000000 		.align	3
 325      0000
 326              	.LC2:
 327 0040 42726F6A 		.string	"Broj proizvodjaca "
 327      2070726F 
 327      697A766F 
 327      646A6163 
 327      612000
 328 0053 00000000 		.align	3
 328      00
 329              	.LC3:
 330 0058 20692076 		.string	" i velicina bafera "
 330      656C6963 
 330      696E6120 
 330      62616665 
 330      72612000 
 331 006c 00000000 		.align	3
 332              	.LC4:
 333 0070 2E0A00   		.string	".\n"
 334              		.text
 335              		.align	2
 336              		.globl	_Z22producerConsumer_C_APIv
 338              	_Z22producerConsumer_C_APIv:
 339              	.LFB22:
  77:test/ConsumerProducer_C_API_test.cpp **** 
  78:test/ConsumerProducer_C_API_test.cpp **** void producerConsumer_C_API() {
 340              		.loc 1 78 31 is_stmt 1
 341              		.cfi_startproc
 342              		.cfi_personality 0x9b,DW.ref.__gxx_personality_v0
 343              		.cfi_lsda 0x1b,.LLSDA22
 344 020c 130101F9 		addi	sp,sp,-112
 345              		.cfi_def_cfa_offset 112
 346 0210 23341106 		sd	ra,104(sp)
 347 0214 23308106 		sd	s0,96(sp)
 348 0218 233C9104 		sd	s1,88(sp)
 349 021c 23382105 		sd	s2,80(sp)
 350 0220 23343105 		sd	s3,72(sp)
 351 0224 23304105 		sd	s4,64(sp)
 352 0228 233C5103 		sd	s5,56(sp)
 353              		.cfi_offset 1, -8
 354              		.cfi_offset 8, -16
 355              		.cfi_offset 9, -24
 356              		.cfi_offset 18, -32
 357              		.cfi_offset 19, -40
 358              		.cfi_offset 20, -48
 359              		.cfi_offset 21, -56
 360 022c 13040107 		addi	s0,sp,112
 361              		.cfi_def_cfa 8, 0
  79:test/ConsumerProducer_C_API_test.cpp ****     char input[30];
 362              		.loc 1 79 5
  80:test/ConsumerProducer_C_API_test.cpp ****     int n, threadNum;
 363              		.loc 1 80 5
GAS LISTING /tmp/ccLgm2id.s 			page 10


  81:test/ConsumerProducer_C_API_test.cpp **** 
  82:test/ConsumerProducer_C_API_test.cpp ****     printString("Unesite broj proizvodjaca?\n");
 364              		.loc 1 82 5
 365              		.loc 1 82 16 is_stmt 0
 366 0230 17050000 		lla	a0,.LC0
 366      13050500 
 367              	.LEHB0:
 368 0238 97000000 		call	_Z11printStringPKc@plt
 368      E7800000 
 369              	.LVL38:
  83:test/ConsumerProducer_C_API_test.cpp ****     getString(input, 30);
 370              		.loc 1 83 5 is_stmt 1
 371              		.loc 1 83 14 is_stmt 0
 372 0240 9305E001 		li	a1,30
 373 0244 930404FA 		addi	s1,s0,-96
 374 0248 13850400 		mv	a0,s1
 375 024c 97000000 		call	_Z9getStringPci@plt
 375      E7800000 
 376              	.LVL39:
  84:test/ConsumerProducer_C_API_test.cpp ****     threadNum = stringToInt(input);
 377              		.loc 1 84 5 is_stmt 1
 378              		.loc 1 84 28 is_stmt 0
 379 0254 13850400 		mv	a0,s1
 380 0258 97000000 		call	_Z11stringToIntPKc@plt
 380      E7800000 
 381              	.LVL40:
 382 0260 13090500 		mv	s2,a0
 383              	.LVL41:
  85:test/ConsumerProducer_C_API_test.cpp **** 
  86:test/ConsumerProducer_C_API_test.cpp ****     printString("Unesite velicinu bafera?\n");
 384              		.loc 1 86 5 is_stmt 1
 385              		.loc 1 86 16 is_stmt 0
 386 0264 17050000 		lla	a0,.LC1
 386      13050500 
 387 026c 97000000 		call	_Z11printStringPKc@plt
 387      E7800000 
 388              	.LVL42:
  87:test/ConsumerProducer_C_API_test.cpp ****     getString(input, 30);
 389              		.loc 1 87 5 is_stmt 1
 390              		.loc 1 87 14 is_stmt 0
 391 0274 9305E001 		li	a1,30
 392 0278 13850400 		mv	a0,s1
 393 027c 97000000 		call	_Z9getStringPci@plt
 393      E7800000 
 394              	.LVL43:
  88:test/ConsumerProducer_C_API_test.cpp ****     n = stringToInt(input);
 395              		.loc 1 88 5 is_stmt 1
 396              		.loc 1 88 20 is_stmt 0
 397 0284 13850400 		mv	a0,s1
 398 0288 97000000 		call	_Z11stringToIntPKc@plt
 398      E7800000 
 399              	.LVL44:
 400 0290 93040500 		mv	s1,a0
 401              	.LVL45:
  89:test/ConsumerProducer_C_API_test.cpp **** 
  90:test/ConsumerProducer_C_API_test.cpp ****     printString("Broj proizvodjaca "); printInt(threadNum);
 402              		.loc 1 90 5 is_stmt 1
GAS LISTING /tmp/ccLgm2id.s 			page 11


 403              		.loc 1 90 16 is_stmt 0
 404 0294 17050000 		lla	a0,.LC2
 404      13050500 
 405 029c 97000000 		call	_Z11printStringPKc@plt
 405      E7800000 
 406              	.LVL46:
 407              		.loc 1 90 40 is_stmt 1
 408              		.loc 1 90 48 is_stmt 0
 409 02a4 13060000 		li	a2,0
 410 02a8 9305A000 		li	a1,10
 411 02ac 13050900 		mv	a0,s2
 412 02b0 97000000 		call	_Z8printIntiii@plt
 412      E7800000 
 413              	.LVL47:
  91:test/ConsumerProducer_C_API_test.cpp ****     printString(" i velicina bafera "); printInt(n);
 414              		.loc 1 91 5 is_stmt 1
 415              		.loc 1 91 16 is_stmt 0
 416 02b8 17050000 		lla	a0,.LC3
 416      13050500 
 417 02c0 97000000 		call	_Z11printStringPKc@plt
 417      E7800000 
 418              	.LVL48:
 419              		.loc 1 91 41 is_stmt 1
 420              		.loc 1 91 49 is_stmt 0
 421 02c8 13060000 		li	a2,0
 422 02cc 9305A000 		li	a1,10
 423 02d0 13850400 		mv	a0,s1
 424 02d4 97000000 		call	_Z8printIntiii@plt
 424      E7800000 
 425              	.LVL49:
  92:test/ConsumerProducer_C_API_test.cpp ****     printString(".\n");
 426              		.loc 1 92 5 is_stmt 1
 427              		.loc 1 92 16 is_stmt 0
 428 02dc 17050000 		lla	a0,.LC4
 428      13050500 
 429 02e4 97000000 		call	_Z11printStringPKc@plt
 429      E7800000 
 430              	.LVL50:
  93:test/ConsumerProducer_C_API_test.cpp **** 
  94:test/ConsumerProducer_C_API_test.cpp ****     Buffer *buffer = new Buffer(n);
 431              		.loc 1 94 5 is_stmt 1
 432              		.loc 1 94 34 is_stmt 0
 433 02ec 13058003 		li	a0,56
 434 02f0 97000000 		call	_Znwm@plt
 434      E7800000 
 435              	.LVL51:
 436              	.LEHE0:
 437 02f8 130A0500 		mv	s4,a0
 438 02fc 93850400 		mv	a1,s1
 439              	.LEHB1:
 440 0300 97000000 		call	_ZN6BufferC1Ei@plt
 440      E7800000 
 441              	.LVL52:
 442              	.LEHE1:
  95:test/ConsumerProducer_C_API_test.cpp **** 
  96:test/ConsumerProducer_C_API_test.cpp ****     sem_open(&waitForAll, 0);
 443              		.loc 1 96 5 is_stmt 1 discriminator 3
GAS LISTING /tmp/ccLgm2id.s 			page 12


 444              		.loc 1 96 13 is_stmt 0 discriminator 3
 445 0308 93050000 		li	a1,0
 446 030c 17050000 		lla	a0,.LANCHOR0+8
 446      13050500 
 447              	.LEHB2:
 448 0314 97000000 		call	sem_open@plt
 448      E7800000 
 449              	.LVL53:
  97:test/ConsumerProducer_C_API_test.cpp **** 
  98:test/ConsumerProducer_C_API_test.cpp ****     thread_t threads[threadNum];
 450              		.loc 1 98 5 is_stmt 1 discriminator 3
 451              		.loc 1 98 14 is_stmt 0 discriminator 3
 452 031c 93173900 		slli	a5,s2,3
 453 0320 9387F700 		addi	a5,a5,15
 454 0324 93F707FF 		andi	a5,a5,-16
 455 0328 3301F140 		sub	sp,sp,a5
 456 032c 930A0100 		mv	s5,sp
 457              	.LVL54:
  99:test/ConsumerProducer_C_API_test.cpp ****     thread_t consumerThread;
 458              		.loc 1 99 5 is_stmt 1 discriminator 3
 100:test/ConsumerProducer_C_API_test.cpp **** 
 101:test/ConsumerProducer_C_API_test.cpp ****     struct thread_data data[threadNum + 1];
 459              		.loc 1 101 5 discriminator 3
 460              		.loc 1 101 39 is_stmt 0 discriminator 3
 461 0330 1B071900 		addiw	a4,s2,1
 462              	.LVL55:
 463              		.loc 1 101 24 discriminator 3
 464 0334 93171700 		slli	a5,a4,1
 465 0338 B387E700 		add	a5,a5,a4
 466 033c 93973700 		slli	a5,a5,3
 467 0340 9387F700 		addi	a5,a5,15
 468 0344 93F707FF 		andi	a5,a5,-16
 469 0348 3301F140 		sub	sp,sp,a5
 470              	.LVL56:
 471 034c 93090100 		mv	s3,sp
 472              	.LVL57:
 102:test/ConsumerProducer_C_API_test.cpp **** 
 103:test/ConsumerProducer_C_API_test.cpp ****     data[threadNum].id = threadNum;
 473              		.loc 1 103 5 is_stmt 1 discriminator 3
 474              		.loc 1 103 24 is_stmt 0 discriminator 3
 475 0350 13161900 		slli	a2,s2,1
 476 0354 B3072601 		add	a5,a2,s2
 477 0358 93973700 		slli	a5,a5,3
 478 035c B387F900 		add	a5,s3,a5
 479 0360 23A02701 		sw	s2,0(a5)
 104:test/ConsumerProducer_C_API_test.cpp ****     data[threadNum].buffer = buffer;
 480              		.loc 1 104 5 is_stmt 1 discriminator 3
 481              		.loc 1 104 28 is_stmt 0 discriminator 3
 482 0364 23B44701 		sd	s4,8(a5)
 105:test/ConsumerProducer_C_API_test.cpp ****     data[threadNum].wait = waitForAll;
 483              		.loc 1 105 5 is_stmt 1 discriminator 3
 484              		.loc 1 105 26 is_stmt 0 discriminator 3
 485 0368 17070000 		ld	a4,.LANCHOR0+8
 485      03370700 
 486 0370 23B8E700 		sd	a4,16(a5)
 106:test/ConsumerProducer_C_API_test.cpp ****     thread_create(&consumerThread, consumer, data + threadNum);
 487              		.loc 1 106 5 is_stmt 1 discriminator 3
GAS LISTING /tmp/ccLgm2id.s 			page 13


 488              		.loc 1 106 18 is_stmt 0 discriminator 3
 489 0374 13860700 		mv	a2,a5
 490 0378 97050000 		lla	a1,_Z8consumerPv
 490      93850500 
 491 0380 130584F9 		addi	a0,s0,-104
 492 0384 97000000 		call	thread_create@plt
 492      E7800000 
 493              	.LVL58:
 494              	.LBB4:
 107:test/ConsumerProducer_C_API_test.cpp **** 
 108:test/ConsumerProducer_C_API_test.cpp ****     for (int i = 0; i < threadNum; i++) {
 495              		.loc 1 108 14 discriminator 3
 496 038c 93040000 		li	s1,0
 497              	.LVL59:
 498 0390 6F008002 		j	.L25
 499              	.LVL60:
 500              	.L29:
 109:test/ConsumerProducer_C_API_test.cpp ****         data[i].id = i;
 110:test/ConsumerProducer_C_API_test.cpp ****         data[i].buffer = buffer;
 111:test/ConsumerProducer_C_API_test.cpp ****         data[i].wait = waitForAll;
 112:test/ConsumerProducer_C_API_test.cpp **** 
 113:test/ConsumerProducer_C_API_test.cpp ****         thread_create(threads + i,
 501              		.loc 1 113 22
 502 0394 97050000 		lla	a1,_Z16producerKeyboardPv
 502      93850500 
 503              	.L24:
 114:test/ConsumerProducer_C_API_test.cpp ****                       i > 0 ? producer : producerKeyboard,
 115:test/ConsumerProducer_C_API_test.cpp ****                       data + i);
 504              		.loc 1 115 28 discriminator 4
 505 039c 13961700 		slli	a2,a5,1
 506 03a0 3306F600 		add	a2,a2,a5
 507 03a4 13163600 		slli	a2,a2,3
 113:test/ConsumerProducer_C_API_test.cpp ****                       i > 0 ? producer : producerKeyboard,
 508              		.loc 1 113 22 discriminator 4
 509 03a8 3386C900 		add	a2,s3,a2
 510 03ac 97000000 		call	thread_create@plt
 510      E7800000 
 511              	.LVL61:
 108:test/ConsumerProducer_C_API_test.cpp ****         data[i].id = i;
 512              		.loc 1 108 5 is_stmt 1 discriminator 4
 513 03b4 9B841400 		addiw	s1,s1,1
 514              	.LVL62:
 515              	.L25:
 108:test/ConsumerProducer_C_API_test.cpp ****         data[i].id = i;
 516              		.loc 1 108 23 discriminator 1
 517 03b8 63D22405 		bge	s1,s2,.L23
 109:test/ConsumerProducer_C_API_test.cpp ****         data[i].buffer = buffer;
 518              		.loc 1 109 9
 109:test/ConsumerProducer_C_API_test.cpp ****         data[i].buffer = buffer;
 519              		.loc 1 109 20 is_stmt 0
 520 03bc 93971400 		slli	a5,s1,1
 521 03c0 B3879700 		add	a5,a5,s1
 522 03c4 93973700 		slli	a5,a5,3
 523 03c8 B387F900 		add	a5,s3,a5
 524 03cc 23A09700 		sw	s1,0(a5)
 110:test/ConsumerProducer_C_API_test.cpp ****         data[i].wait = waitForAll;
 525              		.loc 1 110 9 is_stmt 1
GAS LISTING /tmp/ccLgm2id.s 			page 14


 110:test/ConsumerProducer_C_API_test.cpp ****         data[i].wait = waitForAll;
 526              		.loc 1 110 24 is_stmt 0
 527 03d0 23B44701 		sd	s4,8(a5)
 111:test/ConsumerProducer_C_API_test.cpp **** 
 528              		.loc 1 111 9 is_stmt 1
 111:test/ConsumerProducer_C_API_test.cpp **** 
 529              		.loc 1 111 22 is_stmt 0
 530 03d4 17070000 		ld	a4,.LANCHOR0+8
 530      03370700 
 531 03dc 23B8E700 		sd	a4,16(a5)
 113:test/ConsumerProducer_C_API_test.cpp ****                       i > 0 ? producer : producerKeyboard,
 532              		.loc 1 113 9 is_stmt 1
 113:test/ConsumerProducer_C_API_test.cpp ****                       i > 0 ? producer : producerKeyboard,
 533              		.loc 1 113 33 is_stmt 0
 534 03e0 93870400 		mv	a5,s1
 113:test/ConsumerProducer_C_API_test.cpp ****                       i > 0 ? producer : producerKeyboard,
 535              		.loc 1 113 31
 536 03e4 13953400 		slli	a0,s1,3
 113:test/ConsumerProducer_C_API_test.cpp ****                       i > 0 ? producer : producerKeyboard,
 537              		.loc 1 113 22
 538 03e8 3385AA00 		add	a0,s5,a0
 539 03ec E35490FA 		blez	s1,.L29
 540 03f0 97050000 		lla	a1,_Z8producerPv
 540      93850500 
 541 03f8 6FF05FFA 		j	.L24
 542              	.L23:
 543              	.LBE4:
 116:test/ConsumerProducer_C_API_test.cpp ****     }
 117:test/ConsumerProducer_C_API_test.cpp **** 
 118:test/ConsumerProducer_C_API_test.cpp ****     thread_dispatch();
 544              		.loc 1 118 5 is_stmt 1
 545              		.loc 1 118 20 is_stmt 0
 546 03fc 97000000 		call	thread_dispatch@plt
 546      E7800000 
 547              	.LVL63:
 548              	.LBB5:
 119:test/ConsumerProducer_C_API_test.cpp **** 
 120:test/ConsumerProducer_C_API_test.cpp ****     for (int i = 0; i <= threadNum; i++) {
 549              		.loc 1 120 14
 550 0404 93040000 		li	s1,0
 551              	.LVL64:
 552              	.L27:
 553              		.loc 1 120 23 is_stmt 1 discriminator 1
 554 0408 634E9900 		bgt	s1,s2,.L26
 121:test/ConsumerProducer_C_API_test.cpp ****         sem_wait(waitForAll);
 555              		.loc 1 121 9
 556              		.loc 1 121 17 is_stmt 0
 557 040c 17050000 		ld	a0,.LANCHOR0+8
 557      03350500 
 558 0414 97000000 		call	sem_wait@plt
 558      E7800000 
 559              	.LVL65:
 120:test/ConsumerProducer_C_API_test.cpp ****         sem_wait(waitForAll);
 560              		.loc 1 120 5 is_stmt 1
 561 041c 9B841400 		addiw	s1,s1,1
 562              	.LVL66:
 563 0420 6FF09FFE 		j	.L27
GAS LISTING /tmp/ccLgm2id.s 			page 15


 564              	.LVL67:
 565              	.L26:
 566              	.LBE5:
 122:test/ConsumerProducer_C_API_test.cpp ****     }
 123:test/ConsumerProducer_C_API_test.cpp **** 
 124:test/ConsumerProducer_C_API_test.cpp ****     sem_close(waitForAll);
 567              		.loc 1 124 5
 568              		.loc 1 124 14 is_stmt 0
 569 0424 17050000 		ld	a0,.LANCHOR0+8
 569      03350500 
 570 042c 97000000 		call	sem_close@plt
 570      E7800000 
 571              	.LVL68:
 125:test/ConsumerProducer_C_API_test.cpp **** }...
 572              		.loc 1 125 1
 573 0434 130104F9 		addi	sp,s0,-112
 574              		.cfi_remember_state
 575              		.cfi_def_cfa 2, 112
 576              	.LVL69:
 577 0438 83308106 		ld	ra,104(sp)
 578              		.cfi_restore 1
 579 043c 03340106 		ld	s0,96(sp)
 580              		.cfi_restore 8
 581 0440 83348105 		ld	s1,88(sp)
 582              		.cfi_restore 9
 583              	.LVL70:
 584 0444 03390105 		ld	s2,80(sp)
 585              		.cfi_restore 18
 586              	.LVL71:
 587 0448 83398104 		ld	s3,72(sp)
 588              		.cfi_restore 19
 589              	.LVL72:
 590 044c 033A0104 		ld	s4,64(sp)
 591              		.cfi_restore 20
 592              	.LVL73:
 593 0450 833A8103 		ld	s5,56(sp)
 594              		.cfi_restore 21
 595              	.LVL74:
 596 0454 13010107 		addi	sp,sp,112
 597              		.cfi_def_cfa_offset 0
 598 0458 67800000 		jr	ra
 599              	.LVL75:
 600              	.L30:
 601              		.cfi_restore_state
 602 045c 93040500 		mv	s1,a0
 603              	.LVL76:
  94:test/ConsumerProducer_C_API_test.cpp ****     Buffer *buffer = new Buffer(n);
 604              		.loc 1 94 34
 605 0460 13050A00 		mv	a0,s4
 606 0464 97000000 		call	_ZdlPv@plt
 606      E7800000 
 607              	.LVL77:
 608 046c 13850400 		mv	a0,s1
 609 0470 97000000 		call	_Unwind_Resume@plt
 609      E7800000 
 610              	.LVL78:
 611              	.LEHE2:
GAS LISTING /tmp/ccLgm2id.s 			page 16


 612              		.cfi_endproc
 613              	.LFE22:
 614              		.globl	__gxx_personality_v0
 615              		.section	.gcc_except_table,"a",@progbits
 616              	.LLSDA22:
 617 0000 FF       		.byte	0xff
 618 0001 FF       		.byte	0xff
 619 0002 03       		.byte	0x3
 620 0003 27       		.byte	0x27
 621 0004 00000000 		.4byte	.LEHB0-.LFB22
 622 0008 00000000 		.4byte	.LEHE0-.LEHB0
 623 000c 00000000 		.4byte	0
 624 0010 00       		.byte	0
 625 0011 00000000 		.4byte	.LEHB1-.LFB22
 626 0015 00000000 		.4byte	.LEHE1-.LEHB1
 627 0019 00000000 		.4byte	.L30-.LFB22
 628 001d 00       		.byte	0
 629 001e 00000000 		.4byte	.LEHB2-.LFB22
 630 0022 00000000 		.4byte	.LEHE2-.LEHB2
 631 0026 00000000 		.4byte	0
 632 002a 00       		.byte	0
 633              		.text
 635              		.globl	threadEnd
 636              		.globl	waitForAll
 637              		.bss
 638              		.align	3
 639              		.set	.LANCHOR0,. + 0
 642              	threadEnd:
 643 0000 00000000 		.zero	4
 644 0004 00000000 		.zero	4
 647              	waitForAll:
 648 0008 00000000 		.zero	8
 648      00000000 
 649              		.text
 650              	.Letext0:
 651              		.file 2 "test/../h/../lib/hw.h"
 652              		.file 3 "test/../h/syscall_c.h"
 653              		.file 4 "test/buffer.hpp"
 654              		.file 5 "test/printing.hpp"
 2640              		.align	3
 2643              	DW.ref.__gxx_personality_v0:
 2644 0000 00000000 		.dword	__gxx_personality_v0
 2644      00000000 
 2645              		.ident	"GCC: (Ubuntu 9.3.0-17ubuntu1~20.04) 9.3.0"
 2646              		.section	.note.GNU-stack,"",@progbits
GAS LISTING /tmp/ccLgm2id.s 			page 17


DEFINED SYMBOLS
                            *ABS*:0000000000000000 ConsumerProducer_C_API_test.cpp
     /tmp/ccLgm2id.s:9      .text:0000000000000000 _Z16producerKeyboardPv
     /tmp/ccLgm2id.s:13     .text:0000000000000000 .L0 
     /tmp/ccLgm2id.s:15     .text:0000000000000000 .L0 
     /tmp/ccLgm2id.s:16     .text:0000000000000004 .L0 
     /tmp/ccLgm2id.s:21     .text:0000000000000014 .L0 
     /tmp/ccLgm2id.s:22     .text:0000000000000014 .L0 
     /tmp/ccLgm2id.s:23     .text:0000000000000014 .L0 
     /tmp/ccLgm2id.s:24     .text:0000000000000014 .L0 
     /tmp/ccLgm2id.s:26     .text:0000000000000018 .L0 
     /tmp/ccLgm2id.s:30     .text:000000000000001c .L0 
     /tmp/ccLgm2id.s:31     .text:000000000000001c .L0 
     /tmp/ccLgm2id.s:32     .text:000000000000001c .L0 
     /tmp/ccLgm2id.s:33     .text:000000000000001c .L0 
     /tmp/ccLgm2id.s:38     .text:0000000000000024 .L0 
     /tmp/ccLgm2id.s:39     .text:0000000000000024 .L0 
     /tmp/ccLgm2id.s:43     .text:000000000000002c .L0 
     /tmp/ccLgm2id.s:44     .text:000000000000002c .L0 
     /tmp/ccLgm2id.s:45     .text:000000000000002c .L0 
     /tmp/ccLgm2id.s:48     .text:0000000000000034 .L0 
     /tmp/ccLgm2id.s:51     .text:0000000000000038 .L0 
     /tmp/ccLgm2id.s:54     .text:0000000000000040 .L0 
     /tmp/ccLgm2id.s:55     .text:0000000000000040 .L0 
     /tmp/ccLgm2id.s:59     .text:000000000000004c .L0 
     /tmp/ccLgm2id.s:60     .text:000000000000004c .L0 
     /tmp/ccLgm2id.s:64     .text:0000000000000054 .L0 
     /tmp/ccLgm2id.s:65     .text:0000000000000054 .L0 
     /tmp/ccLgm2id.s:67     .text:0000000000000058 .L0 
     /tmp/ccLgm2id.s:71     .text:0000000000000064 .L0 
     /tmp/ccLgm2id.s:73     .text:0000000000000068 .L0 
     /tmp/ccLgm2id.s:78     .text:0000000000000070 .L0 
     /tmp/ccLgm2id.s:79     .text:0000000000000070 .L0 
     /tmp/ccLgm2id.s:82     .text:000000000000007c .L0 
     /tmp/ccLgm2id.s:83     .text:000000000000007c .L0 
     /tmp/ccLgm2id.s:86     .text:0000000000000080 .L0 
     /tmp/ccLgm2id.s:88     .text:0000000000000084 .L0 
     /tmp/ccLgm2id.s:96     .text:000000000000009c .L0 
     /tmp/ccLgm2id.s:97     .text:000000000000009c .L0 
     /tmp/ccLgm2id.s:101    .text:00000000000000a8 .L0 
     /tmp/ccLgm2id.s:102    .text:00000000000000ac .L0 
     /tmp/ccLgm2id.s:104    .text:00000000000000b0 .L0 
     /tmp/ccLgm2id.s:105    .text:00000000000000b0 .L0 
     /tmp/ccLgm2id.s:107    .text:00000000000000b4 .L0 
     /tmp/ccLgm2id.s:110    .text:00000000000000b8 .L0 
     /tmp/ccLgm2id.s:112    .text:00000000000000bc .L0 
     /tmp/ccLgm2id.s:114    .text:00000000000000c0 .L0 
     /tmp/ccLgm2id.s:120    .text:00000000000000c0 _Z8producerPv
     /tmp/ccLgm2id.s:123    .text:00000000000000c0 .L0 
     /tmp/ccLgm2id.s:125    .text:00000000000000c0 .L0 
     /tmp/ccLgm2id.s:126    .text:00000000000000c4 .L0 
     /tmp/ccLgm2id.s:131    .text:00000000000000d4 .L0 
     /tmp/ccLgm2id.s:132    .text:00000000000000d4 .L0 
     /tmp/ccLgm2id.s:133    .text:00000000000000d4 .L0 
     /tmp/ccLgm2id.s:134    .text:00000000000000d4 .L0 
     /tmp/ccLgm2id.s:136    .text:00000000000000d8 .L0 
     /tmp/ccLgm2id.s:140    .text:00000000000000dc .L0 
GAS LISTING /tmp/ccLgm2id.s 			page 18


     /tmp/ccLgm2id.s:141    .text:00000000000000dc .L0 
     /tmp/ccLgm2id.s:142    .text:00000000000000dc .L0 
     /tmp/ccLgm2id.s:147    .text:00000000000000e4 .L0 
     /tmp/ccLgm2id.s:148    .text:00000000000000e4 .L0 
     /tmp/ccLgm2id.s:152    .text:00000000000000ec .L0 
     /tmp/ccLgm2id.s:153    .text:00000000000000ec .L0 
     /tmp/ccLgm2id.s:156    .text:00000000000000f8 .L0 
     /tmp/ccLgm2id.s:157    .text:00000000000000f8 .L0 
     /tmp/ccLgm2id.s:159    .text:00000000000000fc .L0 
     /tmp/ccLgm2id.s:164    .text:000000000000010c .L0 
     /tmp/ccLgm2id.s:165    .text:000000000000010c .L0 
     /tmp/ccLgm2id.s:169    .text:0000000000000114 .L0 
     /tmp/ccLgm2id.s:170    .text:0000000000000114 .L0 
     /tmp/ccLgm2id.s:172    .text:0000000000000118 .L0 
     /tmp/ccLgm2id.s:176    .text:0000000000000124 .L0 
     /tmp/ccLgm2id.s:178    .text:0000000000000128 .L0 
     /tmp/ccLgm2id.s:183    .text:0000000000000130 .L0 
     /tmp/ccLgm2id.s:184    .text:0000000000000130 .L0 
     /tmp/ccLgm2id.s:188    .text:000000000000013c .L0 
     /tmp/ccLgm2id.s:189    .text:0000000000000140 .L0 
     /tmp/ccLgm2id.s:191    .text:0000000000000144 .L0 
     /tmp/ccLgm2id.s:192    .text:0000000000000144 .L0 
     /tmp/ccLgm2id.s:194    .text:0000000000000148 .L0 
     /tmp/ccLgm2id.s:197    .text:000000000000014c .L0 
     /tmp/ccLgm2id.s:200    .text:0000000000000150 .L0 
     /tmp/ccLgm2id.s:202    .text:0000000000000154 .L0 
     /tmp/ccLgm2id.s:208    .text:0000000000000154 _Z8consumerPv
     /tmp/ccLgm2id.s:211    .text:0000000000000154 .L0 
     /tmp/ccLgm2id.s:213    .text:0000000000000154 .L0 
     /tmp/ccLgm2id.s:214    .text:0000000000000158 .L0 
     /tmp/ccLgm2id.s:220    .text:000000000000016c .L0 
     /tmp/ccLgm2id.s:221    .text:000000000000016c .L0 
     /tmp/ccLgm2id.s:222    .text:000000000000016c .L0 
     /tmp/ccLgm2id.s:223    .text:000000000000016c .L0 
     /tmp/ccLgm2id.s:224    .text:000000000000016c .L0 
     /tmp/ccLgm2id.s:226    .text:0000000000000170 .L0 
     /tmp/ccLgm2id.s:230    .text:0000000000000174 .L0 
     /tmp/ccLgm2id.s:231    .text:0000000000000174 .L0 
     /tmp/ccLgm2id.s:232    .text:0000000000000174 .L0 
     /tmp/ccLgm2id.s:238    .text:000000000000017c .L0 
     /tmp/ccLgm2id.s:239    .text:000000000000017c .L0 
     /tmp/ccLgm2id.s:245    .text:0000000000000188 .L0 
     /tmp/ccLgm2id.s:246    .text:0000000000000188 .L0 
     /tmp/ccLgm2id.s:252    .text:0000000000000194 .L0 
     /tmp/ccLgm2id.s:253    .text:0000000000000194 .L0 
     /tmp/ccLgm2id.s:257    .text:00000000000001a0 .L0 
     /tmp/ccLgm2id.s:258    .text:00000000000001a0 .L0 
     /tmp/ccLgm2id.s:262    .text:00000000000001ac .L0 
     /tmp/ccLgm2id.s:263    .text:00000000000001ac .L0 
     /tmp/ccLgm2id.s:267    .text:00000000000001b4 .L0 
     /tmp/ccLgm2id.s:268    .text:00000000000001b4 .L0 
     /tmp/ccLgm2id.s:273    .text:00000000000001c0 .L0 
     /tmp/ccLgm2id.s:274    .text:00000000000001c0 .L0 
     /tmp/ccLgm2id.s:276    .text:00000000000001c4 .L0 
     /tmp/ccLgm2id.s:279    .text:00000000000001cc .L0 
     /tmp/ccLgm2id.s:281    .text:00000000000001d0 .L0 
     /tmp/ccLgm2id.s:284    .text:00000000000001d4 .L0 
GAS LISTING /tmp/ccLgm2id.s 			page 19


     /tmp/ccLgm2id.s:285    .text:00000000000001d4 .L0 
     /tmp/ccLgm2id.s:289    .text:00000000000001dc .L0 
     /tmp/ccLgm2id.s:294    .text:00000000000001e4 .L0 
     /tmp/ccLgm2id.s:295    .text:00000000000001e4 .L0 
     /tmp/ccLgm2id.s:299    .text:00000000000001f0 .L0 
     /tmp/ccLgm2id.s:300    .text:00000000000001f4 .L0 
     /tmp/ccLgm2id.s:302    .text:00000000000001f8 .L0 
     /tmp/ccLgm2id.s:303    .text:00000000000001f8 .L0 
     /tmp/ccLgm2id.s:305    .text:00000000000001fc .L0 
     /tmp/ccLgm2id.s:307    .text:0000000000000200 .L0 
     /tmp/ccLgm2id.s:310    .text:0000000000000204 .L0 
     /tmp/ccLgm2id.s:313    .text:0000000000000208 .L0 
     /tmp/ccLgm2id.s:315    .text:000000000000020c .L0 
     /tmp/ccLgm2id.s:338    .text:000000000000020c _Z22producerConsumer_C_APIv
     /tmp/ccLgm2id.s:341    .text:000000000000020c .L0 
     /tmp/ccLgm2id.s:2643   .data.rel.local.DW.ref.__gxx_personality_v0:0000000000000000 DW.ref.__gxx_personality_v0
     /tmp/ccLgm2id.s:344    .text:000000000000020c .L0 
     /tmp/ccLgm2id.s:345    .text:0000000000000210 .L0 
     /tmp/ccLgm2id.s:353    .text:000000000000022c .L0 
     /tmp/ccLgm2id.s:354    .text:000000000000022c .L0 
     /tmp/ccLgm2id.s:355    .text:000000000000022c .L0 
     /tmp/ccLgm2id.s:356    .text:000000000000022c .L0 
     /tmp/ccLgm2id.s:357    .text:000000000000022c .L0 
     /tmp/ccLgm2id.s:358    .text:000000000000022c .L0 
     /tmp/ccLgm2id.s:359    .text:000000000000022c .L0 
     /tmp/ccLgm2id.s:361    .text:0000000000000230 .L0 
     /tmp/ccLgm2id.s:363    .text:0000000000000230 .L0 
     /tmp/ccLgm2id.s:364    .text:0000000000000230 .L0 
     /tmp/ccLgm2id.s:365    .text:0000000000000230 .L0 
     /tmp/ccLgm2id.s:366    .text:0000000000000230 .L0 
     /tmp/ccLgm2id.s:371    .text:0000000000000240 .L0 
     /tmp/ccLgm2id.s:372    .text:0000000000000240 .L0 
     /tmp/ccLgm2id.s:378    .text:0000000000000254 .L0 
     /tmp/ccLgm2id.s:379    .text:0000000000000254 .L0 
     /tmp/ccLgm2id.s:385    .text:0000000000000264 .L0 
     /tmp/ccLgm2id.s:386    .text:0000000000000264 .L0 
     /tmp/ccLgm2id.s:390    .text:0000000000000274 .L0 
     /tmp/ccLgm2id.s:391    .text:0000000000000274 .L0 
     /tmp/ccLgm2id.s:396    .text:0000000000000284 .L0 
     /tmp/ccLgm2id.s:397    .text:0000000000000284 .L0 
     /tmp/ccLgm2id.s:403    .text:0000000000000294 .L0 
     /tmp/ccLgm2id.s:404    .text:0000000000000294 .L0 
     /tmp/ccLgm2id.s:408    .text:00000000000002a4 .L0 
     /tmp/ccLgm2id.s:409    .text:00000000000002a4 .L0 
     /tmp/ccLgm2id.s:415    .text:00000000000002b8 .L0 
     /tmp/ccLgm2id.s:416    .text:00000000000002b8 .L0 
     /tmp/ccLgm2id.s:420    .text:00000000000002c8 .L0 
     /tmp/ccLgm2id.s:421    .text:00000000000002c8 .L0 
     /tmp/ccLgm2id.s:427    .text:00000000000002dc .L0 
     /tmp/ccLgm2id.s:428    .text:00000000000002dc .L0 
     /tmp/ccLgm2id.s:432    .text:00000000000002ec .L0 
     /tmp/ccLgm2id.s:433    .text:00000000000002ec .L0 
     /tmp/ccLgm2id.s:444    .text:0000000000000308 .L0 
     /tmp/ccLgm2id.s:445    .text:0000000000000308 .L0 
     /tmp/ccLgm2id.s:451    .text:000000000000031c .L0 
     /tmp/ccLgm2id.s:452    .text:000000000000031c .L0 
     /tmp/ccLgm2id.s:459    .text:0000000000000330 .L0 
GAS LISTING /tmp/ccLgm2id.s 			page 20


     /tmp/ccLgm2id.s:460    .text:0000000000000330 .L0 
     /tmp/ccLgm2id.s:461    .text:0000000000000330 .L0 
     /tmp/ccLgm2id.s:464    .text:0000000000000334 .L0 
     /tmp/ccLgm2id.s:474    .text:0000000000000350 .L0 
     /tmp/ccLgm2id.s:475    .text:0000000000000350 .L0 
     /tmp/ccLgm2id.s:481    .text:0000000000000364 .L0 
     /tmp/ccLgm2id.s:482    .text:0000000000000364 .L0 
     /tmp/ccLgm2id.s:484    .text:0000000000000368 .L0 
     /tmp/ccLgm2id.s:485    .text:0000000000000368 .L0 
     /tmp/ccLgm2id.s:488    .text:0000000000000374 .L0 
     /tmp/ccLgm2id.s:489    .text:0000000000000374 .L0 
     /tmp/ccLgm2id.s:496    .text:000000000000038c .L0 
     /tmp/ccLgm2id.s:502    .text:0000000000000394 .L0 
     /tmp/ccLgm2id.s:505    .text:000000000000039c .L0 
     /tmp/ccLgm2id.s:509    .text:00000000000003a8 .L0 
     /tmp/ccLgm2id.s:513    .text:00000000000003b4 .L0 
     /tmp/ccLgm2id.s:517    .text:00000000000003b8 .L0 
     /tmp/ccLgm2id.s:519    .text:00000000000003bc .L0 
     /tmp/ccLgm2id.s:520    .text:00000000000003bc .L0 
     /tmp/ccLgm2id.s:526    .text:00000000000003d0 .L0 
     /tmp/ccLgm2id.s:527    .text:00000000000003d0 .L0 
     /tmp/ccLgm2id.s:529    .text:00000000000003d4 .L0 
     /tmp/ccLgm2id.s:530    .text:00000000000003d4 .L0 
     /tmp/ccLgm2id.s:533    .text:00000000000003e0 .L0 
     /tmp/ccLgm2id.s:534    .text:00000000000003e0 .L0 
     /tmp/ccLgm2id.s:536    .text:00000000000003e4 .L0 
     /tmp/ccLgm2id.s:538    .text:00000000000003e8 .L0 
     /tmp/ccLgm2id.s:545    .text:00000000000003fc .L0 
     /tmp/ccLgm2id.s:546    .text:00000000000003fc .L0 
     /tmp/ccLgm2id.s:550    .text:0000000000000404 .L0 
     /tmp/ccLgm2id.s:554    .text:0000000000000408 .L0 
     /tmp/ccLgm2id.s:556    .text:000000000000040c .L0 
     /tmp/ccLgm2id.s:557    .text:000000000000040c .L0 
     /tmp/ccLgm2id.s:561    .text:000000000000041c .L0 
     /tmp/ccLgm2id.s:568    .text:0000000000000424 .L0 
     /tmp/ccLgm2id.s:569    .text:0000000000000424 .L0 
     /tmp/ccLgm2id.s:573    .text:0000000000000434 .L0 
     /tmp/ccLgm2id.s:574    .text:0000000000000438 .L0 
     /tmp/ccLgm2id.s:575    .text:0000000000000438 .L0 
     /tmp/ccLgm2id.s:578    .text:000000000000043c .L0 
     /tmp/ccLgm2id.s:580    .text:0000000000000440 .L0 
     /tmp/ccLgm2id.s:582    .text:0000000000000444 .L0 
     /tmp/ccLgm2id.s:585    .text:0000000000000448 .L0 
     /tmp/ccLgm2id.s:588    .text:000000000000044c .L0 
     /tmp/ccLgm2id.s:591    .text:0000000000000450 .L0 
     /tmp/ccLgm2id.s:594    .text:0000000000000454 .L0 
     /tmp/ccLgm2id.s:597    .text:0000000000000458 .L0 
     /tmp/ccLgm2id.s:601    .text:000000000000045c .L0 
     /tmp/ccLgm2id.s:605    .text:0000000000000460 .L0 
     /tmp/ccLgm2id.s:612    .text:0000000000000478 .L0 
     /tmp/ccLgm2id.s:642    .bss:0000000000000000 threadEnd
     /tmp/ccLgm2id.s:647    .bss:0000000000000008 waitForAll
     /tmp/ccLgm2id.s:639    .bss:0000000000000000 .LANCHOR0
     /tmp/ccLgm2id.s:655    .text:0000000000000478 .L0 
     /tmp/ccLgm2id.s:80     .text:0000000000000074 .L0 
     /tmp/ccLgm2id.s:153    .text:00000000000000ec .L0 
     /tmp/ccLgm2id.s:253    .text:0000000000000194 .L0 
GAS LISTING /tmp/ccLgm2id.s 			page 21


     /tmp/ccLgm2id.s:320    .rodata.str1.8:0000000000000000 .LC0
     /tmp/ccLgm2id.s:366    .text:0000000000000230 .L0 
     /tmp/ccLgm2id.s:323    .rodata.str1.8:0000000000000020 .LC1
     /tmp/ccLgm2id.s:386    .text:0000000000000264 .L0 
     /tmp/ccLgm2id.s:326    .rodata.str1.8:0000000000000040 .LC2
     /tmp/ccLgm2id.s:404    .text:0000000000000294 .L0 
     /tmp/ccLgm2id.s:329    .rodata.str1.8:0000000000000058 .LC3
     /tmp/ccLgm2id.s:416    .text:00000000000002b8 .L0 
     /tmp/ccLgm2id.s:332    .rodata.str1.8:0000000000000070 .LC4
     /tmp/ccLgm2id.s:428    .text:00000000000002dc .L0 
     /tmp/ccLgm2id.s:446    .text:000000000000030c .L0 
     /tmp/ccLgm2id.s:485    .text:0000000000000368 .L0 
     /tmp/ccLgm2id.s:490    .text:0000000000000378 .L0 
     /tmp/ccLgm2id.s:502    .text:0000000000000394 .L0 
     /tmp/ccLgm2id.s:530    .text:00000000000003d4 .L0 
     /tmp/ccLgm2id.s:540    .text:00000000000003f0 .L0 
     /tmp/ccLgm2id.s:557    .text:000000000000040c .L0 
     /tmp/ccLgm2id.s:569    .text:0000000000000424 .L0 
     /tmp/ccLgm2id.s:41     .text:000000000000002c .L2
     /tmp/ccLgm2id.s:76     .text:0000000000000070 .L3
     /tmp/ccLgm2id.s:36     .text:0000000000000024 .L7
     /tmp/ccLgm2id.s:94     .text:000000000000009c .L5
     /tmp/ccLgm2id.s:150    .text:00000000000000ec .L9
     /tmp/ccLgm2id.s:181    .text:0000000000000130 .L10
     /tmp/ccLgm2id.s:145    .text:00000000000000e4 .L13
     /tmp/ccLgm2id.s:249    .text:0000000000000194 .L15
     /tmp/ccLgm2id.s:282    .text:00000000000001d4 .L17
     /tmp/ccLgm2id.s:291    .text:00000000000001e4 .L16
     /tmp/ccLgm2id.s:235    .text:000000000000017c .L20
     /tmp/ccLgm2id.s:243    .text:0000000000000188 .L21
     /tmp/ccLgm2id.s:515    .text:00000000000003b8 .L25
     /tmp/ccLgm2id.s:542    .text:00000000000003fc .L23
     /tmp/ccLgm2id.s:500    .text:0000000000000394 .L29
     /tmp/ccLgm2id.s:503    .text:000000000000039c .L24
     /tmp/ccLgm2id.s:565    .text:0000000000000424 .L26
     /tmp/ccLgm2id.s:552    .text:0000000000000408 .L27
     /tmp/ccLgm2id.s:367    .text:0000000000000238 .LEHB0
     /tmp/ccLgm2id.s:339    .text:000000000000020c .LFB22
     /tmp/ccLgm2id.s:436    .text:00000000000002f8 .LEHE0
     /tmp/ccLgm2id.s:439    .text:0000000000000300 .LEHB1
     /tmp/ccLgm2id.s:442    .text:0000000000000308 .LEHE1
     /tmp/ccLgm2id.s:600    .text:000000000000045c .L30
     /tmp/ccLgm2id.s:447    .text:0000000000000314 .LEHB2
     /tmp/ccLgm2id.s:611    .text:0000000000000478 .LEHE2
     /tmp/ccLgm2id.s:1646   .debug_abbrev:0000000000000000 .Ldebug_abbrev0
     /tmp/ccLgm2id.s:2529   .debug_str:00000000000000fd .LASF71
     /tmp/ccLgm2id.s:2567   .debug_str:0000000000000291 .LASF72
     /tmp/ccLgm2id.s:2509   .debug_str:000000000000007a .LASF73
     /tmp/ccLgm2id.s:5      .text:0000000000000000 .Ltext0
     /tmp/ccLgm2id.s:650    .text:0000000000000478 .Letext0
     /tmp/ccLgm2id.s:2485   .debug_line:0000000000000000 .Ldebug_line0
     /tmp/ccLgm2id.s:2575   .debug_str:00000000000002d6 .LASF0
     /tmp/ccLgm2id.s:2585   .debug_str:0000000000000320 .LASF1
     /tmp/ccLgm2id.s:2565   .debug_str:0000000000000283 .LASF2
     /tmp/ccLgm2id.s:2547   .debug_str:000000000000020e .LASF4
     /tmp/ccLgm2id.s:2605   .debug_str:00000000000003ab .LASF3
     /tmp/ccLgm2id.s:2493   .debug_str:000000000000001e .LASF5
GAS LISTING /tmp/ccLgm2id.s 			page 22


     /tmp/ccLgm2id.s:2591   .debug_str:0000000000000351 .LASF6
     /tmp/ccLgm2id.s:2573   .debug_str:00000000000002c3 .LASF7
     /tmp/ccLgm2id.s:2621   .debug_str:000000000000041e .LASF8
     /tmp/ccLgm2id.s:2539   .debug_str:00000000000001d7 .LASF9
     /tmp/ccLgm2id.s:2595   .debug_str:0000000000000369 .LASF10
     /tmp/ccLgm2id.s:2611   .debug_str:00000000000003d7 .LASF11
     /tmp/ccLgm2id.s:2497   .debug_str:000000000000002b .LASF12
     /tmp/ccLgm2id.s:2489   .debug_str:0000000000000009 .LASF13
     /tmp/ccLgm2id.s:2503   .debug_str:000000000000004d .LASF14
     /tmp/ccLgm2id.s:2601   .debug_str:0000000000000384 .LASF15
     /tmp/ccLgm2id.s:2511   .debug_str:000000000000009d .LASF16
     /tmp/ccLgm2id.s:2487   .debug_str:0000000000000000 .LASF17
     /tmp/ccLgm2id.s:2523   .debug_str:00000000000000e9 .LASF18
     /tmp/ccLgm2id.s:2625   .debug_str:000000000000043b .LASF26
     /tmp/ccLgm2id.s:2599   .debug_str:000000000000037d .LASF19
     /tmp/ccLgm2id.s:2515   .debug_str:00000000000000c1 .LASF20
     /tmp/ccLgm2id.s:2563   .debug_str:000000000000027e .LASF21
     /tmp/ccLgm2id.s:2521   .debug_str:00000000000000da .LASF22
     /tmp/ccLgm2id.s:2541   .debug_str:00000000000001e5 .LASF23
     /tmp/ccLgm2id.s:2561   .debug_str:0000000000000274 .LASF24
     /tmp/ccLgm2id.s:2579   .debug_str:00000000000002fa .LASF25
     /tmp/ccLgm2id.s:2533   .debug_str:00000000000001b4 .LASF28
     /tmp/ccLgm2id.s:2569   .debug_str:00000000000002b6 .LASF27
     /tmp/ccLgm2id.s:2589   .debug_str:0000000000000342 .LASF29
     /tmp/ccLgm2id.s:2633   .debug_str:0000000000000474 .LASF30
     /tmp/ccLgm2id.s:2603   .debug_str:000000000000039a .LASF31
     /tmp/ccLgm2id.s:2531   .debug_str:00000000000001a9 .LASF32
     /tmp/ccLgm2id.s:2537   .debug_str:00000000000001cb .LASF74
     /tmp/ccLgm2id.s:2527   .debug_str:00000000000000f8 .LASF33
     /tmp/ccLgm2id.s:2549   .debug_str:0000000000000215 .LASF34
     /tmp/ccLgm2id.s:2577   .debug_str:00000000000002e3 .LASF41
     /tmp/ccLgm2id.s:2553   .debug_str:000000000000022b .LASF43
     /tmp/ccLgm2id.s:613    .text:0000000000000478 .LFE22
     /tmp/ccLgm2id.s:2495   .debug_str:0000000000000025 .LASF35
     /tmp/ccLgm2id.s:2193   .debug_loc:0000000000000000 .LLST13
     /tmp/ccLgm2id.s:2519   .debug_str:00000000000000d0 .LASF36
     /tmp/ccLgm2id.s:2204   .debug_loc:0000000000000036 .LLST14
     /tmp/ccLgm2id.s:2215   .debug_loc:000000000000006c .LLST15
     /tmp/ccLgm2id.s:2535   .debug_str:00000000000001c3 .LASF37
     /tmp/ccLgm2id.s:2222   .debug_loc:000000000000008f .LLST16
     /tmp/ccLgm2id.s:2627   .debug_str:0000000000000442 .LASF38
     /tmp/ccLgm2id.s:2597   .debug_str:0000000000000378 .LASF39
     /tmp/ccLgm2id.s:2235   .debug_loc:00000000000000c7 .LLST17
     /tmp/ccLgm2id.s:494    .text:000000000000038c .LBB4
     /tmp/ccLgm2id.s:543    .text:00000000000003fc .LBE4
     /tmp/ccLgm2id.s:2248   .debug_loc:00000000000000ff .LLST18
     /tmp/ccLgm2id.s:511    .text:00000000000003b4 .LVL61
     /tmp/ccLgm2id.s:548    .text:0000000000000404 .LBB5
     /tmp/ccLgm2id.s:566    .text:0000000000000424 .LBE5
     /tmp/ccLgm2id.s:2255   .debug_loc:0000000000000122 .LLST19
     /tmp/ccLgm2id.s:559    .text:000000000000041c .LVL65
     /tmp/ccLgm2id.s:369    .text:0000000000000240 .LVL38
     /tmp/ccLgm2id.s:376    .text:0000000000000254 .LVL39
     /tmp/ccLgm2id.s:381    .text:0000000000000260 .LVL40
     /tmp/ccLgm2id.s:388    .text:0000000000000274 .LVL42
     /tmp/ccLgm2id.s:394    .text:0000000000000284 .LVL43
     /tmp/ccLgm2id.s:399    .text:0000000000000290 .LVL44
GAS LISTING /tmp/ccLgm2id.s 			page 23


     /tmp/ccLgm2id.s:406    .text:00000000000002a4 .LVL46
     /tmp/ccLgm2id.s:413    .text:00000000000002b8 .LVL47
     /tmp/ccLgm2id.s:418    .text:00000000000002c8 .LVL48
     /tmp/ccLgm2id.s:425    .text:00000000000002dc .LVL49
     /tmp/ccLgm2id.s:430    .text:00000000000002ec .LVL50
     /tmp/ccLgm2id.s:435    .text:00000000000002f8 .LVL51
     /tmp/ccLgm2id.s:441    .text:0000000000000308 .LVL52
     /tmp/ccLgm2id.s:449    .text:000000000000031c .LVL53
     /tmp/ccLgm2id.s:493    .text:000000000000038c .LVL58
     /tmp/ccLgm2id.s:547    .text:0000000000000404 .LVL63
     /tmp/ccLgm2id.s:571    .text:0000000000000434 .LVL68
     /tmp/ccLgm2id.s:607    .text:000000000000046c .LVL77
     /tmp/ccLgm2id.s:610    .text:0000000000000478 .LVL78
     /tmp/ccLgm2id.s:2593   .debug_str:0000000000000364 .LASF40
     /tmp/ccLgm2id.s:2499   .debug_str:000000000000003b .LASF42
     /tmp/ccLgm2id.s:2613   .debug_str:00000000000003e6 .LASF44
     /tmp/ccLgm2id.s:209    .text:0000000000000154 .LFB21
     /tmp/ccLgm2id.s:316    .text:000000000000020c .LFE21
     /tmp/ccLgm2id.s:2266   .debug_loc:0000000000000158 .LLST7
     /tmp/ccLgm2id.s:2284   .debug_loc:00000000000001a4 .LLST8
     /tmp/ccLgm2id.s:2302   .debug_loc:00000000000001f0 .LLST9
     /tmp/ccLgm2id.s:2477   .debug_ranges:0000000000000000 .Ldebug_ranges0
     /tmp/ccLgm2id.s:2326   .debug_loc:0000000000000260 .LLST10
     /tmp/ccLgm2id.s:240    .text:0000000000000184 .LVL27
     /tmp/ccLgm2id.s:248    .text:0000000000000194 .LVL29
     /tmp/ccLgm2id.s:260    .text:00000000000001ac .LVL30
     /tmp/ccLgm2id.s:271    .text:00000000000001c0 .LVL33
     /tmp/ccLgm2id.s:297    .text:00000000000001f0 .LVL35
     /tmp/ccLgm2id.s:2583   .debug_str:0000000000000317 .LASF45
     /tmp/ccLgm2id.s:2617   .debug_str:0000000000000405 .LASF46
     /tmp/ccLgm2id.s:121    .text:00000000000000c0 .LFB20
     /tmp/ccLgm2id.s:203    .text:0000000000000154 .LFE20
     /tmp/ccLgm2id.s:2333   .debug_loc:0000000000000283 .LLST4
     /tmp/ccLgm2id.s:2351   .debug_loc:00000000000002cf .LLST5
     /tmp/ccLgm2id.s:2369   .debug_loc:000000000000031b .LLST6
     /tmp/ccLgm2id.s:149    .text:00000000000000ec .LVL17
     /tmp/ccLgm2id.s:162    .text:000000000000010c .LVL18
     /tmp/ccLgm2id.s:186    .text:000000000000013c .LVL21
     /tmp/ccLgm2id.s:2615   .debug_str:00000000000003f4 .LASF47
     /tmp/ccLgm2id.s:2555   .debug_str:0000000000000247 .LASF48
     /tmp/ccLgm2id.s:10     .text:0000000000000000 .LFB19
     /tmp/ccLgm2id.s:115    .text:00000000000000c0 .LFE19
     /tmp/ccLgm2id.s:2393   .debug_loc:000000000000038b .LLST0
     /tmp/ccLgm2id.s:2411   .debug_loc:00000000000003d7 .LLST1
     /tmp/ccLgm2id.s:2429   .debug_loc:0000000000000423 .LLST2
     /tmp/ccLgm2id.s:2440   .debug_loc:0000000000000459 .LLST3
     /tmp/ccLgm2id.s:40     .text:000000000000002c .LVL3
     /tmp/ccLgm2id.s:46     .text:0000000000000034 .LVL4
     /tmp/ccLgm2id.s:57     .text:000000000000004c .LVL6
     /tmp/ccLgm2id.s:90     .text:0000000000000090 .LVL10
     /tmp/ccLgm2id.s:93     .text:000000000000009c .LVL11
     /tmp/ccLgm2id.s:99     .text:00000000000000a8 .LVL12
     /tmp/ccLgm2id.s:2513   .debug_str:00000000000000b3 .LASF49
     /tmp/ccLgm2id.s:2505   .debug_str:0000000000000059 .LASF50
     /tmp/ccLgm2id.s:2629   .debug_str:0000000000000451 .LASF51
     /tmp/ccLgm2id.s:2551   .debug_str:000000000000021f .LASF52
     /tmp/ccLgm2id.s:2631   .debug_str:0000000000000464 .LASF53
GAS LISTING /tmp/ccLgm2id.s 			page 24


     /tmp/ccLgm2id.s:2517   .debug_str:00000000000000c6 .LASF54
     /tmp/ccLgm2id.s:2581   .debug_str:0000000000000304 .LASF55
     /tmp/ccLgm2id.s:2545   .debug_str:0000000000000202 .LASF56
     /tmp/ccLgm2id.s:2587   .debug_str:0000000000000333 .LASF57
     /tmp/ccLgm2id.s:2501   .debug_str:0000000000000044 .LASF58
     /tmp/ccLgm2id.s:2559   .debug_str:000000000000026e .LASF62
     /tmp/ccLgm2id.s:2623   .debug_str:000000000000042e .LASF64
     /tmp/ccLgm2id.s:2525   .debug_str:00000000000000ef .LASF59
     /tmp/ccLgm2id.s:2557   .debug_str:000000000000025e .LASF60
     /tmp/ccLgm2id.s:2609   .debug_str:00000000000003cd .LASF61
     /tmp/ccLgm2id.s:2635   .debug_str:0000000000000485 .LASF63
     /tmp/ccLgm2id.s:2607   .debug_str:00000000000003bd .LASF65
     /tmp/ccLgm2id.s:2543   .debug_str:00000000000001f3 .LASF66
     /tmp/ccLgm2id.s:2507   .debug_str:0000000000000062 .LASF67
     /tmp/ccLgm2id.s:2571   .debug_str:00000000000002be .LASF68
     /tmp/ccLgm2id.s:2619   .debug_str:0000000000000413 .LASF69
     /tmp/ccLgm2id.s:2491   .debug_str:0000000000000019 .LASF70
     /tmp/ccLgm2id.s:401    .text:0000000000000294 .LVL45
     /tmp/ccLgm2id.s:497    .text:0000000000000390 .LVL59
     /tmp/ccLgm2id.s:599    .text:000000000000045c .LVL75
     /tmp/ccLgm2id.s:603    .text:0000000000000460 .LVL76
     /tmp/ccLgm2id.s:383    .text:0000000000000264 .LVL41
     /tmp/ccLgm2id.s:586    .text:0000000000000448 .LVL71
     /tmp/ccLgm2id.s:592    .text:0000000000000450 .LVL73
     /tmp/ccLgm2id.s:457    .text:0000000000000330 .LVL54
     /tmp/ccLgm2id.s:470    .text:000000000000034c .LVL56
     /tmp/ccLgm2id.s:595    .text:0000000000000454 .LVL74
     /tmp/ccLgm2id.s:472    .text:0000000000000350 .LVL57
     /tmp/ccLgm2id.s:576    .text:0000000000000438 .LVL69
     /tmp/ccLgm2id.s:589    .text:000000000000044c .LVL72
     /tmp/ccLgm2id.s:499    .text:0000000000000394 .LVL60
     /tmp/ccLgm2id.s:551    .text:0000000000000408 .LVL64
     /tmp/ccLgm2id.s:562    .text:0000000000000420 .LVL66
     /tmp/ccLgm2id.s:564    .text:0000000000000424 .LVL67
     /tmp/ccLgm2id.s:583    .text:0000000000000444 .LVL70
     /tmp/ccLgm2id.s:212    .text:0000000000000154 .LVL24
     /tmp/ccLgm2id.s:234    .text:000000000000017c .LVL26
     /tmp/ccLgm2id.s:308    .text:0000000000000200 .LVL36
     /tmp/ccLgm2id.s:229    .text:0000000000000174 .LVL25
     /tmp/ccLgm2id.s:242    .text:0000000000000188 .LVL28
     /tmp/ccLgm2id.s:265    .text:00000000000001b4 .LVL31
     /tmp/ccLgm2id.s:287    .text:00000000000001dc .LVL34
     /tmp/ccLgm2id.s:311    .text:0000000000000204 .LVL37
     /tmp/ccLgm2id.s:269    .text:00000000000001b8 .LVL32
     /tmp/ccLgm2id.s:124    .text:00000000000000c0 .LVL14
     /tmp/ccLgm2id.s:144    .text:00000000000000e4 .LVL16
     /tmp/ccLgm2id.s:195    .text:0000000000000148 .LVL22
     /tmp/ccLgm2id.s:139    .text:00000000000000dc .LVL15
     /tmp/ccLgm2id.s:167    .text:0000000000000114 .LVL19
     /tmp/ccLgm2id.s:180    .text:0000000000000130 .LVL20
     /tmp/ccLgm2id.s:198    .text:000000000000014c .LVL23
     /tmp/ccLgm2id.s:14     .text:0000000000000000 .LVL0
     /tmp/ccLgm2id.s:35     .text:0000000000000024 .LVL2
     /tmp/ccLgm2id.s:108    .text:00000000000000b4 .LVL13
     /tmp/ccLgm2id.s:29     .text:000000000000001c .LVL1
     /tmp/ccLgm2id.s:49     .text:0000000000000038 .LVL5
     /tmp/ccLgm2id.s:75     .text:0000000000000070 .LVL8
GAS LISTING /tmp/ccLgm2id.s 			page 25


     /tmp/ccLgm2id.s:62     .text:0000000000000054 .LVL7
     /tmp/ccLgm2id.s:84     .text:0000000000000080 .LVL9
     /tmp/ccLgm2id.s:656    .debug_info:0000000000000000 .Ldebug_info0
     /tmp/ccLgm2id.s:236    .text:000000000000017c .LBB2
     /tmp/ccLgm2id.s:250    .text:0000000000000194 .LBE2
     /tmp/ccLgm2id.s:255    .text:00000000000001a0 .LBB3
     /tmp/ccLgm2id.s:292    .text:00000000000001e4 .LBE3
     /tmp/ccLgm2id.s:616    .gcc_except_table:0000000000000000 .LLSDA22

UNDEFINED SYMBOLS
thread_dispatch
getc
_ZN6Buffer3putEi
_ZN6BufferD1Ev
_ZdlPv
sem_signal
putc
_ZN6Buffer3getEv
_Z11printStringPKc
_Z9getStringPci
_Z11stringToIntPKc
_Z8printIntiii
_Znwm
_ZN6BufferC1Ei
sem_open
thread_create
sem_wait
sem_close
_Unwind_Resume
__gxx_personality_v0
