GAS LISTING /tmp/cc6l2o9m.s 			page 1


   1              		.file	"ConsumerProducer_C_API_test.cpp"
   2              		.option pic
   3              		.option norelax
   4              		.text
   5              	.Ltext0:
   6              		.section	.rodata.str1.8,"aMS",@progbits,1
   7              		.align	3
   8              	.LC0:
   9 0000 70726F64 		.string	"producer started\n"
   9      75636572 
   9      20737461 
   9      72746564 
   9      0A00
  10 0012 00000000 		.align	3
  10      0000
  11              	.LC1:
  12 0018 70757420 		.string	"put "
  12      00
  13 001d 000000   		.align	3
  14              	.LC2:
  15 0020 64697370 		.string	"dispatched\n"
  15      61746368 
  15      65640A00 
  16 002c 00000000 		.align	3
  17              	.LC3:
  18 0030 72657475 		.string	"returned from dispatch\n"
  18      726E6564 
  18      2066726F 
  18      6D206469 
  18      73706174 
  19              		.align	3
  20              	.LC4:
  21 0048 70726F64 		.string	"producer finished\n"
  21      75636572 
  21      2066696E 
  21      69736865 
  21      640A00
  22              		.text
  23              		.align	2
  24              		.globl	_Z8producerPv
  26              	_Z8producerPv:
  27              	.LFB19:
  28              		.file 1 "test/ConsumerProducer_C_API_test.cpp"
   1:test/ConsumerProducer_C_API_test.cpp **** //
   2:test/ConsumerProducer_C_API_test.cpp **** // Created by os on 5/16/22.
   3:test/ConsumerProducer_C_API_test.cpp **** //
   4:test/ConsumerProducer_C_API_test.cpp **** 
   5:test/ConsumerProducer_C_API_test.cpp **** #include "ConsumerProducer_C_API_test.hpp"
   6:test/ConsumerProducer_C_API_test.cpp **** #include "../h/Riscv.hpp"
   7:test/ConsumerProducer_C_API_test.cpp **** sem_t waitForAll;
   8:test/ConsumerProducer_C_API_test.cpp **** 
   9:test/ConsumerProducer_C_API_test.cpp **** struct thread_data {
  10:test/ConsumerProducer_C_API_test.cpp ****     int id;
  11:test/ConsumerProducer_C_API_test.cpp ****     Buffer *buffer;
  12:test/ConsumerProducer_C_API_test.cpp ****     sem_t wait;
  13:test/ConsumerProducer_C_API_test.cpp **** };
  14:test/ConsumerProducer_C_API_test.cpp **** 
GAS LISTING /tmp/cc6l2o9m.s 			page 2


  15:test/ConsumerProducer_C_API_test.cpp **** volatile int threadEnd = 0;
  16:test/ConsumerProducer_C_API_test.cpp **** volatile int cntGlobal = 0;
  17:test/ConsumerProducer_C_API_test.cpp **** 
  18:test/ConsumerProducer_C_API_test.cpp **** void producerKeyboard(void *arg) {
  19:test/ConsumerProducer_C_API_test.cpp ****     struct thread_data *data = (struct thread_data *) arg;
  20:test/ConsumerProducer_C_API_test.cpp **** 
  21:test/ConsumerProducer_C_API_test.cpp ****     int key;
  22:test/ConsumerProducer_C_API_test.cpp ****     int i = 0;
  23:test/ConsumerProducer_C_API_test.cpp ****     while ((key = getc()) != 0x1b) {
  24:test/ConsumerProducer_C_API_test.cpp ****         data->buffer->put(key);
  25:test/ConsumerProducer_C_API_test.cpp ****         i++;
  26:test/ConsumerProducer_C_API_test.cpp **** 
  27:test/ConsumerProducer_C_API_test.cpp ****         if (i % (10 * data->id) == 0) {
  28:test/ConsumerProducer_C_API_test.cpp ****             thread_dispatch();
  29:test/ConsumerProducer_C_API_test.cpp ****         }
  30:test/ConsumerProducer_C_API_test.cpp ****     }
  31:test/ConsumerProducer_C_API_test.cpp **** 
  32:test/ConsumerProducer_C_API_test.cpp ****     threadEnd = 1;
  33:test/ConsumerProducer_C_API_test.cpp **** 
  34:test/ConsumerProducer_C_API_test.cpp ****     delete data->buffer;
  35:test/ConsumerProducer_C_API_test.cpp **** 
  36:test/ConsumerProducer_C_API_test.cpp ****     sem_signal(data->wait);
  37:test/ConsumerProducer_C_API_test.cpp **** }
  38:test/ConsumerProducer_C_API_test.cpp **** 
  39:test/ConsumerProducer_C_API_test.cpp **** void producer(void *arg) {
  29              		.loc 1 39 26
  30              		.cfi_startproc
  31              	.LVL0:
  32 0000 130101FD 		addi	sp,sp,-48
  33              		.cfi_def_cfa_offset 48
  34 0004 23341102 		sd	ra,40(sp)
  35 0008 23308102 		sd	s0,32(sp)
  36 000c 233C9100 		sd	s1,24(sp)
  37 0010 23382101 		sd	s2,16(sp)
  38 0014 23343101 		sd	s3,8(sp)
  39              		.cfi_offset 1, -8
  40              		.cfi_offset 8, -16
  41              		.cfi_offset 9, -24
  42              		.cfi_offset 18, -32
  43              		.cfi_offset 19, -40
  44 0018 13040103 		addi	s0,sp,48
  45              		.cfi_def_cfa 8, 0
  46 001c 13090500 		mv	s2,a0
  40:test/ConsumerProducer_C_API_test.cpp ****     struct thread_data *data = (struct thread_data *) arg;
  47              		.loc 1 40 5
  48              	.LVL1:
  41:test/ConsumerProducer_C_API_test.cpp **** 
  42:test/ConsumerProducer_C_API_test.cpp ****     Riscv::printString("producer started\n");
  49              		.loc 1 42 5
  50              		.loc 1 42 23 is_stmt 0
  51 0020 17050000 		lla	a0,.LC0
  51      13050500 
  52              	.LVL2:
  53 0028 97000000 		call	_ZN5Riscv11printStringEPKc@plt
  53      E7800000 
  54              	.LVL3:
  43:test/ConsumerProducer_C_API_test.cpp **** 
GAS LISTING /tmp/cc6l2o9m.s 			page 3


  44:test/ConsumerProducer_C_API_test.cpp ****     int i = 0;
  55              		.loc 1 44 5 is_stmt 1
  56              		.loc 1 44 9 is_stmt 0
  57 0030 93090000 		li	s3,0
  58              	.LVL4:
  59              	.L2:
  45:test/ConsumerProducer_C_API_test.cpp ****     while (!threadEnd) {
  60              		.loc 1 45 5 is_stmt 1
  61              		.loc 1 45 12
  62 0034 97070000 		lw	a5,.LANCHOR0
  62      83A70700 
  63 003c 6398070C 		bnez	a5,.L3
  46:test/ConsumerProducer_C_API_test.cpp **** 
  47:test/ConsumerProducer_C_API_test.cpp ****         data->buffer->put(data->id + '0');
  64              		.loc 1 47 9
  65              		.loc 1 47 33 is_stmt 0
  66 0040 83250900 		lw	a1,0(s2)
  67              		.loc 1 47 26
  68 0044 9B850503 		addiw	a1,a1,48
  69 0048 03358900 		ld	a0,8(s2)
  70 004c 97000000 		call	_ZN6Buffer3putEi@plt
  70      E7800000 
  71              	.LVL5:
  48:test/ConsumerProducer_C_API_test.cpp ****         i++;
  72              		.loc 1 48 9 is_stmt 1
  73              		.loc 1 48 10 is_stmt 0
  74 0054 9B841900 		addiw	s1,s3,1
  75 0058 9B890400 		sext.w	s3,s1
  76              	.LVL6:
  49:test/ConsumerProducer_C_API_test.cpp ****         cntGlobal++;
  77              		.loc 1 49 9 is_stmt 1
  78              		.loc 1 49 18 is_stmt 0
  79 005c 17070000 		lla	a4,.LANCHOR0
  79      13070700 
  80 0064 83274700 		lw	a5,4(a4)
  81 0068 9B871700 		addiw	a5,a5,1
  82 006c 2322F700 		sw	a5,4(a4)
  50:test/ConsumerProducer_C_API_test.cpp **** 
  51:test/ConsumerProducer_C_API_test.cpp ****         Riscv::printString("put ");
  83              		.loc 1 51 9 is_stmt 1
  84              		.loc 1 51 27 is_stmt 0
  85 0070 17050000 		lla	a0,.LC1
  85      13050500 
  86 0078 97000000 		call	_ZN5Riscv11printStringEPKc@plt
  86      E7800000 
  87              	.LVL7:
  52:test/ConsumerProducer_C_API_test.cpp ****         Riscv::printInteger(data->id + '0');
  88              		.loc 1 52 9 is_stmt 1
  89              		.loc 1 52 35 is_stmt 0
  90 0080 03250900 		lw	a0,0(s2)
  91              		.loc 1 52 28
  92 0084 1B050503 		addiw	a0,a0,48
  93 0088 97000000 		call	_ZN5Riscv12printIntegerEm@plt
  93      E7800000 
  94              	.LVL8:
  53:test/ConsumerProducer_C_API_test.cpp **** 
  54:test/ConsumerProducer_C_API_test.cpp ****         if (i % (10 * data->id) == 0) {
GAS LISTING /tmp/cc6l2o9m.s 			page 4


  95              		.loc 1 54 9 is_stmt 1
  96              		.loc 1 54 29 is_stmt 0
  97 0090 03270900 		lw	a4,0(s2)
  98              		.loc 1 54 21
  99 0094 9B172700 		slliw	a5,a4,2
 100 0098 BB87E700 		addw	a5,a5,a4
 101 009c 9B971700 		slliw	a5,a5,1
 102              		.loc 1 54 15
 103 00a0 BBE7F402 		remw	a5,s1,a5
 104              		.loc 1 54 9
 105 00a4 638E0702 		beqz	a5,.L7
 106              	.L4:
  55:test/ConsumerProducer_C_API_test.cpp ****             Riscv::printString("dispatched\n");
  56:test/ConsumerProducer_C_API_test.cpp ****             thread_dispatch();
  57:test/ConsumerProducer_C_API_test.cpp ****             Riscv::printString("returned from dispatch\n");
  58:test/ConsumerProducer_C_API_test.cpp ****         }
  59:test/ConsumerProducer_C_API_test.cpp ****         Riscv::printInteger(cntGlobal);
 107              		.loc 1 59 9 is_stmt 1
 108              		.loc 1 59 28 is_stmt 0
 109 00a8 97040000 		lla	s1,.LANCHOR0
 109      93840400 
 110              	.LVL9:
 111 00b0 03A54400 		lw	a0,4(s1)
 112 00b4 1B050500 		sext.w	a0,a0
 113 00b8 97000000 		call	_ZN5Riscv12printIntegerEm@plt
 113      E7800000 
 114              	.LVL10:
  60:test/ConsumerProducer_C_API_test.cpp **** 
  61:test/ConsumerProducer_C_API_test.cpp ****         if(cntGlobal == 15)
 115              		.loc 1 61 9 is_stmt 1
 116              		.loc 1 61 22 is_stmt 0
 117 00c0 83A74400 		lw	a5,4(s1)
 118 00c4 9B870700 		sext.w	a5,a5
 119              		.loc 1 61 9
 120 00c8 1307F000 		li	a4,15
 121 00cc E394E7F6 		bne	a5,a4,.L2
  62:test/ConsumerProducer_C_API_test.cpp ****             threadEnd = 1;
 122              		.loc 1 62 13 is_stmt 1
 123              		.loc 1 62 23 is_stmt 0
 124 00d0 93071000 		li	a5,1
 125 00d4 17070000 		sw	a5,.LANCHOR0,a4
 125      2320F700 
 126 00dc 6FF09FF5 		j	.L2
 127              	.LVL11:
 128              	.L7:
  55:test/ConsumerProducer_C_API_test.cpp ****             Riscv::printString("dispatched\n");
 129              		.loc 1 55 13 is_stmt 1
  55:test/ConsumerProducer_C_API_test.cpp ****             Riscv::printString("dispatched\n");
 130              		.loc 1 55 31 is_stmt 0
 131 00e0 17050000 		lla	a0,.LC2
 131      13050500 
 132 00e8 97000000 		call	_ZN5Riscv11printStringEPKc@plt
 132      E7800000 
 133              	.LVL12:
  56:test/ConsumerProducer_C_API_test.cpp ****             Riscv::printString("returned from dispatch\n");
 134              		.loc 1 56 13 is_stmt 1
  56:test/ConsumerProducer_C_API_test.cpp ****             Riscv::printString("returned from dispatch\n");
GAS LISTING /tmp/cc6l2o9m.s 			page 5


 135              		.loc 1 56 28 is_stmt 0
 136 00f0 97000000 		call	thread_dispatch@plt
 136      E7800000 
 137              	.LVL13:
  57:test/ConsumerProducer_C_API_test.cpp ****         }
 138              		.loc 1 57 13 is_stmt 1
  57:test/ConsumerProducer_C_API_test.cpp ****         }
 139              		.loc 1 57 31 is_stmt 0
 140 00f8 17050000 		lla	a0,.LC3
 140      13050500 
 141 0100 97000000 		call	_ZN5Riscv11printStringEPKc@plt
 141      E7800000 
 142              	.LVL14:
 143 0108 6FF01FFA 		j	.L4
 144              	.LVL15:
 145              	.L3:
  63:test/ConsumerProducer_C_API_test.cpp ****     }
  64:test/ConsumerProducer_C_API_test.cpp ****     Riscv::printString("producer finished\n");
 146              		.loc 1 64 5 is_stmt 1
 147              		.loc 1 64 23 is_stmt 0
 148 010c 17050000 		lla	a0,.LC4
 148      13050500 
 149 0114 97000000 		call	_ZN5Riscv11printStringEPKc@plt
 149      E7800000 
 150              	.LVL16:
  65:test/ConsumerProducer_C_API_test.cpp ****     sem_signal(data->wait);
 151              		.loc 1 65 5 is_stmt 1
 152              		.loc 1 65 15 is_stmt 0
 153 011c 03350901 		ld	a0,16(s2)
 154 0120 97000000 		call	sem_signal@plt
 154      E7800000 
 155              	.LVL17:
  66:test/ConsumerProducer_C_API_test.cpp **** }
 156              		.loc 1 66 1
 157 0128 83308102 		ld	ra,40(sp)
 158              		.cfi_restore 1
 159 012c 03340102 		ld	s0,32(sp)
 160              		.cfi_restore 8
 161              		.cfi_def_cfa 2, 48
 162 0130 83348101 		ld	s1,24(sp)
 163              		.cfi_restore 9
 164 0134 03390101 		ld	s2,16(sp)
 165              		.cfi_restore 18
 166              	.LVL18:
 167 0138 83398100 		ld	s3,8(sp)
 168              		.cfi_restore 19
 169              	.LVL19:
 170 013c 13010103 		addi	sp,sp,48
 171              		.cfi_def_cfa_offset 0
 172 0140 67800000 		jr	ra
 173              		.cfi_endproc
 174              	.LFE19:
 176              		.section	.rodata.str1.8
 177 005b 00000000 		.align	3
 177      00
 178              	.LC5:
 179 0060 636F6E73 		.string	"consumer started\n"
GAS LISTING /tmp/cc6l2o9m.s 			page 6


 179      756D6572 
 179      20737461 
 179      72746564 
 179      0A00
 180 0072 00000000 		.align	3
 180      0000
 181              	.LC6:
 182 0078 67657420 		.string	"get "
 182      00
 183 007d 000000   		.align	3
 184              	.LC7:
 185 0080 0A00     		.string	"\n"
 186 0082 00000000 		.align	3
 186      0000
 187              	.LC8:
 188 0088 636F6E73 		.string	"consumer finished\n"
 188      756D6572 
 188      2066696E 
 188      69736865 
 188      640A00
 189              		.text
 190              		.align	2
 191              		.globl	_Z8consumerPv
 193              	_Z8consumerPv:
 194              	.LFB20:
  67:test/ConsumerProducer_C_API_test.cpp **** 
  68:test/ConsumerProducer_C_API_test.cpp **** void consumer(void *arg) {
 195              		.loc 1 68 26 is_stmt 1
 196              		.cfi_startproc
 197              	.LVL20:
 198 0144 130101FD 		addi	sp,sp,-48
 199              		.cfi_def_cfa_offset 48
 200 0148 23341102 		sd	ra,40(sp)
 201 014c 23308102 		sd	s0,32(sp)
 202 0150 233C9100 		sd	s1,24(sp)
 203 0154 23382101 		sd	s2,16(sp)
 204 0158 23343101 		sd	s3,8(sp)
 205 015c 23304101 		sd	s4,0(sp)
 206              		.cfi_offset 1, -8
 207              		.cfi_offset 8, -16
 208              		.cfi_offset 9, -24
 209              		.cfi_offset 18, -32
 210              		.cfi_offset 19, -40
 211              		.cfi_offset 20, -48
 212 0160 13040103 		addi	s0,sp,48
 213              		.cfi_def_cfa 8, 0
 214 0164 93090500 		mv	s3,a0
  69:test/ConsumerProducer_C_API_test.cpp ****     struct thread_data *data = (struct thread_data *) arg;
 215              		.loc 1 69 5
 216              	.LVL21:
  70:test/ConsumerProducer_C_API_test.cpp ****     Riscv::printString("consumer started\n");
 217              		.loc 1 70 5
 218              		.loc 1 70 23 is_stmt 0
 219 0168 17050000 		lla	a0,.LC5
 219      13050500 
 220              	.LVL22:
 221 0170 97000000 		call	_ZN5Riscv11printStringEPKc@plt
GAS LISTING /tmp/cc6l2o9m.s 			page 7


 221      E7800000 
 222              	.LVL23:
  71:test/ConsumerProducer_C_API_test.cpp ****     int i = 0;
 223              		.loc 1 71 5 is_stmt 1
 224              		.loc 1 71 9 is_stmt 0
 225 0178 130A0000 		li	s4,0
 226 017c 6F000002 		j	.L9
 227              	.LVL24:
 228              	.L14:
 229              	.LBB4:
  72:test/ConsumerProducer_C_API_test.cpp ****     while (!threadEnd) {
  73:test/ConsumerProducer_C_API_test.cpp ****         int key = data->buffer->get();
  74:test/ConsumerProducer_C_API_test.cpp ****         i++;
  75:test/ConsumerProducer_C_API_test.cpp **** 
  76:test/ConsumerProducer_C_API_test.cpp ****         //putc(key);
  77:test/ConsumerProducer_C_API_test.cpp ****         Riscv::printString("get ");
  78:test/ConsumerProducer_C_API_test.cpp ****         Riscv::printInteger(key);
  79:test/ConsumerProducer_C_API_test.cpp **** 
  80:test/ConsumerProducer_C_API_test.cpp ****         if (i % (5 * data->id) == 0) {
  81:test/ConsumerProducer_C_API_test.cpp ****             thread_dispatch();
 230              		.loc 1 81 13 is_stmt 1
 231              		.loc 1 81 28 is_stmt 0
 232 0180 97000000 		call	thread_dispatch@plt
 232      E7800000 
 233              	.LVL25:
 234 0188 6F008006 		j	.L11
 235              	.LVL26:
 236              	.L15:
  82:test/ConsumerProducer_C_API_test.cpp ****         }
  83:test/ConsumerProducer_C_API_test.cpp **** 
  84:test/ConsumerProducer_C_API_test.cpp ****         if (i % 80 == 0) {
  85:test/ConsumerProducer_C_API_test.cpp ****             //putc('\n');
  86:test/ConsumerProducer_C_API_test.cpp ****             Riscv::printString("\n");
 237              		.loc 1 86 13 is_stmt 1
 238              		.loc 1 86 31 is_stmt 0
 239 018c 17050000 		lla	a0,.LC7
 239      13050500 
 240 0194 97000000 		call	_ZN5Riscv11printStringEPKc@plt
 240      E7800000 
 241              	.LVL27:
 242              	.L9:
 243              	.LBE4:
  72:test/ConsumerProducer_C_API_test.cpp ****     while (!threadEnd) {
 244              		.loc 1 72 5 is_stmt 1
  72:test/ConsumerProducer_C_API_test.cpp ****     while (!threadEnd) {
 245              		.loc 1 72 12
 246 019c 97070000 		lw	a5,.LANCHOR0
 246      83A70700 
 247 01a4 639E0704 		bnez	a5,.L10
 248              	.LBB5:
  73:test/ConsumerProducer_C_API_test.cpp ****         i++;
 249              		.loc 1 73 9
  73:test/ConsumerProducer_C_API_test.cpp ****         i++;
 250              		.loc 1 73 36 is_stmt 0
 251 01a8 03B58900 		ld	a0,8(s3)
 252 01ac 97000000 		call	_ZN6Buffer3getEv@plt
 252      E7800000 
GAS LISTING /tmp/cc6l2o9m.s 			page 8


 253              	.LVL28:
 254 01b4 13090500 		mv	s2,a0
 255              	.LVL29:
  74:test/ConsumerProducer_C_API_test.cpp **** 
 256              		.loc 1 74 9 is_stmt 1
  74:test/ConsumerProducer_C_API_test.cpp **** 
 257              		.loc 1 74 10 is_stmt 0
 258 01b8 9B041A00 		addiw	s1,s4,1
 259 01bc 1B8A0400 		sext.w	s4,s1
 260              	.LVL30:
  77:test/ConsumerProducer_C_API_test.cpp ****         Riscv::printInteger(key);
 261              		.loc 1 77 9 is_stmt 1
  77:test/ConsumerProducer_C_API_test.cpp ****         Riscv::printInteger(key);
 262              		.loc 1 77 27 is_stmt 0
 263 01c0 17050000 		lla	a0,.LC6
 263      13050500 
 264 01c8 97000000 		call	_ZN5Riscv11printStringEPKc@plt
 264      E7800000 
 265              	.LVL31:
  78:test/ConsumerProducer_C_API_test.cpp **** 
 266              		.loc 1 78 9 is_stmt 1
  78:test/ConsumerProducer_C_API_test.cpp **** 
 267              		.loc 1 78 28 is_stmt 0
 268 01d0 13050900 		mv	a0,s2
 269 01d4 97000000 		call	_ZN5Riscv12printIntegerEm@plt
 269      E7800000 
 270              	.LVL32:
  80:test/ConsumerProducer_C_API_test.cpp ****             thread_dispatch();
 271              		.loc 1 80 9 is_stmt 1
  80:test/ConsumerProducer_C_API_test.cpp ****             thread_dispatch();
 272              		.loc 1 80 28 is_stmt 0
 273 01dc 03A70900 		lw	a4,0(s3)
  80:test/ConsumerProducer_C_API_test.cpp ****             thread_dispatch();
 274              		.loc 1 80 20
 275 01e0 9B172700 		slliw	a5,a4,2
 276 01e4 BB87E700 		addw	a5,a5,a4
  80:test/ConsumerProducer_C_API_test.cpp ****             thread_dispatch();
 277              		.loc 1 80 15
 278 01e8 BBE7F402 		remw	a5,s1,a5
  80:test/ConsumerProducer_C_API_test.cpp ****             thread_dispatch();
 279              		.loc 1 80 9
 280 01ec E38A07F8 		beqz	a5,.L14
 281              	.L11:
  84:test/ConsumerProducer_C_API_test.cpp ****             //putc('\n');
 282              		.loc 1 84 9 is_stmt 1
  84:test/ConsumerProducer_C_API_test.cpp ****             //putc('\n');
 283              		.loc 1 84 15 is_stmt 0
 284 01f0 93070005 		li	a5,80
 285 01f4 BBE4F402 		remw	s1,s1,a5
 286              	.LVL33:
  84:test/ConsumerProducer_C_API_test.cpp ****             //putc('\n');
 287              		.loc 1 84 9
 288 01f8 E39204FA 		bnez	s1,.L9
 289 01fc 6FF01FF9 		j	.L15
 290              	.LVL34:
 291              	.L10:
 292              	.LBE5:
GAS LISTING /tmp/cc6l2o9m.s 			page 9


  87:test/ConsumerProducer_C_API_test.cpp ****         }
  88:test/ConsumerProducer_C_API_test.cpp ****     }
  89:test/ConsumerProducer_C_API_test.cpp ****     Riscv::printString("consumer finished\n");
 293              		.loc 1 89 5 is_stmt 1
 294              		.loc 1 89 23 is_stmt 0
 295 0200 17050000 		lla	a0,.LC8
 295      13050500 
 296 0208 97000000 		call	_ZN5Riscv11printStringEPKc@plt
 296      E7800000 
 297              	.LVL35:
  90:test/ConsumerProducer_C_API_test.cpp ****     sem_signal(data->wait);
 298              		.loc 1 90 5 is_stmt 1
 299              		.loc 1 90 15 is_stmt 0
 300 0210 03B50901 		ld	a0,16(s3)
 301 0214 97000000 		call	sem_signal@plt
 301      E7800000 
 302              	.LVL36:
  91:test/ConsumerProducer_C_API_test.cpp **** }
 303              		.loc 1 91 1
 304 021c 83308102 		ld	ra,40(sp)
 305              		.cfi_restore 1
 306 0220 03340102 		ld	s0,32(sp)
 307              		.cfi_restore 8
 308              		.cfi_def_cfa 2, 48
 309 0224 83348101 		ld	s1,24(sp)
 310              		.cfi_restore 9
 311 0228 03390101 		ld	s2,16(sp)
 312              		.cfi_restore 18
 313 022c 83398100 		ld	s3,8(sp)
 314              		.cfi_restore 19
 315              	.LVL37:
 316 0230 033A0100 		ld	s4,0(sp)
 317              		.cfi_restore 20
 318              	.LVL38:
 319 0234 13010103 		addi	sp,sp,48
 320              		.cfi_def_cfa_offset 0
 321 0238 67800000 		jr	ra
 322              		.cfi_endproc
 323              	.LFE20:
 325              		.align	2
 326              		.globl	_Z16producerKeyboardPv
 328              	_Z16producerKeyboardPv:
 329              	.LFB18:
  18:test/ConsumerProducer_C_API_test.cpp ****     struct thread_data *data = (struct thread_data *) arg;
 330              		.loc 1 18 34 is_stmt 1
 331              		.cfi_startproc
 332              	.LVL39:
 333 023c 130101FE 		addi	sp,sp,-32
 334              		.cfi_def_cfa_offset 32
 335 0240 233C1100 		sd	ra,24(sp)
 336 0244 23388100 		sd	s0,16(sp)
 337 0248 23349100 		sd	s1,8(sp)
 338 024c 23302101 		sd	s2,0(sp)
 339              		.cfi_offset 1, -8
 340              		.cfi_offset 8, -16
 341              		.cfi_offset 9, -24
 342              		.cfi_offset 18, -32
GAS LISTING /tmp/cc6l2o9m.s 			page 10


 343 0250 13040102 		addi	s0,sp,32
 344              		.cfi_def_cfa 8, 0
 345 0254 93040500 		mv	s1,a0
  19:test/ConsumerProducer_C_API_test.cpp **** 
 346              		.loc 1 19 5
 347              	.LVL40:
  21:test/ConsumerProducer_C_API_test.cpp ****     int i = 0;
 348              		.loc 1 21 5
  22:test/ConsumerProducer_C_API_test.cpp ****     while ((key = getc()) != 0x1b) {
 349              		.loc 1 22 5
  22:test/ConsumerProducer_C_API_test.cpp ****     while ((key = getc()) != 0x1b) {
 350              		.loc 1 22 9 is_stmt 0
 351 0258 13090000 		li	s2,0
 352 025c 6F00C000 		j	.L17
 353              	.LVL41:
 354              	.L22:
  28:test/ConsumerProducer_C_API_test.cpp ****         }
 355              		.loc 1 28 13 is_stmt 1
  28:test/ConsumerProducer_C_API_test.cpp ****         }
 356              		.loc 1 28 28 is_stmt 0
 357 0260 97000000 		call	thread_dispatch@plt
 357      E7800000 
 358              	.LVL42:
 359              	.L17:
  23:test/ConsumerProducer_C_API_test.cpp ****         data->buffer->put(key);
 360              		.loc 1 23 5 is_stmt 1
  23:test/ConsumerProducer_C_API_test.cpp ****         data->buffer->put(key);
 361              		.loc 1 23 27
 362              	.LBB6:
 363              	.LBB7:
 364              		.file 2 "test/../h/std.hpp"
   1:test/../h/std.hpp **** //
   2:test/../h/std.hpp **** // Created by os on 5/16/22.
   3:test/../h/std.hpp **** //
   4:test/../h/std.hpp **** 
   5:test/../h/std.hpp **** #ifndef PROJECT_BASE_V1_0_STD_HPP
   6:test/../h/std.hpp **** #define PROJECT_BASE_V1_0_STD_HPP
   7:test/../h/std.hpp **** 
   8:test/../h/std.hpp **** #include "../lib/console.h"
   9:test/../h/std.hpp **** 
  10:test/../h/std.hpp **** inline char getc() {
  11:test/../h/std.hpp ****     return __getc();
 365              		.loc 2 11 5
 366              		.loc 2 11 18 is_stmt 0
 367 0268 97000000 		call	__getc@plt
 367      E7800000 
 368              	.LVL43:
 369              	.LBE7:
 370              	.LBE6:
  23:test/ConsumerProducer_C_API_test.cpp ****         data->buffer->put(key);
 371              		.loc 1 23 17
 372 0270 9B050500 		sext.w	a1,a0
 373              	.LVL44:
  23:test/ConsumerProducer_C_API_test.cpp ****         data->buffer->put(key);
 374              		.loc 1 23 27
 375 0274 9307B001 		li	a5,27
 376 0278 638AF502 		beq	a1,a5,.L18
GAS LISTING /tmp/cc6l2o9m.s 			page 11


  24:test/ConsumerProducer_C_API_test.cpp ****         i++;
 377              		.loc 1 24 9 is_stmt 1
  24:test/ConsumerProducer_C_API_test.cpp ****         i++;
 378              		.loc 1 24 26 is_stmt 0
 379 027c 03B58400 		ld	a0,8(s1)
 380 0280 97000000 		call	_ZN6Buffer3putEi@plt
 380      E7800000 
 381              	.LVL45:
  25:test/ConsumerProducer_C_API_test.cpp **** 
 382              		.loc 1 25 9 is_stmt 1
  25:test/ConsumerProducer_C_API_test.cpp **** 
 383              		.loc 1 25 10 is_stmt 0
 384 0288 1B071900 		addiw	a4,s2,1
 385 028c 1B090700 		sext.w	s2,a4
 386              	.LVL46:
  27:test/ConsumerProducer_C_API_test.cpp ****             thread_dispatch();
 387              		.loc 1 27 9 is_stmt 1
  27:test/ConsumerProducer_C_API_test.cpp ****             thread_dispatch();
 388              		.loc 1 27 29 is_stmt 0
 389 0290 83A60400 		lw	a3,0(s1)
  27:test/ConsumerProducer_C_API_test.cpp ****             thread_dispatch();
 390              		.loc 1 27 21
 391 0294 9B972600 		slliw	a5,a3,2
 392 0298 BB87D700 		addw	a5,a5,a3
 393 029c 9B971700 		slliw	a5,a5,1
  27:test/ConsumerProducer_C_API_test.cpp ****             thread_dispatch();
 394              		.loc 1 27 15
 395 02a0 BB67F702 		remw	a5,a4,a5
  27:test/ConsumerProducer_C_API_test.cpp ****             thread_dispatch();
 396              		.loc 1 27 9
 397 02a4 E39207FC 		bnez	a5,.L17
 398 02a8 6FF09FFB 		j	.L22
 399              	.LVL47:
 400              	.L18:
  32:test/ConsumerProducer_C_API_test.cpp **** 
 401              		.loc 1 32 5 is_stmt 1
  32:test/ConsumerProducer_C_API_test.cpp **** 
 402              		.loc 1 32 15 is_stmt 0
 403 02ac 93071000 		li	a5,1
 404 02b0 17070000 		sw	a5,.LANCHOR0,a4
 404      2320F700 
  34:test/ConsumerProducer_C_API_test.cpp **** 
 405              		.loc 1 34 5 is_stmt 1
  34:test/ConsumerProducer_C_API_test.cpp **** 
 406              		.loc 1 34 18 is_stmt 0
 407 02b8 03B98400 		ld	s2,8(s1)
 408              	.LVL48:
  34:test/ConsumerProducer_C_API_test.cpp **** 
 409              		.loc 1 34 24
 410 02bc 630E0900 		beqz	s2,.L20
  34:test/ConsumerProducer_C_API_test.cpp **** 
 411              		.loc 1 34 18 discriminator 1
 412 02c0 13050900 		mv	a0,s2
 413 02c4 97000000 		call	_ZN6BufferD1Ev@plt
 413      E7800000 
 414              	.LVL49:
 415 02cc 13050900 		mv	a0,s2
GAS LISTING /tmp/cc6l2o9m.s 			page 12


 416 02d0 97000000 		call	_ZdlPv@plt
 416      E7800000 
 417              	.LVL50:
 418              	.L20:
  36:test/ConsumerProducer_C_API_test.cpp **** }
 419              		.loc 1 36 5 is_stmt 1
  36:test/ConsumerProducer_C_API_test.cpp **** }
 420              		.loc 1 36 15 is_stmt 0
 421 02d8 03B50401 		ld	a0,16(s1)
 422 02dc 97000000 		call	sem_signal@plt
 422      E7800000 
 423              	.LVL51:
  37:test/ConsumerProducer_C_API_test.cpp **** 
 424              		.loc 1 37 1
 425 02e4 83308101 		ld	ra,24(sp)
 426              		.cfi_restore 1
 427 02e8 03340101 		ld	s0,16(sp)
 428              		.cfi_restore 8
 429              		.cfi_def_cfa 2, 32
 430 02ec 83348100 		ld	s1,8(sp)
 431              		.cfi_restore 9
 432              	.LVL52:
 433 02f0 03390100 		ld	s2,0(sp)
 434              		.cfi_restore 18
 435 02f4 13010102 		addi	sp,sp,32
 436              		.cfi_def_cfa_offset 0
 437 02f8 67800000 		jr	ra
 438              		.cfi_endproc
 439              	.LFE18:
 441              		.section	.rodata.str1.8
 442 009b 00000000 		.align	3
 442      00
 443              	.LC9:
 444 00a0 556E6573 		.string	"Unesite broj proizvodjaca?\n"
 444      69746520 
 444      62726F6A 
 444      2070726F 
 444      697A766F 
 445 00bc 00000000 		.align	3
 446              	.LC10:
 447 00c0 556E6573 		.string	"Unesite velicinu bafera?\n"
 447      69746520 
 447      76656C69 
 447      63696E75 
 447      20626166 
 448 00da 00000000 		.align	3
 448      0000
 449              	.LC11:
 450 00e0 42726F6A 		.string	"Broj proizvodjaca "
 450      2070726F 
 450      697A766F 
 450      646A6163 
 450      612000
 451 00f3 00000000 		.align	3
 451      00
 452              	.LC12:
 453 00f8 20692076 		.string	" i velicina bafera "
GAS LISTING /tmp/cc6l2o9m.s 			page 13


 453      656C6963 
 453      696E6120 
 453      62616665 
 453      72612000 
 454 010c 00000000 		.align	3
 455              	.LC13:
 456 0110 2E0A00   		.string	".\n"
 457              		.text
 458              		.align	2
 459              		.globl	_Z22producerConsumer_C_APIv
 461              	_Z22producerConsumer_C_APIv:
 462              	.LFB21:
  92:test/ConsumerProducer_C_API_test.cpp **** 
  93:test/ConsumerProducer_C_API_test.cpp **** void producerConsumer_C_API() {
 463              		.loc 1 93 31 is_stmt 1
 464              		.cfi_startproc
 465              		.cfi_personality 0x9b,DW.ref.__gxx_personality_v0
 466              		.cfi_lsda 0x1b,.LLSDA21
 467 02fc 130101F6 		addi	sp,sp,-160
 468              		.cfi_def_cfa_offset 160
 469 0300 233C1108 		sd	ra,152(sp)
 470 0304 23388108 		sd	s0,144(sp)
 471 0308 23349108 		sd	s1,136(sp)
 472 030c 23302109 		sd	s2,128(sp)
 473              		.cfi_offset 1, -8
 474              		.cfi_offset 8, -16
 475              		.cfi_offset 9, -24
 476              		.cfi_offset 18, -32
 477 0310 1304010A 		addi	s0,sp,160
 478              		.cfi_def_cfa 8, 0
  94:test/ConsumerProducer_C_API_test.cpp ****     //char input[30];
  95:test/ConsumerProducer_C_API_test.cpp ****     int n, threadNum;
 479              		.loc 1 95 5
  96:test/ConsumerProducer_C_API_test.cpp **** 
  97:test/ConsumerProducer_C_API_test.cpp ****     printString("Unesite broj proizvodjaca?\n");
 480              		.loc 1 97 5
 481              		.loc 1 97 16 is_stmt 0
 482 0314 17050000 		lla	a0,.LC9
 482      13050500 
 483              	.LEHB0:
 484 031c 97000000 		call	_Z11printStringPKc@plt
 484      E7800000 
 485              	.LVL53:
  98:test/ConsumerProducer_C_API_test.cpp ****     //getString(input, 30);
  99:test/ConsumerProducer_C_API_test.cpp ****     //threadNum = stringToInt(input);
 100:test/ConsumerProducer_C_API_test.cpp ****     threadNum = 3;
 486              		.loc 1 100 5 is_stmt 1
 101:test/ConsumerProducer_C_API_test.cpp **** 
 102:test/ConsumerProducer_C_API_test.cpp ****     printString("Unesite velicinu bafera?\n");
 487              		.loc 1 102 5
 488              		.loc 1 102 16 is_stmt 0
 489 0324 17050000 		lla	a0,.LC10
 489      13050500 
 490 032c 97000000 		call	_Z11printStringPKc@plt
 490      E7800000 
 491              	.LVL54:
 103:test/ConsumerProducer_C_API_test.cpp ****     //getString(input, 30);
GAS LISTING /tmp/cc6l2o9m.s 			page 14


 104:test/ConsumerProducer_C_API_test.cpp ****     //n = stringToInt(input);
 105:test/ConsumerProducer_C_API_test.cpp **** 
 106:test/ConsumerProducer_C_API_test.cpp ****     n = 1;
 492              		.loc 1 106 5 is_stmt 1
 107:test/ConsumerProducer_C_API_test.cpp **** 
 108:test/ConsumerProducer_C_API_test.cpp ****     printString("Broj proizvodjaca "); printInt(threadNum);
 493              		.loc 1 108 5
 494              		.loc 1 108 16 is_stmt 0
 495 0334 17050000 		lla	a0,.LC11
 495      13050500 
 496 033c 97000000 		call	_Z11printStringPKc@plt
 496      E7800000 
 497              	.LVL55:
 498              		.loc 1 108 40 is_stmt 1
 499              		.loc 1 108 48 is_stmt 0
 500 0344 13060000 		li	a2,0
 501 0348 9305A000 		li	a1,10
 502 034c 13053000 		li	a0,3
 503 0350 97000000 		call	_Z8printIntiii@plt
 503      E7800000 
 504              	.LVL56:
 109:test/ConsumerProducer_C_API_test.cpp ****     printString(" i velicina bafera "); printInt(n);
 505              		.loc 1 109 5 is_stmt 1
 506              		.loc 1 109 16 is_stmt 0
 507 0358 17050000 		lla	a0,.LC12
 507      13050500 
 508 0360 97000000 		call	_Z11printStringPKc@plt
 508      E7800000 
 509              	.LVL57:
 510              		.loc 1 109 41 is_stmt 1
 511              		.loc 1 109 49 is_stmt 0
 512 0368 13060000 		li	a2,0
 513 036c 9305A000 		li	a1,10
 514 0370 13051000 		li	a0,1
 515 0374 97000000 		call	_Z8printIntiii@plt
 515      E7800000 
 516              	.LVL58:
 110:test/ConsumerProducer_C_API_test.cpp ****     printString(".\n");
 517              		.loc 1 110 5 is_stmt 1
 518              		.loc 1 110 16 is_stmt 0
 519 037c 17050000 		lla	a0,.LC13
 519      13050500 
 520 0384 97000000 		call	_Z11printStringPKc@plt
 520      E7800000 
 521              	.LVL59:
 111:test/ConsumerProducer_C_API_test.cpp **** 
 112:test/ConsumerProducer_C_API_test.cpp ****     Buffer *buffer = new Buffer(n);
 522              		.loc 1 112 5 is_stmt 1
 523              		.loc 1 112 34 is_stmt 0
 524 038c 13058003 		li	a0,56
 525 0390 97000000 		call	_Znwm@plt
 525      E7800000 
 526              	.LVL60:
 527              	.LEHE0:
 528 0398 13090500 		mv	s2,a0
 529 039c 93051000 		li	a1,1
 530              	.LEHB1:
GAS LISTING /tmp/cc6l2o9m.s 			page 15


 531 03a0 97000000 		call	_ZN6BufferC1Ei@plt
 531      E7800000 
 532              	.LVL61:
 533              	.LEHE1:
 113:test/ConsumerProducer_C_API_test.cpp **** 
 114:test/ConsumerProducer_C_API_test.cpp ****     sem_open(&waitForAll, 0);
 534              		.loc 1 114 5 is_stmt 1 discriminator 3
 535              		.loc 1 114 13 is_stmt 0 discriminator 3
 536 03a8 93050000 		li	a1,0
 537 03ac 17050000 		lla	a0,.LANCHOR0+8
 537      13050500 
 538              	.LEHB2:
 539 03b4 97000000 		call	sem_open@plt
 539      E7800000 
 540              	.LVL62:
 115:test/ConsumerProducer_C_API_test.cpp **** 
 116:test/ConsumerProducer_C_API_test.cpp ****     thread_t threads[threadNum];
 541              		.loc 1 116 5 is_stmt 1 discriminator 3
 117:test/ConsumerProducer_C_API_test.cpp ****     thread_t consumerThread;
 542              		.loc 1 117 5 discriminator 3
 118:test/ConsumerProducer_C_API_test.cpp **** 
 119:test/ConsumerProducer_C_API_test.cpp ****     struct thread_data data[threadNum + 1];
 543              		.loc 1 119 5 discriminator 3
 120:test/ConsumerProducer_C_API_test.cpp **** 
 121:test/ConsumerProducer_C_API_test.cpp ****     data[threadNum].id = threadNum;
 544              		.loc 1 121 5 discriminator 3
 545              		.loc 1 121 24 is_stmt 0 discriminator 3
 546 03bc 93073000 		li	a5,3
 547 03c0 2324F4FA 		sw	a5,-88(s0)
 122:test/ConsumerProducer_C_API_test.cpp ****     data[threadNum].buffer = buffer;
 548              		.loc 1 122 5 is_stmt 1 discriminator 3
 549              		.loc 1 122 28 is_stmt 0 discriminator 3
 550 03c4 233824FB 		sd	s2,-80(s0)
 123:test/ConsumerProducer_C_API_test.cpp ****     data[threadNum].wait = waitForAll;
 551              		.loc 1 123 5 is_stmt 1 discriminator 3
 552              		.loc 1 123 26 is_stmt 0 discriminator 3
 553 03c8 97070000 		ld	a5,.LANCHOR0+8
 553      83B70700 
 554 03d0 233CF4FA 		sd	a5,-72(s0)
 124:test/ConsumerProducer_C_API_test.cpp ****     thread_create(&consumerThread, consumer, data + threadNum);
 555              		.loc 1 124 5 is_stmt 1 discriminator 3
 556              		.loc 1 124 18 is_stmt 0 discriminator 3
 557 03d4 130684FA 		addi	a2,s0,-88
 558 03d8 97050000 		lla	a1,_Z8consumerPv
 558      93850500 
 559 03e0 130504FC 		addi	a0,s0,-64
 560 03e4 97000000 		call	thread_create@plt
 560      E7800000 
 561              	.LVL63:
 562              	.LBB8:
 125:test/ConsumerProducer_C_API_test.cpp **** 
 126:test/ConsumerProducer_C_API_test.cpp ****     for (int i = 0; i < threadNum; i++) {
 563              		.loc 1 126 14 discriminator 3
 564 03ec 93040000 		li	s1,0
 565              	.L25:
 566              	.LVL64:
 567              		.loc 1 126 23 is_stmt 1 discriminator 1
GAS LISTING /tmp/cc6l2o9m.s 			page 16


 568 03f0 93072000 		li	a5,2
 569 03f4 63C09706 		bgt	s1,a5,.L24
 127:test/ConsumerProducer_C_API_test.cpp ****         data[i].id = i;
 570              		.loc 1 127 9
 571              		.loc 1 127 20 is_stmt 0
 572 03f8 13961400 		slli	a2,s1,1
 573 03fc B3079600 		add	a5,a2,s1
 574 0400 93973700 		slli	a5,a5,3
 575 0404 130704FE 		addi	a4,s0,-32
 576 0408 B307F700 		add	a5,a4,a5
 577 040c 23A097F8 		sw	s1,-128(a5)
 128:test/ConsumerProducer_C_API_test.cpp ****         data[i].buffer = buffer;
 578              		.loc 1 128 9 is_stmt 1
 579              		.loc 1 128 24 is_stmt 0
 580 0410 23B427F9 		sd	s2,-120(a5)
 129:test/ConsumerProducer_C_API_test.cpp ****         data[i].wait = waitForAll;
 581              		.loc 1 129 9 is_stmt 1
 582              		.loc 1 129 22 is_stmt 0
 583 0414 17070000 		ld	a4,.LANCHOR0+8
 583      03370700 
 584 041c 23B8E7F8 		sd	a4,-112(a5)
 130:test/ConsumerProducer_C_API_test.cpp **** 
 131:test/ConsumerProducer_C_API_test.cpp ****         //todo changed
 132:test/ConsumerProducer_C_API_test.cpp ****         //thread_create(threads + i,
 133:test/ConsumerProducer_C_API_test.cpp ****         //              i > 0 ? producer : producerKeyboard,
 134:test/ConsumerProducer_C_API_test.cpp ****         //              data + i);
 135:test/ConsumerProducer_C_API_test.cpp **** 
 136:test/ConsumerProducer_C_API_test.cpp ****         thread_create(threads + i,
 585              		.loc 1 136 9 is_stmt 1
 586              		.loc 1 136 31 is_stmt 0
 587 0420 93973400 		slli	a5,s1,3
 137:test/ConsumerProducer_C_API_test.cpp ****                       producer ,
 138:test/ConsumerProducer_C_API_test.cpp ****                       data + i);
 588              		.loc 1 138 28
 589 0424 33069600 		add	a2,a2,s1
 590 0428 13163600 		slli	a2,a2,3
 136:test/ConsumerProducer_C_API_test.cpp ****                       producer ,
 591              		.loc 1 136 22
 592 042c 130704F6 		addi	a4,s0,-160
 593              	.LVL65:
 594 0430 3306C700 		add	a2,a4,a2
 595 0434 97050000 		lla	a1,_Z8producerPv
 595      93850500 
 596 043c 130584FC 		addi	a0,s0,-56
 597              	.LVL66:
 598 0440 3305F500 		add	a0,a0,a5
 599              	.LVL67:
 600 0444 97000000 		call	thread_create@plt
 600      E7800000 
 601              	.LVL68:
 126:test/ConsumerProducer_C_API_test.cpp ****         data[i].id = i;
 602              		.loc 1 126 5 is_stmt 1
 603 044c 9B841400 		addiw	s1,s1,1
 604              	.LVL69:
 605 0450 6FF01FFA 		j	.L25
 606              	.LVL70:
 607              	.L24:
GAS LISTING /tmp/cc6l2o9m.s 			page 17


 608              	.LBE8:
 139:test/ConsumerProducer_C_API_test.cpp ****     }
 140:test/ConsumerProducer_C_API_test.cpp **** 
 141:test/ConsumerProducer_C_API_test.cpp ****     thread_dispatch();
 609              		.loc 1 141 5
 610              		.loc 1 141 20 is_stmt 0
 611 0454 97000000 		call	thread_dispatch@plt
 611      E7800000 
 612              	.LVL71:
 613              	.LBB9:
 142:test/ConsumerProducer_C_API_test.cpp **** 
 143:test/ConsumerProducer_C_API_test.cpp ****     for (int i = 0; i <= threadNum; i++) {
 614              		.loc 1 143 14
 615 045c 93040000 		li	s1,0
 616              	.LVL72:
 617 0460 6F008001 		j	.L27
 618              	.LVL73:
 619              	.L32:
 144:test/ConsumerProducer_C_API_test.cpp ****         sem_wait(waitForAll);
 620              		.loc 1 144 9 is_stmt 1
 621              		.loc 1 144 17 is_stmt 0
 622 0464 17050000 		ld	a0,.LANCHOR0+8
 622      03350500 
 623 046c 97000000 		call	sem_wait@plt
 623      E7800000 
 624              	.LVL74:
 143:test/ConsumerProducer_C_API_test.cpp ****         sem_wait(waitForAll);
 625              		.loc 1 143 5 is_stmt 1
 626 0474 9B841400 		addiw	s1,s1,1
 627              	.LVL75:
 628              	.L27:
 143:test/ConsumerProducer_C_API_test.cpp ****         sem_wait(waitForAll);
 629              		.loc 1 143 23 discriminator 1
 630 0478 93073000 		li	a5,3
 631 047c E3D497FE 		ble	s1,a5,.L32
 632              	.LBE9:
 145:test/ConsumerProducer_C_API_test.cpp ****     }
 146:test/ConsumerProducer_C_API_test.cpp **** 
 147:test/ConsumerProducer_C_API_test.cpp ****     sem_close(waitForAll);
 633              		.loc 1 147 5
 634              		.loc 1 147 14 is_stmt 0
 635 0480 17050000 		ld	a0,.LANCHOR0+8
 635      03350500 
 636 0488 97000000 		call	sem_close@plt
 636      E7800000 
 637              	.LVL76:
 148:test/ConsumerProducer_C_API_test.cpp **** }
 638              		.loc 1 148 1
 639 0490 83308109 		ld	ra,152(sp)
 640              		.cfi_remember_state
 641              		.cfi_restore 1
 642 0494 03340109 		ld	s0,144(sp)
 643              		.cfi_restore 8
 644              		.cfi_def_cfa 2, 160
 645              	.LVL77:
 646 0498 83348108 		ld	s1,136(sp)
 647              		.cfi_restore 9
GAS LISTING /tmp/cc6l2o9m.s 			page 18


 648              	.LVL78:
 649 049c 03390108 		ld	s2,128(sp)
 650              		.cfi_restore 18
 651              	.LVL79:
 652 04a0 1301010A 		addi	sp,sp,160
 653              		.cfi_def_cfa_offset 0
 654              	.LVL80:
 655 04a4 67800000 		jr	ra
 656              	.LVL81:
 657              	.L29:
 658              		.cfi_restore_state
 659 04a8 93040500 		mv	s1,a0
 112:test/ConsumerProducer_C_API_test.cpp **** 
 660              		.loc 1 112 34
 661 04ac 13050900 		mv	a0,s2
 662 04b0 97000000 		call	_ZdlPv@plt
 662      E7800000 
 663              	.LVL82:
 664 04b8 13850400 		mv	a0,s1
 665 04bc 97000000 		call	_Unwind_Resume@plt
 665      E7800000 
 666              	.LVL83:
 667              	.LEHE2:
 668              		.cfi_endproc
 669              	.LFE21:
 670              		.globl	__gxx_personality_v0
 671              		.section	.gcc_except_table,"a",@progbits
 672              	.LLSDA21:
 673 0000 FF       		.byte	0xff
 674 0001 FF       		.byte	0xff
 675 0002 03       		.byte	0x3
 676 0003 27       		.byte	0x27
 677 0004 00000000 		.4byte	.LEHB0-.LFB21
 678 0008 00000000 		.4byte	.LEHE0-.LEHB0
 679 000c 00000000 		.4byte	0
 680 0010 00       		.byte	0
 681 0011 00000000 		.4byte	.LEHB1-.LFB21
 682 0015 00000000 		.4byte	.LEHE1-.LEHB1
 683 0019 00000000 		.4byte	.L29-.LFB21
 684 001d 00       		.byte	0
 685 001e 00000000 		.4byte	.LEHB2-.LFB21
 686 0022 00000000 		.4byte	.LEHE2-.LEHB2
 687 0026 00000000 		.4byte	0
 688 002a 00       		.byte	0
 689              		.text
 691              		.globl	cntGlobal
 692              		.globl	threadEnd
 693              		.globl	waitForAll
 694              		.bss
 695              		.align	3
 696              		.set	.LANCHOR0,. + 0
 699              	threadEnd:
 700 0000 00000000 		.zero	4
 703              	cntGlobal:
 704 0004 00000000 		.zero	4
 707              	waitForAll:
 708 0008 00000000 		.zero	8
GAS LISTING /tmp/cc6l2o9m.s 			page 19


 708      00000000 
 709              		.text
 710              	.Letext0:
 711              		.file 3 "test/../h/../lib/hw.h"
 712              		.file 4 "test/../h/syscall_c.h"
 713              		.file 5 "test/buffer.hpp"
 714              		.file 6 "test/../h/Riscv.hpp"
 715              		.file 7 "test/printing.hpp"
 716              		.file 8 "test/../lib/console.h"
 3377              		.align	3
 3380              	DW.ref.__gxx_personality_v0:
 3381 0000 00000000 		.dword	__gxx_personality_v0
 3381      00000000 
 3382              		.ident	"GCC: (Ubuntu 9.3.0-17ubuntu1~20.04) 9.3.0"
 3383              		.section	.note.GNU-stack,"",@progbits
GAS LISTING /tmp/cc6l2o9m.s 			page 20


DEFINED SYMBOLS
                            *ABS*:0000000000000000 ConsumerProducer_C_API_test.cpp
     /tmp/cc6l2o9m.s:26     .text:0000000000000000 _Z8producerPv
     /tmp/cc6l2o9m.s:30     .text:0000000000000000 .L0 
     /tmp/cc6l2o9m.s:32     .text:0000000000000000 .L0 
     /tmp/cc6l2o9m.s:33     .text:0000000000000004 .L0 
     /tmp/cc6l2o9m.s:39     .text:0000000000000018 .L0 
     /tmp/cc6l2o9m.s:40     .text:0000000000000018 .L0 
     /tmp/cc6l2o9m.s:41     .text:0000000000000018 .L0 
     /tmp/cc6l2o9m.s:42     .text:0000000000000018 .L0 
     /tmp/cc6l2o9m.s:43     .text:0000000000000018 .L0 
     /tmp/cc6l2o9m.s:45     .text:000000000000001c .L0 
     /tmp/cc6l2o9m.s:49     .text:0000000000000020 .L0 
     /tmp/cc6l2o9m.s:50     .text:0000000000000020 .L0 
     /tmp/cc6l2o9m.s:51     .text:0000000000000020 .L0 
     /tmp/cc6l2o9m.s:56     .text:0000000000000030 .L0 
     /tmp/cc6l2o9m.s:57     .text:0000000000000030 .L0 
     /tmp/cc6l2o9m.s:61     .text:0000000000000034 .L0 
     /tmp/cc6l2o9m.s:62     .text:0000000000000034 .L0 
     /tmp/cc6l2o9m.s:65     .text:0000000000000040 .L0 
     /tmp/cc6l2o9m.s:66     .text:0000000000000040 .L0 
     /tmp/cc6l2o9m.s:68     .text:0000000000000044 .L0 
     /tmp/cc6l2o9m.s:73     .text:0000000000000054 .L0 
     /tmp/cc6l2o9m.s:74     .text:0000000000000054 .L0 
     /tmp/cc6l2o9m.s:78     .text:000000000000005c .L0 
     /tmp/cc6l2o9m.s:79     .text:000000000000005c .L0 
     /tmp/cc6l2o9m.s:84     .text:0000000000000070 .L0 
     /tmp/cc6l2o9m.s:85     .text:0000000000000070 .L0 
     /tmp/cc6l2o9m.s:89     .text:0000000000000080 .L0 
     /tmp/cc6l2o9m.s:90     .text:0000000000000080 .L0 
     /tmp/cc6l2o9m.s:92     .text:0000000000000084 .L0 
     /tmp/cc6l2o9m.s:96     .text:0000000000000090 .L0 
     /tmp/cc6l2o9m.s:97     .text:0000000000000090 .L0 
     /tmp/cc6l2o9m.s:99     .text:0000000000000094 .L0 
     /tmp/cc6l2o9m.s:103    .text:00000000000000a0 .L0 
     /tmp/cc6l2o9m.s:105    .text:00000000000000a4 .L0 
     /tmp/cc6l2o9m.s:108    .text:00000000000000a8 .L0 
     /tmp/cc6l2o9m.s:109    .text:00000000000000a8 .L0 
     /tmp/cc6l2o9m.s:116    .text:00000000000000c0 .L0 
     /tmp/cc6l2o9m.s:117    .text:00000000000000c0 .L0 
     /tmp/cc6l2o9m.s:120    .text:00000000000000c8 .L0 
     /tmp/cc6l2o9m.s:123    .text:00000000000000d0 .L0 
     /tmp/cc6l2o9m.s:124    .text:00000000000000d0 .L0 
     /tmp/cc6l2o9m.s:130    .text:00000000000000e0 .L0 
     /tmp/cc6l2o9m.s:131    .text:00000000000000e0 .L0 
     /tmp/cc6l2o9m.s:135    .text:00000000000000f0 .L0 
     /tmp/cc6l2o9m.s:136    .text:00000000000000f0 .L0 
     /tmp/cc6l2o9m.s:139    .text:00000000000000f8 .L0 
     /tmp/cc6l2o9m.s:140    .text:00000000000000f8 .L0 
     /tmp/cc6l2o9m.s:147    .text:000000000000010c .L0 
     /tmp/cc6l2o9m.s:148    .text:000000000000010c .L0 
     /tmp/cc6l2o9m.s:152    .text:000000000000011c .L0 
     /tmp/cc6l2o9m.s:153    .text:000000000000011c .L0 
     /tmp/cc6l2o9m.s:157    .text:0000000000000128 .L0 
     /tmp/cc6l2o9m.s:158    .text:000000000000012c .L0 
     /tmp/cc6l2o9m.s:160    .text:0000000000000130 .L0 
     /tmp/cc6l2o9m.s:161    .text:0000000000000130 .L0 
GAS LISTING /tmp/cc6l2o9m.s 			page 21


     /tmp/cc6l2o9m.s:163    .text:0000000000000134 .L0 
     /tmp/cc6l2o9m.s:165    .text:0000000000000138 .L0 
     /tmp/cc6l2o9m.s:168    .text:000000000000013c .L0 
     /tmp/cc6l2o9m.s:171    .text:0000000000000140 .L0 
     /tmp/cc6l2o9m.s:173    .text:0000000000000144 .L0 
     /tmp/cc6l2o9m.s:193    .text:0000000000000144 _Z8consumerPv
     /tmp/cc6l2o9m.s:196    .text:0000000000000144 .L0 
     /tmp/cc6l2o9m.s:198    .text:0000000000000144 .L0 
     /tmp/cc6l2o9m.s:199    .text:0000000000000148 .L0 
     /tmp/cc6l2o9m.s:206    .text:0000000000000160 .L0 
     /tmp/cc6l2o9m.s:207    .text:0000000000000160 .L0 
     /tmp/cc6l2o9m.s:208    .text:0000000000000160 .L0 
     /tmp/cc6l2o9m.s:209    .text:0000000000000160 .L0 
     /tmp/cc6l2o9m.s:210    .text:0000000000000160 .L0 
     /tmp/cc6l2o9m.s:211    .text:0000000000000160 .L0 
     /tmp/cc6l2o9m.s:213    .text:0000000000000164 .L0 
     /tmp/cc6l2o9m.s:217    .text:0000000000000168 .L0 
     /tmp/cc6l2o9m.s:218    .text:0000000000000168 .L0 
     /tmp/cc6l2o9m.s:219    .text:0000000000000168 .L0 
     /tmp/cc6l2o9m.s:224    .text:0000000000000178 .L0 
     /tmp/cc6l2o9m.s:225    .text:0000000000000178 .L0 
     /tmp/cc6l2o9m.s:231    .text:0000000000000180 .L0 
     /tmp/cc6l2o9m.s:232    .text:0000000000000180 .L0 
     /tmp/cc6l2o9m.s:238    .text:000000000000018c .L0 
     /tmp/cc6l2o9m.s:239    .text:000000000000018c .L0 
     /tmp/cc6l2o9m.s:245    .text:000000000000019c .L0 
     /tmp/cc6l2o9m.s:246    .text:000000000000019c .L0 
     /tmp/cc6l2o9m.s:250    .text:00000000000001a8 .L0 
     /tmp/cc6l2o9m.s:251    .text:00000000000001a8 .L0 
     /tmp/cc6l2o9m.s:257    .text:00000000000001b8 .L0 
     /tmp/cc6l2o9m.s:258    .text:00000000000001b8 .L0 
     /tmp/cc6l2o9m.s:262    .text:00000000000001c0 .L0 
     /tmp/cc6l2o9m.s:263    .text:00000000000001c0 .L0 
     /tmp/cc6l2o9m.s:267    .text:00000000000001d0 .L0 
     /tmp/cc6l2o9m.s:268    .text:00000000000001d0 .L0 
     /tmp/cc6l2o9m.s:272    .text:00000000000001dc .L0 
     /tmp/cc6l2o9m.s:273    .text:00000000000001dc .L0 
     /tmp/cc6l2o9m.s:275    .text:00000000000001e0 .L0 
     /tmp/cc6l2o9m.s:278    .text:00000000000001e8 .L0 
     /tmp/cc6l2o9m.s:280    .text:00000000000001ec .L0 
     /tmp/cc6l2o9m.s:283    .text:00000000000001f0 .L0 
     /tmp/cc6l2o9m.s:284    .text:00000000000001f0 .L0 
     /tmp/cc6l2o9m.s:288    .text:00000000000001f8 .L0 
     /tmp/cc6l2o9m.s:294    .text:0000000000000200 .L0 
     /tmp/cc6l2o9m.s:295    .text:0000000000000200 .L0 
     /tmp/cc6l2o9m.s:299    .text:0000000000000210 .L0 
     /tmp/cc6l2o9m.s:300    .text:0000000000000210 .L0 
     /tmp/cc6l2o9m.s:304    .text:000000000000021c .L0 
     /tmp/cc6l2o9m.s:305    .text:0000000000000220 .L0 
     /tmp/cc6l2o9m.s:307    .text:0000000000000224 .L0 
     /tmp/cc6l2o9m.s:308    .text:0000000000000224 .L0 
     /tmp/cc6l2o9m.s:310    .text:0000000000000228 .L0 
     /tmp/cc6l2o9m.s:312    .text:000000000000022c .L0 
     /tmp/cc6l2o9m.s:314    .text:0000000000000230 .L0 
     /tmp/cc6l2o9m.s:317    .text:0000000000000234 .L0 
     /tmp/cc6l2o9m.s:320    .text:0000000000000238 .L0 
     /tmp/cc6l2o9m.s:322    .text:000000000000023c .L0 
GAS LISTING /tmp/cc6l2o9m.s 			page 22


     /tmp/cc6l2o9m.s:328    .text:000000000000023c _Z16producerKeyboardPv
     /tmp/cc6l2o9m.s:331    .text:000000000000023c .L0 
     /tmp/cc6l2o9m.s:333    .text:000000000000023c .L0 
     /tmp/cc6l2o9m.s:334    .text:0000000000000240 .L0 
     /tmp/cc6l2o9m.s:339    .text:0000000000000250 .L0 
     /tmp/cc6l2o9m.s:340    .text:0000000000000250 .L0 
     /tmp/cc6l2o9m.s:341    .text:0000000000000250 .L0 
     /tmp/cc6l2o9m.s:342    .text:0000000000000250 .L0 
     /tmp/cc6l2o9m.s:344    .text:0000000000000254 .L0 
     /tmp/cc6l2o9m.s:348    .text:0000000000000258 .L0 
     /tmp/cc6l2o9m.s:349    .text:0000000000000258 .L0 
     /tmp/cc6l2o9m.s:350    .text:0000000000000258 .L0 
     /tmp/cc6l2o9m.s:351    .text:0000000000000258 .L0 
     /tmp/cc6l2o9m.s:356    .text:0000000000000260 .L0 
     /tmp/cc6l2o9m.s:357    .text:0000000000000260 .L0 
     /tmp/cc6l2o9m.s:361    .text:0000000000000268 .L0 
     /tmp/cc6l2o9m.s:365    .text:0000000000000268 .L0 
     /tmp/cc6l2o9m.s:366    .text:0000000000000268 .L0 
     /tmp/cc6l2o9m.s:367    .text:0000000000000268 .L0 
     /tmp/cc6l2o9m.s:372    .text:0000000000000270 .L0 
     /tmp/cc6l2o9m.s:375    .text:0000000000000274 .L0 
     /tmp/cc6l2o9m.s:378    .text:000000000000027c .L0 
     /tmp/cc6l2o9m.s:379    .text:000000000000027c .L0 
     /tmp/cc6l2o9m.s:383    .text:0000000000000288 .L0 
     /tmp/cc6l2o9m.s:384    .text:0000000000000288 .L0 
     /tmp/cc6l2o9m.s:388    .text:0000000000000290 .L0 
     /tmp/cc6l2o9m.s:389    .text:0000000000000290 .L0 
     /tmp/cc6l2o9m.s:391    .text:0000000000000294 .L0 
     /tmp/cc6l2o9m.s:395    .text:00000000000002a0 .L0 
     /tmp/cc6l2o9m.s:397    .text:00000000000002a4 .L0 
     /tmp/cc6l2o9m.s:402    .text:00000000000002ac .L0 
     /tmp/cc6l2o9m.s:403    .text:00000000000002ac .L0 
     /tmp/cc6l2o9m.s:406    .text:00000000000002b8 .L0 
     /tmp/cc6l2o9m.s:407    .text:00000000000002b8 .L0 
     /tmp/cc6l2o9m.s:410    .text:00000000000002bc .L0 
     /tmp/cc6l2o9m.s:412    .text:00000000000002c0 .L0 
     /tmp/cc6l2o9m.s:420    .text:00000000000002d8 .L0 
     /tmp/cc6l2o9m.s:421    .text:00000000000002d8 .L0 
     /tmp/cc6l2o9m.s:425    .text:00000000000002e4 .L0 
     /tmp/cc6l2o9m.s:426    .text:00000000000002e8 .L0 
     /tmp/cc6l2o9m.s:428    .text:00000000000002ec .L0 
     /tmp/cc6l2o9m.s:429    .text:00000000000002ec .L0 
     /tmp/cc6l2o9m.s:431    .text:00000000000002f0 .L0 
     /tmp/cc6l2o9m.s:434    .text:00000000000002f4 .L0 
     /tmp/cc6l2o9m.s:436    .text:00000000000002f8 .L0 
     /tmp/cc6l2o9m.s:438    .text:00000000000002fc .L0 
     /tmp/cc6l2o9m.s:461    .text:00000000000002fc _Z22producerConsumer_C_APIv
     /tmp/cc6l2o9m.s:464    .text:00000000000002fc .L0 
     /tmp/cc6l2o9m.s:3380   .data.rel.local.DW.ref.__gxx_personality_v0:0000000000000000 DW.ref.__gxx_personality_v0
     /tmp/cc6l2o9m.s:467    .text:00000000000002fc .L0 
     /tmp/cc6l2o9m.s:468    .text:0000000000000300 .L0 
     /tmp/cc6l2o9m.s:473    .text:0000000000000310 .L0 
     /tmp/cc6l2o9m.s:474    .text:0000000000000310 .L0 
     /tmp/cc6l2o9m.s:475    .text:0000000000000310 .L0 
     /tmp/cc6l2o9m.s:476    .text:0000000000000310 .L0 
     /tmp/cc6l2o9m.s:478    .text:0000000000000314 .L0 
     /tmp/cc6l2o9m.s:480    .text:0000000000000314 .L0 
GAS LISTING /tmp/cc6l2o9m.s 			page 23


     /tmp/cc6l2o9m.s:481    .text:0000000000000314 .L0 
     /tmp/cc6l2o9m.s:482    .text:0000000000000314 .L0 
     /tmp/cc6l2o9m.s:487    .text:0000000000000324 .L0 
     /tmp/cc6l2o9m.s:488    .text:0000000000000324 .L0 
     /tmp/cc6l2o9m.s:489    .text:0000000000000324 .L0 
     /tmp/cc6l2o9m.s:493    .text:0000000000000334 .L0 
     /tmp/cc6l2o9m.s:494    .text:0000000000000334 .L0 
     /tmp/cc6l2o9m.s:495    .text:0000000000000334 .L0 
     /tmp/cc6l2o9m.s:499    .text:0000000000000344 .L0 
     /tmp/cc6l2o9m.s:500    .text:0000000000000344 .L0 
     /tmp/cc6l2o9m.s:506    .text:0000000000000358 .L0 
     /tmp/cc6l2o9m.s:507    .text:0000000000000358 .L0 
     /tmp/cc6l2o9m.s:511    .text:0000000000000368 .L0 
     /tmp/cc6l2o9m.s:512    .text:0000000000000368 .L0 
     /tmp/cc6l2o9m.s:518    .text:000000000000037c .L0 
     /tmp/cc6l2o9m.s:519    .text:000000000000037c .L0 
     /tmp/cc6l2o9m.s:523    .text:000000000000038c .L0 
     /tmp/cc6l2o9m.s:524    .text:000000000000038c .L0 
     /tmp/cc6l2o9m.s:535    .text:00000000000003a8 .L0 
     /tmp/cc6l2o9m.s:536    .text:00000000000003a8 .L0 
     /tmp/cc6l2o9m.s:542    .text:00000000000003bc .L0 
     /tmp/cc6l2o9m.s:543    .text:00000000000003bc .L0 
     /tmp/cc6l2o9m.s:544    .text:00000000000003bc .L0 
     /tmp/cc6l2o9m.s:545    .text:00000000000003bc .L0 
     /tmp/cc6l2o9m.s:546    .text:00000000000003bc .L0 
     /tmp/cc6l2o9m.s:549    .text:00000000000003c4 .L0 
     /tmp/cc6l2o9m.s:550    .text:00000000000003c4 .L0 
     /tmp/cc6l2o9m.s:552    .text:00000000000003c8 .L0 
     /tmp/cc6l2o9m.s:553    .text:00000000000003c8 .L0 
     /tmp/cc6l2o9m.s:556    .text:00000000000003d4 .L0 
     /tmp/cc6l2o9m.s:557    .text:00000000000003d4 .L0 
     /tmp/cc6l2o9m.s:564    .text:00000000000003ec .L0 
     /tmp/cc6l2o9m.s:568    .text:00000000000003f0 .L0 
     /tmp/cc6l2o9m.s:571    .text:00000000000003f8 .L0 
     /tmp/cc6l2o9m.s:572    .text:00000000000003f8 .L0 
     /tmp/cc6l2o9m.s:579    .text:0000000000000410 .L0 
     /tmp/cc6l2o9m.s:580    .text:0000000000000410 .L0 
     /tmp/cc6l2o9m.s:582    .text:0000000000000414 .L0 
     /tmp/cc6l2o9m.s:583    .text:0000000000000414 .L0 
     /tmp/cc6l2o9m.s:586    .text:0000000000000420 .L0 
     /tmp/cc6l2o9m.s:587    .text:0000000000000420 .L0 
     /tmp/cc6l2o9m.s:589    .text:0000000000000424 .L0 
     /tmp/cc6l2o9m.s:592    .text:000000000000042c .L0 
     /tmp/cc6l2o9m.s:603    .text:000000000000044c .L0 
     /tmp/cc6l2o9m.s:610    .text:0000000000000454 .L0 
     /tmp/cc6l2o9m.s:611    .text:0000000000000454 .L0 
     /tmp/cc6l2o9m.s:615    .text:000000000000045c .L0 
     /tmp/cc6l2o9m.s:621    .text:0000000000000464 .L0 
     /tmp/cc6l2o9m.s:622    .text:0000000000000464 .L0 
     /tmp/cc6l2o9m.s:626    .text:0000000000000474 .L0 
     /tmp/cc6l2o9m.s:630    .text:0000000000000478 .L0 
     /tmp/cc6l2o9m.s:634    .text:0000000000000480 .L0 
     /tmp/cc6l2o9m.s:635    .text:0000000000000480 .L0 
     /tmp/cc6l2o9m.s:639    .text:0000000000000490 .L0 
     /tmp/cc6l2o9m.s:640    .text:0000000000000494 .L0 
     /tmp/cc6l2o9m.s:641    .text:0000000000000494 .L0 
     /tmp/cc6l2o9m.s:643    .text:0000000000000498 .L0 
GAS LISTING /tmp/cc6l2o9m.s 			page 24


     /tmp/cc6l2o9m.s:644    .text:0000000000000498 .L0 
     /tmp/cc6l2o9m.s:647    .text:000000000000049c .L0 
     /tmp/cc6l2o9m.s:650    .text:00000000000004a0 .L0 
     /tmp/cc6l2o9m.s:653    .text:00000000000004a4 .L0 
     /tmp/cc6l2o9m.s:658    .text:00000000000004a8 .L0 
     /tmp/cc6l2o9m.s:661    .text:00000000000004ac .L0 
     /tmp/cc6l2o9m.s:668    .text:00000000000004c4 .L0 
     /tmp/cc6l2o9m.s:703    .bss:0000000000000004 cntGlobal
     /tmp/cc6l2o9m.s:699    .bss:0000000000000000 threadEnd
     /tmp/cc6l2o9m.s:707    .bss:0000000000000008 waitForAll
     /tmp/cc6l2o9m.s:696    .bss:0000000000000000 .LANCHOR0
     /tmp/cc6l2o9m.s:717    .text:00000000000004c4 .L0 
     /tmp/cc6l2o9m.s:8      .rodata.str1.8:0000000000000000 .LC0
     /tmp/cc6l2o9m.s:51     .text:0000000000000020 .L0 
     /tmp/cc6l2o9m.s:62     .text:0000000000000034 .L0 
     /tmp/cc6l2o9m.s:79     .text:000000000000005c .L0 
     /tmp/cc6l2o9m.s:11     .rodata.str1.8:0000000000000018 .LC1
     /tmp/cc6l2o9m.s:85     .text:0000000000000070 .L0 
     /tmp/cc6l2o9m.s:109    .text:00000000000000a8 .L0 
     /tmp/cc6l2o9m.s:125    .text:00000000000000d4 .L0 
     /tmp/cc6l2o9m.s:14     .rodata.str1.8:0000000000000020 .LC2
     /tmp/cc6l2o9m.s:131    .text:00000000000000e0 .L0 
     /tmp/cc6l2o9m.s:17     .rodata.str1.8:0000000000000030 .LC3
     /tmp/cc6l2o9m.s:140    .text:00000000000000f8 .L0 
     /tmp/cc6l2o9m.s:20     .rodata.str1.8:0000000000000048 .LC4
     /tmp/cc6l2o9m.s:148    .text:000000000000010c .L0 
     /tmp/cc6l2o9m.s:178    .rodata.str1.8:0000000000000060 .LC5
     /tmp/cc6l2o9m.s:219    .text:0000000000000168 .L0 
     /tmp/cc6l2o9m.s:184    .rodata.str1.8:0000000000000080 .LC7
     /tmp/cc6l2o9m.s:239    .text:000000000000018c .L0 
     /tmp/cc6l2o9m.s:246    .text:000000000000019c .L0 
     /tmp/cc6l2o9m.s:181    .rodata.str1.8:0000000000000078 .LC6
     /tmp/cc6l2o9m.s:263    .text:00000000000001c0 .L0 
     /tmp/cc6l2o9m.s:187    .rodata.str1.8:0000000000000088 .LC8
     /tmp/cc6l2o9m.s:295    .text:0000000000000200 .L0 
     /tmp/cc6l2o9m.s:404    .text:00000000000002b0 .L0 
     /tmp/cc6l2o9m.s:443    .rodata.str1.8:00000000000000a0 .LC9
     /tmp/cc6l2o9m.s:482    .text:0000000000000314 .L0 
     /tmp/cc6l2o9m.s:446    .rodata.str1.8:00000000000000c0 .LC10
     /tmp/cc6l2o9m.s:489    .text:0000000000000324 .L0 
     /tmp/cc6l2o9m.s:449    .rodata.str1.8:00000000000000e0 .LC11
     /tmp/cc6l2o9m.s:495    .text:0000000000000334 .L0 
     /tmp/cc6l2o9m.s:452    .rodata.str1.8:00000000000000f8 .LC12
     /tmp/cc6l2o9m.s:507    .text:0000000000000358 .L0 
     /tmp/cc6l2o9m.s:455    .rodata.str1.8:0000000000000110 .LC13
     /tmp/cc6l2o9m.s:519    .text:000000000000037c .L0 
     /tmp/cc6l2o9m.s:537    .text:00000000000003ac .L0 
     /tmp/cc6l2o9m.s:553    .text:00000000000003c8 .L0 
     /tmp/cc6l2o9m.s:558    .text:00000000000003d8 .L0 
     /tmp/cc6l2o9m.s:583    .text:0000000000000414 .L0 
     /tmp/cc6l2o9m.s:595    .text:0000000000000434 .L0 
     /tmp/cc6l2o9m.s:622    .text:0000000000000464 .L0 
     /tmp/cc6l2o9m.s:635    .text:0000000000000480 .L0 
     /tmp/cc6l2o9m.s:145    .text:000000000000010c .L3
     /tmp/cc6l2o9m.s:128    .text:00000000000000e0 .L7
     /tmp/cc6l2o9m.s:59     .text:0000000000000034 .L2
     /tmp/cc6l2o9m.s:106    .text:00000000000000a8 .L4
GAS LISTING /tmp/cc6l2o9m.s 			page 25


     /tmp/cc6l2o9m.s:242    .text:000000000000019c .L9
     /tmp/cc6l2o9m.s:281    .text:00000000000001f0 .L11
     /tmp/cc6l2o9m.s:291    .text:0000000000000200 .L10
     /tmp/cc6l2o9m.s:228    .text:0000000000000180 .L14
     /tmp/cc6l2o9m.s:236    .text:000000000000018c .L15
     /tmp/cc6l2o9m.s:359    .text:0000000000000268 .L17
     /tmp/cc6l2o9m.s:400    .text:00000000000002ac .L18
     /tmp/cc6l2o9m.s:354    .text:0000000000000260 .L22
     /tmp/cc6l2o9m.s:418    .text:00000000000002d8 .L20
     /tmp/cc6l2o9m.s:607    .text:0000000000000454 .L24
     /tmp/cc6l2o9m.s:565    .text:00000000000003f0 .L25
     /tmp/cc6l2o9m.s:628    .text:0000000000000478 .L27
     /tmp/cc6l2o9m.s:619    .text:0000000000000464 .L32
     /tmp/cc6l2o9m.s:483    .text:000000000000031c .LEHB0
     /tmp/cc6l2o9m.s:462    .text:00000000000002fc .LFB21
     /tmp/cc6l2o9m.s:527    .text:0000000000000398 .LEHE0
     /tmp/cc6l2o9m.s:530    .text:00000000000003a0 .LEHB1
     /tmp/cc6l2o9m.s:533    .text:00000000000003a8 .LEHE1
     /tmp/cc6l2o9m.s:657    .text:00000000000004a8 .L29
     /tmp/cc6l2o9m.s:538    .text:00000000000003b4 .LEHB2
     /tmp/cc6l2o9m.s:667    .text:00000000000004c4 .LEHE2
     /tmp/cc6l2o9m.s:2083   .debug_abbrev:0000000000000000 .Ldebug_abbrev0
     /tmp/cc6l2o9m.s:3178   .debug_str:0000000000000298 .LASF135
     /tmp/cc6l2o9m.s:3238   .debug_str:0000000000000518 .LASF136
     /tmp/cc6l2o9m.s:3146   .debug_str:0000000000000198 .LASF137
     /tmp/cc6l2o9m.s:5      .text:0000000000000000 .Ltext0
     /tmp/cc6l2o9m.s:710    .text:00000000000004c4 .Letext0
     /tmp/cc6l2o9m.s:3094   .debug_line:0000000000000000 .Ldebug_line0
     /tmp/cc6l2o9m.s:3252   .debug_str:000000000000059e .LASF0
     /tmp/cc6l2o9m.s:3270   .debug_str:00000000000005fe .LASF1
     /tmp/cc6l2o9m.s:3236   .debug_str:000000000000050a .LASF2
     /tmp/cc6l2o9m.s:3210   .debug_str:0000000000000437 .LASF4
     /tmp/cc6l2o9m.s:3304   .debug_str:00000000000006f9 .LASF3
     /tmp/cc6l2o9m.s:3122   .debug_str:00000000000000c8 .LASF5
     /tmp/cc6l2o9m.s:3276   .debug_str:000000000000062f .LASF6
     /tmp/cc6l2o9m.s:3250   .debug_str:000000000000058b .LASF7
     /tmp/cc6l2o9m.s:3338   .debug_str:00000000000007e5 .LASF8
     /tmp/cc6l2o9m.s:3192   .debug_str:0000000000000392 .LASF9
     /tmp/cc6l2o9m.s:3284   .debug_str:0000000000000669 .LASF10
     /tmp/cc6l2o9m.s:3324   .debug_str:0000000000000786 .LASF11
     /tmp/cc6l2o9m.s:3128   .debug_str:00000000000000f5 .LASF12
     /tmp/cc6l2o9m.s:3102   .debug_str:000000000000002b .LASF13
     /tmp/cc6l2o9m.s:3140   .debug_str:000000000000016b .LASF14
     /tmp/cc6l2o9m.s:3296   .debug_str:00000000000006b1 .LASF15
     /tmp/cc6l2o9m.s:3148   .debug_str:00000000000001bb .LASF16
     /tmp/cc6l2o9m.s:3096   .debug_str:0000000000000000 .LASF17
     /tmp/cc6l2o9m.s:3168   .debug_str:000000000000025e .LASF18
     /tmp/cc6l2o9m.s:3358   .debug_str:0000000000000859 .LASF26
     /tmp/cc6l2o9m.s:3294   .debug_str:00000000000006aa .LASF19
     /tmp/cc6l2o9m.s:3154   .debug_str:00000000000001f3 .LASF20
     /tmp/cc6l2o9m.s:3234   .debug_str:0000000000000505 .LASF21
     /tmp/cc6l2o9m.s:3166   .debug_str:000000000000024f .LASF22
     /tmp/cc6l2o9m.s:3198   .debug_str:00000000000003ca .LASF23
     /tmp/cc6l2o9m.s:3230   .debug_str:00000000000004dd .LASF24
     /tmp/cc6l2o9m.s:3258   .debug_str:00000000000005c9 .LASF25
     /tmp/cc6l2o9m.s:3182   .debug_str:0000000000000351 .LASF28
     /tmp/cc6l2o9m.s:3240   .debug_str:000000000000053d .LASF27
GAS LISTING /tmp/cc6l2o9m.s 			page 26


     /tmp/cc6l2o9m.s:3274   .debug_str:0000000000000620 .LASF29
     /tmp/cc6l2o9m.s:3370   .debug_str:00000000000008a3 .LASF30
     /tmp/cc6l2o9m.s:3298   .debug_str:00000000000006c7 .LASF31
     /tmp/cc6l2o9m.s:3266   .debug_str:00000000000005ef .LASF32
     /tmp/cc6l2o9m.s:3260   .debug_str:00000000000005d3 .LASF33
     /tmp/cc6l2o9m.s:3116   .debug_str:0000000000000090 .LASF35
     /tmp/cc6l2o9m.s:3244   .debug_str:000000000000054f .LASF34
     /tmp/cc6l2o9m.s:3184   .debug_str:0000000000000360 .LASF36
     /tmp/cc6l2o9m.s:3262   .debug_str:00000000000005de .LASF37
     /tmp/cc6l2o9m.s:3160   .debug_str:000000000000021b .LASF38
     /tmp/cc6l2o9m.s:3158   .debug_str:000000000000020b .LASF43
     /tmp/cc6l2o9m.s:3106   .debug_str:0000000000000044 .LASF45
     /tmp/cc6l2o9m.s:3130   .debug_str:0000000000000105 .LASF39
     /tmp/cc6l2o9m.s:3232   .debug_str:00000000000004e7 .LASF40
     /tmp/cc6l2o9m.s:3246   .debug_str:000000000000055a .LASF41
     /tmp/cc6l2o9m.s:3248   .debug_str:000000000000056c .LASF42
     /tmp/cc6l2o9m.s:3218   .debug_str:0000000000000461 .LASF44
     /tmp/cc6l2o9m.s:3132   .debug_str:0000000000000116 .LASF46
     /tmp/cc6l2o9m.s:3180   .debug_str:0000000000000344 .LASF47
     /tmp/cc6l2o9m.s:3126   .debug_str:00000000000000db .LASF48
     /tmp/cc6l2o9m.s:3118   .debug_str:00000000000000a8 .LASF49
     /tmp/cc6l2o9m.s:3110   .debug_str:0000000000000068 .LASF50
     /tmp/cc6l2o9m.s:3314   .debug_str:0000000000000742 .LASF51
     /tmp/cc6l2o9m.s:3100   .debug_str:0000000000000011 .LASF52
     /tmp/cc6l2o9m.s:3104   .debug_str:000000000000003b .LASF55
     /tmp/cc6l2o9m.s:3312   .debug_str:000000000000072d .LASF57
     /tmp/cc6l2o9m.s:3164   .debug_str:0000000000000246 .LASF53
     /tmp/cc6l2o9m.s:3162   .debug_str:0000000000000231 .LASF54
     /tmp/cc6l2o9m.s:3306   .debug_str:000000000000070b .LASF56
     /tmp/cc6l2o9m.s:3286   .debug_str:0000000000000678 .LASF58
     /tmp/cc6l2o9m.s:3292   .debug_str:00000000000006a3 .LASF59
     /tmp/cc6l2o9m.s:3318   .debug_str:0000000000000757 .LASF60
     /tmp/cc6l2o9m.s:3354   .debug_str:000000000000083e .LASF61
     /tmp/cc6l2o9m.s:3150   .debug_str:00000000000001d1 .LASF62
     /tmp/cc6l2o9m.s:3098   .debug_str:0000000000000009 .LASF63
     /tmp/cc6l2o9m.s:3200   .debug_str:00000000000003d8 .LASF64
     /tmp/cc6l2o9m.s:3170   .debug_str:0000000000000264 .LASF65
     /tmp/cc6l2o9m.s:3134   .debug_str:0000000000000131 .LASF66
     /tmp/cc6l2o9m.s:3368   .debug_str:000000000000089b .LASF67
     /tmp/cc6l2o9m.s:3172   .debug_str:000000000000026c .LASF68
     /tmp/cc6l2o9m.s:3254   .debug_str:00000000000005ab .LASF69
     /tmp/cc6l2o9m.s:3356   .debug_str:0000000000000846 .LASF70
     /tmp/cc6l2o9m.s:3114   .debug_str:0000000000000089 .LASF71
     /tmp/cc6l2o9m.s:3326   .debug_str:0000000000000795 .LASF72
     /tmp/cc6l2o9m.s:3188   .debug_str:0000000000000380 .LASF73
     /tmp/cc6l2o9m.s:3320   .debug_str:000000000000076a .LASF74
     /tmp/cc6l2o9m.s:3112   .debug_str:0000000000000083 .LASF75
     /tmp/cc6l2o9m.s:3372   .debug_str:00000000000008b4 .LASF76
     /tmp/cc6l2o9m.s:3366   .debug_str:0000000000000890 .LASF77
     /tmp/cc6l2o9m.s:3300   .debug_str:00000000000006d8 .LASF78
     /tmp/cc6l2o9m.s:3216   .debug_str:0000000000000456 .LASF79
     /tmp/cc6l2o9m.s:3226   .debug_str:00000000000004b6 .LASF80
     /tmp/cc6l2o9m.s:3138   .debug_str:0000000000000161 .LASF81
     /tmp/cc6l2o9m.s:3206   .debug_str:0000000000000405 .LASF82
     /tmp/cc6l2o9m.s:3242   .debug_str:0000000000000545 .LASF83
     /tmp/cc6l2o9m.s:3196   .debug_str:00000000000003b4 .LASF84
     /tmp/cc6l2o9m.s:3308   .debug_str:0000000000000712 .LASF85
GAS LISTING /tmp/cc6l2o9m.s 			page 27


     /tmp/cc6l2o9m.s:3362   .debug_str:000000000000086f .LASF86
     /tmp/cc6l2o9m.s:3228   .debug_str:00000000000004ce .LASF87
     /tmp/cc6l2o9m.s:3136   .debug_str:0000000000000145 .LASF88
     /tmp/cc6l2o9m.s:3344   .debug_str:0000000000000809 .LASF89
     /tmp/cc6l2o9m.s:3220   .debug_str:000000000000046d .LASF90
     /tmp/cc6l2o9m.s:3346   .debug_str:000000000000081e .LASF91
     /tmp/cc6l2o9m.s:3316   .debug_str:000000000000074f .LASF92
     /tmp/cc6l2o9m.s:3282   .debug_str:000000000000065a .LASF93
     /tmp/cc6l2o9m.s:3124   .debug_str:00000000000000cf .LASF94
     /tmp/cc6l2o9m.s:3288   .debug_str:000000000000068b .LASF95
     /tmp/cc6l2o9m.s:3120   .debug_str:00000000000000b6 .LASF96
     /tmp/cc6l2o9m.s:3278   .debug_str:0000000000000642 .LASF97
     /tmp/cc6l2o9m.s:3176   .debug_str:0000000000000285 .LASF98
     /tmp/cc6l2o9m.s:3194   .debug_str:00000000000003a0 .LASF99
     /tmp/cc6l2o9m.s:3280   .debug_str:0000000000000655 .LASF100
     /tmp/cc6l2o9m.s:3332   .debug_str:00000000000007c2 .LASF101
     /tmp/cc6l2o9m.s:3190   .debug_str:0000000000000386 .LASF138
     /tmp/cc6l2o9m.s:3174   .debug_str:0000000000000280 .LASF102
     /tmp/cc6l2o9m.s:3214   .debug_str:000000000000044c .LASF103
     /tmp/cc6l2o9m.s:3202   .debug_str:00000000000003ec .LASF104
     /tmp/cc6l2o9m.s:3256   .debug_str:00000000000005b2 .LASF109
     /tmp/cc6l2o9m.s:3208   .debug_str:000000000000041b .LASF111
     /tmp/cc6l2o9m.s:669    .text:00000000000004c4 .LFE21
     /tmp/cc6l2o9m.s:3322   .debug_str:000000000000077c .LASF105
     /tmp/cc6l2o9m.s:2791   .debug_loc:0000000000000000 .LLST13
     /tmp/cc6l2o9m.s:3186   .debug_str:0000000000000378 .LASF106
     /tmp/cc6l2o9m.s:2798   .debug_loc:0000000000000023 .LLST14
     /tmp/cc6l2o9m.s:3360   .debug_str:0000000000000860 .LASF107
     /tmp/cc6l2o9m.s:3290   .debug_str:000000000000069e .LASF108
     /tmp/cc6l2o9m.s:2826   .debug_loc:0000000000000098 .LLST15
     /tmp/cc6l2o9m.s:562    .text:00000000000003ec .LBB8
     /tmp/cc6l2o9m.s:608    .text:0000000000000454 .LBE8
     /tmp/cc6l2o9m.s:2849   .debug_loc:00000000000000f9 .LLST16
     /tmp/cc6l2o9m.s:601    .text:000000000000044c .LVL68
     /tmp/cc6l2o9m.s:613    .text:000000000000045c .LBB9
     /tmp/cc6l2o9m.s:632    .text:0000000000000480 .LBE9
     /tmp/cc6l2o9m.s:2860   .debug_loc:000000000000012f .LLST17
     /tmp/cc6l2o9m.s:624    .text:0000000000000474 .LVL74
     /tmp/cc6l2o9m.s:485    .text:0000000000000324 .LVL53
     /tmp/cc6l2o9m.s:491    .text:0000000000000334 .LVL54
     /tmp/cc6l2o9m.s:497    .text:0000000000000344 .LVL55
     /tmp/cc6l2o9m.s:504    .text:0000000000000358 .LVL56
     /tmp/cc6l2o9m.s:509    .text:0000000000000368 .LVL57
     /tmp/cc6l2o9m.s:516    .text:000000000000037c .LVL58
     /tmp/cc6l2o9m.s:521    .text:000000000000038c .LVL59
     /tmp/cc6l2o9m.s:526    .text:0000000000000398 .LVL60
     /tmp/cc6l2o9m.s:532    .text:00000000000003a8 .LVL61
     /tmp/cc6l2o9m.s:540    .text:00000000000003bc .LVL62
     /tmp/cc6l2o9m.s:561    .text:00000000000003ec .LVL63
     /tmp/cc6l2o9m.s:612    .text:000000000000045c .LVL71
     /tmp/cc6l2o9m.s:637    .text:0000000000000490 .LVL76
     /tmp/cc6l2o9m.s:663    .text:00000000000004b8 .LVL82
     /tmp/cc6l2o9m.s:666    .text:00000000000004c4 .LVL83
     /tmp/cc6l2o9m.s:3364   .debug_str:0000000000000887 .LASF110
     /tmp/cc6l2o9m.s:3212   .debug_str:000000000000043e .LASF112
     /tmp/cc6l2o9m.s:194    .text:0000000000000144 .LFB20
     /tmp/cc6l2o9m.s:323    .text:000000000000023c .LFE20
GAS LISTING /tmp/cc6l2o9m.s 			page 28


     /tmp/cc6l2o9m.s:2867   .debug_loc:0000000000000152 .LLST3
     /tmp/cc6l2o9m.s:2885   .debug_loc:000000000000019e .LLST4
     /tmp/cc6l2o9m.s:2903   .debug_loc:00000000000001ea .LLST5
     /tmp/cc6l2o9m.s:3086   .debug_ranges:0000000000000000 .Ldebug_ranges0
     /tmp/cc6l2o9m.s:2927   .debug_loc:000000000000025a .LLST6
     /tmp/cc6l2o9m.s:233    .text:0000000000000188 .LVL25
     /tmp/cc6l2o9m.s:241    .text:000000000000019c .LVL27
     /tmp/cc6l2o9m.s:253    .text:00000000000001b4 .LVL28
     /tmp/cc6l2o9m.s:265    .text:00000000000001d0 .LVL31
     /tmp/cc6l2o9m.s:270    .text:00000000000001dc .LVL32
     /tmp/cc6l2o9m.s:222    .text:0000000000000178 .LVL23
     /tmp/cc6l2o9m.s:297    .text:0000000000000210 .LVL35
     /tmp/cc6l2o9m.s:302    .text:000000000000021c .LVL36
     /tmp/cc6l2o9m.s:3268   .debug_str:00000000000005f5 .LASF113
     /tmp/cc6l2o9m.s:3334   .debug_str:00000000000007cd .LASF114
     /tmp/cc6l2o9m.s:27     .text:0000000000000000 .LFB19
     /tmp/cc6l2o9m.s:174    .text:0000000000000144 .LFE19
     /tmp/cc6l2o9m.s:2938   .debug_loc:0000000000000290 .LLST0
     /tmp/cc6l2o9m.s:2956   .debug_loc:00000000000002dc .LLST1
     /tmp/cc6l2o9m.s:2974   .debug_loc:0000000000000328 .LLST2
     /tmp/cc6l2o9m.s:54     .text:0000000000000030 .LVL3
     /tmp/cc6l2o9m.s:71     .text:0000000000000054 .LVL5
     /tmp/cc6l2o9m.s:87     .text:0000000000000080 .LVL7
     /tmp/cc6l2o9m.s:94     .text:0000000000000090 .LVL8
     /tmp/cc6l2o9m.s:114    .text:00000000000000c0 .LVL10
     /tmp/cc6l2o9m.s:133    .text:00000000000000f0 .LVL12
     /tmp/cc6l2o9m.s:137    .text:00000000000000f8 .LVL13
     /tmp/cc6l2o9m.s:142    .text:0000000000000108 .LVL14
     /tmp/cc6l2o9m.s:150    .text:000000000000011c .LVL16
     /tmp/cc6l2o9m.s:155    .text:0000000000000128 .LVL17
     /tmp/cc6l2o9m.s:3330   .debug_str:00000000000007b1 .LASF115
     /tmp/cc6l2o9m.s:3222   .debug_str:000000000000048f .LASF116
     /tmp/cc6l2o9m.s:329    .text:000000000000023c .LFB18
     /tmp/cc6l2o9m.s:439    .text:00000000000002fc .LFE18
     /tmp/cc6l2o9m.s:3002   .debug_loc:00000000000003ab .LLST7
     /tmp/cc6l2o9m.s:3020   .debug_loc:00000000000003f7 .LLST8
     /tmp/cc6l2o9m.s:3038   .debug_loc:0000000000000443 .LLST9
     /tmp/cc6l2o9m.s:3049   .debug_loc:0000000000000479 .LLST10
     /tmp/cc6l2o9m.s:362    .text:0000000000000268 .LBB6
     /tmp/cc6l2o9m.s:370    .text:0000000000000270 .LBE6
     /tmp/cc6l2o9m.s:368    .text:0000000000000270 .LVL43
     /tmp/cc6l2o9m.s:358    .text:0000000000000268 .LVL42
     /tmp/cc6l2o9m.s:381    .text:0000000000000288 .LVL45
     /tmp/cc6l2o9m.s:414    .text:00000000000002cc .LVL49
     /tmp/cc6l2o9m.s:417    .text:00000000000002d8 .LVL50
     /tmp/cc6l2o9m.s:423    .text:00000000000002e4 .LVL51
     /tmp/cc6l2o9m.s:3352   .debug_str:0000000000000839 .LASF117
     /tmp/cc6l2o9m.s:3302   .debug_str:00000000000006f0 .LASF118
     /tmp/cc6l2o9m.s:3152   .debug_str:00000000000001e5 .LASF119
     /tmp/cc6l2o9m.s:3142   .debug_str:0000000000000177 .LASF120
     /tmp/cc6l2o9m.s:3156   .debug_str:00000000000001f8 .LASF121
     /tmp/cc6l2o9m.s:3272   .debug_str:0000000000000611 .LASF122
     /tmp/cc6l2o9m.s:3328   .debug_str:00000000000007a8 .LASF123
     /tmp/cc6l2o9m.s:3108   .debug_str:0000000000000062 .LASF127
     /tmp/cc6l2o9m.s:3350   .debug_str:000000000000082c .LASF129
     /tmp/cc6l2o9m.s:3342   .debug_str:0000000000000800 .LASF124
     /tmp/cc6l2o9m.s:3224   .debug_str:00000000000004a6 .LASF125
GAS LISTING /tmp/cc6l2o9m.s 			page 29


     /tmp/cc6l2o9m.s:3336   .debug_str:00000000000007db .LASF126
     /tmp/cc6l2o9m.s:3264   .debug_str:00000000000005e8 .LASF128
     /tmp/cc6l2o9m.s:3310   .debug_str:000000000000071d .LASF130
     /tmp/cc6l2o9m.s:3204   .debug_str:00000000000003f6 .LASF131
     /tmp/cc6l2o9m.s:3144   .debug_str:0000000000000180 .LASF132
     /tmp/cc6l2o9m.s:3340   .debug_str:00000000000007f5 .LASF133
     /tmp/cc6l2o9m.s:3348   .debug_str:0000000000000825 .LASF134
     /tmp/cc6l2o9m.s:651    .text:00000000000004a0 .LVL79
     /tmp/cc6l2o9m.s:597    .text:0000000000000440 .LVL66
     /tmp/cc6l2o9m.s:599    .text:0000000000000444 .LVL67
     /tmp/cc6l2o9m.s:645    .text:0000000000000498 .LVL77
     /tmp/cc6l2o9m.s:654    .text:00000000000004a4 .LVL80
     /tmp/cc6l2o9m.s:656    .text:00000000000004a8 .LVL81
     /tmp/cc6l2o9m.s:593    .text:0000000000000430 .LVL65
     /tmp/cc6l2o9m.s:566    .text:00000000000003f0 .LVL64
     /tmp/cc6l2o9m.s:604    .text:0000000000000450 .LVL69
     /tmp/cc6l2o9m.s:606    .text:0000000000000454 .LVL70
     /tmp/cc6l2o9m.s:616    .text:0000000000000460 .LVL72
     /tmp/cc6l2o9m.s:618    .text:0000000000000464 .LVL73
     /tmp/cc6l2o9m.s:648    .text:000000000000049c .LVL78
     /tmp/cc6l2o9m.s:197    .text:0000000000000144 .LVL20
     /tmp/cc6l2o9m.s:220    .text:0000000000000170 .LVL22
     /tmp/cc6l2o9m.s:315    .text:0000000000000230 .LVL37
     /tmp/cc6l2o9m.s:216    .text:0000000000000168 .LVL21
     /tmp/cc6l2o9m.s:227    .text:0000000000000180 .LVL24
     /tmp/cc6l2o9m.s:235    .text:000000000000018c .LVL26
     /tmp/cc6l2o9m.s:260    .text:00000000000001c0 .LVL30
     /tmp/cc6l2o9m.s:286    .text:00000000000001f8 .LVL33
     /tmp/cc6l2o9m.s:318    .text:0000000000000234 .LVL38
     /tmp/cc6l2o9m.s:255    .text:00000000000001b8 .LVL29
     /tmp/cc6l2o9m.s:290    .text:0000000000000200 .LVL34
     /tmp/cc6l2o9m.s:31     .text:0000000000000000 .LVL0
     /tmp/cc6l2o9m.s:52     .text:0000000000000028 .LVL2
     /tmp/cc6l2o9m.s:166    .text:0000000000000138 .LVL18
     /tmp/cc6l2o9m.s:48     .text:0000000000000020 .LVL1
     /tmp/cc6l2o9m.s:58     .text:0000000000000034 .LVL4
     /tmp/cc6l2o9m.s:76     .text:000000000000005c .LVL6
     /tmp/cc6l2o9m.s:110    .text:00000000000000b0 .LVL9
     /tmp/cc6l2o9m.s:127    .text:00000000000000e0 .LVL11
     /tmp/cc6l2o9m.s:144    .text:000000000000010c .LVL15
     /tmp/cc6l2o9m.s:169    .text:000000000000013c .LVL19
     /tmp/cc6l2o9m.s:332    .text:000000000000023c .LVL39
     /tmp/cc6l2o9m.s:353    .text:0000000000000260 .LVL41
     /tmp/cc6l2o9m.s:432    .text:00000000000002f0 .LVL52
     /tmp/cc6l2o9m.s:347    .text:0000000000000258 .LVL40
     /tmp/cc6l2o9m.s:373    .text:0000000000000274 .LVL44
     /tmp/cc6l2o9m.s:399    .text:00000000000002ac .LVL47
     /tmp/cc6l2o9m.s:386    .text:0000000000000290 .LVL46
     /tmp/cc6l2o9m.s:408    .text:00000000000002bc .LVL48
     /tmp/cc6l2o9m.s:718    .debug_info:0000000000000000 .Ldebug_info0
     /tmp/cc6l2o9m.s:229    .text:0000000000000180 .LBB4
     /tmp/cc6l2o9m.s:243    .text:000000000000019c .LBE4
     /tmp/cc6l2o9m.s:248    .text:00000000000001a8 .LBB5
     /tmp/cc6l2o9m.s:292    .text:0000000000000200 .LBE5
     /tmp/cc6l2o9m.s:672    .gcc_except_table:0000000000000000 .LLSDA21

UNDEFINED SYMBOLS
GAS LISTING /tmp/cc6l2o9m.s 			page 30


_ZN5Riscv11printStringEPKc
_ZN6Buffer3putEi
_ZN5Riscv12printIntegerEm
thread_dispatch
sem_signal
_ZN6Buffer3getEv
__getc
_ZN6BufferD1Ev
_ZdlPv
_Z11printStringPKc
_Z8printIntiii
_Znwm
_ZN6BufferC1Ei
sem_open
thread_create
sem_wait
sem_close
_Unwind_Resume
__gxx_personality_v0
