GAS LISTING /tmp/cc4gdYIC.s 			page 1


   1              		.file	"ConsumerProducer_CPP_Sync_API_test.cpp"
   2              		.option pic
   3              		.option norelax
   4              		.text
   5              	.Ltext0:
   6              		.section	.text._ZN8ConsumerD2Ev,"axG",@progbits,_ZN8ConsumerD5Ev,comdat
   7              		.align	2
   8              		.weak	_ZN8ConsumerD2Ev
  10              	_ZN8ConsumerD2Ev:
  11              	.LFB24:
  12              		.file 1 "test/ConsumerProducer_CPP_Sync_API_test.hpp"
   1:test/ConsumerProducer_CPP_Sync_API_test.hpp **** //
   2:test/ConsumerProducer_CPP_Sync_API_test.hpp **** // Created by os on 4/17/22.
   3:test/ConsumerProducer_CPP_Sync_API_test.hpp **** //
   4:test/ConsumerProducer_CPP_Sync_API_test.hpp **** 
   5:test/ConsumerProducer_CPP_Sync_API_test.hpp **** #ifndef XV6_CONSUMERPRODUCER_CPP_Sync_API_TEST_H
   6:test/ConsumerProducer_CPP_Sync_API_test.hpp **** #define XV6_CONSUMERPRODUCER_CPP_Sync_API_TEST_H
   7:test/ConsumerProducer_CPP_Sync_API_test.hpp **** 
   8:test/ConsumerProducer_CPP_Sync_API_test.hpp **** #include "../h/syscall_cpp.hpp"
   9:test/ConsumerProducer_CPP_Sync_API_test.hpp **** 
  10:test/ConsumerProducer_CPP_Sync_API_test.hpp **** #include "buffer_CPP_API.hpp"
  11:test/ConsumerProducer_CPP_Sync_API_test.hpp **** 
  12:test/ConsumerProducer_CPP_Sync_API_test.hpp **** struct thread_data;
  13:test/ConsumerProducer_CPP_Sync_API_test.hpp **** 
  14:test/ConsumerProducer_CPP_Sync_API_test.hpp **** class ProducerKeyboard:public Thread {
  15:test/ConsumerProducer_CPP_Sync_API_test.hpp ****     thread_data* td;
  16:test/ConsumerProducer_CPP_Sync_API_test.hpp ****     void producerKeyboard(void *arg);
  17:test/ConsumerProducer_CPP_Sync_API_test.hpp **** public:
  18:test/ConsumerProducer_CPP_Sync_API_test.hpp ****     ProducerKeyboard(thread_data* _td):Thread(), td(_td) {}
  19:test/ConsumerProducer_CPP_Sync_API_test.hpp **** 
  20:test/ConsumerProducer_CPP_Sync_API_test.hpp ****     void run() override {
  21:test/ConsumerProducer_CPP_Sync_API_test.hpp ****         producerKeyboard(td);
  22:test/ConsumerProducer_CPP_Sync_API_test.hpp ****     }
  23:test/ConsumerProducer_CPP_Sync_API_test.hpp **** };
  24:test/ConsumerProducer_CPP_Sync_API_test.hpp **** 
  25:test/ConsumerProducer_CPP_Sync_API_test.hpp **** class Producer:public Thread {
  26:test/ConsumerProducer_CPP_Sync_API_test.hpp ****     thread_data* td;
  27:test/ConsumerProducer_CPP_Sync_API_test.hpp ****     void producer(void *arg);
  28:test/ConsumerProducer_CPP_Sync_API_test.hpp **** public:
  29:test/ConsumerProducer_CPP_Sync_API_test.hpp ****     Producer(thread_data* _td):Thread(), td(_td) {}
  30:test/ConsumerProducer_CPP_Sync_API_test.hpp **** 
  31:test/ConsumerProducer_CPP_Sync_API_test.hpp ****     void run() override {
  32:test/ConsumerProducer_CPP_Sync_API_test.hpp ****         producer(td);
  33:test/ConsumerProducer_CPP_Sync_API_test.hpp ****     }
  34:test/ConsumerProducer_CPP_Sync_API_test.hpp **** };
  35:test/ConsumerProducer_CPP_Sync_API_test.hpp **** 
  36:test/ConsumerProducer_CPP_Sync_API_test.hpp **** class Consumer:public Thread {
  13              		.loc 1 36 7
  14              		.cfi_startproc
  15              	.LVL0:
  16 0000 130101FF 		addi	sp,sp,-16
  17              		.cfi_def_cfa_offset 16
  18 0004 23341100 		sd	ra,8(sp)
  19 0008 23308100 		sd	s0,0(sp)
  20              		.cfi_offset 1, -8
  21              		.cfi_offset 8, -16
  22 000c 13040101 		addi	s0,sp,16
GAS LISTING /tmp/cc4gdYIC.s 			page 2


  23              		.cfi_def_cfa 8, 0
  24              	.LBB23:
  25              		.loc 1 36 7 is_stmt 0
  26 0010 97070000 		lla	a5,_ZTV8Consumer+16
  26      93870700 
  27 0018 2330F500 		sd	a5,0(a0)
  28 001c 97000000 		call	_ZN6ThreadD2Ev@plt
  28      E7800000 
  29              	.LVL1:
  30              	.LBE23:
  31 0024 83308100 		ld	ra,8(sp)
  32              		.cfi_restore 1
  33 0028 03340100 		ld	s0,0(sp)
  34              		.cfi_restore 8
  35              		.cfi_def_cfa 2, 16
  36 002c 13010101 		addi	sp,sp,16
  37              		.cfi_def_cfa_offset 0
  38 0030 67800000 		jr	ra
  39              		.cfi_endproc
  40              	.LFE24:
  42              		.weak	_ZN8ConsumerD1Ev
  43              		.set	_ZN8ConsumerD1Ev,_ZN8ConsumerD2Ev
  44              		.section	.text._ZN8ConsumerD0Ev,"axG",@progbits,_ZN8ConsumerD5Ev,comdat
  45              		.align	2
  46              		.weak	_ZN8ConsumerD0Ev
  48              	_ZN8ConsumerD0Ev:
  49              	.LFB26:
  50              		.loc 1 36 7 is_stmt 1
  51              		.cfi_startproc
  52              	.LVL2:
  53 0000 130101FE 		addi	sp,sp,-32
  54              		.cfi_def_cfa_offset 32
  55 0004 233C1100 		sd	ra,24(sp)
  56 0008 23388100 		sd	s0,16(sp)
  57 000c 23349100 		sd	s1,8(sp)
  58              		.cfi_offset 1, -8
  59              		.cfi_offset 8, -16
  60              		.cfi_offset 9, -24
  61 0010 13040102 		addi	s0,sp,32
  62              		.cfi_def_cfa 8, 0
  63 0014 93040500 		mv	s1,a0
  64              	.LVL3:
  65              	.LBB24:
  66              	.LBB25:
  67              		.loc 1 36 7 is_stmt 0
  68 0018 97070000 		lla	a5,_ZTV8Consumer+16
  68      93870700 
  69 0020 2330F500 		sd	a5,0(a0)
  70 0024 97000000 		call	_ZN6ThreadD2Ev@plt
  70      E7800000 
  71              	.LVL4:
  72              	.LBE25:
  73              	.LBE24:
  74 002c 13850400 		mv	a0,s1
  75 0030 97000000 		call	_ZdlPv@plt
  75      E7800000 
  76              	.LVL5:
GAS LISTING /tmp/cc4gdYIC.s 			page 3


  77 0038 83308101 		ld	ra,24(sp)
  78              		.cfi_restore 1
  79 003c 03340101 		ld	s0,16(sp)
  80              		.cfi_restore 8
  81              		.cfi_def_cfa 2, 32
  82 0040 83348100 		ld	s1,8(sp)
  83              		.cfi_restore 9
  84              	.LVL6:
  85 0044 13010102 		addi	sp,sp,32
  86              		.cfi_def_cfa_offset 0
  87 0048 67800000 		jr	ra
  88              		.cfi_endproc
  89              	.LFE26:
  91              		.section	.text._ZN8ProducerD2Ev,"axG",@progbits,_ZN8ProducerD5Ev,comdat
  92              		.align	2
  93              		.weak	_ZN8ProducerD2Ev
  95              	_ZN8ProducerD2Ev:
  96              	.LFB28:
  25:test/ConsumerProducer_CPP_Sync_API_test.hpp ****     thread_data* td;
  97              		.loc 1 25 7 is_stmt 1
  98              		.cfi_startproc
  99              	.LVL7:
 100 0000 130101FF 		addi	sp,sp,-16
 101              		.cfi_def_cfa_offset 16
 102 0004 23341100 		sd	ra,8(sp)
 103 0008 23308100 		sd	s0,0(sp)
 104              		.cfi_offset 1, -8
 105              		.cfi_offset 8, -16
 106 000c 13040101 		addi	s0,sp,16
 107              		.cfi_def_cfa 8, 0
 108              	.LBB26:
  25:test/ConsumerProducer_CPP_Sync_API_test.hpp ****     thread_data* td;
 109              		.loc 1 25 7 is_stmt 0
 110 0010 97070000 		lla	a5,_ZTV8Producer+16
 110      93870700 
 111 0018 2330F500 		sd	a5,0(a0)
 112 001c 97000000 		call	_ZN6ThreadD2Ev@plt
 112      E7800000 
 113              	.LVL8:
 114              	.LBE26:
 115 0024 83308100 		ld	ra,8(sp)
 116              		.cfi_restore 1
 117 0028 03340100 		ld	s0,0(sp)
 118              		.cfi_restore 8
 119              		.cfi_def_cfa 2, 16
 120 002c 13010101 		addi	sp,sp,16
 121              		.cfi_def_cfa_offset 0
 122 0030 67800000 		jr	ra
 123              		.cfi_endproc
 124              	.LFE28:
 126              		.weak	_ZN8ProducerD1Ev
 127              		.set	_ZN8ProducerD1Ev,_ZN8ProducerD2Ev
 128              		.section	.text._ZN8ProducerD0Ev,"axG",@progbits,_ZN8ProducerD5Ev,comdat
 129              		.align	2
 130              		.weak	_ZN8ProducerD0Ev
 132              	_ZN8ProducerD0Ev:
 133              	.LFB30:
GAS LISTING /tmp/cc4gdYIC.s 			page 4


  25:test/ConsumerProducer_CPP_Sync_API_test.hpp ****     thread_data* td;
 134              		.loc 1 25 7 is_stmt 1
 135              		.cfi_startproc
 136              	.LVL9:
 137 0000 130101FE 		addi	sp,sp,-32
 138              		.cfi_def_cfa_offset 32
 139 0004 233C1100 		sd	ra,24(sp)
 140 0008 23388100 		sd	s0,16(sp)
 141 000c 23349100 		sd	s1,8(sp)
 142              		.cfi_offset 1, -8
 143              		.cfi_offset 8, -16
 144              		.cfi_offset 9, -24
 145 0010 13040102 		addi	s0,sp,32
 146              		.cfi_def_cfa 8, 0
 147 0014 93040500 		mv	s1,a0
 148              	.LVL10:
 149              	.LBB27:
 150              	.LBB28:
  25:test/ConsumerProducer_CPP_Sync_API_test.hpp ****     thread_data* td;
 151              		.loc 1 25 7 is_stmt 0
 152 0018 97070000 		lla	a5,_ZTV8Producer+16
 152      93870700 
 153 0020 2330F500 		sd	a5,0(a0)
 154 0024 97000000 		call	_ZN6ThreadD2Ev@plt
 154      E7800000 
 155              	.LVL11:
 156              	.LBE28:
 157              	.LBE27:
 158 002c 13850400 		mv	a0,s1
 159 0030 97000000 		call	_ZdlPv@plt
 159      E7800000 
 160              	.LVL12:
 161 0038 83308101 		ld	ra,24(sp)
 162              		.cfi_restore 1
 163 003c 03340101 		ld	s0,16(sp)
 164              		.cfi_restore 8
 165              		.cfi_def_cfa 2, 32
 166 0040 83348100 		ld	s1,8(sp)
 167              		.cfi_restore 9
 168              	.LVL13:
 169 0044 13010102 		addi	sp,sp,32
 170              		.cfi_def_cfa_offset 0
 171 0048 67800000 		jr	ra
 172              		.cfi_endproc
 173              	.LFE30:
 175              		.section	.text._ZN16ProducerKeyboardD2Ev,"axG",@progbits,_ZN16ProducerKeyboardD5Ev,comdat
 176              		.align	2
 177              		.weak	_ZN16ProducerKeyboardD2Ev
 179              	_ZN16ProducerKeyboardD2Ev:
 180              	.LFB32:
  14:test/ConsumerProducer_CPP_Sync_API_test.hpp ****     thread_data* td;
 181              		.loc 1 14 7 is_stmt 1
 182              		.cfi_startproc
 183              	.LVL14:
 184 0000 130101FF 		addi	sp,sp,-16
 185              		.cfi_def_cfa_offset 16
 186 0004 23341100 		sd	ra,8(sp)
GAS LISTING /tmp/cc4gdYIC.s 			page 5


 187 0008 23308100 		sd	s0,0(sp)
 188              		.cfi_offset 1, -8
 189              		.cfi_offset 8, -16
 190 000c 13040101 		addi	s0,sp,16
 191              		.cfi_def_cfa 8, 0
 192              	.LBB29:
  14:test/ConsumerProducer_CPP_Sync_API_test.hpp ****     thread_data* td;
 193              		.loc 1 14 7 is_stmt 0
 194 0010 97070000 		lla	a5,_ZTV16ProducerKeyboard+16
 194      93870700 
 195 0018 2330F500 		sd	a5,0(a0)
 196 001c 97000000 		call	_ZN6ThreadD2Ev@plt
 196      E7800000 
 197              	.LVL15:
 198              	.LBE29:
 199 0024 83308100 		ld	ra,8(sp)
 200              		.cfi_restore 1
 201 0028 03340100 		ld	s0,0(sp)
 202              		.cfi_restore 8
 203              		.cfi_def_cfa 2, 16
 204 002c 13010101 		addi	sp,sp,16
 205              		.cfi_def_cfa_offset 0
 206 0030 67800000 		jr	ra
 207              		.cfi_endproc
 208              	.LFE32:
 210              		.weak	_ZN16ProducerKeyboardD1Ev
 211              		.set	_ZN16ProducerKeyboardD1Ev,_ZN16ProducerKeyboardD2Ev
 212              		.section	.text._ZN16ProducerKeyboardD0Ev,"axG",@progbits,_ZN16ProducerKeyboardD5Ev,comdat
 213              		.align	2
 214              		.weak	_ZN16ProducerKeyboardD0Ev
 216              	_ZN16ProducerKeyboardD0Ev:
 217              	.LFB34:
  14:test/ConsumerProducer_CPP_Sync_API_test.hpp ****     thread_data* td;
 218              		.loc 1 14 7 is_stmt 1
 219              		.cfi_startproc
 220              	.LVL16:
 221 0000 130101FE 		addi	sp,sp,-32
 222              		.cfi_def_cfa_offset 32
 223 0004 233C1100 		sd	ra,24(sp)
 224 0008 23388100 		sd	s0,16(sp)
 225 000c 23349100 		sd	s1,8(sp)
 226              		.cfi_offset 1, -8
 227              		.cfi_offset 8, -16
 228              		.cfi_offset 9, -24
 229 0010 13040102 		addi	s0,sp,32
 230              		.cfi_def_cfa 8, 0
 231 0014 93040500 		mv	s1,a0
 232              	.LVL17:
 233              	.LBB30:
 234              	.LBB31:
  14:test/ConsumerProducer_CPP_Sync_API_test.hpp ****     thread_data* td;
 235              		.loc 1 14 7 is_stmt 0
 236 0018 97070000 		lla	a5,_ZTV16ProducerKeyboard+16
 236      93870700 
 237 0020 2330F500 		sd	a5,0(a0)
 238 0024 97000000 		call	_ZN6ThreadD2Ev@plt
 238      E7800000 
GAS LISTING /tmp/cc4gdYIC.s 			page 6


 239              	.LVL18:
 240              	.LBE31:
 241              	.LBE30:
 242 002c 13850400 		mv	a0,s1
 243 0030 97000000 		call	_ZdlPv@plt
 243      E7800000 
 244              	.LVL19:
 245 0038 83308101 		ld	ra,24(sp)
 246              		.cfi_restore 1
 247 003c 03340101 		ld	s0,16(sp)
 248              		.cfi_restore 8
 249              		.cfi_def_cfa 2, 32
 250 0040 83348100 		ld	s1,8(sp)
 251              		.cfi_restore 9
 252              	.LVL20:
 253 0044 13010102 		addi	sp,sp,32
 254              		.cfi_def_cfa_offset 0
 255 0048 67800000 		jr	ra
 256              		.cfi_endproc
 257              	.LFE34:
 259              		.text
 260              		.align	2
 261              		.globl	_ZN16ProducerKeyboard16producerKeyboardEPv
 263              	_ZN16ProducerKeyboard16producerKeyboardEPv:
 264              	.LFB19:
 265              		.file 2 "test/ConsumerProducer_CPP_Sync_API_test.cpp"
   1:test/ConsumerProducer_CPP_Sync_API_test.cpp **** //
   2:test/ConsumerProducer_CPP_Sync_API_test.cpp **** // Created by os on 6/2/22.
   3:test/ConsumerProducer_CPP_Sync_API_test.cpp **** //
   4:test/ConsumerProducer_CPP_Sync_API_test.cpp **** 
   5:test/ConsumerProducer_CPP_Sync_API_test.cpp **** #include "ConsumerProducer_CPP_Sync_API_test.hpp"
   6:test/ConsumerProducer_CPP_Sync_API_test.cpp **** #include "printing.hpp"
   7:test/ConsumerProducer_CPP_Sync_API_test.cpp **** extern Semaphore* waitForAll;
   8:test/ConsumerProducer_CPP_Sync_API_test.cpp **** 
   9:test/ConsumerProducer_CPP_Sync_API_test.cpp **** struct thread_data {
  10:test/ConsumerProducer_CPP_Sync_API_test.cpp ****     int id;
  11:test/ConsumerProducer_CPP_Sync_API_test.cpp ****     BufferCPP *buffer;
  12:test/ConsumerProducer_CPP_Sync_API_test.cpp ****     Semaphore* wait;
  13:test/ConsumerProducer_CPP_Sync_API_test.cpp **** };
  14:test/ConsumerProducer_CPP_Sync_API_test.cpp **** 
  15:test/ConsumerProducer_CPP_Sync_API_test.cpp **** extern volatile int threadEnd;
  16:test/ConsumerProducer_CPP_Sync_API_test.cpp **** 
  17:test/ConsumerProducer_CPP_Sync_API_test.cpp **** void ProducerKeyboard::producerKeyboard(void *arg) {
 266              		.loc 2 17 52 is_stmt 1
 267              		.cfi_startproc
 268              	.LVL21:
 269 0000 130101FD 		addi	sp,sp,-48
 270              		.cfi_def_cfa_offset 48
 271 0004 23341102 		sd	ra,40(sp)
 272 0008 23308102 		sd	s0,32(sp)
 273 000c 233C9100 		sd	s1,24(sp)
 274 0010 23382101 		sd	s2,16(sp)
 275 0014 23343101 		sd	s3,8(sp)
 276              		.cfi_offset 1, -8
 277              		.cfi_offset 8, -16
 278              		.cfi_offset 9, -24
 279              		.cfi_offset 18, -32
GAS LISTING /tmp/cc4gdYIC.s 			page 7


 280              		.cfi_offset 19, -40
 281 0018 13040103 		addi	s0,sp,48
 282              		.cfi_def_cfa 8, 0
 283 001c 93090500 		mv	s3,a0
 284 0020 93840500 		mv	s1,a1
  18:test/ConsumerProducer_CPP_Sync_API_test.cpp ****     struct thread_data *data = (struct thread_data *) arg;
 285              		.loc 2 18 5
 286              	.LVL22:
  19:test/ConsumerProducer_CPP_Sync_API_test.cpp **** 
  20:test/ConsumerProducer_CPP_Sync_API_test.cpp ****     int key;
 287              		.loc 2 20 5
  21:test/ConsumerProducer_CPP_Sync_API_test.cpp ****     int i = 0;
 288              		.loc 2 21 5
 289              		.loc 2 21 9 is_stmt 0
 290 0024 13090000 		li	s2,0
 291 0028 6F00C000 		j	.L14
 292              	.LVL23:
 293              	.L18:
  22:test/ConsumerProducer_CPP_Sync_API_test.cpp ****     while ((key = getc()) != 'q') {
  23:test/ConsumerProducer_CPP_Sync_API_test.cpp ****         data->buffer->put(key);
  24:test/ConsumerProducer_CPP_Sync_API_test.cpp ****         i++;
  25:test/ConsumerProducer_CPP_Sync_API_test.cpp **** 
  26:test/ConsumerProducer_CPP_Sync_API_test.cpp ****         if (i % (10 * data->id) == 0) {
  27:test/ConsumerProducer_CPP_Sync_API_test.cpp ****             Thread::dispatch();
 294              		.loc 2 27 13 is_stmt 1
 295              		.loc 2 27 29 is_stmt 0
 296 002c 97000000 		call	_ZN6Thread8dispatchEv@plt
 296      E7800000 
 297              	.LVL24:
 298              	.L14:
  22:test/ConsumerProducer_CPP_Sync_API_test.cpp ****     while ((key = getc()) != 'q') {
 299              		.loc 2 22 5 is_stmt 1
  22:test/ConsumerProducer_CPP_Sync_API_test.cpp ****     while ((key = getc()) != 'q') {
 300              		.loc 2 22 27
  22:test/ConsumerProducer_CPP_Sync_API_test.cpp ****     while ((key = getc()) != 'q') {
 301              		.loc 2 22 23 is_stmt 0
 302 0034 97000000 		call	getc@plt
 302      E7800000 
 303              	.LVL25:
  22:test/ConsumerProducer_CPP_Sync_API_test.cpp ****     while ((key = getc()) != 'q') {
 304              		.loc 2 22 17
 305 003c 9B050500 		sext.w	a1,a0
 306              	.LVL26:
  22:test/ConsumerProducer_CPP_Sync_API_test.cpp ****     while ((key = getc()) != 'q') {
 307              		.loc 2 22 27
 308 0040 93071007 		li	a5,113
 309 0044 638AF502 		beq	a1,a5,.L15
  23:test/ConsumerProducer_CPP_Sync_API_test.cpp ****         i++;
 310              		.loc 2 23 9 is_stmt 1
  23:test/ConsumerProducer_CPP_Sync_API_test.cpp ****         i++;
 311              		.loc 2 23 26 is_stmt 0
 312 0048 03B58400 		ld	a0,8(s1)
 313 004c 97000000 		call	_ZN9BufferCPP3putEi@plt
 313      E7800000 
 314              	.LVL27:
  24:test/ConsumerProducer_CPP_Sync_API_test.cpp **** 
 315              		.loc 2 24 9 is_stmt 1
GAS LISTING /tmp/cc4gdYIC.s 			page 8


  24:test/ConsumerProducer_CPP_Sync_API_test.cpp **** 
 316              		.loc 2 24 10 is_stmt 0
 317 0054 1B071900 		addiw	a4,s2,1
 318 0058 1B090700 		sext.w	s2,a4
 319              	.LVL28:
  26:test/ConsumerProducer_CPP_Sync_API_test.cpp ****             Thread::dispatch();
 320              		.loc 2 26 9 is_stmt 1
  26:test/ConsumerProducer_CPP_Sync_API_test.cpp ****             Thread::dispatch();
 321              		.loc 2 26 29 is_stmt 0
 322 005c 83A60400 		lw	a3,0(s1)
  26:test/ConsumerProducer_CPP_Sync_API_test.cpp ****             Thread::dispatch();
 323              		.loc 2 26 21
 324 0060 9B972600 		slliw	a5,a3,2
 325 0064 BB87D700 		addw	a5,a5,a3
 326 0068 9B971700 		slliw	a5,a5,1
  26:test/ConsumerProducer_CPP_Sync_API_test.cpp ****             Thread::dispatch();
 327              		.loc 2 26 15
 328 006c BB67F702 		remw	a5,a4,a5
  26:test/ConsumerProducer_CPP_Sync_API_test.cpp ****             Thread::dispatch();
 329              		.loc 2 26 9
 330 0070 E39207FC 		bnez	a5,.L14
 331 0074 6FF09FFB 		j	.L18
 332              	.LVL29:
 333              	.L15:
  28:test/ConsumerProducer_CPP_Sync_API_test.cpp ****         }
  29:test/ConsumerProducer_CPP_Sync_API_test.cpp ****     }
  30:test/ConsumerProducer_CPP_Sync_API_test.cpp **** 
  31:test/ConsumerProducer_CPP_Sync_API_test.cpp ****     threadEnd = 1;
 334              		.loc 2 31 5 is_stmt 1
 335              		.loc 2 31 15 is_stmt 0
 336 0078 97070000 		la	a5,threadEnd
 336      83B70700 
 337 0080 13071000 		li	a4,1
 338 0084 23A0E700 		sw	a4,0(a5)
  32:test/ConsumerProducer_CPP_Sync_API_test.cpp ****     td->buffer->put('!');
 339              		.loc 2 32 5 is_stmt 1
 340 0088 83B70901 		ld	a5,16(s3)
 341              		.loc 2 32 20 is_stmt 0
 342 008c 93051002 		li	a1,33
 343              	.LVL30:
 344 0090 03B58700 		ld	a0,8(a5)
 345              	.LVL31:
 346 0094 97000000 		call	_ZN9BufferCPP3putEi@plt
 346      E7800000 
 347              	.LVL32:
  33:test/ConsumerProducer_CPP_Sync_API_test.cpp **** 
  34:test/ConsumerProducer_CPP_Sync_API_test.cpp ****     data->wait->signal();
 348              		.loc 2 34 5 is_stmt 1
 349              		.loc 2 34 23 is_stmt 0
 350 009c 03B50401 		ld	a0,16(s1)
 351 00a0 97000000 		call	_ZN9Semaphore6signalEv@plt
 351      E7800000 
 352              	.LVL33:
  35:test/ConsumerProducer_CPP_Sync_API_test.cpp **** }
 353              		.loc 2 35 1
 354 00a8 83308102 		ld	ra,40(sp)
 355              		.cfi_restore 1
GAS LISTING /tmp/cc4gdYIC.s 			page 9


 356 00ac 03340102 		ld	s0,32(sp)
 357              		.cfi_restore 8
 358              		.cfi_def_cfa 2, 48
 359 00b0 83348101 		ld	s1,24(sp)
 360              		.cfi_restore 9
 361              	.LVL34:
 362 00b4 03390101 		ld	s2,16(sp)
 363              		.cfi_restore 18
 364              	.LVL35:
 365 00b8 83398100 		ld	s3,8(sp)
 366              		.cfi_restore 19
 367              	.LVL36:
 368 00bc 13010103 		addi	sp,sp,48
 369              		.cfi_def_cfa_offset 0
 370 00c0 67800000 		jr	ra
 371              		.cfi_endproc
 372              	.LFE19:
 374              		.section	.text._ZN16ProducerKeyboard3runEv,"axG",@progbits,_ZN16ProducerKeyboard3runEv,comdat
 375              		.align	2
 376              		.weak	_ZN16ProducerKeyboard3runEv
 378              	_ZN16ProducerKeyboard3runEv:
 379              	.LFB10:
  20:test/ConsumerProducer_CPP_Sync_API_test.hpp ****         producerKeyboard(td);
 380              		.loc 1 20 10 is_stmt 1
 381              		.cfi_startproc
 382              	.LVL37:
 383 0000 130101FF 		addi	sp,sp,-16
 384              		.cfi_def_cfa_offset 16
 385 0004 23341100 		sd	ra,8(sp)
 386 0008 23308100 		sd	s0,0(sp)
 387              		.cfi_offset 1, -8
 388              		.cfi_offset 8, -16
 389 000c 13040101 		addi	s0,sp,16
 390              		.cfi_def_cfa 8, 0
  21:test/ConsumerProducer_CPP_Sync_API_test.hpp ****     }
 391              		.loc 1 21 9
  21:test/ConsumerProducer_CPP_Sync_API_test.hpp ****     }
 392              		.loc 1 21 25 is_stmt 0
 393 0010 83350501 		ld	a1,16(a0)
 394 0014 97000000 		call	_ZN16ProducerKeyboard16producerKeyboardEPv
 394      E7800000 
 395              	.LVL38:
  22:test/ConsumerProducer_CPP_Sync_API_test.hpp **** };
 396              		.loc 1 22 5
 397 001c 83308100 		ld	ra,8(sp)
 398              		.cfi_restore 1
 399 0020 03340100 		ld	s0,0(sp)
 400              		.cfi_restore 8
 401              		.cfi_def_cfa 2, 16
 402 0024 13010101 		addi	sp,sp,16
 403              		.cfi_def_cfa_offset 0
 404 0028 67800000 		jr	ra
 405              		.cfi_endproc
 406              	.LFE10:
 408              		.text
 409              		.align	2
 410              		.globl	_ZN8Producer8producerEPv
GAS LISTING /tmp/cc4gdYIC.s 			page 10


 412              	_ZN8Producer8producerEPv:
 413              	.LFB20:
  36:test/ConsumerProducer_CPP_Sync_API_test.cpp **** 
  37:test/ConsumerProducer_CPP_Sync_API_test.cpp **** void Producer::producer(void *arg) {
 414              		.loc 2 37 36 is_stmt 1
 415              		.cfi_startproc
 416              	.LVL39:
 417 00c4 130101FE 		addi	sp,sp,-32
 418              		.cfi_def_cfa_offset 32
 419 00c8 233C1100 		sd	ra,24(sp)
 420 00cc 23388100 		sd	s0,16(sp)
 421 00d0 23349100 		sd	s1,8(sp)
 422 00d4 23302101 		sd	s2,0(sp)
 423              		.cfi_offset 1, -8
 424              		.cfi_offset 8, -16
 425              		.cfi_offset 9, -24
 426              		.cfi_offset 18, -32
 427 00d8 13040102 		addi	s0,sp,32
 428              		.cfi_def_cfa 8, 0
 429 00dc 93840500 		mv	s1,a1
  38:test/ConsumerProducer_CPP_Sync_API_test.cpp ****     struct thread_data *data = (struct thread_data *) arg;
 430              		.loc 2 38 5
 431              	.LVL40:
  39:test/ConsumerProducer_CPP_Sync_API_test.cpp **** 
  40:test/ConsumerProducer_CPP_Sync_API_test.cpp ****     int i = 0;
 432              		.loc 2 40 5
 433              		.loc 2 40 9 is_stmt 0
 434 00e0 13090000 		li	s2,0
 435 00e4 6F00C000 		j	.L22
 436              	.LVL41:
 437              	.L26:
  41:test/ConsumerProducer_CPP_Sync_API_test.cpp ****     while (!threadEnd) {
  42:test/ConsumerProducer_CPP_Sync_API_test.cpp ****         data->buffer->put(data->id + '0');
  43:test/ConsumerProducer_CPP_Sync_API_test.cpp ****         i++;
  44:test/ConsumerProducer_CPP_Sync_API_test.cpp **** 
  45:test/ConsumerProducer_CPP_Sync_API_test.cpp ****         if (i % (10 * data->id) == 0) {
  46:test/ConsumerProducer_CPP_Sync_API_test.cpp ****             Thread::dispatch();
 438              		.loc 2 46 13 is_stmt 1
 439              		.loc 2 46 29 is_stmt 0
 440 00e8 97000000 		call	_ZN6Thread8dispatchEv@plt
 440      E7800000 
 441              	.LVL42:
 442              	.L22:
  41:test/ConsumerProducer_CPP_Sync_API_test.cpp ****     while (!threadEnd) {
 443              		.loc 2 41 5 is_stmt 1
  41:test/ConsumerProducer_CPP_Sync_API_test.cpp ****     while (!threadEnd) {
 444              		.loc 2 41 12
 445 00f0 97070000 		la	a5,threadEnd
 445      83B70700 
 446 00f8 83A70700 		lw	a5,0(a5)
 447 00fc 9B870700 		sext.w	a5,a5
 448 0100 639E0702 		bnez	a5,.L23
  42:test/ConsumerProducer_CPP_Sync_API_test.cpp ****         i++;
 449              		.loc 2 42 9
  42:test/ConsumerProducer_CPP_Sync_API_test.cpp ****         i++;
 450              		.loc 2 42 33 is_stmt 0
 451 0104 83A50400 		lw	a1,0(s1)
GAS LISTING /tmp/cc4gdYIC.s 			page 11


  42:test/ConsumerProducer_CPP_Sync_API_test.cpp ****         i++;
 452              		.loc 2 42 26
 453 0108 9B850503 		addiw	a1,a1,48
 454 010c 03B58400 		ld	a0,8(s1)
 455 0110 97000000 		call	_ZN9BufferCPP3putEi@plt
 455      E7800000 
 456              	.LVL43:
  43:test/ConsumerProducer_CPP_Sync_API_test.cpp **** 
 457              		.loc 2 43 9 is_stmt 1
  43:test/ConsumerProducer_CPP_Sync_API_test.cpp **** 
 458              		.loc 2 43 10 is_stmt 0
 459 0118 1B071900 		addiw	a4,s2,1
 460 011c 1B090700 		sext.w	s2,a4
 461              	.LVL44:
  45:test/ConsumerProducer_CPP_Sync_API_test.cpp ****             Thread::dispatch();
 462              		.loc 2 45 9 is_stmt 1
  45:test/ConsumerProducer_CPP_Sync_API_test.cpp ****             Thread::dispatch();
 463              		.loc 2 45 29 is_stmt 0
 464 0120 83A60400 		lw	a3,0(s1)
  45:test/ConsumerProducer_CPP_Sync_API_test.cpp ****             Thread::dispatch();
 465              		.loc 2 45 21
 466 0124 9B972600 		slliw	a5,a3,2
 467 0128 BB87D700 		addw	a5,a5,a3
 468 012c 9B971700 		slliw	a5,a5,1
  45:test/ConsumerProducer_CPP_Sync_API_test.cpp ****             Thread::dispatch();
 469              		.loc 2 45 15
 470 0130 BB67F702 		remw	a5,a4,a5
  45:test/ConsumerProducer_CPP_Sync_API_test.cpp ****             Thread::dispatch();
 471              		.loc 2 45 9
 472 0134 E39E07FA 		bnez	a5,.L22
 473 0138 6FF01FFB 		j	.L26
 474              	.LVL45:
 475              	.L23:
  47:test/ConsumerProducer_CPP_Sync_API_test.cpp ****         }
  48:test/ConsumerProducer_CPP_Sync_API_test.cpp ****     }
  49:test/ConsumerProducer_CPP_Sync_API_test.cpp **** 
  50:test/ConsumerProducer_CPP_Sync_API_test.cpp ****     data->wait->signal();
 476              		.loc 2 50 5 is_stmt 1
 477              		.loc 2 50 23 is_stmt 0
 478 013c 03B50401 		ld	a0,16(s1)
 479 0140 97000000 		call	_ZN9Semaphore6signalEv@plt
 479      E7800000 
 480              	.LVL46:
  51:test/ConsumerProducer_CPP_Sync_API_test.cpp **** }
 481              		.loc 2 51 1
 482 0148 83308101 		ld	ra,24(sp)
 483              		.cfi_restore 1
 484 014c 03340101 		ld	s0,16(sp)
 485              		.cfi_restore 8
 486              		.cfi_def_cfa 2, 32
 487 0150 83348100 		ld	s1,8(sp)
 488              		.cfi_restore 9
 489              	.LVL47:
 490 0154 03390100 		ld	s2,0(sp)
 491              		.cfi_restore 18
 492              	.LVL48:
 493 0158 13010102 		addi	sp,sp,32
GAS LISTING /tmp/cc4gdYIC.s 			page 12


 494              		.cfi_def_cfa_offset 0
 495 015c 67800000 		jr	ra
 496              		.cfi_endproc
 497              	.LFE20:
 499              		.section	.text._ZN8Producer3runEv,"axG",@progbits,_ZN8Producer3runEv,comdat
 500              		.align	2
 501              		.weak	_ZN8Producer3runEv
 503              	_ZN8Producer3runEv:
 504              	.LFB14:
  31:test/ConsumerProducer_CPP_Sync_API_test.hpp ****         producer(td);
 505              		.loc 1 31 10 is_stmt 1
 506              		.cfi_startproc
 507              	.LVL49:
 508 0000 130101FF 		addi	sp,sp,-16
 509              		.cfi_def_cfa_offset 16
 510 0004 23341100 		sd	ra,8(sp)
 511 0008 23308100 		sd	s0,0(sp)
 512              		.cfi_offset 1, -8
 513              		.cfi_offset 8, -16
 514 000c 13040101 		addi	s0,sp,16
 515              		.cfi_def_cfa 8, 0
  32:test/ConsumerProducer_CPP_Sync_API_test.hpp ****     }
 516              		.loc 1 32 9
  32:test/ConsumerProducer_CPP_Sync_API_test.hpp ****     }
 517              		.loc 1 32 17 is_stmt 0
 518 0010 83350501 		ld	a1,16(a0)
 519 0014 97000000 		call	_ZN8Producer8producerEPv
 519      E7800000 
 520              	.LVL50:
  33:test/ConsumerProducer_CPP_Sync_API_test.hpp **** };
 521              		.loc 1 33 5
 522 001c 83308100 		ld	ra,8(sp)
 523              		.cfi_restore 1
 524 0020 03340100 		ld	s0,0(sp)
 525              		.cfi_restore 8
 526              		.cfi_def_cfa 2, 16
 527 0024 13010101 		addi	sp,sp,16
 528              		.cfi_def_cfa_offset 0
 529 0028 67800000 		jr	ra
 530              		.cfi_endproc
 531              	.LFE14:
 533              		.text
 534              		.align	2
 535              		.globl	_ZN8Consumer8consumerEPv
 537              	_ZN8Consumer8consumerEPv:
 538              	.LFB21:
  52:test/ConsumerProducer_CPP_Sync_API_test.cpp **** 
  53:test/ConsumerProducer_CPP_Sync_API_test.cpp **** void Consumer::consumer(void *arg) {
 539              		.loc 2 53 36 is_stmt 1
 540              		.cfi_startproc
 541              	.LVL51:
 542 0160 130101FD 		addi	sp,sp,-48
 543              		.cfi_def_cfa_offset 48
 544 0164 23341102 		sd	ra,40(sp)
 545 0168 23308102 		sd	s0,32(sp)
 546 016c 233C9100 		sd	s1,24(sp)
 547 0170 23382101 		sd	s2,16(sp)
GAS LISTING /tmp/cc4gdYIC.s 			page 13


 548 0174 23343101 		sd	s3,8(sp)
 549 0178 23304101 		sd	s4,0(sp)
 550              		.cfi_offset 1, -8
 551              		.cfi_offset 8, -16
 552              		.cfi_offset 9, -24
 553              		.cfi_offset 18, -32
 554              		.cfi_offset 19, -40
 555              		.cfi_offset 20, -48
 556 017c 13040103 		addi	s0,sp,48
 557              		.cfi_def_cfa 8, 0
 558 0180 93090500 		mv	s3,a0
 559 0184 13890500 		mv	s2,a1
  54:test/ConsumerProducer_CPP_Sync_API_test.cpp ****     struct thread_data *data = (struct thread_data *) arg;
 560              		.loc 2 54 5
 561              	.LVL52:
  55:test/ConsumerProducer_CPP_Sync_API_test.cpp **** 
  56:test/ConsumerProducer_CPP_Sync_API_test.cpp ****     int i = 0;
 562              		.loc 2 56 5
 563              		.loc 2 56 9 is_stmt 0
 564 0188 130A0000 		li	s4,0
 565 018c 6F00C001 		j	.L30
 566              	.LVL53:
 567              	.L36:
 568              	.LBB32:
  57:test/ConsumerProducer_CPP_Sync_API_test.cpp ****     while (!threadEnd) {
  58:test/ConsumerProducer_CPP_Sync_API_test.cpp ****         int key = data->buffer->get();
  59:test/ConsumerProducer_CPP_Sync_API_test.cpp ****         i++;
  60:test/ConsumerProducer_CPP_Sync_API_test.cpp **** 
  61:test/ConsumerProducer_CPP_Sync_API_test.cpp ****         putc(key);
  62:test/ConsumerProducer_CPP_Sync_API_test.cpp **** 
  63:test/ConsumerProducer_CPP_Sync_API_test.cpp ****         if (i % (5 * data->id) == 0) {
  64:test/ConsumerProducer_CPP_Sync_API_test.cpp ****             Thread::dispatch();
 569              		.loc 2 64 13 is_stmt 1
 570              		.loc 2 64 29 is_stmt 0
 571 0190 97000000 		call	_ZN6Thread8dispatchEv@plt
 571      E7800000 
 572              	.LVL54:
 573 0198 6F008005 		j	.L32
 574              	.LVL55:
 575              	.L37:
  65:test/ConsumerProducer_CPP_Sync_API_test.cpp ****         }
  66:test/ConsumerProducer_CPP_Sync_API_test.cpp **** 
  67:test/ConsumerProducer_CPP_Sync_API_test.cpp ****         if (i % 80 == 0) {
  68:test/ConsumerProducer_CPP_Sync_API_test.cpp ****             putc('\n');
 576              		.loc 2 68 13 is_stmt 1
 577              		.loc 2 68 17 is_stmt 0
 578 019c 1305A000 		li	a0,10
 579 01a0 97000000 		call	putc@plt
 579      E7800000 
 580              	.LVL56:
 581              	.L30:
 582              	.LBE32:
  57:test/ConsumerProducer_CPP_Sync_API_test.cpp ****     while (!threadEnd) {
 583              		.loc 2 57 5 is_stmt 1
  57:test/ConsumerProducer_CPP_Sync_API_test.cpp ****     while (!threadEnd) {
 584              		.loc 2 57 12
 585 01a8 97070000 		la	a5,threadEnd
GAS LISTING /tmp/cc4gdYIC.s 			page 14


 585      83B70700 
 586 01b0 83A70700 		lw	a5,0(a5)
 587 01b4 9B870700 		sext.w	a5,a5
 588 01b8 63920706 		bnez	a5,.L31
 589              	.LBB33:
  58:test/ConsumerProducer_CPP_Sync_API_test.cpp ****         i++;
 590              		.loc 2 58 9
  58:test/ConsumerProducer_CPP_Sync_API_test.cpp ****         i++;
 591              		.loc 2 58 36 is_stmt 0
 592 01bc 03358900 		ld	a0,8(s2)
 593 01c0 97000000 		call	_ZN9BufferCPP3getEv@plt
 593      E7800000 
 594              	.LVL57:
  59:test/ConsumerProducer_CPP_Sync_API_test.cpp **** 
 595              		.loc 2 59 9 is_stmt 1
  59:test/ConsumerProducer_CPP_Sync_API_test.cpp **** 
 596              		.loc 2 59 10 is_stmt 0
 597 01c8 9B041A00 		addiw	s1,s4,1
 598 01cc 1B8A0400 		sext.w	s4,s1
 599              	.LVL58:
  61:test/ConsumerProducer_CPP_Sync_API_test.cpp **** 
 600              		.loc 2 61 9 is_stmt 1
  61:test/ConsumerProducer_CPP_Sync_API_test.cpp **** 
 601              		.loc 2 61 13 is_stmt 0
 602 01d0 1375F50F 		andi	a0,a0,0xff
 603              	.LVL59:
 604 01d4 97000000 		call	putc@plt
 604      E7800000 
 605              	.LVL60:
  63:test/ConsumerProducer_CPP_Sync_API_test.cpp ****             Thread::dispatch();
 606              		.loc 2 63 9 is_stmt 1
  63:test/ConsumerProducer_CPP_Sync_API_test.cpp ****             Thread::dispatch();
 607              		.loc 2 63 28 is_stmt 0
 608 01dc 03270900 		lw	a4,0(s2)
  63:test/ConsumerProducer_CPP_Sync_API_test.cpp ****             Thread::dispatch();
 609              		.loc 2 63 20
 610 01e0 9B172700 		slliw	a5,a4,2
 611 01e4 BB87E700 		addw	a5,a5,a4
  63:test/ConsumerProducer_CPP_Sync_API_test.cpp ****             Thread::dispatch();
 612              		.loc 2 63 15
 613 01e8 BBE7F402 		remw	a5,s1,a5
  63:test/ConsumerProducer_CPP_Sync_API_test.cpp ****             Thread::dispatch();
 614              		.loc 2 63 9
 615 01ec E38207FA 		beqz	a5,.L36
 616              	.L32:
  67:test/ConsumerProducer_CPP_Sync_API_test.cpp ****             putc('\n');
 617              		.loc 2 67 9 is_stmt 1
  67:test/ConsumerProducer_CPP_Sync_API_test.cpp ****             putc('\n');
 618              		.loc 2 67 15 is_stmt 0
 619 01f0 93070005 		li	a5,80
 620 01f4 BBE4F402 		remw	s1,s1,a5
 621              	.LVL61:
  67:test/ConsumerProducer_CPP_Sync_API_test.cpp ****             putc('\n');
 622              		.loc 2 67 9
 623 01f8 E39804FA 		bnez	s1,.L30
 624 01fc 6FF01FFA 		j	.L37
 625              	.L38:
GAS LISTING /tmp/cc4gdYIC.s 			page 15


 626              	.LBE33:
 627              	.LBB34:
  69:test/ConsumerProducer_CPP_Sync_API_test.cpp ****         }
  70:test/ConsumerProducer_CPP_Sync_API_test.cpp ****     }
  71:test/ConsumerProducer_CPP_Sync_API_test.cpp **** 
  72:test/ConsumerProducer_CPP_Sync_API_test.cpp **** 
  73:test/ConsumerProducer_CPP_Sync_API_test.cpp ****     while (td->buffer->getCnt() > 0) {
  74:test/ConsumerProducer_CPP_Sync_API_test.cpp ****         int key = td->buffer->get();
 628              		.loc 2 74 9 is_stmt 1
 629              		.loc 2 74 19 is_stmt 0
 630 0200 83B70901 		ld	a5,16(s3)
 631              		.loc 2 74 34
 632 0204 03B58700 		ld	a0,8(a5)
 633 0208 97000000 		call	_ZN9BufferCPP3getEv@plt
 633      E7800000 
 634              	.LVL62:
  75:test/ConsumerProducer_CPP_Sync_API_test.cpp ****         Console::putc(key);
 635              		.loc 2 75 9 is_stmt 1
 636              		.loc 2 75 22 is_stmt 0
 637 0210 1375F50F 		andi	a0,a0,0xff
 638              	.LVL63:
 639 0214 97000000 		call	_ZN7Console4putcEc@plt
 639      E7800000 
 640              	.LVL64:
 641              	.L31:
 642              	.LBE34:
  73:test/ConsumerProducer_CPP_Sync_API_test.cpp ****         int key = td->buffer->get();
 643              		.loc 2 73 5 is_stmt 1
  73:test/ConsumerProducer_CPP_Sync_API_test.cpp ****         int key = td->buffer->get();
 644              		.loc 2 73 33
  73:test/ConsumerProducer_CPP_Sync_API_test.cpp ****         int key = td->buffer->get();
 645              		.loc 2 73 12 is_stmt 0
 646 021c 83B70901 		ld	a5,16(s3)
  73:test/ConsumerProducer_CPP_Sync_API_test.cpp ****         int key = td->buffer->get();
 647              		.loc 2 73 30
 648 0220 03B58700 		ld	a0,8(a5)
 649 0224 97000000 		call	_ZN9BufferCPP6getCntEv@plt
 649      E7800000 
 650              	.LVL65:
  73:test/ConsumerProducer_CPP_Sync_API_test.cpp ****         int key = td->buffer->get();
 651              		.loc 2 73 33
 652 022c E34AA0FC 		bgtz	a0,.L38
  76:test/ConsumerProducer_CPP_Sync_API_test.cpp ****     }
  77:test/ConsumerProducer_CPP_Sync_API_test.cpp **** 
  78:test/ConsumerProducer_CPP_Sync_API_test.cpp ****     data->wait->signal();
 653              		.loc 2 78 5 is_stmt 1
 654              		.loc 2 78 23 is_stmt 0
 655 0230 03350901 		ld	a0,16(s2)
 656 0234 97000000 		call	_ZN9Semaphore6signalEv@plt
 656      E7800000 
 657              	.LVL66:
  79:test/ConsumerProducer_CPP_Sync_API_test.cpp **** }
 658              		.loc 2 79 1
 659 023c 83308102 		ld	ra,40(sp)
 660              		.cfi_restore 1
 661 0240 03340102 		ld	s0,32(sp)
 662              		.cfi_restore 8
GAS LISTING /tmp/cc4gdYIC.s 			page 16


 663              		.cfi_def_cfa 2, 48
 664 0244 83348101 		ld	s1,24(sp)
 665              		.cfi_restore 9
 666 0248 03390101 		ld	s2,16(sp)
 667              		.cfi_restore 18
 668              	.LVL67:
 669 024c 83398100 		ld	s3,8(sp)
 670              		.cfi_restore 19
 671              	.LVL68:
 672 0250 033A0100 		ld	s4,0(sp)
 673              		.cfi_restore 20
 674              	.LVL69:
 675 0254 13010103 		addi	sp,sp,48
 676              		.cfi_def_cfa_offset 0
 677 0258 67800000 		jr	ra
 678              		.cfi_endproc
 679              	.LFE21:
 681              		.section	.text._ZN8Consumer3runEv,"axG",@progbits,_ZN8Consumer3runEv,comdat
 682              		.align	2
 683              		.weak	_ZN8Consumer3runEv
 685              	_ZN8Consumer3runEv:
 686              	.LFB18:
  37:test/ConsumerProducer_CPP_Sync_API_test.hpp ****     thread_data* td;
  38:test/ConsumerProducer_CPP_Sync_API_test.hpp ****     void consumer(void *arg);
  39:test/ConsumerProducer_CPP_Sync_API_test.hpp **** public:
  40:test/ConsumerProducer_CPP_Sync_API_test.hpp ****     Consumer(thread_data* _td):Thread(), td(_td) {}
  41:test/ConsumerProducer_CPP_Sync_API_test.hpp **** 
  42:test/ConsumerProducer_CPP_Sync_API_test.hpp ****     void run() override {
 687              		.loc 1 42 10 is_stmt 1
 688              		.cfi_startproc
 689              	.LVL70:
 690 0000 130101FF 		addi	sp,sp,-16
 691              		.cfi_def_cfa_offset 16
 692 0004 23341100 		sd	ra,8(sp)
 693 0008 23308100 		sd	s0,0(sp)
 694              		.cfi_offset 1, -8
 695              		.cfi_offset 8, -16
 696 000c 13040101 		addi	s0,sp,16
 697              		.cfi_def_cfa 8, 0
  43:test/ConsumerProducer_CPP_Sync_API_test.hpp ****         consumer(td);
 698              		.loc 1 43 9
 699              		.loc 1 43 17 is_stmt 0
 700 0010 83350501 		ld	a1,16(a0)
 701 0014 97000000 		call	_ZN8Consumer8consumerEPv
 701      E7800000 
 702              	.LVL71:
  44:test/ConsumerProducer_CPP_Sync_API_test.hpp ****     }
 703              		.loc 1 44 5
 704 001c 83308100 		ld	ra,8(sp)
 705              		.cfi_restore 1
 706 0020 03340100 		ld	s0,0(sp)
 707              		.cfi_restore 8
 708              		.cfi_def_cfa 2, 16
 709 0024 13010101 		addi	sp,sp,16
 710              		.cfi_def_cfa_offset 0
 711 0028 67800000 		jr	ra
 712              		.cfi_endproc
GAS LISTING /tmp/cc4gdYIC.s 			page 17


 713              	.LFE18:
 715              		.section	.rodata.str1.8,"aMS",@progbits,1
 716              		.align	3
 717              	.LC0:
 718 0000 556E6573 		.string	"Unesite broj proizvodjaca?\n"
 718      69746520 
 718      62726F6A 
 718      2070726F 
 718      697A766F 
 719 001c 00000000 		.align	3
 720              	.LC1:
 721 0020 556E6573 		.string	"Unesite velicinu bafera?\n"
 721      69746520 
 721      76656C69 
 721      63696E75 
 721      20626166 
 722 003a 00000000 		.align	3
 722      0000
 723              	.LC2:
 724 0040 42726F6A 		.string	"Broj proizvodjaca "
 724      2070726F 
 724      697A766F 
 724      646A6163 
 724      612000
 725 0053 00000000 		.align	3
 725      00
 726              	.LC3:
 727 0058 20692076 		.string	" i velicina bafera "
 727      656C6963 
 727      696E6120 
 727      62616665 
 727      72612000 
 728 006c 00000000 		.align	3
 729              	.LC4:
 730 0070 2E0A00   		.string	".\n"
 731 0073 00000000 		.align	3
 731      00
 732              	.LC5:
 733 0078 42726F6A 		.string	"Broj proizvodjaca ne sme biti manji od velicine bafera!\n"
 733      2070726F 
 733      697A766F 
 733      646A6163 
 733      61206E65 
 734 00b1 00000000 		.align	3
 734      000000
 735              	.LC6:
 736 00b8 42726F6A 		.string	"Broj proizvodjaca mora biti veci od nula!\n"
 736      2070726F 
 736      697A766F 
 736      646A6163 
 736      61206D6F 
 737 00e3 00000000 		.align	3
 737      00
 738              	.LC7:
 739 00e8 64697370 		.string	"dispatching...\n"
 739      61746368 
 739      696E672E 
GAS LISTING /tmp/cc4gdYIC.s 			page 18


 739      2E2E0A00 
 740              		.align	3
 741              	.LC8:
 742 00f8 64697370 		.string	"dispatch return...\n"
 742      61746368 
 742      20726574 
 742      75726E2E 
 742      2E2E0A00 
 743              		.text
 744              		.align	2
 745              		.globl	_Z29producerConsumer_CPP_Sync_APIv
 747              	_Z29producerConsumer_CPP_Sync_APIv:
 748              	.LFB22:
  80:test/ConsumerProducer_CPP_Sync_API_test.cpp **** 
  81:test/ConsumerProducer_CPP_Sync_API_test.cpp **** void producerConsumer_CPP_Sync_API()
  82:test/ConsumerProducer_CPP_Sync_API_test.cpp **** {
 749              		.loc 2 82 1 is_stmt 1
 750              		.cfi_startproc
 751              		.cfi_personality 0x9b,DW.ref.__gxx_personality_v0
 752              		.cfi_lsda 0x1b,.LLSDA22
 753 025c 130101F8 		addi	sp,sp,-128
 754              		.cfi_def_cfa_offset 128
 755 0260 233C1106 		sd	ra,120(sp)
 756 0264 23388106 		sd	s0,112(sp)
 757 0268 23349106 		sd	s1,104(sp)
 758 026c 23302107 		sd	s2,96(sp)
 759 0270 233C3105 		sd	s3,88(sp)
 760 0274 23384105 		sd	s4,80(sp)
 761 0278 23345105 		sd	s5,72(sp)
 762 027c 23306105 		sd	s6,64(sp)
 763 0280 233C7103 		sd	s7,56(sp)
 764 0284 23388103 		sd	s8,48(sp)
 765 0288 23349103 		sd	s9,40(sp)
 766              		.cfi_offset 1, -8
 767              		.cfi_offset 8, -16
 768              		.cfi_offset 9, -24
 769              		.cfi_offset 18, -32
 770              		.cfi_offset 19, -40
 771              		.cfi_offset 20, -48
 772              		.cfi_offset 21, -56
 773              		.cfi_offset 22, -64
 774              		.cfi_offset 23, -72
 775              		.cfi_offset 24, -80
 776              		.cfi_offset 25, -88
 777 028c 13040108 		addi	s0,sp,128
 778              		.cfi_def_cfa 8, 0
  83:test/ConsumerProducer_CPP_Sync_API_test.cpp ****     threadEnd = 0;
  84:test/ConsumerProducer_CPP_Sync_API_test.cpp ****     char input[30];
  85:test/ConsumerProducer_CPP_Sync_API_test.cpp ****     int n, threadNum;
  86:test/ConsumerProducer_CPP_Sync_API_test.cpp **** 
  87:test/ConsumerProducer_CPP_Sync_API_test.cpp ****     printString("Unesite broj proizvodjaca?\n");
  88:test/ConsumerProducer_CPP_Sync_API_test.cpp ****     getString(input, 30);
  89:test/ConsumerProducer_CPP_Sync_API_test.cpp ****     threadNum = stringToInt(input);
  90:test/ConsumerProducer_CPP_Sync_API_test.cpp **** 
  91:test/ConsumerProducer_CPP_Sync_API_test.cpp ****     printString("Unesite velicinu bafera?\n");
  92:test/ConsumerProducer_CPP_Sync_API_test.cpp ****     getString(input, 30);
  93:test/ConsumerProducer_CPP_Sync_API_test.cpp ****     n = stringToInt(input);
GAS LISTING /tmp/cc4gdYIC.s 			page 19


  94:test/ConsumerProducer_CPP_Sync_API_test.cpp **** 
  95:test/ConsumerProducer_CPP_Sync_API_test.cpp ****     printString("Broj proizvodjaca "); printInt(threadNum);
  96:test/ConsumerProducer_CPP_Sync_API_test.cpp ****     printString(" i velicina bafera "); printInt(n);
  97:test/ConsumerProducer_CPP_Sync_API_test.cpp ****     printString(".\n");
  98:test/ConsumerProducer_CPP_Sync_API_test.cpp **** 
  99:test/ConsumerProducer_CPP_Sync_API_test.cpp ****     if(threadNum > n) {
 100:test/ConsumerProducer_CPP_Sync_API_test.cpp ****         printString("Broj proizvodjaca ne sme biti manji od velicine bafera!\n");
 101:test/ConsumerProducer_CPP_Sync_API_test.cpp ****         return;
 102:test/ConsumerProducer_CPP_Sync_API_test.cpp ****     } else if (threadNum < 1) {
 103:test/ConsumerProducer_CPP_Sync_API_test.cpp ****         printString("Broj proizvodjaca mora biti veci od nula!\n");
 104:test/ConsumerProducer_CPP_Sync_API_test.cpp ****         return;
 105:test/ConsumerProducer_CPP_Sync_API_test.cpp ****     }
 106:test/ConsumerProducer_CPP_Sync_API_test.cpp **** 
 107:test/ConsumerProducer_CPP_Sync_API_test.cpp ****     BufferCPP *buffer = new BufferCPP(n);
 108:test/ConsumerProducer_CPP_Sync_API_test.cpp **** 
 109:test/ConsumerProducer_CPP_Sync_API_test.cpp ****     waitForAll = new Semaphore(0);
 110:test/ConsumerProducer_CPP_Sync_API_test.cpp **** 
 111:test/ConsumerProducer_CPP_Sync_API_test.cpp ****     Thread* threads[threadNum];
 112:test/ConsumerProducer_CPP_Sync_API_test.cpp ****     Thread* consumerThread;
 113:test/ConsumerProducer_CPP_Sync_API_test.cpp **** 
 114:test/ConsumerProducer_CPP_Sync_API_test.cpp ****     struct thread_data data[threadNum + 1];
 115:test/ConsumerProducer_CPP_Sync_API_test.cpp **** 
 116:test/ConsumerProducer_CPP_Sync_API_test.cpp ****     data[threadNum].id = threadNum;
 117:test/ConsumerProducer_CPP_Sync_API_test.cpp ****     data[threadNum].buffer = buffer;
 118:test/ConsumerProducer_CPP_Sync_API_test.cpp ****     data[threadNum].wait = waitForAll;
 119:test/ConsumerProducer_CPP_Sync_API_test.cpp ****     consumerThread = new Consumer(data+threadNum);
 120:test/ConsumerProducer_CPP_Sync_API_test.cpp ****     consumerThread->start();
 121:test/ConsumerProducer_CPP_Sync_API_test.cpp ****     for (int i = 0; i < threadNum; i++) {
 122:test/ConsumerProducer_CPP_Sync_API_test.cpp ****         data[i].id = i;
 123:test/ConsumerProducer_CPP_Sync_API_test.cpp ****         data[i].buffer = buffer;
 124:test/ConsumerProducer_CPP_Sync_API_test.cpp ****         data[i].wait = waitForAll;
 125:test/ConsumerProducer_CPP_Sync_API_test.cpp **** 
 126:test/ConsumerProducer_CPP_Sync_API_test.cpp ****         if(i>0) {
 127:test/ConsumerProducer_CPP_Sync_API_test.cpp ****             threads[i] = new Producer(data+i);
 128:test/ConsumerProducer_CPP_Sync_API_test.cpp ****         } else {
 129:test/ConsumerProducer_CPP_Sync_API_test.cpp ****             threads[i] = new ProducerKeyboard(data+i);
 130:test/ConsumerProducer_CPP_Sync_API_test.cpp ****         }
 131:test/ConsumerProducer_CPP_Sync_API_test.cpp **** 
 132:test/ConsumerProducer_CPP_Sync_API_test.cpp ****         threads[i]->start();
 133:test/ConsumerProducer_CPP_Sync_API_test.cpp ****     }
 134:test/ConsumerProducer_CPP_Sync_API_test.cpp **** 
 135:test/ConsumerProducer_CPP_Sync_API_test.cpp ****     printString("dispatching...\n");
 136:test/ConsumerProducer_CPP_Sync_API_test.cpp ****     Thread::dispatch();
 137:test/ConsumerProducer_CPP_Sync_API_test.cpp ****     printString("dispatch return...\n");
 138:test/ConsumerProducer_CPP_Sync_API_test.cpp ****     for (int i = 0; i <= threadNum; i++) {
 139:test/ConsumerProducer_CPP_Sync_API_test.cpp ****         waitForAll->wait();
 140:test/ConsumerProducer_CPP_Sync_API_test.cpp ****     }
 141:test/ConsumerProducer_CPP_Sync_API_test.cpp **** 
 142:test/ConsumerProducer_CPP_Sync_API_test.cpp ****     for (int i = 0; i < threadNum; i++) {
 143:test/ConsumerProducer_CPP_Sync_API_test.cpp ****         delete threads[i];
 144:test/ConsumerProducer_CPP_Sync_API_test.cpp ****     }
 145:test/ConsumerProducer_CPP_Sync_API_test.cpp ****     delete consumerThread;
 146:test/ConsumerProducer_CPP_Sync_API_test.cpp ****     delete waitForAll;
 147:test/ConsumerProducer_CPP_Sync_API_test.cpp ****     delete buffer;
 779              		.loc 2 147 18 is_stmt 0
 780 0290 930B0100 		mv	s7,sp
  83:test/ConsumerProducer_CPP_Sync_API_test.cpp ****     threadEnd = 0;
GAS LISTING /tmp/cc4gdYIC.s 			page 20


 781              		.loc 2 83 5 is_stmt 1
  83:test/ConsumerProducer_CPP_Sync_API_test.cpp ****     threadEnd = 0;
 782              		.loc 2 83 15 is_stmt 0
 783 0294 97070000 		la	a5,threadEnd
 783      83B70700 
 784 029c 23A00700 		sw	zero,0(a5)
  84:test/ConsumerProducer_CPP_Sync_API_test.cpp ****     int n, threadNum;
 785              		.loc 2 84 5 is_stmt 1
  85:test/ConsumerProducer_CPP_Sync_API_test.cpp **** 
 786              		.loc 2 85 5
  87:test/ConsumerProducer_CPP_Sync_API_test.cpp ****     getString(input, 30);
 787              		.loc 2 87 5
  87:test/ConsumerProducer_CPP_Sync_API_test.cpp ****     getString(input, 30);
 788              		.loc 2 87 16 is_stmt 0
 789 02a0 17050000 		lla	a0,.LC0
 789      13050500 
 790              	.LEHB0:
 791 02a8 97000000 		call	_Z11printStringPKc@plt
 791      E7800000 
 792              	.LVL72:
  88:test/ConsumerProducer_CPP_Sync_API_test.cpp ****     threadNum = stringToInt(input);
 793              		.loc 2 88 5 is_stmt 1
  88:test/ConsumerProducer_CPP_Sync_API_test.cpp ****     threadNum = stringToInt(input);
 794              		.loc 2 88 14 is_stmt 0
 795 02b0 9305E001 		li	a1,30
 796 02b4 930404F8 		addi	s1,s0,-128
 797 02b8 13850400 		mv	a0,s1
 798 02bc 97000000 		call	_Z9getStringPci@plt
 798      E7800000 
 799              	.LVL73:
  89:test/ConsumerProducer_CPP_Sync_API_test.cpp **** 
 800              		.loc 2 89 5 is_stmt 1
  89:test/ConsumerProducer_CPP_Sync_API_test.cpp **** 
 801              		.loc 2 89 28 is_stmt 0
 802 02c4 13850400 		mv	a0,s1
 803 02c8 97000000 		call	_Z11stringToIntPKc@plt
 803      E7800000 
 804              	.LVL74:
 805 02d0 13090500 		mv	s2,a0
 806              	.LVL75:
  91:test/ConsumerProducer_CPP_Sync_API_test.cpp ****     getString(input, 30);
 807              		.loc 2 91 5 is_stmt 1
  91:test/ConsumerProducer_CPP_Sync_API_test.cpp ****     getString(input, 30);
 808              		.loc 2 91 16 is_stmt 0
 809 02d4 17050000 		lla	a0,.LC1
 809      13050500 
 810 02dc 97000000 		call	_Z11printStringPKc@plt
 810      E7800000 
 811              	.LVL76:
  92:test/ConsumerProducer_CPP_Sync_API_test.cpp ****     n = stringToInt(input);
 812              		.loc 2 92 5 is_stmt 1
  92:test/ConsumerProducer_CPP_Sync_API_test.cpp ****     n = stringToInt(input);
 813              		.loc 2 92 14 is_stmt 0
 814 02e4 9305E001 		li	a1,30
 815 02e8 13850400 		mv	a0,s1
 816 02ec 97000000 		call	_Z9getStringPci@plt
 816      E7800000 
GAS LISTING /tmp/cc4gdYIC.s 			page 21


 817              	.LVL77:
  93:test/ConsumerProducer_CPP_Sync_API_test.cpp **** 
 818              		.loc 2 93 5 is_stmt 1
  93:test/ConsumerProducer_CPP_Sync_API_test.cpp **** 
 819              		.loc 2 93 20 is_stmt 0
 820 02f4 13850400 		mv	a0,s1
 821 02f8 97000000 		call	_Z11stringToIntPKc@plt
 821      E7800000 
 822              	.LVL78:
 823 0300 93040500 		mv	s1,a0
 824              	.LVL79:
  95:test/ConsumerProducer_CPP_Sync_API_test.cpp ****     printString(" i velicina bafera "); printInt(n);
 825              		.loc 2 95 5 is_stmt 1
  95:test/ConsumerProducer_CPP_Sync_API_test.cpp ****     printString(" i velicina bafera "); printInt(n);
 826              		.loc 2 95 16 is_stmt 0
 827 0304 17050000 		lla	a0,.LC2
 827      13050500 
 828 030c 97000000 		call	_Z11printStringPKc@plt
 828      E7800000 
 829              	.LVL80:
  95:test/ConsumerProducer_CPP_Sync_API_test.cpp ****     printString(" i velicina bafera "); printInt(n);
 830              		.loc 2 95 40 is_stmt 1
  95:test/ConsumerProducer_CPP_Sync_API_test.cpp ****     printString(" i velicina bafera "); printInt(n);
 831              		.loc 2 95 48 is_stmt 0
 832 0314 13060000 		li	a2,0
 833 0318 9305A000 		li	a1,10
 834 031c 13050900 		mv	a0,s2
 835 0320 97000000 		call	_Z8printIntiii@plt
 835      E7800000 
 836              	.LVL81:
  96:test/ConsumerProducer_CPP_Sync_API_test.cpp ****     printString(".\n");
 837              		.loc 2 96 5 is_stmt 1
  96:test/ConsumerProducer_CPP_Sync_API_test.cpp ****     printString(".\n");
 838              		.loc 2 96 16 is_stmt 0
 839 0328 17050000 		lla	a0,.LC3
 839      13050500 
 840 0330 97000000 		call	_Z11printStringPKc@plt
 840      E7800000 
 841              	.LVL82:
  96:test/ConsumerProducer_CPP_Sync_API_test.cpp ****     printString(".\n");
 842              		.loc 2 96 41 is_stmt 1
  96:test/ConsumerProducer_CPP_Sync_API_test.cpp ****     printString(".\n");
 843              		.loc 2 96 49 is_stmt 0
 844 0338 13060000 		li	a2,0
 845 033c 9305A000 		li	a1,10
 846 0340 13850400 		mv	a0,s1
 847 0344 97000000 		call	_Z8printIntiii@plt
 847      E7800000 
 848              	.LVL83:
  97:test/ConsumerProducer_CPP_Sync_API_test.cpp **** 
 849              		.loc 2 97 5 is_stmt 1
  97:test/ConsumerProducer_CPP_Sync_API_test.cpp **** 
 850              		.loc 2 97 16 is_stmt 0
 851 034c 17050000 		lla	a0,.LC4
 851      13050500 
 852 0354 97000000 		call	_Z11printStringPKc@plt
 852      E7800000 
GAS LISTING /tmp/cc4gdYIC.s 			page 22


 853              	.LVL84:
  99:test/ConsumerProducer_CPP_Sync_API_test.cpp ****         printString("Broj proizvodjaca ne sme biti manji od velicine bafera!\n");
 854              		.loc 2 99 5 is_stmt 1
 855 035c 63C42403 		bgt	s2,s1,.L69
 102:test/ConsumerProducer_CPP_Sync_API_test.cpp ****         printString("Broj proizvodjaca mora biti veci od nula!\n");
 856              		.loc 2 102 12
 857 0360 635C2003 		blez	s2,.L70
 107:test/ConsumerProducer_CPP_Sync_API_test.cpp **** 
 858              		.loc 2 107 5
 107:test/ConsumerProducer_CPP_Sync_API_test.cpp **** 
 859              		.loc 2 107 40 is_stmt 0
 860 0364 13058003 		li	a0,56
 861 0368 97000000 		call	_Znwm@plt
 861      E7800000 
 862              	.LVL85:
 863              	.LEHE0:
 864 0370 930A0500 		mv	s5,a0
 865 0374 93850400 		mv	a1,s1
 866              	.LEHB1:
 867 0378 97000000 		call	_ZN9BufferCPPC1Ei@plt
 867      E7800000 
 868              	.LVL86:
 869              	.LEHE1:
 870 0380 6F000003 		j	.L71
 871              	.L69:
 100:test/ConsumerProducer_CPP_Sync_API_test.cpp ****         return;
 872              		.loc 2 100 9 is_stmt 1
 100:test/ConsumerProducer_CPP_Sync_API_test.cpp ****         return;
 873              		.loc 2 100 20 is_stmt 0
 874 0384 17050000 		lla	a0,.LC5
 874      13050500 
 875              	.LEHB2:
 876 038c 97000000 		call	_Z11printStringPKc@plt
 876      E7800000 
 877              	.LVL87:
 101:test/ConsumerProducer_CPP_Sync_API_test.cpp ****     } else if (threadNum < 1) {
 878              		.loc 2 101 9 is_stmt 1
 879 0394 6F004001 		j	.L43
 880              	.L70:
 103:test/ConsumerProducer_CPP_Sync_API_test.cpp ****         return;
 881              		.loc 2 103 9
 103:test/ConsumerProducer_CPP_Sync_API_test.cpp ****         return;
 882              		.loc 2 103 20 is_stmt 0
 883 0398 17050000 		lla	a0,.LC6
 883      13050500 
 884 03a0 97000000 		call	_Z11printStringPKc@plt
 884      E7800000 
 885              	.LVL88:
 104:test/ConsumerProducer_CPP_Sync_API_test.cpp ****     }
 886              		.loc 2 104 9 is_stmt 1
 887              	.L43:
 888 03a8 13810B00 		mv	sp,s7
 889 03ac 6F00C026 		j	.L41
 890              	.L71:
 891              	.LVL89:
 109:test/ConsumerProducer_CPP_Sync_API_test.cpp **** 
 892              		.loc 2 109 5 discriminator 3
GAS LISTING /tmp/cc4gdYIC.s 			page 23


 109:test/ConsumerProducer_CPP_Sync_API_test.cpp **** 
 893              		.loc 2 109 33 is_stmt 0 discriminator 3
 894 03b0 13050001 		li	a0,16
 895 03b4 97000000 		call	_Znwm@plt
 895      E7800000 
 896              	.LVL90:
 897              	.LEHE2:
 898 03bc 93040500 		mv	s1,a0
 899              	.LVL91:
 900 03c0 93050000 		li	a1,0
 901              	.LEHB3:
 902 03c4 97000000 		call	_ZN9SemaphoreC1Ej@plt
 902      E7800000 
 903              	.LVL92:
 904              	.LEHE3:
 109:test/ConsumerProducer_CPP_Sync_API_test.cpp **** 
 905              		.loc 2 109 16 discriminator 3
 906 03cc 17070000 		la	a4,waitForAll
 906      03370700 
 907 03d4 23309700 		sd	s1,0(a4)
 111:test/ConsumerProducer_CPP_Sync_API_test.cpp ****     Thread* consumerThread;
 908              		.loc 2 111 5 is_stmt 1 discriminator 3
 909              	.LVL93:
 111:test/ConsumerProducer_CPP_Sync_API_test.cpp ****     Thread* consumerThread;
 910              		.loc 2 111 13 is_stmt 0 discriminator 3
 911 03d8 93173900 		slli	a5,s2,3
 912 03dc 9387F700 		addi	a5,a5,15
 913 03e0 93F707FF 		andi	a5,a5,-16
 914 03e4 3301F140 		sub	sp,sp,a5
 915 03e8 93090100 		mv	s3,sp
 916              	.LVL94:
 112:test/ConsumerProducer_CPP_Sync_API_test.cpp **** 
 917              		.loc 2 112 5 is_stmt 1 discriminator 3
 114:test/ConsumerProducer_CPP_Sync_API_test.cpp **** 
 918              		.loc 2 114 5 discriminator 3
 114:test/ConsumerProducer_CPP_Sync_API_test.cpp **** 
 919              		.loc 2 114 39 is_stmt 0 discriminator 3
 920 03ec 9B061900 		addiw	a3,s2,1
 921              	.LVL95:
 114:test/ConsumerProducer_CPP_Sync_API_test.cpp **** 
 922              		.loc 2 114 24 discriminator 3
 923 03f0 93971600 		slli	a5,a3,1
 924 03f4 B387D700 		add	a5,a5,a3
 925 03f8 93973700 		slli	a5,a5,3
 926 03fc 9387F700 		addi	a5,a5,15
 927 0400 93F707FF 		andi	a5,a5,-16
 928 0404 3301F140 		sub	sp,sp,a5
 929              	.LVL96:
 930 0408 130A0100 		mv	s4,sp
 931              	.LVL97:
 116:test/ConsumerProducer_CPP_Sync_API_test.cpp ****     data[threadNum].buffer = buffer;
 932              		.loc 2 116 5 is_stmt 1 discriminator 3
 116:test/ConsumerProducer_CPP_Sync_API_test.cpp ****     data[threadNum].buffer = buffer;
 933              		.loc 2 116 24 is_stmt 0 discriminator 3
 934 040c 93141900 		slli	s1,s2,1
 935 0410 B3872401 		add	a5,s1,s2
 936 0414 93973700 		slli	a5,a5,3
GAS LISTING /tmp/cc4gdYIC.s 			page 24


 937 0418 B307FA00 		add	a5,s4,a5
 938 041c 23A02701 		sw	s2,0(a5)
 117:test/ConsumerProducer_CPP_Sync_API_test.cpp ****     data[threadNum].wait = waitForAll;
 939              		.loc 2 117 5 is_stmt 1 discriminator 3
 117:test/ConsumerProducer_CPP_Sync_API_test.cpp ****     data[threadNum].wait = waitForAll;
 940              		.loc 2 117 28 is_stmt 0 discriminator 3
 941 0420 23B45701 		sd	s5,8(a5)
 118:test/ConsumerProducer_CPP_Sync_API_test.cpp ****     consumerThread = new Consumer(data+threadNum);
 942              		.loc 2 118 5 is_stmt 1 discriminator 3
 118:test/ConsumerProducer_CPP_Sync_API_test.cpp ****     consumerThread = new Consumer(data+threadNum);
 943              		.loc 2 118 26 is_stmt 0 discriminator 3
 944 0424 03370700 		ld	a4,0(a4)
 945 0428 23B8E700 		sd	a4,16(a5)
 119:test/ConsumerProducer_CPP_Sync_API_test.cpp ****     consumerThread->start();
 946              		.loc 2 119 5 is_stmt 1 discriminator 3
 119:test/ConsumerProducer_CPP_Sync_API_test.cpp ****     consumerThread->start();
 947              		.loc 2 119 49 is_stmt 0 discriminator 3
 948 042c 13058001 		li	a0,24
 949              	.LEHB4:
 950 0430 97000000 		call	_Znwm@plt
 950      E7800000 
 951              	.LVL98:
 952              	.LEHE4:
 953 0438 130B0500 		mv	s6,a0
 119:test/ConsumerProducer_CPP_Sync_API_test.cpp ****     consumerThread->start();
 954              		.loc 2 119 39 discriminator 3
 955 043c B3842401 		add	s1,s1,s2
 956 0440 93943400 		slli	s1,s1,3
 119:test/ConsumerProducer_CPP_Sync_API_test.cpp ****     consumerThread->start();
 957              		.loc 2 119 49 discriminator 3
 958 0444 B3049A00 		add	s1,s4,s1
 959              	.LVL99:
 960              	.LEHB5:
 961              	.LBB35:
 962              	.LBB36:
  40:test/ConsumerProducer_CPP_Sync_API_test.hpp **** 
 963              		.loc 1 40 48 discriminator 3
 964 0448 97000000 		call	_ZN6ThreadC2Ev@plt
 964      E7800000 
 965              	.LVL100:
 966              	.LEHE5:
  40:test/ConsumerProducer_CPP_Sync_API_test.hpp **** 
 967              		.loc 1 40 48
 968 0450 97070000 		lla	a5,_ZTV8Consumer+16
 968      93870700 
 969 0458 2330FB00 		sd	a5,0(s6)
 970 045c 23389B00 		sd	s1,16(s6)
 971              	.LVL101:
 972              	.LBE36:
 973              	.LBE35:
 120:test/ConsumerProducer_CPP_Sync_API_test.cpp ****     for (int i = 0; i < threadNum; i++) {
 974              		.loc 2 120 5 is_stmt 1
 120:test/ConsumerProducer_CPP_Sync_API_test.cpp ****     for (int i = 0; i < threadNum; i++) {
 975              		.loc 2 120 26 is_stmt 0
 976 0460 13050B00 		mv	a0,s6
 977              	.LEHB6:
 978 0464 97000000 		call	_ZN6Thread5startEv@plt
GAS LISTING /tmp/cc4gdYIC.s 			page 25


 978      E7800000 
 979              	.LVL102:
 980              	.LBB37:
 121:test/ConsumerProducer_CPP_Sync_API_test.cpp ****         data[i].id = i;
 981              		.loc 2 121 14
 982 046c 93040000 		li	s1,0
 983 0470 6F008003 		j	.L48
 984              	.LVL103:
 985              	.L72:
 986              	.LBB38:
 987              	.LBB39:
  29:test/ConsumerProducer_CPP_Sync_API_test.hpp **** 
 988              		.loc 1 29 48
 989 0474 97070000 		lla	a5,_ZTV8Producer+16
 989      93870700 
 990 047c 23B0FC00 		sd	a5,0(s9)
 991 0480 23B88C01 		sd	s8,16(s9)
 992              	.LVL104:
 993              	.LBE39:
 994              	.LBE38:
 127:test/ConsumerProducer_CPP_Sync_API_test.cpp ****         } else {
 995              		.loc 2 127 24
 996 0484 93973400 		slli	a5,s1,3
 997 0488 B387F900 		add	a5,s3,a5
 998 048c 23B09701 		sd	s9,0(a5)
 999              	.L47:
 132:test/ConsumerProducer_CPP_Sync_API_test.cpp ****     }
 1000              		.loc 2 132 9 is_stmt 1
 132:test/ConsumerProducer_CPP_Sync_API_test.cpp ****     }
 1001              		.loc 2 132 18 is_stmt 0
 1002 0490 93973400 		slli	a5,s1,3
 1003 0494 B387F900 		add	a5,s3,a5
 132:test/ConsumerProducer_CPP_Sync_API_test.cpp ****     }
 1004              		.loc 2 132 26
 1005 0498 03B50700 		ld	a0,0(a5)
 1006 049c 97000000 		call	_ZN6Thread5startEv@plt
 1006      E7800000 
 1007              	.LVL105:
 121:test/ConsumerProducer_CPP_Sync_API_test.cpp ****         data[i].id = i;
 1008              		.loc 2 121 5 is_stmt 1
 1009 04a4 9B841400 		addiw	s1,s1,1
 1010              	.LVL106:
 1011              	.L48:
 121:test/ConsumerProducer_CPP_Sync_API_test.cpp ****         data[i].id = i;
 1012              		.loc 2 121 23 discriminator 1
 1013 04a8 63D2240B 		bge	s1,s2,.L45
 122:test/ConsumerProducer_CPP_Sync_API_test.cpp ****         data[i].buffer = buffer;
 1014              		.loc 2 122 9
 122:test/ConsumerProducer_CPP_Sync_API_test.cpp ****         data[i].buffer = buffer;
 1015              		.loc 2 122 20 is_stmt 0
 1016 04ac 93971400 		slli	a5,s1,1
 1017 04b0 B3879700 		add	a5,a5,s1
 1018 04b4 93973700 		slli	a5,a5,3
 1019 04b8 B307FA00 		add	a5,s4,a5
 1020 04bc 23A09700 		sw	s1,0(a5)
 123:test/ConsumerProducer_CPP_Sync_API_test.cpp ****         data[i].wait = waitForAll;
 1021              		.loc 2 123 9 is_stmt 1
GAS LISTING /tmp/cc4gdYIC.s 			page 26


 123:test/ConsumerProducer_CPP_Sync_API_test.cpp ****         data[i].wait = waitForAll;
 1022              		.loc 2 123 24 is_stmt 0
 1023 04c0 23B45701 		sd	s5,8(a5)
 124:test/ConsumerProducer_CPP_Sync_API_test.cpp **** 
 1024              		.loc 2 124 9 is_stmt 1
 124:test/ConsumerProducer_CPP_Sync_API_test.cpp **** 
 1025              		.loc 2 124 22 is_stmt 0
 1026 04c4 17070000 		la	a4,waitForAll
 1026      03370700 
 1027 04cc 03370700 		ld	a4,0(a4)
 1028 04d0 23B8E700 		sd	a4,16(a5)
 126:test/ConsumerProducer_CPP_Sync_API_test.cpp ****             threads[i] = new Producer(data+i);
 1029              		.loc 2 126 9 is_stmt 1
 1030 04d4 63589002 		blez	s1,.L46
 127:test/ConsumerProducer_CPP_Sync_API_test.cpp ****         } else {
 1031              		.loc 2 127 13
 127:test/ConsumerProducer_CPP_Sync_API_test.cpp ****         } else {
 1032              		.loc 2 127 45 is_stmt 0
 1033 04d8 13058001 		li	a0,24
 1034 04dc 97000000 		call	_Znwm@plt
 1034      E7800000 
 1035              	.LVL107:
 1036              	.LEHE6:
 1037 04e4 930C0500 		mv	s9,a0
 127:test/ConsumerProducer_CPP_Sync_API_test.cpp ****         } else {
 1038              		.loc 2 127 43
 1039 04e8 139C1400 		slli	s8,s1,1
 1040 04ec 330C9C00 		add	s8,s8,s1
 1041 04f0 131C3C00 		slli	s8,s8,3
 127:test/ConsumerProducer_CPP_Sync_API_test.cpp ****         } else {
 1042              		.loc 2 127 45
 1043 04f4 330C8A01 		add	s8,s4,s8
 1044              	.LVL108:
 1045              	.LEHB7:
 1046              	.LBB41:
 1047              	.LBB40:
  29:test/ConsumerProducer_CPP_Sync_API_test.hpp **** 
 1048              		.loc 1 29 48
 1049 04f8 97000000 		call	_ZN6ThreadC2Ev@plt
 1049      E7800000 
 1050              	.LVL109:
 1051              	.LEHE7:
 1052 0500 6FF05FF7 		j	.L72
 1053              	.LVL110:
 1054              	.L46:
 1055              	.LBE40:
 1056              	.LBE41:
 129:test/ConsumerProducer_CPP_Sync_API_test.cpp ****         }
 1057              		.loc 2 129 13 is_stmt 1
 129:test/ConsumerProducer_CPP_Sync_API_test.cpp ****         }
 1058              		.loc 2 129 53 is_stmt 0
 1059 0504 13058001 		li	a0,24
 1060              	.LEHB8:
 1061 0508 97000000 		call	_Znwm@plt
 1061      E7800000 
 1062              	.LVL111:
 1063              	.LEHE8:
GAS LISTING /tmp/cc4gdYIC.s 			page 27


 1064 0510 930C0500 		mv	s9,a0
 129:test/ConsumerProducer_CPP_Sync_API_test.cpp ****         }
 1065              		.loc 2 129 51
 1066 0514 139C1400 		slli	s8,s1,1
 1067 0518 330C9C00 		add	s8,s8,s1
 1068 051c 131C3C00 		slli	s8,s8,3
 129:test/ConsumerProducer_CPP_Sync_API_test.cpp ****         }
 1069              		.loc 2 129 53
 1070 0520 330C8A01 		add	s8,s4,s8
 1071              	.LVL112:
 1072              	.LEHB9:
 1073              	.LBB42:
 1074              	.LBB43:
  18:test/ConsumerProducer_CPP_Sync_API_test.hpp **** 
 1075              		.loc 1 18 56
 1076 0524 97000000 		call	_ZN6ThreadC2Ev@plt
 1076      E7800000 
 1077              	.LVL113:
 1078              	.LEHE9:
 1079 052c 97070000 		lla	a5,_ZTV16ProducerKeyboard+16
 1079      93870700 
 1080 0534 23B0FC00 		sd	a5,0(s9)
 1081 0538 23B88C01 		sd	s8,16(s9)
 1082              	.LVL114:
 1083              	.LBE43:
 1084              	.LBE42:
 129:test/ConsumerProducer_CPP_Sync_API_test.cpp ****         }
 1085              		.loc 2 129 24
 1086 053c 93973400 		slli	a5,s1,3
 1087 0540 B387F900 		add	a5,s3,a5
 1088 0544 23B09701 		sd	s9,0(a5)
 1089 0548 6FF09FF4 		j	.L47
 1090              	.L45:
 1091              	.LBE37:
 135:test/ConsumerProducer_CPP_Sync_API_test.cpp ****     Thread::dispatch();
 1092              		.loc 2 135 5 is_stmt 1
 135:test/ConsumerProducer_CPP_Sync_API_test.cpp ****     Thread::dispatch();
 1093              		.loc 2 135 16 is_stmt 0
 1094 054c 17050000 		lla	a0,.LC7
 1094      13050500 
 1095              	.LEHB10:
 1096 0554 97000000 		call	_Z11printStringPKc@plt
 1096      E7800000 
 1097              	.LVL115:
 136:test/ConsumerProducer_CPP_Sync_API_test.cpp ****     printString("dispatch return...\n");
 1098              		.loc 2 136 5 is_stmt 1
 136:test/ConsumerProducer_CPP_Sync_API_test.cpp ****     printString("dispatch return...\n");
 1099              		.loc 2 136 21 is_stmt 0
 1100 055c 97000000 		call	_ZN6Thread8dispatchEv@plt
 1100      E7800000 
 1101              	.LVL116:
 137:test/ConsumerProducer_CPP_Sync_API_test.cpp ****     for (int i = 0; i <= threadNum; i++) {
 1102              		.loc 2 137 5 is_stmt 1
 137:test/ConsumerProducer_CPP_Sync_API_test.cpp ****     for (int i = 0; i <= threadNum; i++) {
 1103              		.loc 2 137 16 is_stmt 0
 1104 0564 17050000 		lla	a0,.LC8
 1104      13050500 
GAS LISTING /tmp/cc4gdYIC.s 			page 28


 1105 056c 97000000 		call	_Z11printStringPKc@plt
 1105      E7800000 
 1106              	.LVL117:
 1107              	.LBB44:
 138:test/ConsumerProducer_CPP_Sync_API_test.cpp ****         waitForAll->wait();
 1108              		.loc 2 138 14
 1109 0574 93040000 		li	s1,0
 1110              	.LVL118:
 1111              	.L50:
 138:test/ConsumerProducer_CPP_Sync_API_test.cpp ****         waitForAll->wait();
 1112              		.loc 2 138 23 is_stmt 1 discriminator 1
 1113 0578 63409902 		bgt	s1,s2,.L62
 139:test/ConsumerProducer_CPP_Sync_API_test.cpp ****     }
 1114              		.loc 2 139 9
 139:test/ConsumerProducer_CPP_Sync_API_test.cpp ****     }
 1115              		.loc 2 139 25 is_stmt 0
 1116 057c 97070000 		la	a5,waitForAll
 1116      83B70700 
 1117 0584 03B50700 		ld	a0,0(a5)
 1118 0588 97000000 		call	_ZN9Semaphore4waitEv@plt
 1118      E7800000 
 1119              	.LVL119:
 138:test/ConsumerProducer_CPP_Sync_API_test.cpp ****         waitForAll->wait();
 1120              		.loc 2 138 5 is_stmt 1
 1121 0590 9B841400 		addiw	s1,s1,1
 1122              	.LVL120:
 1123 0594 6FF05FFE 		j	.L50
 1124              	.LVL121:
 1125              	.L62:
 1126              	.LBE44:
 1127              	.LBB45:
 142:test/ConsumerProducer_CPP_Sync_API_test.cpp ****         delete threads[i];
 1128              		.loc 2 142 14 is_stmt 0
 1129 0598 93040000 		li	s1,0
 1130              	.LVL122:
 1131 059c 6F008000 		j	.L49
 1132              	.LVL123:
 1133              	.L52:
 142:test/ConsumerProducer_CPP_Sync_API_test.cpp ****         delete threads[i];
 1134              		.loc 2 142 5 is_stmt 1 discriminator 2
 1135 05a0 9B841400 		addiw	s1,s1,1
 1136              	.LVL124:
 1137              	.L49:
 142:test/ConsumerProducer_CPP_Sync_API_test.cpp ****         delete threads[i];
 1138              		.loc 2 142 23 discriminator 1
 1139 05a4 63D22403 		bge	s1,s2,.L51
 143:test/ConsumerProducer_CPP_Sync_API_test.cpp ****     }
 1140              		.loc 2 143 9
 143:test/ConsumerProducer_CPP_Sync_API_test.cpp ****     }
 1141              		.loc 2 143 25 is_stmt 0
 1142 05a8 93973400 		slli	a5,s1,3
 1143 05ac B387F900 		add	a5,s3,a5
 1144 05b0 03B50700 		ld	a0,0(a5)
 143:test/ConsumerProducer_CPP_Sync_API_test.cpp ****     }
 1145              		.loc 2 143 26
 1146 05b4 E30605FE 		beqz	a0,.L52
 143:test/ConsumerProducer_CPP_Sync_API_test.cpp ****     }
GAS LISTING /tmp/cc4gdYIC.s 			page 29


 1147              		.loc 2 143 25 discriminator 1
 1148 05b8 83370500 		ld	a5,0(a0)
 1149 05bc 83B78700 		ld	a5,8(a5)
 1150 05c0 E7800700 		jalr	a5
 1151              	.LVL125:
 1152 05c4 6FF0DFFD 		j	.L52
 1153              	.L51:
 1154              	.LBE45:
 145:test/ConsumerProducer_CPP_Sync_API_test.cpp ****     delete waitForAll;
 1155              		.loc 2 145 5 is_stmt 1
 145:test/ConsumerProducer_CPP_Sync_API_test.cpp ****     delete waitForAll;
 1156              		.loc 2 145 26 is_stmt 0
 1157 05c8 630A0B00 		beqz	s6,.L53
 145:test/ConsumerProducer_CPP_Sync_API_test.cpp ****     delete waitForAll;
 1158              		.loc 2 145 12 discriminator 1
 1159 05cc 83370B00 		ld	a5,0(s6)
 1160 05d0 83B78700 		ld	a5,8(a5)
 1161 05d4 13050B00 		mv	a0,s6
 1162 05d8 E7800700 		jalr	a5
 1163              	.LVL126:
 1164              	.L53:
 146:test/ConsumerProducer_CPP_Sync_API_test.cpp ****     delete buffer;
 1165              		.loc 2 146 5 is_stmt 1
 146:test/ConsumerProducer_CPP_Sync_API_test.cpp ****     delete buffer;
 1166              		.loc 2 146 12 is_stmt 0
 1167 05dc 97070000 		la	a5,waitForAll
 1167      83B70700 
 1168 05e4 03B50700 		ld	a0,0(a5)
 146:test/ConsumerProducer_CPP_Sync_API_test.cpp ****     delete buffer;
 1169              		.loc 2 146 22
 1170 05e8 63080500 		beqz	a0,.L54
 146:test/ConsumerProducer_CPP_Sync_API_test.cpp ****     delete buffer;
 1171              		.loc 2 146 12 discriminator 1
 1172 05ec 83370500 		ld	a5,0(a0)
 1173 05f0 83B78700 		ld	a5,8(a5)
 1174 05f4 E7800700 		jalr	a5
 1175              	.LVL127:
 1176              	.L54:
 1177              		.loc 2 147 5 is_stmt 1
 1178              		.loc 2 147 18 is_stmt 0
 1179 05f8 638E0A00 		beqz	s5,.L55
 1180              		.loc 2 147 12 discriminator 1
 1181 05fc 13850A00 		mv	a0,s5
 1182 0600 97000000 		call	_ZN9BufferCPPD1Ev@plt
 1182      E7800000 
 1183              	.LVL128:
 1184 0608 13850A00 		mv	a0,s5
 1185 060c 97000000 		call	_ZdlPv@plt
 1185      E7800000 
 1186              	.LVL129:
 1187              	.LEHE10:
 1188              	.L55:
 1189 0614 13810B00 		mv	sp,s7
 1190              	.LVL130:
 1191              	.L41:
 148:test/ConsumerProducer_CPP_Sync_API_test.cpp **** }
 1192              		.loc 2 148 1
GAS LISTING /tmp/cc4gdYIC.s 			page 30


 1193 0618 130104F8 		addi	sp,s0,-128
 1194              		.cfi_remember_state
 1195              		.cfi_def_cfa 2, 128
 1196 061c 83308107 		ld	ra,120(sp)
 1197              		.cfi_restore 1
 1198 0620 03340107 		ld	s0,112(sp)
 1199              		.cfi_restore 8
 1200 0624 83348106 		ld	s1,104(sp)
 1201              		.cfi_restore 9
 1202 0628 03390106 		ld	s2,96(sp)
 1203              		.cfi_restore 18
 1204              	.LVL131:
 1205 062c 83398105 		ld	s3,88(sp)
 1206              		.cfi_restore 19
 1207 0630 033A0105 		ld	s4,80(sp)
 1208              		.cfi_restore 20
 1209 0634 833A8104 		ld	s5,72(sp)
 1210              		.cfi_restore 21
 1211 0638 033B0104 		ld	s6,64(sp)
 1212              		.cfi_restore 22
 1213 063c 833B8103 		ld	s7,56(sp)
 1214              		.cfi_restore 23
 1215 0640 033C0103 		ld	s8,48(sp)
 1216              		.cfi_restore 24
 1217 0644 833C8102 		ld	s9,40(sp)
 1218              		.cfi_restore 25
 1219 0648 13010108 		addi	sp,sp,128
 1220              		.cfi_def_cfa_offset 0
 1221 064c 67800000 		jr	ra
 1222              	.LVL132:
 1223              	.L63:
 1224              		.cfi_restore_state
 1225 0650 93040500 		mv	s1,a0
 1226              	.LVL133:
 107:test/ConsumerProducer_CPP_Sync_API_test.cpp **** 
 1227              		.loc 2 107 40
 1228 0654 13850A00 		mv	a0,s5
 1229 0658 97000000 		call	_ZdlPv@plt
 1229      E7800000 
 1230              	.LVL134:
 1231 0660 13850400 		mv	a0,s1
 1232              	.LEHB11:
 1233 0664 97000000 		call	_Unwind_Resume@plt
 1233      E7800000 
 1234              	.LVL135:
 1235              	.LEHE11:
 1236              	.L64:
 1237 066c 13090500 		mv	s2,a0
 1238              	.LVL136:
 109:test/ConsumerProducer_CPP_Sync_API_test.cpp **** 
 1239              		.loc 2 109 33
 1240 0670 13850400 		mv	a0,s1
 1241 0674 97000000 		call	_ZdlPv@plt
 1241      E7800000 
 1242              	.LVL137:
 1243 067c 13050900 		mv	a0,s2
 1244              	.LEHB12:
GAS LISTING /tmp/cc4gdYIC.s 			page 31


 1245 0680 97000000 		call	_Unwind_Resume@plt
 1245      E7800000 
 1246              	.LVL138:
 1247              	.LEHE12:
 1248              	.L65:
 1249 0688 93040500 		mv	s1,a0
 1250              	.LVL139:
 119:test/ConsumerProducer_CPP_Sync_API_test.cpp ****     consumerThread->start();
 1251              		.loc 2 119 49
 1252 068c 13050B00 		mv	a0,s6
 1253 0690 97000000 		call	_ZdlPv@plt
 1253      E7800000 
 1254              	.LVL140:
 1255 0698 13850400 		mv	a0,s1
 1256              	.LEHB13:
 1257 069c 97000000 		call	_Unwind_Resume@plt
 1257      E7800000 
 1258              	.LVL141:
 1259              	.LEHE13:
 1260              	.L66:
 1261 06a4 93040500 		mv	s1,a0
 1262              	.LVL142:
 1263              	.LBB46:
 127:test/ConsumerProducer_CPP_Sync_API_test.cpp ****         } else {
 1264              		.loc 2 127 45
 1265 06a8 13850C00 		mv	a0,s9
 1266 06ac 97000000 		call	_ZdlPv@plt
 1266      E7800000 
 1267              	.LVL143:
 1268 06b4 13850400 		mv	a0,s1
 1269              	.LEHB14:
 1270 06b8 97000000 		call	_Unwind_Resume@plt
 1270      E7800000 
 1271              	.LVL144:
 1272              	.LEHE14:
 1273              	.L67:
 1274 06c0 93040500 		mv	s1,a0
 1275              	.LVL145:
 129:test/ConsumerProducer_CPP_Sync_API_test.cpp ****         }
 1276              		.loc 2 129 53
 1277 06c4 13850C00 		mv	a0,s9
 1278 06c8 97000000 		call	_ZdlPv@plt
 1278      E7800000 
 1279              	.LVL146:
 1280 06d0 13850400 		mv	a0,s1
 1281              	.LEHB15:
 1282 06d4 97000000 		call	_Unwind_Resume@plt
 1282      E7800000 
 1283              	.LVL147:
 1284              	.LEHE15:
 1285              	.LBE46:
 1286              		.cfi_endproc
 1287              	.LFE22:
 1288              		.globl	__gxx_personality_v0
 1289              		.section	.gcc_except_table,"a",@progbits
 1290              	.LLSDA22:
 1291 0000 FF       		.byte	0xff
GAS LISTING /tmp/cc4gdYIC.s 			page 32


 1292 0001 FF       		.byte	0xff
 1293 0002 03       		.byte	0x3
 1294 0003 D001     		.byte	0xd0,0x1
 1295 0005 00000000 		.4byte	.LEHB0-.LFB22
 1296 0009 00000000 		.4byte	.LEHE0-.LEHB0
 1297 000d 00000000 		.4byte	0
 1298 0011 00       		.byte	0
 1299 0012 00000000 		.4byte	.LEHB1-.LFB22
 1300 0016 00000000 		.4byte	.LEHE1-.LEHB1
 1301 001a 00000000 		.4byte	.L63-.LFB22
 1302 001e 00       		.byte	0
 1303 001f 00000000 		.4byte	.LEHB2-.LFB22
 1304 0023 00000000 		.4byte	.LEHE2-.LEHB2
 1305 0027 00000000 		.4byte	0
 1306 002b 00       		.byte	0
 1307 002c 00000000 		.4byte	.LEHB3-.LFB22
 1308 0030 00000000 		.4byte	.LEHE3-.LEHB3
 1309 0034 00000000 		.4byte	.L64-.LFB22
 1310 0038 00       		.byte	0
 1311 0039 00000000 		.4byte	.LEHB4-.LFB22
 1312 003d 00000000 		.4byte	.LEHE4-.LEHB4
 1313 0041 00000000 		.4byte	0
 1314 0045 00       		.byte	0
 1315 0046 00000000 		.4byte	.LEHB5-.LFB22
 1316 004a 00000000 		.4byte	.LEHE5-.LEHB5
 1317 004e 00000000 		.4byte	.L65-.LFB22
 1318 0052 00       		.byte	0
 1319 0053 00000000 		.4byte	.LEHB6-.LFB22
 1320 0057 00000000 		.4byte	.LEHE6-.LEHB6
 1321 005b 00000000 		.4byte	0
 1322 005f 00       		.byte	0
 1323 0060 00000000 		.4byte	.LEHB7-.LFB22
 1324 0064 00000000 		.4byte	.LEHE7-.LEHB7
 1325 0068 00000000 		.4byte	.L66-.LFB22
 1326 006c 00       		.byte	0
 1327 006d 00000000 		.4byte	.LEHB8-.LFB22
 1328 0071 00000000 		.4byte	.LEHE8-.LEHB8
 1329 0075 00000000 		.4byte	0
 1330 0079 00       		.byte	0
 1331 007a 00000000 		.4byte	.LEHB9-.LFB22
 1332 007e 00000000 		.4byte	.LEHE9-.LEHB9
 1333 0082 00000000 		.4byte	.L67-.LFB22
 1334 0086 00       		.byte	0
 1335 0087 00000000 		.4byte	.LEHB10-.LFB22
 1336 008b 00000000 		.4byte	.LEHE10-.LEHB10
 1337 008f 00000000 		.4byte	0
 1338 0093 00       		.byte	0
 1339 0094 00000000 		.4byte	.LEHB11-.LFB22
 1340 0098 00000000 		.4byte	.LEHE11-.LEHB11
 1341 009c 00000000 		.4byte	0
 1342 00a0 00       		.byte	0
 1343 00a1 00000000 		.4byte	.LEHB12-.LFB22
 1344 00a5 00000000 		.4byte	.LEHE12-.LEHB12
 1345 00a9 00000000 		.4byte	0
 1346 00ad 00       		.byte	0
 1347 00ae 00000000 		.4byte	.LEHB13-.LFB22
 1348 00b2 00000000 		.4byte	.LEHE13-.LEHB13
GAS LISTING /tmp/cc4gdYIC.s 			page 33


 1349 00b6 00000000 		.4byte	0
 1350 00ba 00       		.byte	0
 1351 00bb 00000000 		.4byte	.LEHB14-.LFB22
 1352 00bf 00000000 		.4byte	.LEHE14-.LEHB14
 1353 00c3 00000000 		.4byte	0
 1354 00c7 00       		.byte	0
 1355 00c8 00000000 		.4byte	.LEHB15-.LFB22
 1356 00cc 00000000 		.4byte	.LEHE15-.LEHB15
 1357 00d0 00000000 		.4byte	0
 1358 00d4 00       		.byte	0
 1359              		.text
 1361              		.weak	_ZTV16ProducerKeyboard
 1362              		.section	.data.rel.ro.local._ZTV16ProducerKeyboard,"awG",@progbits,_ZTV16ProducerKeyboard,comdat
 1363              		.align	3
 1366              	_ZTV16ProducerKeyboard:
 1367 0000 00000000 		.dword	0
 1367      00000000 
 1368 0008 00000000 		.dword	0
 1368      00000000 
 1369 0010 00000000 		.dword	_ZN16ProducerKeyboardD1Ev
 1369      00000000 
 1370 0018 00000000 		.dword	_ZN16ProducerKeyboardD0Ev
 1370      00000000 
 1371 0020 00000000 		.dword	_ZN16ProducerKeyboard3runEv
 1371      00000000 
 1372              		.weak	_ZTV8Producer
 1373              		.section	.data.rel.ro.local._ZTV8Producer,"awG",@progbits,_ZTV8Producer,comdat
 1374              		.align	3
 1377              	_ZTV8Producer:
 1378 0000 00000000 		.dword	0
 1378      00000000 
 1379 0008 00000000 		.dword	0
 1379      00000000 
 1380 0010 00000000 		.dword	_ZN8ProducerD1Ev
 1380      00000000 
 1381 0018 00000000 		.dword	_ZN8ProducerD0Ev
 1381      00000000 
 1382 0020 00000000 		.dword	_ZN8Producer3runEv
 1382      00000000 
 1383              		.weak	_ZTV8Consumer
 1384              		.section	.data.rel.ro.local._ZTV8Consumer,"awG",@progbits,_ZTV8Consumer,comdat
 1385              		.align	3
 1388              	_ZTV8Consumer:
 1389 0000 00000000 		.dword	0
 1389      00000000 
 1390 0008 00000000 		.dword	0
 1390      00000000 
 1391 0010 00000000 		.dword	_ZN8ConsumerD1Ev
 1391      00000000 
 1392 0018 00000000 		.dword	_ZN8ConsumerD0Ev
 1392      00000000 
 1393 0020 00000000 		.dword	_ZN8Consumer3runEv
 1393      00000000 
 1394              		.text
 1395              	.Letext0:
 1396              		.file 3 "test/../h/../lib/hw.h"
 1397              		.file 4 "test/../h/syscall_cpp.hpp"
GAS LISTING /tmp/cc4gdYIC.s 			page 34


 1398              		.file 5 "test/buffer_CPP_API.hpp"
 1399              		.file 6 "test/printing.hpp"
 1400              		.file 7 "test/../h/syscall_c.h"
 5357              		.align	3
 5360              	DW.ref.__gxx_personality_v0:
 5361 0000 00000000 		.dword	__gxx_personality_v0
 5361      00000000 
 5362              		.ident	"GCC: (Ubuntu 9.3.0-17ubuntu1~20.04) 9.3.0"
 5363              		.section	.note.GNU-stack,"",@progbits
GAS LISTING /tmp/cc4gdYIC.s 			page 35

