GAS LISTING /tmp/cc4xyHGa.s 			page 1


   1              		.file	"ConsumerProducer_C_API_test.cpp"
   2              		.option pic
   3              		.option norelax
   4              		.text
   5              	.Ltext0:
   6              		.section	.rodata.str1.8,"aMS",@progbits,1
   7              		.align	3
   8              	.LC0:
   9 0000 50726F64 		.string	"Producer started...\n"
   9      75636572 
   9      20737461 
   9      72746564 
   9      2E2E2E0A 
  10              		.text
  11              		.align	2
  12              		.globl	_Z8producerPv
  14              	_Z8producerPv:
  15              	.LFB19:
  16              		.file 1 "test/ConsumerProducer_C_API_test.cpp"
   1:test/ConsumerProducer_C_API_test.cpp **** //
   2:test/ConsumerProducer_C_API_test.cpp **** // Created by os on 5/16/22.
   3:test/ConsumerProducer_C_API_test.cpp **** //
   4:test/ConsumerProducer_C_API_test.cpp **** 
   5:test/ConsumerProducer_C_API_test.cpp **** #include "ConsumerProducer_C_API_test.hpp"
   6:test/ConsumerProducer_C_API_test.cpp **** #include "../h/Riscv.hpp"
   7:test/ConsumerProducer_C_API_test.cpp **** sem_t waitForAll;
   8:test/ConsumerProducer_C_API_test.cpp **** 
   9:test/ConsumerProducer_C_API_test.cpp **** struct thread_data {
  10:test/ConsumerProducer_C_API_test.cpp ****     int id;
  11:test/ConsumerProducer_C_API_test.cpp ****     Buffer *buffer;
  12:test/ConsumerProducer_C_API_test.cpp ****     sem_t wait;
  13:test/ConsumerProducer_C_API_test.cpp **** };
  14:test/ConsumerProducer_C_API_test.cpp **** 
  15:test/ConsumerProducer_C_API_test.cpp **** volatile int threadEnd = 0;
  16:test/ConsumerProducer_C_API_test.cpp **** 
  17:test/ConsumerProducer_C_API_test.cpp **** void producerKeyboard(void *arg) {
  18:test/ConsumerProducer_C_API_test.cpp ****     struct thread_data *data = (struct thread_data *) arg;
  19:test/ConsumerProducer_C_API_test.cpp **** 
  20:test/ConsumerProducer_C_API_test.cpp ****     int key;
  21:test/ConsumerProducer_C_API_test.cpp ****     int i = 0;
  22:test/ConsumerProducer_C_API_test.cpp ****     while ((key = __getc()) != 0x1b) {
  23:test/ConsumerProducer_C_API_test.cpp ****         data->buffer->put(key);
  24:test/ConsumerProducer_C_API_test.cpp ****         i++;
  25:test/ConsumerProducer_C_API_test.cpp **** 
  26:test/ConsumerProducer_C_API_test.cpp ****         if (i % (10 * data->id) == 0) {
  27:test/ConsumerProducer_C_API_test.cpp ****             thread_dispatch();
  28:test/ConsumerProducer_C_API_test.cpp ****         }
  29:test/ConsumerProducer_C_API_test.cpp ****     }
  30:test/ConsumerProducer_C_API_test.cpp **** 
  31:test/ConsumerProducer_C_API_test.cpp ****     threadEnd = 1;
  32:test/ConsumerProducer_C_API_test.cpp **** 
  33:test/ConsumerProducer_C_API_test.cpp ****     delete data->buffer;
  34:test/ConsumerProducer_C_API_test.cpp **** 
  35:test/ConsumerProducer_C_API_test.cpp ****     sem_signal(data->wait);
  36:test/ConsumerProducer_C_API_test.cpp **** }
  37:test/ConsumerProducer_C_API_test.cpp **** 
  38:test/ConsumerProducer_C_API_test.cpp **** void producer(void *arg) {
GAS LISTING /tmp/cc4xyHGa.s 			page 2


  17              		.loc 1 38 26
  18              		.cfi_startproc
  19              	.LVL0:
  20 0000 130101FE 		addi	sp,sp,-32
  21              		.cfi_def_cfa_offset 32
  22 0004 233C1100 		sd	ra,24(sp)
  23 0008 23388100 		sd	s0,16(sp)
  24 000c 23349100 		sd	s1,8(sp)
  25 0010 23302101 		sd	s2,0(sp)
  26              		.cfi_offset 1, -8
  27              		.cfi_offset 8, -16
  28              		.cfi_offset 9, -24
  29              		.cfi_offset 18, -32
  30 0014 13040102 		addi	s0,sp,32
  31              		.cfi_def_cfa 8, 0
  32 0018 93040500 		mv	s1,a0
  39:test/ConsumerProducer_C_API_test.cpp ****     struct thread_data *data = (struct thread_data *) arg;
  33              		.loc 1 39 5
  34              	.LVL1:
  40:test/ConsumerProducer_C_API_test.cpp **** 
  41:test/ConsumerProducer_C_API_test.cpp ****     Riscv::printString("Producer started...\n");
  35              		.loc 1 41 5
  36              		.loc 1 41 23 is_stmt 0
  37 001c 17050000 		lla	a0,.LC0
  37      13050500 
  38              	.LVL2:
  39 0024 97000000 		call	_ZN5Riscv11printStringEPKc@plt
  39      E7800000 
  40              	.LVL3:
  42:test/ConsumerProducer_C_API_test.cpp **** 
  43:test/ConsumerProducer_C_API_test.cpp ****     int i = 0;
  41              		.loc 1 43 5 is_stmt 1
  42              		.loc 1 43 9 is_stmt 0
  43 002c 13090000 		li	s2,0
  44 0030 6F00C000 		j	.L2
  45              	.LVL4:
  46              	.L6:
  44:test/ConsumerProducer_C_API_test.cpp ****     while (!threadEnd) {
  45:test/ConsumerProducer_C_API_test.cpp ****         data->buffer->put(data->id + '0');
  46:test/ConsumerProducer_C_API_test.cpp ****         i++;
  47:test/ConsumerProducer_C_API_test.cpp **** 
  48:test/ConsumerProducer_C_API_test.cpp ****         if (i % (10 * data->id) == 0) {
  49:test/ConsumerProducer_C_API_test.cpp ****             thread_dispatch();
  47              		.loc 1 49 13 is_stmt 1
  48              		.loc 1 49 28 is_stmt 0
  49 0034 97000000 		call	thread_dispatch@plt
  49      E7800000 
  50              	.LVL5:
  51              	.L2:
  44:test/ConsumerProducer_C_API_test.cpp ****     while (!threadEnd) {
  52              		.loc 1 44 5 is_stmt 1
  44:test/ConsumerProducer_C_API_test.cpp ****     while (!threadEnd) {
  53              		.loc 1 44 12
  54 003c 97070000 		lw	a5,.LANCHOR0
  54      83A70700 
  55 0044 639E0702 		bnez	a5,.L3
  45:test/ConsumerProducer_C_API_test.cpp ****         i++;
GAS LISTING /tmp/cc4xyHGa.s 			page 3


  56              		.loc 1 45 9
  45:test/ConsumerProducer_C_API_test.cpp ****         i++;
  57              		.loc 1 45 33 is_stmt 0
  58 0048 83A50400 		lw	a1,0(s1)
  45:test/ConsumerProducer_C_API_test.cpp ****         i++;
  59              		.loc 1 45 26
  60 004c 9B850503 		addiw	a1,a1,48
  61 0050 03B58400 		ld	a0,8(s1)
  62 0054 97000000 		call	_ZN6Buffer3putEi@plt
  62      E7800000 
  63              	.LVL6:
  46:test/ConsumerProducer_C_API_test.cpp **** 
  64              		.loc 1 46 9 is_stmt 1
  46:test/ConsumerProducer_C_API_test.cpp **** 
  65              		.loc 1 46 10 is_stmt 0
  66 005c 1B071900 		addiw	a4,s2,1
  67 0060 1B090700 		sext.w	s2,a4
  68              	.LVL7:
  48:test/ConsumerProducer_C_API_test.cpp ****             thread_dispatch();
  69              		.loc 1 48 9 is_stmt 1
  48:test/ConsumerProducer_C_API_test.cpp ****             thread_dispatch();
  70              		.loc 1 48 29 is_stmt 0
  71 0064 83A60400 		lw	a3,0(s1)
  48:test/ConsumerProducer_C_API_test.cpp ****             thread_dispatch();
  72              		.loc 1 48 21
  73 0068 9B972600 		slliw	a5,a3,2
  74 006c BB87D700 		addw	a5,a5,a3
  75 0070 9B971700 		slliw	a5,a5,1
  48:test/ConsumerProducer_C_API_test.cpp ****             thread_dispatch();
  76              		.loc 1 48 15
  77 0074 BB67F702 		remw	a5,a4,a5
  48:test/ConsumerProducer_C_API_test.cpp ****             thread_dispatch();
  78              		.loc 1 48 9
  79 0078 E39207FC 		bnez	a5,.L2
  80 007c 6FF09FFB 		j	.L6
  81              	.LVL8:
  82              	.L3:
  50:test/ConsumerProducer_C_API_test.cpp ****         }
  51:test/ConsumerProducer_C_API_test.cpp ****     }
  52:test/ConsumerProducer_C_API_test.cpp **** 
  53:test/ConsumerProducer_C_API_test.cpp ****     sem_signal(data->wait);
  83              		.loc 1 53 5 is_stmt 1
  84              		.loc 1 53 15 is_stmt 0
  85 0080 03B50401 		ld	a0,16(s1)
  86 0084 97000000 		call	sem_signal@plt
  86      E7800000 
  87              	.LVL9:
  54:test/ConsumerProducer_C_API_test.cpp **** }
  88              		.loc 1 54 1
  89 008c 83308101 		ld	ra,24(sp)
  90              		.cfi_restore 1
  91 0090 03340101 		ld	s0,16(sp)
  92              		.cfi_restore 8
  93              		.cfi_def_cfa 2, 32
  94 0094 83348100 		ld	s1,8(sp)
  95              		.cfi_restore 9
  96              	.LVL10:
GAS LISTING /tmp/cc4xyHGa.s 			page 4


  97 0098 03390100 		ld	s2,0(sp)
  98              		.cfi_restore 18
  99              	.LVL11:
 100 009c 13010102 		addi	sp,sp,32
 101              		.cfi_def_cfa_offset 0
 102 00a0 67800000 		jr	ra
 103              		.cfi_endproc
 104              	.LFE19:
 106              		.section	.rodata.str1.8
 107 0015 000000   		.align	3
 108              	.LC1:
 109 0018 436F6E73 		.string	"Consumer started...\n"
 109      756D6572 
 109      20737461 
 109      72746564 
 109      2E2E2E0A 
 110              		.text
 111              		.align	2
 112              		.globl	_Z8consumerPv
 114              	_Z8consumerPv:
 115              	.LFB20:
  55:test/ConsumerProducer_C_API_test.cpp **** 
  56:test/ConsumerProducer_C_API_test.cpp **** void consumer(void *arg) {
 116              		.loc 1 56 26 is_stmt 1
 117              		.cfi_startproc
 118              	.LVL12:
 119 00a4 130101FD 		addi	sp,sp,-48
 120              		.cfi_def_cfa_offset 48
 121 00a8 23341102 		sd	ra,40(sp)
 122 00ac 23308102 		sd	s0,32(sp)
 123 00b0 233C9100 		sd	s1,24(sp)
 124 00b4 23382101 		sd	s2,16(sp)
 125 00b8 23343101 		sd	s3,8(sp)
 126              		.cfi_offset 1, -8
 127              		.cfi_offset 8, -16
 128              		.cfi_offset 9, -24
 129              		.cfi_offset 18, -32
 130              		.cfi_offset 19, -40
 131 00bc 13040103 		addi	s0,sp,48
 132              		.cfi_def_cfa 8, 0
 133 00c0 13090500 		mv	s2,a0
  57:test/ConsumerProducer_C_API_test.cpp ****     struct thread_data *data = (struct thread_data *) arg;
 134              		.loc 1 57 5
 135              	.LVL13:
  58:test/ConsumerProducer_C_API_test.cpp **** 
  59:test/ConsumerProducer_C_API_test.cpp ****     Riscv::printString("Consumer started...\n");
 136              		.loc 1 59 5
 137              		.loc 1 59 23 is_stmt 0
 138 00c4 17050000 		lla	a0,.LC1
 138      13050500 
 139              	.LVL14:
 140 00cc 97000000 		call	_ZN5Riscv11printStringEPKc@plt
 140      E7800000 
 141              	.LVL15:
  60:test/ConsumerProducer_C_API_test.cpp **** 
  61:test/ConsumerProducer_C_API_test.cpp ****     int i = 0;
 142              		.loc 1 61 5 is_stmt 1
GAS LISTING /tmp/cc4xyHGa.s 			page 5


 143              		.loc 1 61 9 is_stmt 0
 144 00d4 93090000 		li	s3,0
 145 00d8 6F00C001 		j	.L8
 146              	.LVL16:
 147              	.L13:
 148              	.LBB2:
  62:test/ConsumerProducer_C_API_test.cpp ****     while (!threadEnd) {
  63:test/ConsumerProducer_C_API_test.cpp ****         int key = data->buffer->get();
  64:test/ConsumerProducer_C_API_test.cpp ****         i++;
  65:test/ConsumerProducer_C_API_test.cpp **** 
  66:test/ConsumerProducer_C_API_test.cpp ****         //putc(key);
  67:test/ConsumerProducer_C_API_test.cpp ****         Riscv::printInteger(key);
  68:test/ConsumerProducer_C_API_test.cpp **** 
  69:test/ConsumerProducer_C_API_test.cpp ****         if (i % (5 * data->id) == 0) {
  70:test/ConsumerProducer_C_API_test.cpp ****             thread_dispatch();
 149              		.loc 1 70 13 is_stmt 1
 150              		.loc 1 70 28 is_stmt 0
 151 00dc 97000000 		call	thread_dispatch@plt
 151      E7800000 
 152              	.LVL17:
 153 00e4 6F00C004 		j	.L10
 154              	.LVL18:
 155              	.L14:
  71:test/ConsumerProducer_C_API_test.cpp ****         }
  72:test/ConsumerProducer_C_API_test.cpp **** 
  73:test/ConsumerProducer_C_API_test.cpp ****         if (i % 80 == 0) {
  74:test/ConsumerProducer_C_API_test.cpp ****             __putc('\n');
 156              		.loc 1 74 13 is_stmt 1
 157              		.loc 1 74 19 is_stmt 0
 158 00e8 1305A000 		li	a0,10
 159 00ec 97000000 		call	__putc@plt
 159      E7800000 
 160              	.LVL19:
 161              	.L8:
 162              	.LBE2:
  62:test/ConsumerProducer_C_API_test.cpp ****     while (!threadEnd) {
 163              		.loc 1 62 5 is_stmt 1
  62:test/ConsumerProducer_C_API_test.cpp ****     while (!threadEnd) {
 164              		.loc 1 62 12
 165 00f4 97070000 		lw	a5,.LANCHOR0
 165      83A70700 
 166 00fc 63920704 		bnez	a5,.L9
 167              	.LBB3:
  63:test/ConsumerProducer_C_API_test.cpp ****         i++;
 168              		.loc 1 63 9
  63:test/ConsumerProducer_C_API_test.cpp ****         i++;
 169              		.loc 1 63 36 is_stmt 0
 170 0100 03358900 		ld	a0,8(s2)
 171 0104 97000000 		call	_ZN6Buffer3getEv@plt
 171      E7800000 
 172              	.LVL20:
  64:test/ConsumerProducer_C_API_test.cpp **** 
 173              		.loc 1 64 9 is_stmt 1
  64:test/ConsumerProducer_C_API_test.cpp **** 
 174              		.loc 1 64 10 is_stmt 0
 175 010c 9B841900 		addiw	s1,s3,1
 176 0110 9B890400 		sext.w	s3,s1
GAS LISTING /tmp/cc4xyHGa.s 			page 6


 177              	.LVL21:
  67:test/ConsumerProducer_C_API_test.cpp **** 
 178              		.loc 1 67 9 is_stmt 1
  67:test/ConsumerProducer_C_API_test.cpp **** 
 179              		.loc 1 67 28 is_stmt 0
 180 0114 97000000 		call	_ZN5Riscv12printIntegerEm@plt
 180      E7800000 
 181              	.LVL22:
  69:test/ConsumerProducer_C_API_test.cpp ****             thread_dispatch();
 182              		.loc 1 69 9 is_stmt 1
  69:test/ConsumerProducer_C_API_test.cpp ****             thread_dispatch();
 183              		.loc 1 69 28 is_stmt 0
 184 011c 03270900 		lw	a4,0(s2)
  69:test/ConsumerProducer_C_API_test.cpp ****             thread_dispatch();
 185              		.loc 1 69 20
 186 0120 9B172700 		slliw	a5,a4,2
 187 0124 BB87E700 		addw	a5,a5,a4
  69:test/ConsumerProducer_C_API_test.cpp ****             thread_dispatch();
 188              		.loc 1 69 15
 189 0128 BBE7F402 		remw	a5,s1,a5
  69:test/ConsumerProducer_C_API_test.cpp ****             thread_dispatch();
 190              		.loc 1 69 9
 191 012c E38807FA 		beqz	a5,.L13
 192              	.L10:
  73:test/ConsumerProducer_C_API_test.cpp ****             __putc('\n');
 193              		.loc 1 73 9 is_stmt 1
  73:test/ConsumerProducer_C_API_test.cpp ****             __putc('\n');
 194              		.loc 1 73 15 is_stmt 0
 195 0130 93070005 		li	a5,80
 196 0134 BBE4F402 		remw	s1,s1,a5
 197              	.LVL23:
  73:test/ConsumerProducer_C_API_test.cpp ****             __putc('\n');
 198              		.loc 1 73 9
 199 0138 E39E04FA 		bnez	s1,.L8
 200 013c 6FF0DFFA 		j	.L14
 201              	.L9:
 202              	.LBE3:
  75:test/ConsumerProducer_C_API_test.cpp ****         }
  76:test/ConsumerProducer_C_API_test.cpp ****     }
  77:test/ConsumerProducer_C_API_test.cpp **** 
  78:test/ConsumerProducer_C_API_test.cpp ****     sem_signal(data->wait);
 203              		.loc 1 78 5 is_stmt 1
 204              		.loc 1 78 15 is_stmt 0
 205 0140 03350901 		ld	a0,16(s2)
 206 0144 97000000 		call	sem_signal@plt
 206      E7800000 
 207              	.LVL24:
  79:test/ConsumerProducer_C_API_test.cpp **** }
 208              		.loc 1 79 1
 209 014c 83308102 		ld	ra,40(sp)
 210              		.cfi_restore 1
 211 0150 03340102 		ld	s0,32(sp)
 212              		.cfi_restore 8
 213              		.cfi_def_cfa 2, 48
 214 0154 83348101 		ld	s1,24(sp)
 215              		.cfi_restore 9
 216 0158 03390101 		ld	s2,16(sp)
GAS LISTING /tmp/cc4xyHGa.s 			page 7


 217              		.cfi_restore 18
 218              	.LVL25:
 219 015c 83398100 		ld	s3,8(sp)
 220              		.cfi_restore 19
 221              	.LVL26:
 222 0160 13010103 		addi	sp,sp,48
 223              		.cfi_def_cfa_offset 0
 224 0164 67800000 		jr	ra
 225              		.cfi_endproc
 226              	.LFE20:
 228              		.align	2
 229              		.globl	_Z16producerKeyboardPv
 231              	_Z16producerKeyboardPv:
 232              	.LFB18:
  17:test/ConsumerProducer_C_API_test.cpp ****     struct thread_data *data = (struct thread_data *) arg;
 233              		.loc 1 17 34 is_stmt 1
 234              		.cfi_startproc
 235              	.LVL27:
 236 0168 130101FE 		addi	sp,sp,-32
 237              		.cfi_def_cfa_offset 32
 238 016c 233C1100 		sd	ra,24(sp)
 239 0170 23388100 		sd	s0,16(sp)
 240 0174 23349100 		sd	s1,8(sp)
 241 0178 23302101 		sd	s2,0(sp)
 242              		.cfi_offset 1, -8
 243              		.cfi_offset 8, -16
 244              		.cfi_offset 9, -24
 245              		.cfi_offset 18, -32
 246 017c 13040102 		addi	s0,sp,32
 247              		.cfi_def_cfa 8, 0
 248 0180 93040500 		mv	s1,a0
  18:test/ConsumerProducer_C_API_test.cpp **** 
 249              		.loc 1 18 5
 250              	.LVL28:
  20:test/ConsumerProducer_C_API_test.cpp ****     int i = 0;
 251              		.loc 1 20 5
  21:test/ConsumerProducer_C_API_test.cpp ****     while ((key = __getc()) != 0x1b) {
 252              		.loc 1 21 5
  21:test/ConsumerProducer_C_API_test.cpp ****     while ((key = __getc()) != 0x1b) {
 253              		.loc 1 21 9 is_stmt 0
 254 0184 13090000 		li	s2,0
 255 0188 6F00C000 		j	.L16
 256              	.LVL29:
 257              	.L21:
  27:test/ConsumerProducer_C_API_test.cpp ****         }
 258              		.loc 1 27 13 is_stmt 1
  27:test/ConsumerProducer_C_API_test.cpp ****         }
 259              		.loc 1 27 28 is_stmt 0
 260 018c 97000000 		call	thread_dispatch@plt
 260      E7800000 
 261              	.LVL30:
 262              	.L16:
  22:test/ConsumerProducer_C_API_test.cpp ****         data->buffer->put(key);
 263              		.loc 1 22 5 is_stmt 1
  22:test/ConsumerProducer_C_API_test.cpp ****         data->buffer->put(key);
 264              		.loc 1 22 29
  22:test/ConsumerProducer_C_API_test.cpp ****         data->buffer->put(key);
GAS LISTING /tmp/cc4xyHGa.s 			page 8


 265              		.loc 1 22 25 is_stmt 0
 266 0194 97000000 		call	__getc@plt
 266      E7800000 
 267              	.LVL31:
  22:test/ConsumerProducer_C_API_test.cpp ****         data->buffer->put(key);
 268              		.loc 1 22 17
 269 019c 9B050500 		sext.w	a1,a0
 270              	.LVL32:
  22:test/ConsumerProducer_C_API_test.cpp ****         data->buffer->put(key);
 271              		.loc 1 22 29
 272 01a0 9307B001 		li	a5,27
 273 01a4 638AF502 		beq	a1,a5,.L17
  23:test/ConsumerProducer_C_API_test.cpp ****         i++;
 274              		.loc 1 23 9 is_stmt 1
  23:test/ConsumerProducer_C_API_test.cpp ****         i++;
 275              		.loc 1 23 26 is_stmt 0
 276 01a8 03B58400 		ld	a0,8(s1)
 277 01ac 97000000 		call	_ZN6Buffer3putEi@plt
 277      E7800000 
 278              	.LVL33:
  24:test/ConsumerProducer_C_API_test.cpp **** 
 279              		.loc 1 24 9 is_stmt 1
  24:test/ConsumerProducer_C_API_test.cpp **** 
 280              		.loc 1 24 10 is_stmt 0
 281 01b4 1B071900 		addiw	a4,s2,1
 282 01b8 1B090700 		sext.w	s2,a4
 283              	.LVL34:
  26:test/ConsumerProducer_C_API_test.cpp ****             thread_dispatch();
 284              		.loc 1 26 9 is_stmt 1
  26:test/ConsumerProducer_C_API_test.cpp ****             thread_dispatch();
 285              		.loc 1 26 29 is_stmt 0
 286 01bc 83A60400 		lw	a3,0(s1)
  26:test/ConsumerProducer_C_API_test.cpp ****             thread_dispatch();
 287              		.loc 1 26 21
 288 01c0 9B972600 		slliw	a5,a3,2
 289 01c4 BB87D700 		addw	a5,a5,a3
 290 01c8 9B971700 		slliw	a5,a5,1
  26:test/ConsumerProducer_C_API_test.cpp ****             thread_dispatch();
 291              		.loc 1 26 15
 292 01cc BB67F702 		remw	a5,a4,a5
  26:test/ConsumerProducer_C_API_test.cpp ****             thread_dispatch();
 293              		.loc 1 26 9
 294 01d0 E39207FC 		bnez	a5,.L16
 295 01d4 6FF09FFB 		j	.L21
 296              	.LVL35:
 297              	.L17:
  31:test/ConsumerProducer_C_API_test.cpp **** 
 298              		.loc 1 31 5 is_stmt 1
  31:test/ConsumerProducer_C_API_test.cpp **** 
 299              		.loc 1 31 15 is_stmt 0
 300 01d8 93071000 		li	a5,1
 301 01dc 17070000 		sw	a5,.LANCHOR0,a4
 301      2320F700 
  33:test/ConsumerProducer_C_API_test.cpp **** 
 302              		.loc 1 33 5 is_stmt 1
  33:test/ConsumerProducer_C_API_test.cpp **** 
 303              		.loc 1 33 18 is_stmt 0
GAS LISTING /tmp/cc4xyHGa.s 			page 9


 304 01e4 03B98400 		ld	s2,8(s1)
 305              	.LVL36:
  33:test/ConsumerProducer_C_API_test.cpp **** 
 306              		.loc 1 33 24
 307 01e8 630E0900 		beqz	s2,.L19
  33:test/ConsumerProducer_C_API_test.cpp **** 
 308              		.loc 1 33 18 discriminator 1
 309 01ec 13050900 		mv	a0,s2
 310 01f0 97000000 		call	_ZN6BufferD1Ev@plt
 310      E7800000 
 311              	.LVL37:
 312 01f8 13050900 		mv	a0,s2
 313 01fc 97000000 		call	_ZdlPv@plt
 313      E7800000 
 314              	.LVL38:
 315              	.L19:
  35:test/ConsumerProducer_C_API_test.cpp **** }
 316              		.loc 1 35 5 is_stmt 1
  35:test/ConsumerProducer_C_API_test.cpp **** }
 317              		.loc 1 35 15 is_stmt 0
 318 0204 03B50401 		ld	a0,16(s1)
 319 0208 97000000 		call	sem_signal@plt
 319      E7800000 
 320              	.LVL39:
  36:test/ConsumerProducer_C_API_test.cpp **** 
 321              		.loc 1 36 1
 322 0210 83308101 		ld	ra,24(sp)
 323              		.cfi_restore 1
 324 0214 03340101 		ld	s0,16(sp)
 325              		.cfi_restore 8
 326              		.cfi_def_cfa 2, 32
 327 0218 83348100 		ld	s1,8(sp)
 328              		.cfi_restore 9
 329              	.LVL40:
 330 021c 03390100 		ld	s2,0(sp)
 331              		.cfi_restore 18
 332 0220 13010102 		addi	sp,sp,32
 333              		.cfi_def_cfa_offset 0
 334 0224 67800000 		jr	ra
 335              		.cfi_endproc
 336              	.LFE18:
 338              		.section	.rodata.str1.8
 339 002d 000000   		.align	3
 340              	.LC2:
 341 0030 556E6573 		.string	"Unesite broj proizvodjaca?\n"
 341      69746520 
 341      62726F6A 
 341      2070726F 
 341      697A766F 
 342 004c 00000000 		.align	3
 343              	.LC3:
 344 0050 556E6573 		.string	"Unesite velicinu bafera?\n"
 344      69746520 
 344      76656C69 
 344      63696E75 
 344      20626166 
 345 006a 00000000 		.align	3
GAS LISTING /tmp/cc4xyHGa.s 			page 10


 345      0000
 346              	.LC4:
 347 0070 42726F6A 		.string	"Broj proizvodjaca "
 347      2070726F 
 347      697A766F 
 347      646A6163 
 347      612000
 348 0083 00000000 		.align	3
 348      00
 349              	.LC5:
 350 0088 20692076 		.string	" i velicina bafera "
 350      656C6963 
 350      696E6120 
 350      62616665 
 350      72612000 
 351 009c 00000000 		.align	3
 352              	.LC6:
 353 00a0 2E0A00   		.string	".\n"
 354              		.text
 355              		.align	2
 356              		.globl	_Z22producerConsumer_C_APIv
 358              	_Z22producerConsumer_C_APIv:
 359              	.LFB21:
  80:test/ConsumerProducer_C_API_test.cpp **** 
  81:test/ConsumerProducer_C_API_test.cpp **** //todo
  82:test/ConsumerProducer_C_API_test.cpp **** //threadNuma hardCoded, timer enables itself as soon as
  83:test/ConsumerProducer_C_API_test.cpp **** //code gets into getString
  84:test/ConsumerProducer_C_API_test.cpp **** //isto za bafer
  85:test/ConsumerProducer_C_API_test.cpp **** void producerConsumer_C_API()
  86:test/ConsumerProducer_C_API_test.cpp **** {
 360              		.loc 1 86 1 is_stmt 1
 361              		.cfi_startproc
 362              		.cfi_personality 0x9b,DW.ref.__gxx_personality_v0
 363              		.cfi_lsda 0x1b,.LLSDA21
 364 0228 130101F2 		addi	sp,sp,-224
 365              		.cfi_def_cfa_offset 224
 366 022c 233C110C 		sd	ra,216(sp)
 367 0230 2338810C 		sd	s0,208(sp)
 368 0234 2334910C 		sd	s1,200(sp)
 369 0238 2330210D 		sd	s2,192(sp)
 370              		.cfi_offset 1, -8
 371              		.cfi_offset 8, -16
 372              		.cfi_offset 9, -24
 373              		.cfi_offset 18, -32
 374 023c 1304010E 		addi	s0,sp,224
 375              		.cfi_def_cfa 8, 0
  87:test/ConsumerProducer_C_API_test.cpp ****     //char input[30];
  88:test/ConsumerProducer_C_API_test.cpp ****     int n, threadNum;
 376              		.loc 1 88 5
  89:test/ConsumerProducer_C_API_test.cpp **** 
  90:test/ConsumerProducer_C_API_test.cpp ****     printString("Unesite broj proizvodjaca?\n");
 377              		.loc 1 90 5
 378              		.loc 1 90 16 is_stmt 0
 379 0240 17050000 		lla	a0,.LC2
 379      13050500 
 380              	.LEHB0:
 381 0248 97000000 		call	_Z11printStringPKc@plt
GAS LISTING /tmp/cc4xyHGa.s 			page 11


 381      E7800000 
 382              	.LVL41:
  91:test/ConsumerProducer_C_API_test.cpp ****     //getString(input, 30);
  92:test/ConsumerProducer_C_API_test.cpp ****     threadNum = 5;
 383              		.loc 1 92 5 is_stmt 1
  93:test/ConsumerProducer_C_API_test.cpp **** 
  94:test/ConsumerProducer_C_API_test.cpp ****     printString("Unesite velicinu bafera?\n");
 384              		.loc 1 94 5
 385              		.loc 1 94 16 is_stmt 0
 386 0250 17050000 		lla	a0,.LC3
 386      13050500 
 387 0258 97000000 		call	_Z11printStringPKc@plt
 387      E7800000 
 388              	.LVL42:
  95:test/ConsumerProducer_C_API_test.cpp ****     //getString(input, 30);
  96:test/ConsumerProducer_C_API_test.cpp ****     n = 10;
 389              		.loc 1 96 5 is_stmt 1
  97:test/ConsumerProducer_C_API_test.cpp **** 
  98:test/ConsumerProducer_C_API_test.cpp ****     printString("Broj proizvodjaca "); printInt(threadNum);
 390              		.loc 1 98 5
 391              		.loc 1 98 16 is_stmt 0
 392 0260 17050000 		lla	a0,.LC4
 392      13050500 
 393 0268 97000000 		call	_Z11printStringPKc@plt
 393      E7800000 
 394              	.LVL43:
 395              		.loc 1 98 40 is_stmt 1
 396              		.loc 1 98 48 is_stmt 0
 397 0270 13060000 		li	a2,0
 398 0274 9305A000 		li	a1,10
 399 0278 13055000 		li	a0,5
 400 027c 97000000 		call	_Z8printIntiii@plt
 400      E7800000 
 401              	.LVL44:
  99:test/ConsumerProducer_C_API_test.cpp ****     printString(" i velicina bafera "); printInt(n);
 402              		.loc 1 99 5 is_stmt 1
 403              		.loc 1 99 16 is_stmt 0
 404 0284 17050000 		lla	a0,.LC5
 404      13050500 
 405 028c 97000000 		call	_Z11printStringPKc@plt
 405      E7800000 
 406              	.LVL45:
 407              		.loc 1 99 41 is_stmt 1
 408              		.loc 1 99 49 is_stmt 0
 409 0294 13060000 		li	a2,0
 410 0298 9305A000 		li	a1,10
 411 029c 1305A000 		li	a0,10
 412 02a0 97000000 		call	_Z8printIntiii@plt
 412      E7800000 
 413              	.LVL46:
 100:test/ConsumerProducer_C_API_test.cpp ****     printString(".\n");
 414              		.loc 1 100 5 is_stmt 1
 415              		.loc 1 100 16 is_stmt 0
 416 02a8 17050000 		lla	a0,.LC6
 416      13050500 
 417 02b0 97000000 		call	_Z11printStringPKc@plt
 417      E7800000 
GAS LISTING /tmp/cc4xyHGa.s 			page 12


 418              	.LVL47:
 101:test/ConsumerProducer_C_API_test.cpp **** 
 102:test/ConsumerProducer_C_API_test.cpp ****     Buffer *buffer = new Buffer(n);
 419              		.loc 1 102 5 is_stmt 1
 420              		.loc 1 102 34 is_stmt 0
 421 02b8 13058003 		li	a0,56
 422 02bc 97000000 		call	_Znwm@plt
 422      E7800000 
 423              	.LVL48:
 424              	.LEHE0:
 425 02c4 13090500 		mv	s2,a0
 426 02c8 9305A000 		li	a1,10
 427              	.LEHB1:
 428 02cc 97000000 		call	_ZN6BufferC1Ei@plt
 428      E7800000 
 429              	.LVL49:
 430              	.LEHE1:
 103:test/ConsumerProducer_C_API_test.cpp **** 
 104:test/ConsumerProducer_C_API_test.cpp ****     sem_open(&waitForAll, 0);
 431              		.loc 1 104 5 is_stmt 1 discriminator 3
 432              		.loc 1 104 13 is_stmt 0 discriminator 3
 433 02d4 93050000 		li	a1,0
 434 02d8 17050000 		lla	a0,.LANCHOR0+8
 434      13050500 
 435              	.LEHB2:
 436 02e0 97000000 		call	sem_open@plt
 436      E7800000 
 437              	.LVL50:
 105:test/ConsumerProducer_C_API_test.cpp **** 
 106:test/ConsumerProducer_C_API_test.cpp ****     thread_t threads[threadNum];
 438              		.loc 1 106 5 is_stmt 1 discriminator 3
 107:test/ConsumerProducer_C_API_test.cpp ****     thread_t consumerThread;
 439              		.loc 1 107 5 discriminator 3
 108:test/ConsumerProducer_C_API_test.cpp **** 
 109:test/ConsumerProducer_C_API_test.cpp ****     struct thread_data data[threadNum + 1];
 440              		.loc 1 109 5 discriminator 3
 110:test/ConsumerProducer_C_API_test.cpp **** 
 111:test/ConsumerProducer_C_API_test.cpp ****     data[threadNum].id = threadNum;
 441              		.loc 1 111 5 discriminator 3
 442              		.loc 1 111 24 is_stmt 0 discriminator 3
 443 02e8 93075000 		li	a5,5
 444 02ec 2320F4FC 		sw	a5,-64(s0)
 112:test/ConsumerProducer_C_API_test.cpp ****     data[threadNum].buffer = buffer;
 445              		.loc 1 112 5 is_stmt 1 discriminator 3
 446              		.loc 1 112 28 is_stmt 0 discriminator 3
 447 02f0 233424FD 		sd	s2,-56(s0)
 113:test/ConsumerProducer_C_API_test.cpp ****     data[threadNum].wait = waitForAll;
 448              		.loc 1 113 5 is_stmt 1 discriminator 3
 449              		.loc 1 113 26 is_stmt 0 discriminator 3
 450 02f4 97070000 		ld	a5,.LANCHOR0+8
 450      83B70700 
 451 02fc 2338F4FC 		sd	a5,-48(s0)
 114:test/ConsumerProducer_C_API_test.cpp ****     thread_create(&consumerThread, consumer, data + threadNum);
 452              		.loc 1 114 5 is_stmt 1 discriminator 3
 453              		.loc 1 114 18 is_stmt 0 discriminator 3
 454 0300 130604FC 		addi	a2,s0,-64
 455 0304 97050000 		lla	a1,_Z8consumerPv
GAS LISTING /tmp/cc4xyHGa.s 			page 13


 455      93850500 
 456 030c 130584FD 		addi	a0,s0,-40
 457 0310 97000000 		call	thread_create@plt
 457      E7800000 
 458              	.LVL51:
 459              	.LBB4:
 115:test/ConsumerProducer_C_API_test.cpp **** 
 116:test/ConsumerProducer_C_API_test.cpp ****     for (int i = 0; i < threadNum; i++) {
 460              		.loc 1 116 14 discriminator 3
 461 0318 93040000 		li	s1,0
 462              	.L24:
 463              	.LVL52:
 464              		.loc 1 116 23 is_stmt 1 discriminator 1
 465 031c 93074000 		li	a5,4
 466 0320 63C09706 		bgt	s1,a5,.L23
 117:test/ConsumerProducer_C_API_test.cpp ****         data[i].id = i;
 467              		.loc 1 117 9
 468              		.loc 1 117 20 is_stmt 0
 469 0324 13961400 		slli	a2,s1,1
 470 0328 B3079600 		add	a5,a2,s1
 471 032c 93973700 		slli	a5,a5,3
 472 0330 130704FE 		addi	a4,s0,-32
 473 0334 B307F700 		add	a5,a4,a5
 474 0338 23A497F6 		sw	s1,-152(a5)
 118:test/ConsumerProducer_C_API_test.cpp ****         data[i].buffer = buffer;
 475              		.loc 1 118 9 is_stmt 1
 476              		.loc 1 118 24 is_stmt 0
 477 033c 23B827F7 		sd	s2,-144(a5)
 119:test/ConsumerProducer_C_API_test.cpp ****         data[i].wait = waitForAll;
 478              		.loc 1 119 9 is_stmt 1
 479              		.loc 1 119 22 is_stmt 0
 480 0340 17070000 		ld	a4,.LANCHOR0+8
 480      03370700 
 481 0348 23BCE7F6 		sd	a4,-136(a5)
 120:test/ConsumerProducer_C_API_test.cpp **** 
 121:test/ConsumerProducer_C_API_test.cpp ****         //todo changed
 122:test/ConsumerProducer_C_API_test.cpp ****         //thread_create(threads + i,
 123:test/ConsumerProducer_C_API_test.cpp ****         //              i > 0 ? producer : producerKeyboard,
 124:test/ConsumerProducer_C_API_test.cpp ****         //              data + i);
 125:test/ConsumerProducer_C_API_test.cpp **** 
 126:test/ConsumerProducer_C_API_test.cpp ****         thread_create(threads + i, producer, data + i);
 482              		.loc 1 126 9 is_stmt 1
 483              		.loc 1 126 31 is_stmt 0
 484 034c 93973400 		slli	a5,s1,3
 485              		.loc 1 126 51
 486 0350 33069600 		add	a2,a2,s1
 487 0354 13163600 		slli	a2,a2,3
 488              		.loc 1 126 22
 489 0358 130784F4 		addi	a4,s0,-184
 490              	.LVL53:
 491 035c 3306C700 		add	a2,a4,a2
 492 0360 97050000 		lla	a1,_Z8producerPv
 492      93850500 
 493 0368 130504F2 		addi	a0,s0,-224
 494              	.LVL54:
 495 036c 3305F500 		add	a0,a0,a5
 496              	.LVL55:
GAS LISTING /tmp/cc4xyHGa.s 			page 14


 497 0370 97000000 		call	thread_create@plt
 497      E7800000 
 498              	.LVL56:
 116:test/ConsumerProducer_C_API_test.cpp ****         data[i].id = i;
 499              		.loc 1 116 5 is_stmt 1
 500 0378 9B841400 		addiw	s1,s1,1
 501              	.LVL57:
 502 037c 6FF01FFA 		j	.L24
 503              	.LVL58:
 504              	.L23:
 505              	.LBE4:
 127:test/ConsumerProducer_C_API_test.cpp **** 
 128:test/ConsumerProducer_C_API_test.cpp ****     }
 129:test/ConsumerProducer_C_API_test.cpp **** 
 130:test/ConsumerProducer_C_API_test.cpp ****     thread_dispatch();
 506              		.loc 1 130 5
 507              		.loc 1 130 20 is_stmt 0
 508 0380 97000000 		call	thread_dispatch@plt
 508      E7800000 
 509              	.LVL59:
 510              	.LBB5:
 131:test/ConsumerProducer_C_API_test.cpp **** 
 132:test/ConsumerProducer_C_API_test.cpp ****     for (int i = 0; i <= threadNum; i++) {
 511              		.loc 1 132 14
 512 0388 93040000 		li	s1,0
 513              	.LVL60:
 514              	.L26:
 515              		.loc 1 132 23 is_stmt 1 discriminator 1
 516 038c 93075000 		li	a5,5
 517 0390 63CE9700 		bgt	s1,a5,.L25
 133:test/ConsumerProducer_C_API_test.cpp ****         sem_wait(waitForAll);
 518              		.loc 1 133 9
 519              		.loc 1 133 17 is_stmt 0
 520 0394 17050000 		ld	a0,.LANCHOR0+8
 520      03350500 
 521 039c 97000000 		call	sem_wait@plt
 521      E7800000 
 522              	.LVL61:
 132:test/ConsumerProducer_C_API_test.cpp ****         sem_wait(waitForAll);
 523              		.loc 1 132 5 is_stmt 1
 524 03a4 9B841400 		addiw	s1,s1,1
 525              	.LVL62:
 526 03a8 6FF05FFE 		j	.L26
 527              	.LVL63:
 528              	.L25:
 529              	.LBE5:
 134:test/ConsumerProducer_C_API_test.cpp ****     }
 135:test/ConsumerProducer_C_API_test.cpp **** 
 136:test/ConsumerProducer_C_API_test.cpp ****     sem_close(waitForAll);
 530              		.loc 1 136 5
 531              		.loc 1 136 14 is_stmt 0
 532 03ac 17050000 		ld	a0,.LANCHOR0+8
 532      03350500 
 533 03b4 97000000 		call	sem_close@plt
 533      E7800000 
 534              	.LVL64:
 137:test/ConsumerProducer_C_API_test.cpp **** }...
GAS LISTING /tmp/cc4xyHGa.s 			page 15


 535              		.loc 1 137 1
 536 03bc 8330810D 		ld	ra,216(sp)
 537              		.cfi_remember_state
 538              		.cfi_restore 1
 539 03c0 0334010D 		ld	s0,208(sp)
 540              		.cfi_restore 8
 541              		.cfi_def_cfa 2, 224
 542              	.LVL65:
 543 03c4 8334810C 		ld	s1,200(sp)
 544              		.cfi_restore 9
 545              	.LVL66:
 546 03c8 0339010C 		ld	s2,192(sp)
 547              		.cfi_restore 18
 548              	.LVL67:
 549 03cc 1301010E 		addi	sp,sp,224
 550              		.cfi_def_cfa_offset 0
 551              	.LVL68:
 552 03d0 67800000 		jr	ra
 553              	.LVL69:
 554              	.L28:
 555              		.cfi_restore_state
 556 03d4 93040500 		mv	s1,a0
 102:test/ConsumerProducer_C_API_test.cpp ****     Buffer *buffer = new Buffer(n);
 557              		.loc 1 102 34
 558 03d8 13050900 		mv	a0,s2
 559 03dc 97000000 		call	_ZdlPv@plt
 559      E7800000 
 560              	.LVL70:
 561 03e4 13850400 		mv	a0,s1
 562 03e8 97000000 		call	_Unwind_Resume@plt
 562      E7800000 
 563              	.LVL71:
 564              	.LEHE2:
 565              		.cfi_endproc
 566              	.LFE21:
 567              		.globl	__gxx_personality_v0
 568              		.section	.gcc_except_table,"a",@progbits
 569              	.LLSDA21:
 570 0000 FF       		.byte	0xff
 571 0001 FF       		.byte	0xff
 572 0002 03       		.byte	0x3
 573 0003 27       		.byte	0x27
 574 0004 00000000 		.4byte	.LEHB0-.LFB21
 575 0008 00000000 		.4byte	.LEHE0-.LEHB0
 576 000c 00000000 		.4byte	0
 577 0010 00       		.byte	0
 578 0011 00000000 		.4byte	.LEHB1-.LFB21
 579 0015 00000000 		.4byte	.LEHE1-.LEHB1
 580 0019 00000000 		.4byte	.L28-.LFB21
 581 001d 00       		.byte	0
 582 001e 00000000 		.4byte	.LEHB2-.LFB21
 583 0022 00000000 		.4byte	.LEHE2-.LEHB2
 584 0026 00000000 		.4byte	0
 585 002a 00       		.byte	0
 586              		.text
 588              		.globl	threadEnd
 589              		.globl	waitForAll
GAS LISTING /tmp/cc4xyHGa.s 			page 16


 590              		.bss
 591              		.align	3
 592              		.set	.LANCHOR0,. + 0
 595              	threadEnd:
 596 0000 00000000 		.zero	4
 597 0004 00000000 		.zero	4
 600              	waitForAll:
 601 0008 00000000 		.zero	8
 601      00000000 
 602              		.text
 603              	.Letext0:
 604              		.file 2 "test/../h/../lib/hw.h"
 605              		.file 3 "test/../h/syscall_c.h"
 606              		.file 4 "test/buffer.hpp"
 607              		.file 5 "test/../h/Riscv.hpp"
 608              		.file 6 "test/printing.hpp"
 609              		.file 7 "test/../lib/console.h"
 3096              		.align	3
 3099              	DW.ref.__gxx_personality_v0:
 3100 0000 00000000 		.dword	__gxx_personality_v0
 3100      00000000 
 3101              		.ident	"GCC: (Ubuntu 9.3.0-17ubuntu1~20.04) 9.3.0"
 3102              		.section	.note.GNU-stack,"",@progbits
GAS LISTING /tmp/cc4xyHGa.s 			page 17


DEFINED SYMBOLS
                            *ABS*:0000000000000000 ConsumerProducer_C_API_test.cpp
     /tmp/cc4xyHGa.s:14     .text:0000000000000000 _Z8producerPv
     /tmp/cc4xyHGa.s:18     .text:0000000000000000 .L0 
     /tmp/cc4xyHGa.s:20     .text:0000000000000000 .L0 
     /tmp/cc4xyHGa.s:21     .text:0000000000000004 .L0 
     /tmp/cc4xyHGa.s:26     .text:0000000000000014 .L0 
     /tmp/cc4xyHGa.s:27     .text:0000000000000014 .L0 
     /tmp/cc4xyHGa.s:28     .text:0000000000000014 .L0 
     /tmp/cc4xyHGa.s:29     .text:0000000000000014 .L0 
     /tmp/cc4xyHGa.s:31     .text:0000000000000018 .L0 
     /tmp/cc4xyHGa.s:35     .text:000000000000001c .L0 
     /tmp/cc4xyHGa.s:36     .text:000000000000001c .L0 
     /tmp/cc4xyHGa.s:37     .text:000000000000001c .L0 
     /tmp/cc4xyHGa.s:42     .text:000000000000002c .L0 
     /tmp/cc4xyHGa.s:43     .text:000000000000002c .L0 
     /tmp/cc4xyHGa.s:48     .text:0000000000000034 .L0 
     /tmp/cc4xyHGa.s:49     .text:0000000000000034 .L0 
     /tmp/cc4xyHGa.s:53     .text:000000000000003c .L0 
     /tmp/cc4xyHGa.s:54     .text:000000000000003c .L0 
     /tmp/cc4xyHGa.s:57     .text:0000000000000048 .L0 
     /tmp/cc4xyHGa.s:58     .text:0000000000000048 .L0 
     /tmp/cc4xyHGa.s:60     .text:000000000000004c .L0 
     /tmp/cc4xyHGa.s:65     .text:000000000000005c .L0 
     /tmp/cc4xyHGa.s:66     .text:000000000000005c .L0 
     /tmp/cc4xyHGa.s:70     .text:0000000000000064 .L0 
     /tmp/cc4xyHGa.s:71     .text:0000000000000064 .L0 
     /tmp/cc4xyHGa.s:73     .text:0000000000000068 .L0 
     /tmp/cc4xyHGa.s:77     .text:0000000000000074 .L0 
     /tmp/cc4xyHGa.s:79     .text:0000000000000078 .L0 
     /tmp/cc4xyHGa.s:84     .text:0000000000000080 .L0 
     /tmp/cc4xyHGa.s:85     .text:0000000000000080 .L0 
     /tmp/cc4xyHGa.s:89     .text:000000000000008c .L0 
     /tmp/cc4xyHGa.s:90     .text:0000000000000090 .L0 
     /tmp/cc4xyHGa.s:92     .text:0000000000000094 .L0 
     /tmp/cc4xyHGa.s:93     .text:0000000000000094 .L0 
     /tmp/cc4xyHGa.s:95     .text:0000000000000098 .L0 
     /tmp/cc4xyHGa.s:98     .text:000000000000009c .L0 
     /tmp/cc4xyHGa.s:101    .text:00000000000000a0 .L0 
     /tmp/cc4xyHGa.s:103    .text:00000000000000a4 .L0 
     /tmp/cc4xyHGa.s:114    .text:00000000000000a4 _Z8consumerPv
     /tmp/cc4xyHGa.s:117    .text:00000000000000a4 .L0 
     /tmp/cc4xyHGa.s:119    .text:00000000000000a4 .L0 
     /tmp/cc4xyHGa.s:120    .text:00000000000000a8 .L0 
     /tmp/cc4xyHGa.s:126    .text:00000000000000bc .L0 
     /tmp/cc4xyHGa.s:127    .text:00000000000000bc .L0 
     /tmp/cc4xyHGa.s:128    .text:00000000000000bc .L0 
     /tmp/cc4xyHGa.s:129    .text:00000000000000bc .L0 
     /tmp/cc4xyHGa.s:130    .text:00000000000000bc .L0 
     /tmp/cc4xyHGa.s:132    .text:00000000000000c0 .L0 
     /tmp/cc4xyHGa.s:136    .text:00000000000000c4 .L0 
     /tmp/cc4xyHGa.s:137    .text:00000000000000c4 .L0 
     /tmp/cc4xyHGa.s:138    .text:00000000000000c4 .L0 
     /tmp/cc4xyHGa.s:143    .text:00000000000000d4 .L0 
     /tmp/cc4xyHGa.s:144    .text:00000000000000d4 .L0 
     /tmp/cc4xyHGa.s:150    .text:00000000000000dc .L0 
     /tmp/cc4xyHGa.s:151    .text:00000000000000dc .L0 
GAS LISTING /tmp/cc4xyHGa.s 			page 18


     /tmp/cc4xyHGa.s:157    .text:00000000000000e8 .L0 
     /tmp/cc4xyHGa.s:158    .text:00000000000000e8 .L0 
     /tmp/cc4xyHGa.s:164    .text:00000000000000f4 .L0 
     /tmp/cc4xyHGa.s:165    .text:00000000000000f4 .L0 
     /tmp/cc4xyHGa.s:169    .text:0000000000000100 .L0 
     /tmp/cc4xyHGa.s:170    .text:0000000000000100 .L0 
     /tmp/cc4xyHGa.s:174    .text:000000000000010c .L0 
     /tmp/cc4xyHGa.s:175    .text:000000000000010c .L0 
     /tmp/cc4xyHGa.s:179    .text:0000000000000114 .L0 
     /tmp/cc4xyHGa.s:180    .text:0000000000000114 .L0 
     /tmp/cc4xyHGa.s:183    .text:000000000000011c .L0 
     /tmp/cc4xyHGa.s:184    .text:000000000000011c .L0 
     /tmp/cc4xyHGa.s:186    .text:0000000000000120 .L0 
     /tmp/cc4xyHGa.s:189    .text:0000000000000128 .L0 
     /tmp/cc4xyHGa.s:191    .text:000000000000012c .L0 
     /tmp/cc4xyHGa.s:194    .text:0000000000000130 .L0 
     /tmp/cc4xyHGa.s:195    .text:0000000000000130 .L0 
     /tmp/cc4xyHGa.s:199    .text:0000000000000138 .L0 
     /tmp/cc4xyHGa.s:204    .text:0000000000000140 .L0 
     /tmp/cc4xyHGa.s:205    .text:0000000000000140 .L0 
     /tmp/cc4xyHGa.s:209    .text:000000000000014c .L0 
     /tmp/cc4xyHGa.s:210    .text:0000000000000150 .L0 
     /tmp/cc4xyHGa.s:212    .text:0000000000000154 .L0 
     /tmp/cc4xyHGa.s:213    .text:0000000000000154 .L0 
     /tmp/cc4xyHGa.s:215    .text:0000000000000158 .L0 
     /tmp/cc4xyHGa.s:217    .text:000000000000015c .L0 
     /tmp/cc4xyHGa.s:220    .text:0000000000000160 .L0 
     /tmp/cc4xyHGa.s:223    .text:0000000000000164 .L0 
     /tmp/cc4xyHGa.s:225    .text:0000000000000168 .L0 
     /tmp/cc4xyHGa.s:231    .text:0000000000000168 _Z16producerKeyboardPv
     /tmp/cc4xyHGa.s:234    .text:0000000000000168 .L0 
     /tmp/cc4xyHGa.s:236    .text:0000000000000168 .L0 
     /tmp/cc4xyHGa.s:237    .text:000000000000016c .L0 
     /tmp/cc4xyHGa.s:242    .text:000000000000017c .L0 
     /tmp/cc4xyHGa.s:243    .text:000000000000017c .L0 
     /tmp/cc4xyHGa.s:244    .text:000000000000017c .L0 
     /tmp/cc4xyHGa.s:245    .text:000000000000017c .L0 
     /tmp/cc4xyHGa.s:247    .text:0000000000000180 .L0 
     /tmp/cc4xyHGa.s:251    .text:0000000000000184 .L0 
     /tmp/cc4xyHGa.s:252    .text:0000000000000184 .L0 
     /tmp/cc4xyHGa.s:253    .text:0000000000000184 .L0 
     /tmp/cc4xyHGa.s:254    .text:0000000000000184 .L0 
     /tmp/cc4xyHGa.s:259    .text:000000000000018c .L0 
     /tmp/cc4xyHGa.s:260    .text:000000000000018c .L0 
     /tmp/cc4xyHGa.s:264    .text:0000000000000194 .L0 
     /tmp/cc4xyHGa.s:265    .text:0000000000000194 .L0 
     /tmp/cc4xyHGa.s:266    .text:0000000000000194 .L0 
     /tmp/cc4xyHGa.s:269    .text:000000000000019c .L0 
     /tmp/cc4xyHGa.s:272    .text:00000000000001a0 .L0 
     /tmp/cc4xyHGa.s:275    .text:00000000000001a8 .L0 
     /tmp/cc4xyHGa.s:276    .text:00000000000001a8 .L0 
     /tmp/cc4xyHGa.s:280    .text:00000000000001b4 .L0 
     /tmp/cc4xyHGa.s:281    .text:00000000000001b4 .L0 
     /tmp/cc4xyHGa.s:285    .text:00000000000001bc .L0 
     /tmp/cc4xyHGa.s:286    .text:00000000000001bc .L0 
     /tmp/cc4xyHGa.s:288    .text:00000000000001c0 .L0 
     /tmp/cc4xyHGa.s:292    .text:00000000000001cc .L0 
GAS LISTING /tmp/cc4xyHGa.s 			page 19


     /tmp/cc4xyHGa.s:294    .text:00000000000001d0 .L0 
     /tmp/cc4xyHGa.s:299    .text:00000000000001d8 .L0 
     /tmp/cc4xyHGa.s:300    .text:00000000000001d8 .L0 
     /tmp/cc4xyHGa.s:303    .text:00000000000001e4 .L0 
     /tmp/cc4xyHGa.s:304    .text:00000000000001e4 .L0 
     /tmp/cc4xyHGa.s:307    .text:00000000000001e8 .L0 
     /tmp/cc4xyHGa.s:309    .text:00000000000001ec .L0 
     /tmp/cc4xyHGa.s:317    .text:0000000000000204 .L0 
     /tmp/cc4xyHGa.s:318    .text:0000000000000204 .L0 
     /tmp/cc4xyHGa.s:322    .text:0000000000000210 .L0 
     /tmp/cc4xyHGa.s:323    .text:0000000000000214 .L0 
     /tmp/cc4xyHGa.s:325    .text:0000000000000218 .L0 
     /tmp/cc4xyHGa.s:326    .text:0000000000000218 .L0 
     /tmp/cc4xyHGa.s:328    .text:000000000000021c .L0 
     /tmp/cc4xyHGa.s:331    .text:0000000000000220 .L0 
     /tmp/cc4xyHGa.s:333    .text:0000000000000224 .L0 
     /tmp/cc4xyHGa.s:335    .text:0000000000000228 .L0 
     /tmp/cc4xyHGa.s:358    .text:0000000000000228 _Z22producerConsumer_C_APIv
     /tmp/cc4xyHGa.s:361    .text:0000000000000228 .L0 
     /tmp/cc4xyHGa.s:3099   .data.rel.local.DW.ref.__gxx_personality_v0:0000000000000000 DW.ref.__gxx_personality_v0
     /tmp/cc4xyHGa.s:364    .text:0000000000000228 .L0 
     /tmp/cc4xyHGa.s:365    .text:000000000000022c .L0 
     /tmp/cc4xyHGa.s:370    .text:000000000000023c .L0 
     /tmp/cc4xyHGa.s:371    .text:000000000000023c .L0 
     /tmp/cc4xyHGa.s:372    .text:000000000000023c .L0 
     /tmp/cc4xyHGa.s:373    .text:000000000000023c .L0 
     /tmp/cc4xyHGa.s:375    .text:0000000000000240 .L0 
     /tmp/cc4xyHGa.s:377    .text:0000000000000240 .L0 
     /tmp/cc4xyHGa.s:378    .text:0000000000000240 .L0 
     /tmp/cc4xyHGa.s:379    .text:0000000000000240 .L0 
     /tmp/cc4xyHGa.s:384    .text:0000000000000250 .L0 
     /tmp/cc4xyHGa.s:385    .text:0000000000000250 .L0 
     /tmp/cc4xyHGa.s:386    .text:0000000000000250 .L0 
     /tmp/cc4xyHGa.s:390    .text:0000000000000260 .L0 
     /tmp/cc4xyHGa.s:391    .text:0000000000000260 .L0 
     /tmp/cc4xyHGa.s:392    .text:0000000000000260 .L0 
     /tmp/cc4xyHGa.s:396    .text:0000000000000270 .L0 
     /tmp/cc4xyHGa.s:397    .text:0000000000000270 .L0 
     /tmp/cc4xyHGa.s:403    .text:0000000000000284 .L0 
     /tmp/cc4xyHGa.s:404    .text:0000000000000284 .L0 
     /tmp/cc4xyHGa.s:408    .text:0000000000000294 .L0 
     /tmp/cc4xyHGa.s:409    .text:0000000000000294 .L0 
     /tmp/cc4xyHGa.s:415    .text:00000000000002a8 .L0 
     /tmp/cc4xyHGa.s:416    .text:00000000000002a8 .L0 
     /tmp/cc4xyHGa.s:420    .text:00000000000002b8 .L0 
     /tmp/cc4xyHGa.s:421    .text:00000000000002b8 .L0 
     /tmp/cc4xyHGa.s:432    .text:00000000000002d4 .L0 
     /tmp/cc4xyHGa.s:433    .text:00000000000002d4 .L0 
     /tmp/cc4xyHGa.s:439    .text:00000000000002e8 .L0 
     /tmp/cc4xyHGa.s:440    .text:00000000000002e8 .L0 
     /tmp/cc4xyHGa.s:441    .text:00000000000002e8 .L0 
     /tmp/cc4xyHGa.s:442    .text:00000000000002e8 .L0 
     /tmp/cc4xyHGa.s:443    .text:00000000000002e8 .L0 
     /tmp/cc4xyHGa.s:446    .text:00000000000002f0 .L0 
     /tmp/cc4xyHGa.s:447    .text:00000000000002f0 .L0 
     /tmp/cc4xyHGa.s:449    .text:00000000000002f4 .L0 
     /tmp/cc4xyHGa.s:450    .text:00000000000002f4 .L0 
GAS LISTING /tmp/cc4xyHGa.s 			page 20


     /tmp/cc4xyHGa.s:453    .text:0000000000000300 .L0 
     /tmp/cc4xyHGa.s:454    .text:0000000000000300 .L0 
     /tmp/cc4xyHGa.s:461    .text:0000000000000318 .L0 
     /tmp/cc4xyHGa.s:465    .text:000000000000031c .L0 
     /tmp/cc4xyHGa.s:468    .text:0000000000000324 .L0 
     /tmp/cc4xyHGa.s:469    .text:0000000000000324 .L0 
     /tmp/cc4xyHGa.s:476    .text:000000000000033c .L0 
     /tmp/cc4xyHGa.s:477    .text:000000000000033c .L0 
     /tmp/cc4xyHGa.s:479    .text:0000000000000340 .L0 
     /tmp/cc4xyHGa.s:480    .text:0000000000000340 .L0 
     /tmp/cc4xyHGa.s:483    .text:000000000000034c .L0 
     /tmp/cc4xyHGa.s:484    .text:000000000000034c .L0 
     /tmp/cc4xyHGa.s:486    .text:0000000000000350 .L0 
     /tmp/cc4xyHGa.s:489    .text:0000000000000358 .L0 
     /tmp/cc4xyHGa.s:500    .text:0000000000000378 .L0 
     /tmp/cc4xyHGa.s:507    .text:0000000000000380 .L0 
     /tmp/cc4xyHGa.s:508    .text:0000000000000380 .L0 
     /tmp/cc4xyHGa.s:512    .text:0000000000000388 .L0 
     /tmp/cc4xyHGa.s:516    .text:000000000000038c .L0 
     /tmp/cc4xyHGa.s:519    .text:0000000000000394 .L0 
     /tmp/cc4xyHGa.s:520    .text:0000000000000394 .L0 
     /tmp/cc4xyHGa.s:524    .text:00000000000003a4 .L0 
     /tmp/cc4xyHGa.s:531    .text:00000000000003ac .L0 
     /tmp/cc4xyHGa.s:532    .text:00000000000003ac .L0 
     /tmp/cc4xyHGa.s:536    .text:00000000000003bc .L0 
     /tmp/cc4xyHGa.s:537    .text:00000000000003c0 .L0 
     /tmp/cc4xyHGa.s:538    .text:00000000000003c0 .L0 
     /tmp/cc4xyHGa.s:540    .text:00000000000003c4 .L0 
     /tmp/cc4xyHGa.s:541    .text:00000000000003c4 .L0 
     /tmp/cc4xyHGa.s:544    .text:00000000000003c8 .L0 
     /tmp/cc4xyHGa.s:547    .text:00000000000003cc .L0 
     /tmp/cc4xyHGa.s:550    .text:00000000000003d0 .L0 
     /tmp/cc4xyHGa.s:555    .text:00000000000003d4 .L0 
     /tmp/cc4xyHGa.s:558    .text:00000000000003d8 .L0 
     /tmp/cc4xyHGa.s:565    .text:00000000000003f0 .L0 
     /tmp/cc4xyHGa.s:595    .bss:0000000000000000 threadEnd
     /tmp/cc4xyHGa.s:600    .bss:0000000000000008 waitForAll
     /tmp/cc4xyHGa.s:592    .bss:0000000000000000 .LANCHOR0
     /tmp/cc4xyHGa.s:610    .text:00000000000003f0 .L0 
     /tmp/cc4xyHGa.s:8      .rodata.str1.8:0000000000000000 .LC0
     /tmp/cc4xyHGa.s:37     .text:000000000000001c .L0 
     /tmp/cc4xyHGa.s:54     .text:000000000000003c .L0 
     /tmp/cc4xyHGa.s:108    .rodata.str1.8:0000000000000018 .LC1
     /tmp/cc4xyHGa.s:138    .text:00000000000000c4 .L0 
     /tmp/cc4xyHGa.s:165    .text:00000000000000f4 .L0 
     /tmp/cc4xyHGa.s:301    .text:00000000000001dc .L0 
     /tmp/cc4xyHGa.s:340    .rodata.str1.8:0000000000000030 .LC2
     /tmp/cc4xyHGa.s:379    .text:0000000000000240 .L0 
     /tmp/cc4xyHGa.s:343    .rodata.str1.8:0000000000000050 .LC3
     /tmp/cc4xyHGa.s:386    .text:0000000000000250 .L0 
     /tmp/cc4xyHGa.s:346    .rodata.str1.8:0000000000000070 .LC4
     /tmp/cc4xyHGa.s:392    .text:0000000000000260 .L0 
     /tmp/cc4xyHGa.s:349    .rodata.str1.8:0000000000000088 .LC5
     /tmp/cc4xyHGa.s:404    .text:0000000000000284 .L0 
     /tmp/cc4xyHGa.s:352    .rodata.str1.8:00000000000000a0 .LC6
     /tmp/cc4xyHGa.s:416    .text:00000000000002a8 .L0 
     /tmp/cc4xyHGa.s:434    .text:00000000000002d8 .L0 
GAS LISTING /tmp/cc4xyHGa.s 			page 21


     /tmp/cc4xyHGa.s:450    .text:00000000000002f4 .L0 
     /tmp/cc4xyHGa.s:455    .text:0000000000000304 .L0 
     /tmp/cc4xyHGa.s:480    .text:0000000000000340 .L0 
     /tmp/cc4xyHGa.s:492    .text:0000000000000360 .L0 
     /tmp/cc4xyHGa.s:520    .text:0000000000000394 .L0 
     /tmp/cc4xyHGa.s:532    .text:00000000000003ac .L0 
     /tmp/cc4xyHGa.s:51     .text:000000000000003c .L2
     /tmp/cc4xyHGa.s:82     .text:0000000000000080 .L3
     /tmp/cc4xyHGa.s:46     .text:0000000000000034 .L6
     /tmp/cc4xyHGa.s:161    .text:00000000000000f4 .L8
     /tmp/cc4xyHGa.s:192    .text:0000000000000130 .L10
     /tmp/cc4xyHGa.s:201    .text:0000000000000140 .L9
     /tmp/cc4xyHGa.s:147    .text:00000000000000dc .L13
     /tmp/cc4xyHGa.s:155    .text:00000000000000e8 .L14
     /tmp/cc4xyHGa.s:262    .text:0000000000000194 .L16
     /tmp/cc4xyHGa.s:297    .text:00000000000001d8 .L17
     /tmp/cc4xyHGa.s:257    .text:000000000000018c .L21
     /tmp/cc4xyHGa.s:315    .text:0000000000000204 .L19
     /tmp/cc4xyHGa.s:504    .text:0000000000000380 .L23
     /tmp/cc4xyHGa.s:462    .text:000000000000031c .L24
     /tmp/cc4xyHGa.s:528    .text:00000000000003ac .L25
     /tmp/cc4xyHGa.s:514    .text:000000000000038c .L26
     /tmp/cc4xyHGa.s:380    .text:0000000000000248 .LEHB0
     /tmp/cc4xyHGa.s:359    .text:0000000000000228 .LFB21
     /tmp/cc4xyHGa.s:424    .text:00000000000002c4 .LEHE0
     /tmp/cc4xyHGa.s:427    .text:00000000000002cc .LEHB1
     /tmp/cc4xyHGa.s:430    .text:00000000000002d4 .LEHE1
     /tmp/cc4xyHGa.s:554    .text:00000000000003d4 .L28
     /tmp/cc4xyHGa.s:435    .text:00000000000002e0 .LEHB2
     /tmp/cc4xyHGa.s:564    .text:00000000000003f0 .LEHE2
     /tmp/cc4xyHGa.s:1858   .debug_abbrev:0000000000000000 .Ldebug_abbrev0
     /tmp/cc4xyHGa.s:2903   .debug_str:0000000000000252 .LASF129
     /tmp/cc4xyHGa.s:2961   .debug_str:00000000000004c8 .LASF130
     /tmp/cc4xyHGa.s:2873   .debug_str:0000000000000162 .LASF131
     /tmp/cc4xyHGa.s:5      .text:0000000000000000 .Ltext0
     /tmp/cc4xyHGa.s:603    .text:00000000000003f0 .Letext0
     /tmp/cc4xyHGa.s:2825   .debug_line:0000000000000000 .Ldebug_line0
     /tmp/cc4xyHGa.s:2975   .debug_str:000000000000054e .LASF0
     /tmp/cc4xyHGa.s:2991   .debug_str:00000000000005a3 .LASF1
     /tmp/cc4xyHGa.s:2959   .debug_str:00000000000004ba .LASF2
     /tmp/cc4xyHGa.s:2933   .debug_str:00000000000003e7 .LASF4
     /tmp/cc4xyHGa.s:3025   .debug_str:000000000000069c .LASF3
     /tmp/cc4xyHGa.s:2849   .debug_str:0000000000000092 .LASF5
     /tmp/cc4xyHGa.s:2997   .debug_str:00000000000005d4 .LASF6
     /tmp/cc4xyHGa.s:2973   .debug_str:000000000000053b .LASF7
     /tmp/cc4xyHGa.s:3059   .debug_str:0000000000000788 .LASF8
     /tmp/cc4xyHGa.s:2917   .debug_str:000000000000034c .LASF9
     /tmp/cc4xyHGa.s:3007   .debug_str:0000000000000615 .LASF10
     /tmp/cc4xyHGa.s:3045   .debug_str:0000000000000729 .LASF11
     /tmp/cc4xyHGa.s:2855   .debug_str:00000000000000bf .LASF12
     /tmp/cc4xyHGa.s:2833   .debug_str:000000000000002b .LASF13
     /tmp/cc4xyHGa.s:2867   .debug_str:0000000000000135 .LASF14
     /tmp/cc4xyHGa.s:3019   .debug_str:000000000000065d .LASF15
     /tmp/cc4xyHGa.s:2875   .debug_str:0000000000000185 .LASF16
     /tmp/cc4xyHGa.s:2827   .debug_str:0000000000000000 .LASF17
     /tmp/cc4xyHGa.s:2893   .debug_str:0000000000000218 .LASF18
     /tmp/cc4xyHGa.s:3077   .debug_str:00000000000007f7 .LASF26
GAS LISTING /tmp/cc4xyHGa.s 			page 22


     /tmp/cc4xyHGa.s:3017   .debug_str:0000000000000656 .LASF19
     /tmp/cc4xyHGa.s:2881   .debug_str:00000000000001bd .LASF20
     /tmp/cc4xyHGa.s:2957   .debug_str:00000000000004b5 .LASF21
     /tmp/cc4xyHGa.s:2891   .debug_str:0000000000000209 .LASF22
     /tmp/cc4xyHGa.s:2923   .debug_str:0000000000000384 .LASF23
     /tmp/cc4xyHGa.s:2953   .debug_str:000000000000048d .LASF24
     /tmp/cc4xyHGa.s:2981   .debug_str:0000000000000579 .LASF25
     /tmp/cc4xyHGa.s:2907   .debug_str:000000000000030b .LASF28
     /tmp/cc4xyHGa.s:2963   .debug_str:00000000000004ed .LASF27
     /tmp/cc4xyHGa.s:2995   .debug_str:00000000000005c5 .LASF29
     /tmp/cc4xyHGa.s:3089   .debug_str:0000000000000841 .LASF30
     /tmp/cc4xyHGa.s:3021   .debug_str:0000000000000673 .LASF31
     /tmp/cc4xyHGa.s:2987   .debug_str:0000000000000594 .LASF32
     /tmp/cc4xyHGa.s:2967   .debug_str:00000000000004ff .LASF33
     /tmp/cc4xyHGa.s:2909   .debug_str:000000000000031a .LASF35
     /tmp/cc4xyHGa.s:2983   .debug_str:0000000000000583 .LASF34
     /tmp/cc4xyHGa.s:2885   .debug_str:00000000000001d5 .LASF36
     /tmp/cc4xyHGa.s:2857   .debug_str:00000000000000cf .LASF37
     /tmp/cc4xyHGa.s:2955   .debug_str:0000000000000497 .LASF38
     /tmp/cc4xyHGa.s:2969   .debug_str:000000000000050a .LASF39
     /tmp/cc4xyHGa.s:2971   .debug_str:000000000000051c .LASF40
     /tmp/cc4xyHGa.s:2941   .debug_str:0000000000000411 .LASF41
     /tmp/cc4xyHGa.s:2859   .debug_str:00000000000000e0 .LASF43
     /tmp/cc4xyHGa.s:2905   .debug_str:00000000000002fe .LASF42
     /tmp/cc4xyHGa.s:2853   .debug_str:00000000000000a5 .LASF44
     /tmp/cc4xyHGa.s:2845   .debug_str:0000000000000072 .LASF45
     /tmp/cc4xyHGa.s:2839   .debug_str:000000000000004a .LASF46
     /tmp/cc4xyHGa.s:3035   .debug_str:00000000000006e5 .LASF47
     /tmp/cc4xyHGa.s:2831   .debug_str:0000000000000011 .LASF48
     /tmp/cc4xyHGa.s:2835   .debug_str:000000000000003b .LASF51
     /tmp/cc4xyHGa.s:3033   .debug_str:00000000000006d0 .LASF53
     /tmp/cc4xyHGa.s:2889   .debug_str:0000000000000200 .LASF49
     /tmp/cc4xyHGa.s:2887   .debug_str:00000000000001eb .LASF50
     /tmp/cc4xyHGa.s:3027   .debug_str:00000000000006ae .LASF52
     /tmp/cc4xyHGa.s:3009   .debug_str:0000000000000624 .LASF54
     /tmp/cc4xyHGa.s:3015   .debug_str:000000000000064f .LASF55
     /tmp/cc4xyHGa.s:3039   .debug_str:00000000000006fa .LASF56
     /tmp/cc4xyHGa.s:3073   .debug_str:00000000000007dc .LASF57
     /tmp/cc4xyHGa.s:2877   .debug_str:000000000000019b .LASF58
     /tmp/cc4xyHGa.s:2829   .debug_str:0000000000000009 .LASF59
     /tmp/cc4xyHGa.s:2925   .debug_str:0000000000000392 .LASF60
     /tmp/cc4xyHGa.s:2895   .debug_str:000000000000021e .LASF61
     /tmp/cc4xyHGa.s:2861   .debug_str:00000000000000fb .LASF62
     /tmp/cc4xyHGa.s:3087   .debug_str:0000000000000839 .LASF63
     /tmp/cc4xyHGa.s:2897   .debug_str:0000000000000226 .LASF64
     /tmp/cc4xyHGa.s:2977   .debug_str:000000000000055b .LASF65
     /tmp/cc4xyHGa.s:3075   .debug_str:00000000000007e4 .LASF66
     /tmp/cc4xyHGa.s:2843   .debug_str:000000000000006b .LASF67
     /tmp/cc4xyHGa.s:3047   .debug_str:0000000000000738 .LASF68
     /tmp/cc4xyHGa.s:2913   .debug_str:000000000000033a .LASF69
     /tmp/cc4xyHGa.s:3041   .debug_str:000000000000070d .LASF70
     /tmp/cc4xyHGa.s:2841   .debug_str:0000000000000065 .LASF71
     /tmp/cc4xyHGa.s:3091   .debug_str:0000000000000852 .LASF72
     /tmp/cc4xyHGa.s:3085   .debug_str:000000000000082e .LASF73
     /tmp/cc4xyHGa.s:3023   .debug_str:0000000000000684 .LASF74
     /tmp/cc4xyHGa.s:2939   .debug_str:0000000000000406 .LASF75
     /tmp/cc4xyHGa.s:2949   .debug_str:0000000000000466 .LASF76
GAS LISTING /tmp/cc4xyHGa.s 			page 23


     /tmp/cc4xyHGa.s:2865   .debug_str:000000000000012b .LASF77
     /tmp/cc4xyHGa.s:2929   .debug_str:00000000000003b5 .LASF78
     /tmp/cc4xyHGa.s:2965   .debug_str:00000000000004f5 .LASF79
     /tmp/cc4xyHGa.s:2921   .debug_str:000000000000036e .LASF80
     /tmp/cc4xyHGa.s:3029   .debug_str:00000000000006b5 .LASF81
     /tmp/cc4xyHGa.s:3081   .debug_str:000000000000080d .LASF82
     /tmp/cc4xyHGa.s:2951   .debug_str:000000000000047e .LASF83
     /tmp/cc4xyHGa.s:2863   .debug_str:000000000000010f .LASF84
     /tmp/cc4xyHGa.s:3065   .debug_str:00000000000007ac .LASF85
     /tmp/cc4xyHGa.s:2943   .debug_str:000000000000041d .LASF86
     /tmp/cc4xyHGa.s:3067   .debug_str:00000000000007c1 .LASF87
     /tmp/cc4xyHGa.s:3037   .debug_str:00000000000006f2 .LASF88
     /tmp/cc4xyHGa.s:3003   .debug_str:00000000000005ff .LASF89
     /tmp/cc4xyHGa.s:2851   .debug_str:0000000000000099 .LASF90
     /tmp/cc4xyHGa.s:3011   .debug_str:0000000000000637 .LASF91
     /tmp/cc4xyHGa.s:2847   .debug_str:0000000000000080 .LASF92
     /tmp/cc4xyHGa.s:2999   .debug_str:00000000000005e7 .LASF93
     /tmp/cc4xyHGa.s:2901   .debug_str:000000000000023f .LASF94
     /tmp/cc4xyHGa.s:2919   .debug_str:000000000000035a .LASF95
     /tmp/cc4xyHGa.s:3001   .debug_str:00000000000005fa .LASF96
     /tmp/cc4xyHGa.s:3053   .debug_str:0000000000000765 .LASF97
     /tmp/cc4xyHGa.s:2915   .debug_str:0000000000000340 .LASF132
     /tmp/cc4xyHGa.s:2899   .debug_str:000000000000023a .LASF98
     /tmp/cc4xyHGa.s:2937   .debug_str:00000000000003fc .LASF99
     /tmp/cc4xyHGa.s:2979   .debug_str:0000000000000562 .LASF104
     /tmp/cc4xyHGa.s:2931   .debug_str:00000000000003cb .LASF106
     /tmp/cc4xyHGa.s:566    .text:00000000000003f0 .LFE21
     /tmp/cc4xyHGa.s:3043   .debug_str:000000000000071f .LASF100
     /tmp/cc4xyHGa.s:2526   .debug_loc:0000000000000000 .LLST13
     /tmp/cc4xyHGa.s:2911   .debug_str:0000000000000332 .LASF101
     /tmp/cc4xyHGa.s:2533   .debug_loc:0000000000000023 .LLST14
     /tmp/cc4xyHGa.s:3079   .debug_str:00000000000007fe .LASF102
     /tmp/cc4xyHGa.s:3013   .debug_str:000000000000064a .LASF103
     /tmp/cc4xyHGa.s:2556   .debug_loc:0000000000000084 .LLST15
     /tmp/cc4xyHGa.s:459    .text:0000000000000318 .LBB4
     /tmp/cc4xyHGa.s:505    .text:0000000000000380 .LBE4
     /tmp/cc4xyHGa.s:2584   .debug_loc:00000000000000fb .LLST16
     /tmp/cc4xyHGa.s:498    .text:0000000000000378 .LVL56
     /tmp/cc4xyHGa.s:510    .text:0000000000000388 .LBB5
     /tmp/cc4xyHGa.s:529    .text:00000000000003ac .LBE5
     /tmp/cc4xyHGa.s:2595   .debug_loc:0000000000000131 .LLST17
     /tmp/cc4xyHGa.s:522    .text:00000000000003a4 .LVL61
     /tmp/cc4xyHGa.s:382    .text:0000000000000250 .LVL41
     /tmp/cc4xyHGa.s:388    .text:0000000000000260 .LVL42
     /tmp/cc4xyHGa.s:394    .text:0000000000000270 .LVL43
     /tmp/cc4xyHGa.s:401    .text:0000000000000284 .LVL44
     /tmp/cc4xyHGa.s:406    .text:0000000000000294 .LVL45
     /tmp/cc4xyHGa.s:413    .text:00000000000002a8 .LVL46
     /tmp/cc4xyHGa.s:418    .text:00000000000002b8 .LVL47
     /tmp/cc4xyHGa.s:423    .text:00000000000002c4 .LVL48
     /tmp/cc4xyHGa.s:429    .text:00000000000002d4 .LVL49
     /tmp/cc4xyHGa.s:437    .text:00000000000002e8 .LVL50
     /tmp/cc4xyHGa.s:458    .text:0000000000000318 .LVL51
     /tmp/cc4xyHGa.s:509    .text:0000000000000388 .LVL59
     /tmp/cc4xyHGa.s:534    .text:00000000000003bc .LVL64
     /tmp/cc4xyHGa.s:560    .text:00000000000003e4 .LVL70
     /tmp/cc4xyHGa.s:563    .text:00000000000003f0 .LVL71
GAS LISTING /tmp/cc4xyHGa.s 			page 24


     /tmp/cc4xyHGa.s:3083   .debug_str:0000000000000825 .LASF105
     /tmp/cc4xyHGa.s:2935   .debug_str:00000000000003ee .LASF107
     /tmp/cc4xyHGa.s:115    .text:00000000000000a4 .LFB20
     /tmp/cc4xyHGa.s:226    .text:0000000000000168 .LFE20
     /tmp/cc4xyHGa.s:2606   .debug_loc:0000000000000167 .LLST3
     /tmp/cc4xyHGa.s:2624   .debug_loc:00000000000001b3 .LLST4
     /tmp/cc4xyHGa.s:2642   .debug_loc:00000000000001ff .LLST5
     /tmp/cc4xyHGa.s:2817   .debug_ranges:0000000000000000 .Ldebug_ranges0
     /tmp/cc4xyHGa.s:2666   .debug_loc:000000000000026f .LLST6
     /tmp/cc4xyHGa.s:152    .text:00000000000000e4 .LVL17
     /tmp/cc4xyHGa.s:160    .text:00000000000000f4 .LVL19
     /tmp/cc4xyHGa.s:172    .text:000000000000010c .LVL20
     /tmp/cc4xyHGa.s:181    .text:000000000000011c .LVL22
     /tmp/cc4xyHGa.s:141    .text:00000000000000d4 .LVL15
     /tmp/cc4xyHGa.s:207    .text:000000000000014c .LVL24
     /tmp/cc4xyHGa.s:2989   .debug_str:000000000000059a .LASF108
     /tmp/cc4xyHGa.s:3055   .debug_str:0000000000000770 .LASF109
     /tmp/cc4xyHGa.s:15     .text:0000000000000000 .LFB19
     /tmp/cc4xyHGa.s:104    .text:00000000000000a4 .LFE19
     /tmp/cc4xyHGa.s:2673   .debug_loc:0000000000000292 .LLST0
     /tmp/cc4xyHGa.s:2691   .debug_loc:00000000000002de .LLST1
     /tmp/cc4xyHGa.s:2709   .debug_loc:000000000000032a .LLST2
     /tmp/cc4xyHGa.s:40     .text:000000000000002c .LVL3
     /tmp/cc4xyHGa.s:50     .text:000000000000003c .LVL5
     /tmp/cc4xyHGa.s:63     .text:000000000000005c .LVL6
     /tmp/cc4xyHGa.s:87     .text:000000000000008c .LVL9
     /tmp/cc4xyHGa.s:3051   .debug_str:0000000000000754 .LASF110
     /tmp/cc4xyHGa.s:2945   .debug_str:000000000000043f .LASF111
     /tmp/cc4xyHGa.s:232    .text:0000000000000168 .LFB18
     /tmp/cc4xyHGa.s:336    .text:0000000000000228 .LFE18
     /tmp/cc4xyHGa.s:2733   .debug_loc:000000000000039a .LLST7
     /tmp/cc4xyHGa.s:2751   .debug_loc:00000000000003e6 .LLST8
     /tmp/cc4xyHGa.s:2769   .debug_loc:0000000000000432 .LLST9
     /tmp/cc4xyHGa.s:2780   .debug_loc:0000000000000468 .LLST10
     /tmp/cc4xyHGa.s:261    .text:0000000000000194 .LVL30
     /tmp/cc4xyHGa.s:267    .text:000000000000019c .LVL31
     /tmp/cc4xyHGa.s:278    .text:00000000000001b4 .LVL33
     /tmp/cc4xyHGa.s:311    .text:00000000000001f8 .LVL37
     /tmp/cc4xyHGa.s:314    .text:0000000000000204 .LVL38
     /tmp/cc4xyHGa.s:320    .text:0000000000000210 .LVL39
     /tmp/cc4xyHGa.s:2879   .debug_str:00000000000001af .LASF112
     /tmp/cc4xyHGa.s:2869   .debug_str:0000000000000141 .LASF113
     /tmp/cc4xyHGa.s:2883   .debug_str:00000000000001c2 .LASF114
     /tmp/cc4xyHGa.s:2993   .debug_str:00000000000005b6 .LASF115
     /tmp/cc4xyHGa.s:3049   .debug_str:000000000000074b .LASF116
     /tmp/cc4xyHGa.s:2837   .debug_str:0000000000000044 .LASF120
     /tmp/cc4xyHGa.s:3071   .debug_str:00000000000007cf .LASF122
     /tmp/cc4xyHGa.s:3063   .debug_str:00000000000007a3 .LASF117
     /tmp/cc4xyHGa.s:2947   .debug_str:0000000000000456 .LASF118
     /tmp/cc4xyHGa.s:3057   .debug_str:000000000000077e .LASF119
     /tmp/cc4xyHGa.s:2985   .debug_str:000000000000058d .LASF121
     /tmp/cc4xyHGa.s:3031   .debug_str:00000000000006c0 .LASF123
     /tmp/cc4xyHGa.s:2927   .debug_str:00000000000003a6 .LASF124
     /tmp/cc4xyHGa.s:2871   .debug_str:000000000000014a .LASF125
     /tmp/cc4xyHGa.s:3005   .debug_str:000000000000060e .LASF126
     /tmp/cc4xyHGa.s:3061   .debug_str:0000000000000798 .LASF127
     /tmp/cc4xyHGa.s:3069   .debug_str:00000000000007c8 .LASF128
GAS LISTING /tmp/cc4xyHGa.s 			page 25


     /tmp/cc4xyHGa.s:548    .text:00000000000003cc .LVL67
     /tmp/cc4xyHGa.s:494    .text:000000000000036c .LVL54
     /tmp/cc4xyHGa.s:496    .text:0000000000000370 .LVL55
     /tmp/cc4xyHGa.s:551    .text:00000000000003d0 .LVL68
     /tmp/cc4xyHGa.s:553    .text:00000000000003d4 .LVL69
     /tmp/cc4xyHGa.s:490    .text:000000000000035c .LVL53
     /tmp/cc4xyHGa.s:542    .text:00000000000003c4 .LVL65
     /tmp/cc4xyHGa.s:463    .text:000000000000031c .LVL52
     /tmp/cc4xyHGa.s:501    .text:000000000000037c .LVL57
     /tmp/cc4xyHGa.s:503    .text:0000000000000380 .LVL58
     /tmp/cc4xyHGa.s:513    .text:000000000000038c .LVL60
     /tmp/cc4xyHGa.s:525    .text:00000000000003a8 .LVL62
     /tmp/cc4xyHGa.s:527    .text:00000000000003ac .LVL63
     /tmp/cc4xyHGa.s:545    .text:00000000000003c8 .LVL66
     /tmp/cc4xyHGa.s:118    .text:00000000000000a4 .LVL12
     /tmp/cc4xyHGa.s:139    .text:00000000000000cc .LVL14
     /tmp/cc4xyHGa.s:218    .text:000000000000015c .LVL25
     /tmp/cc4xyHGa.s:135    .text:00000000000000c4 .LVL13
     /tmp/cc4xyHGa.s:146    .text:00000000000000dc .LVL16
     /tmp/cc4xyHGa.s:154    .text:00000000000000e8 .LVL18
     /tmp/cc4xyHGa.s:177    .text:0000000000000114 .LVL21
     /tmp/cc4xyHGa.s:197    .text:0000000000000138 .LVL23
     /tmp/cc4xyHGa.s:221    .text:0000000000000160 .LVL26
     /tmp/cc4xyHGa.s:19     .text:0000000000000000 .LVL0
     /tmp/cc4xyHGa.s:38     .text:0000000000000024 .LVL2
     /tmp/cc4xyHGa.s:96     .text:0000000000000098 .LVL10
     /tmp/cc4xyHGa.s:34     .text:000000000000001c .LVL1
     /tmp/cc4xyHGa.s:45     .text:0000000000000034 .LVL4
     /tmp/cc4xyHGa.s:68     .text:0000000000000064 .LVL7
     /tmp/cc4xyHGa.s:81     .text:0000000000000080 .LVL8
     /tmp/cc4xyHGa.s:99     .text:000000000000009c .LVL11
     /tmp/cc4xyHGa.s:235    .text:0000000000000168 .LVL27
     /tmp/cc4xyHGa.s:256    .text:000000000000018c .LVL29
     /tmp/cc4xyHGa.s:329    .text:000000000000021c .LVL40
     /tmp/cc4xyHGa.s:250    .text:0000000000000184 .LVL28
     /tmp/cc4xyHGa.s:270    .text:00000000000001a0 .LVL32
     /tmp/cc4xyHGa.s:296    .text:00000000000001d8 .LVL35
     /tmp/cc4xyHGa.s:283    .text:00000000000001bc .LVL34
     /tmp/cc4xyHGa.s:305    .text:00000000000001e8 .LVL36
     /tmp/cc4xyHGa.s:611    .debug_info:0000000000000000 .Ldebug_info0
     /tmp/cc4xyHGa.s:148    .text:00000000000000dc .LBB2
     /tmp/cc4xyHGa.s:162    .text:00000000000000f4 .LBE2
     /tmp/cc4xyHGa.s:167    .text:0000000000000100 .LBB3
     /tmp/cc4xyHGa.s:202    .text:0000000000000140 .LBE3
     /tmp/cc4xyHGa.s:569    .gcc_except_table:0000000000000000 .LLSDA21

UNDEFINED SYMBOLS
_ZN5Riscv11printStringEPKc
thread_dispatch
_ZN6Buffer3putEi
sem_signal
__putc
_ZN6Buffer3getEv
_ZN5Riscv12printIntegerEm
__getc
_ZN6BufferD1Ev
_ZdlPv
GAS LISTING /tmp/cc4xyHGa.s 			page 26


_Z11printStringPKc
_Z8printIntiii
_Znwm
_ZN6BufferC1Ei
sem_open
thread_create
sem_wait
sem_close
_Unwind_Resume
__gxx_personality_v0
