GAS LISTING /tmp/ccEv3HF5.s 			page 1


   1              		.file	"printing.cpp"
   2              		.option pic
   3              		.option norelax
   4              		.text
   5              	.Ltext0:
   6              		.align	2
   7              		.globl	_Z11printStringPKc
   9              	_Z11printStringPKc:
  10              	.LFB24:
  11              		.file 1 "test/printing.cpp"
   1:test/printing.cpp **** //
   2:test/printing.cpp **** // Created by os on 5/16/22.
   3:test/printing.cpp **** //
   4:test/printing.cpp **** 
   5:test/printing.cpp **** #include "printing.hpp"
   6:test/printing.cpp **** #include "../lib/console.h"
   7:test/printing.cpp **** #include "../h/KConsole.hpp"
   8:test/printing.cpp **** typedef unsigned long uint64;
   9:test/printing.cpp **** 
  10:test/printing.cpp **** extern "C" uint64 copy_and_swap(uint64 &lock, uint64 expected, uint64 desired);
  11:test/printing.cpp **** 
  12:test/printing.cpp **** #define LOCK() while(copy_and_swap(lockPrint, 0, 1))
  13:test/printing.cpp **** #define UNLOCK() while(copy_and_swap(lockPrint, 1, 0))
  14:test/printing.cpp **** 
  15:test/printing.cpp **** uint64 lockPrint = 0;
  16:test/printing.cpp **** 
  17:test/printing.cpp **** void printString(char const *string)
  18:test/printing.cpp **** {
  12              		.loc 1 18 1
  13              		.cfi_startproc
  14              	.LVL0:
  15 0000 130101FE 		addi	sp,sp,-32
  16              		.cfi_def_cfa_offset 32
  17 0004 233C1100 		sd	ra,24(sp)
  18 0008 23388100 		sd	s0,16(sp)
  19 000c 23349100 		sd	s1,8(sp)
  20              		.cfi_offset 1, -8
  21              		.cfi_offset 8, -16
  22              		.cfi_offset 9, -24
  23 0010 13040102 		addi	s0,sp,32
  24              		.cfi_def_cfa 8, 0
  25 0014 93040500 		mv	s1,a0
  26              	.LVL1:
  27              	.L2:
  19:test/printing.cpp ****     LOCK();
  28              		.loc 1 19 5
  29              		.loc 1 19 5
  30 0018 13061000 		li	a2,1
  31 001c 93050000 		li	a1,0
  32 0020 17050000 		lla	a0,.LANCHOR0
  32      13050500 
  33 0028 97000000 		call	copy_and_swap@plt
  33      E7800000 
  34              	.LVL2:
  35 0030 E31405FE 		bnez	a0,.L2
  36              	.L4:
  20:test/printing.cpp ****     while (*string != '\0') {
GAS LISTING /tmp/ccEv3HF5.s 			page 2


  37              		.loc 1 20 5
  38              		.loc 1 20 20
  39              		.loc 1 20 12 is_stmt 0
  40 0034 03C50400 		lbu	a0,0(s1)
  41              		.loc 1 20 20
  42 0038 630A0500 		beqz	a0,.L3
  21:test/printing.cpp ****         putc(*string);
  43              		.loc 1 21 9 is_stmt 1
  44              		.loc 1 21 13 is_stmt 0
  45 003c 97000000 		call	putc@plt
  45      E7800000 
  46              	.LVL3:
  22:test/printing.cpp ****         string++;
  47              		.loc 1 22 9 is_stmt 1
  48              		.loc 1 22 15 is_stmt 0
  49 0044 93841400 		addi	s1,s1,1
  50              	.LVL4:
  20:test/printing.cpp ****     while (*string != '\0') {
  51              		.loc 1 20 5
  52 0048 6FF0DFFE 		j	.L4
  53              	.L3:
  23:test/printing.cpp ****     }
  24:test/printing.cpp ****     UNLOCK();
  54              		.loc 1 24 5 is_stmt 1
  55              		.loc 1 24 5
  56 004c 13060000 		li	a2,0
  57 0050 93051000 		li	a1,1
  58 0054 17050000 		lla	a0,.LANCHOR0
  58      13050500 
  59 005c 97000000 		call	copy_and_swap@plt
  59      E7800000 
  60              	.LVL5:
  61 0064 E31405FE 		bnez	a0,.L3
  25:test/printing.cpp **** }
  62              		.loc 1 25 1 is_stmt 0
  63 0068 83308101 		ld	ra,24(sp)
  64              		.cfi_restore 1
  65 006c 03340101 		ld	s0,16(sp)
  66              		.cfi_restore 8
  67              		.cfi_def_cfa 2, 32
  68 0070 83348100 		ld	s1,8(sp)
  69              		.cfi_restore 9
  70              	.LVL6:
  71 0074 13010102 		addi	sp,sp,32
  72              		.cfi_def_cfa_offset 0
  73 0078 67800000 		jr	ra
  74              		.cfi_endproc
  75              	.LFE24:
  77              		.align	2
  78              		.globl	_Z9getStringPci
  80              	_Z9getStringPci:
  81              	.LFB25:
  26:test/printing.cpp **** 
  27:test/printing.cpp **** char *getString(char *buf, int max) {
  82              		.loc 1 27 37 is_stmt 1
  83              		.cfi_startproc
  84              	.LVL7:
GAS LISTING /tmp/ccEv3HF5.s 			page 3


  85 007c 130101FD 		addi	sp,sp,-48
  86              		.cfi_def_cfa_offset 48
  87 0080 23341102 		sd	ra,40(sp)
  88 0084 23308102 		sd	s0,32(sp)
  89 0088 233C9100 		sd	s1,24(sp)
  90 008c 23382101 		sd	s2,16(sp)
  91 0090 23343101 		sd	s3,8(sp)
  92 0094 23304101 		sd	s4,0(sp)
  93              		.cfi_offset 1, -8
  94              		.cfi_offset 8, -16
  95              		.cfi_offset 9, -24
  96              		.cfi_offset 18, -32
  97              		.cfi_offset 19, -40
  98              		.cfi_offset 20, -48
  99 0098 13040103 		addi	s0,sp,48
 100              		.cfi_def_cfa 8, 0
 101 009c 93090500 		mv	s3,a0
 102 00a0 138A0500 		mv	s4,a1
 103              	.LVL8:
 104              	.L7:
  28:test/printing.cpp ****     LOCK();
 105              		.loc 1 28 5
 106              		.loc 1 28 5
 107 00a4 13061000 		li	a2,1
 108 00a8 93050000 		li	a1,0
 109 00ac 17050000 		lla	a0,.LANCHOR0
 109      13050500 
 110 00b4 97000000 		call	copy_and_swap@plt
 110      E7800000 
 111              	.LVL9:
 112 00bc E31405FE 		bnez	a0,.L7
  29:test/printing.cpp ****     int i, cc;
  30:test/printing.cpp ****     char c;
  31:test/printing.cpp **** 
  32:test/printing.cpp ****     for (i = 0; i + 1 < max;) {
 113              		.loc 1 32 12 is_stmt 0
 114 00c0 13090000 		li	s2,0
 115              	.L9:
 116              	.LVL10:
 117              		.loc 1 32 23 is_stmt 1 discriminator 1
 118 00c4 93040900 		mv	s1,s2
 119              		.loc 1 32 19 is_stmt 0 discriminator 1
 120 00c8 1B091900 		addiw	s2,s2,1
 121              	.LVL11:
 122              		.loc 1 32 23 discriminator 1
 123 00cc 635A4903 		bge	s2,s4,.L8
  33:test/printing.cpp ****         cc = getc();
 124              		.loc 1 33 9 is_stmt 1
 125              		.loc 1 33 18 is_stmt 0
 126 00d0 97000000 		call	getc@plt
 126      E7800000 
 127              	.LVL12:
  34:test/printing.cpp ****         if (cc < 1)
 128              		.loc 1 34 9 is_stmt 1
 129 00d8 63040502 		beqz	a0,.L8
  35:test/printing.cpp ****             break;
  36:test/printing.cpp ****         c = cc;
GAS LISTING /tmp/ccEv3HF5.s 			page 4


 130              		.loc 1 36 9
 131              	.LVL13:
  37:test/printing.cpp ****         buf[i++] = c;
 132              		.loc 1 37 9
 133              		.loc 1 37 16 is_stmt 0
 134 00dc B3849900 		add	s1,s3,s1
 135              		.loc 1 37 18
 136 00e0 2380A400 		sb	a0,0(s1)
  38:test/printing.cpp ****         if (c == '\n' || c == '\r')
 137              		.loc 1 38 9 is_stmt 1
 138 00e4 9307A000 		li	a5,10
 139 00e8 630AF500 		beq	a0,a5,.L11
 140              		.loc 1 38 23 is_stmt 0 discriminator 1
 141 00ec 9307D000 		li	a5,13
 142 00f0 E31AF5FC 		bne	a0,a5,.L9
  37:test/printing.cpp ****         buf[i++] = c;
 143              		.loc 1 37 14
 144 00f4 93040900 		mv	s1,s2
 145 00f8 6F008000 		j	.L8
 146              	.L11:
 147 00fc 93040900 		mv	s1,s2
 148              	.LVL14:
 149              	.L8:
  39:test/printing.cpp ****             break;
  40:test/printing.cpp ****     }
  41:test/printing.cpp ****     buf[i] = '\0';
 150              		.loc 1 41 5 is_stmt 1
 151              		.loc 1 41 10 is_stmt 0
 152 0100 B3849900 		add	s1,s3,s1
 153              	.LVL15:
 154              		.loc 1 41 12
 155 0104 23800400 		sb	zero,0(s1)
 156              	.L10:
  42:test/printing.cpp **** 
  43:test/printing.cpp ****     UNLOCK();
 157              		.loc 1 43 5 is_stmt 1
 158              		.loc 1 43 5
 159 0108 13060000 		li	a2,0
 160 010c 93051000 		li	a1,1
 161 0110 17050000 		lla	a0,.LANCHOR0
 161      13050500 
 162 0118 97000000 		call	copy_and_swap@plt
 162      E7800000 
 163              	.LVL16:
 164 0120 E31405FE 		bnez	a0,.L10
  44:test/printing.cpp ****     return buf;
 165              		.loc 1 44 5
  45:test/printing.cpp **** }
 166              		.loc 1 45 1 is_stmt 0
 167 0124 13850900 		mv	a0,s3
 168 0128 83308102 		ld	ra,40(sp)
 169              		.cfi_restore 1
 170 012c 03340102 		ld	s0,32(sp)
 171              		.cfi_restore 8
 172              		.cfi_def_cfa 2, 48
 173 0130 83348101 		ld	s1,24(sp)
 174              		.cfi_restore 9
GAS LISTING /tmp/ccEv3HF5.s 			page 5


 175 0134 03390101 		ld	s2,16(sp)
 176              		.cfi_restore 18
 177 0138 83398100 		ld	s3,8(sp)
 178              		.cfi_restore 19
 179              	.LVL17:
 180 013c 033A0100 		ld	s4,0(sp)
 181              		.cfi_restore 20
 182 0140 13010103 		addi	sp,sp,48
 183              		.cfi_def_cfa_offset 0
 184 0144 67800000 		jr	ra
 185              		.cfi_endproc
 186              	.LFE25:
 188              		.align	2
 189              		.globl	_Z11stringToIntPKc
 191              	_Z11stringToIntPKc:
 192              	.LFB26:
  46:test/printing.cpp **** 
  47:test/printing.cpp **** int stringToInt(const char *s) {
 193              		.loc 1 47 32 is_stmt 1
 194              		.cfi_startproc
 195              	.LVL18:
 196 0148 130101FF 		addi	sp,sp,-16
 197              		.cfi_def_cfa_offset 16
 198 014c 23348100 		sd	s0,8(sp)
 199              		.cfi_offset 8, -8
 200 0150 13040101 		addi	s0,sp,16
 201              		.cfi_def_cfa 8, 0
 202 0154 93060500 		mv	a3,a0
  48:test/printing.cpp ****     int n;
 203              		.loc 1 48 5
  49:test/printing.cpp **** 
  50:test/printing.cpp ****     n = 0;
 204              		.loc 1 50 5
 205              	.LVL19:
 206              		.loc 1 50 7 is_stmt 0
 207 0158 13050000 		li	a0,0
 208              	.LVL20:
 209              	.L15:
  51:test/printing.cpp ****     while ('0' <= *s && *s <= '9')
 210              		.loc 1 51 5 is_stmt 1
 211              		.loc 1 51 22
 212              		.loc 1 51 19 is_stmt 0
 213 015c 03C60600 		lbu	a2,0(a3)
 214              		.loc 1 51 22
 215 0160 1B0706FD 		addiw	a4,a2,-48
 216 0164 1377F70F 		andi	a4,a4,0xff
 217 0168 93079000 		li	a5,9
 218 016c 63E0E702 		bgtu	a4,a5,.L14
  52:test/printing.cpp ****         n = n * 10 + *s++ - '0';
 219              		.loc 1 52 9 is_stmt 1
 220              		.loc 1 52 15 is_stmt 0
 221 0170 9B172500 		slliw	a5,a0,2
 222 0174 BB87A700 		addw	a5,a5,a0
 223 0178 9B971700 		slliw	a5,a5,1
 224              		.loc 1 52 24
 225 017c 93861600 		addi	a3,a3,1
 226              	.LVL21:
GAS LISTING /tmp/ccEv3HF5.s 			page 6


 227              		.loc 1 52 20
 228 0180 BB87C700 		addw	a5,a5,a2
 229              		.loc 1 52 11
 230 0184 1B8507FD 		addiw	a0,a5,-48
 231              	.LVL22:
  51:test/printing.cpp ****     while ('0' <= *s && *s <= '9')
 232              		.loc 1 51 5
 233 0188 6FF05FFD 		j	.L15
 234              	.LVL23:
 235              	.L14:
  53:test/printing.cpp ****     return n;
 236              		.loc 1 53 5 is_stmt 1
  54:test/printing.cpp **** }
 237              		.loc 1 54 1 is_stmt 0
 238 018c 03348100 		ld	s0,8(sp)
 239              		.cfi_restore 8
 240              		.cfi_def_cfa 2, 16
 241 0190 13010101 		addi	sp,sp,16
 242              		.cfi_def_cfa_offset 0
 243 0194 67800000 		jr	ra
 244              		.cfi_endproc
 245              	.LFE26:
 247              		.align	2
 248              		.globl	_Z8printIntiii
 250              	_Z8printIntiii:
 251              	.LFB27:
  55:test/printing.cpp **** 
  56:test/printing.cpp **** static char digits[] = "0123456789ABCDEF";
  57:test/printing.cpp **** 
  58:test/printing.cpp **** void printInt(int xx, int base , int sgn) {
 252              		.loc 1 58 43 is_stmt 1
 253              		.cfi_startproc
 254              	.LVL24:
 255 0198 130101FC 		addi	sp,sp,-64
 256              		.cfi_def_cfa_offset 64
 257 019c 233C1102 		sd	ra,56(sp)
 258 01a0 23388102 		sd	s0,48(sp)
 259 01a4 23349102 		sd	s1,40(sp)
 260 01a8 23302103 		sd	s2,32(sp)
 261 01ac 233C3101 		sd	s3,24(sp)
 262              		.cfi_offset 1, -8
 263              		.cfi_offset 8, -16
 264              		.cfi_offset 9, -24
 265              		.cfi_offset 18, -32
 266              		.cfi_offset 19, -40
 267 01b0 13040104 		addi	s0,sp,64
 268              		.cfi_def_cfa 8, 0
 269 01b4 93040500 		mv	s1,a0
 270 01b8 13890500 		mv	s2,a1
 271 01bc 93090600 		mv	s3,a2
 272              	.LVL25:
 273              	.L18:
  59:test/printing.cpp ****     LOCK();
 274              		.loc 1 59 5
 275              		.loc 1 59 5
 276 01c0 13061000 		li	a2,1
 277 01c4 93050000 		li	a1,0
GAS LISTING /tmp/ccEv3HF5.s 			page 7


 278 01c8 17050000 		lla	a0,.LANCHOR0
 278      13050500 
 279 01d0 97000000 		call	copy_and_swap@plt
 279      E7800000 
 280              	.LVL26:
 281 01d8 E31405FE 		bnez	a0,.L18
  60:test/printing.cpp ****     char buf[16];
 282              		.loc 1 60 5
  61:test/printing.cpp ****     int i, neg;
 283              		.loc 1 61 5
  62:test/printing.cpp ****     uint x;
 284              		.loc 1 62 5
  63:test/printing.cpp **** 
  64:test/printing.cpp ****     neg = 0;
 285              		.loc 1 64 5
 286              	.LVL27:
  65:test/printing.cpp ****     if (sgn && xx < 0) {
 287              		.loc 1 65 5
 288 01dc 63840900 		beqz	s3,.L19
 289              		.loc 1 65 13 is_stmt 0 discriminator 1
 290 01e0 63C40408 		bltz	s1,.L26
 291              	.L19:
  66:test/printing.cpp ****         neg = 1;
  67:test/printing.cpp ****         x = -xx;
  68:test/printing.cpp ****     } else {
  69:test/printing.cpp ****         x = xx;
 292              		.loc 1 69 9 is_stmt 1
 293              		.loc 1 69 11 is_stmt 0
 294 01e4 1B850400 		sext.w	a0,s1
 295              	.LVL28:
  64:test/printing.cpp ****     if (sgn && xx < 0) {
 296              		.loc 1 64 9
 297 01e8 93050000 		li	a1,0
 298              	.LVL29:
 299              	.L20:
  70:test/printing.cpp ****     }
  71:test/printing.cpp **** 
  72:test/printing.cpp ****     i = 0;
 300              		.loc 1 72 5 is_stmt 1
 301              		.loc 1 72 7 is_stmt 0
 302 01ec 93040000 		li	s1,0
 303              	.LVL30:
 304              	.L21:
  73:test/printing.cpp ****     do {
 305              		.loc 1 73 5 is_stmt 1
  74:test/printing.cpp ****         buf[i++] = digits[x % base];
 306              		.loc 1 74 9
 307              		.loc 1 74 31 is_stmt 0
 308 01f0 9B070900 		sext.w	a5,s2
 309              		.loc 1 74 29
 310 01f4 3B772503 		remuw	a4,a0,s2
 311 01f8 13860400 		mv	a2,s1
 312              		.loc 1 74 14
 313 01fc 9B841400 		addiw	s1,s1,1
 314              	.LVL31:
 315              		.loc 1 74 35
 316 0200 93160702 		slli	a3,a4,32
GAS LISTING /tmp/ccEv3HF5.s 			page 8


 317 0204 93D60602 		srli	a3,a3,32
 318 0208 17070000 		lla	a4,.LANCHOR1
 318      13070700 
 319 0210 3307D700 		add	a4,a4,a3
 320 0214 83460700 		lbu	a3,0(a4)
 321              		.loc 1 74 18
 322 0218 130704FD 		addi	a4,s0,-48
 323 021c 3307C700 		add	a4,a4,a2
 324 0220 2308D7FE 		sb	a3,-16(a4)
  75:test/printing.cpp ****     } while ((x /= base) != 0);
 325              		.loc 1 75 26 is_stmt 1
 326 0224 1B070500 		sext.w	a4,a0
 327              		.loc 1 75 17 is_stmt 0
 328 0228 3B552503 		divuw	a0,a0,s2
 329              	.LVL32:
 330              		.loc 1 75 26
 331 022c E372F7FC 		bleu	a5,a4,.L21
  76:test/printing.cpp ****     if (neg)
 332              		.loc 1 76 5 is_stmt 1
 333 0230 638C0500 		beqz	a1,.L24
  77:test/printing.cpp ****         buf[i++] = '-';
 334              		.loc 1 77 9
 335              	.LVL33:
 336              		.loc 1 77 18 is_stmt 0
 337 0234 930704FD 		addi	a5,s0,-48
 338 0238 B3849700 		add	s1,a5,s1
 339 023c 9307D002 		li	a5,45
 340 0240 2388F4FE 		sb	a5,-16(s1)
 341              		.loc 1 77 14
 342 0244 9B042600 		addiw	s1,a2,2
 343              	.LVL34:
 344              	.L24:
  78:test/printing.cpp **** 
  79:test/printing.cpp ****     while (--i >= 0)
 345              		.loc 1 79 5 is_stmt 1
 346              		.loc 1 79 16
 347 0248 9B84F4FF 		addiw	s1,s1,-1
 348              	.LVL35:
 349 024c 63C40402 		bltz	s1,.L23
  80:test/printing.cpp ****         putc(buf[i]);
 350              		.loc 1 80 9
 351              		.loc 1 80 13 is_stmt 0
 352 0250 930704FD 		addi	a5,s0,-48
 353 0254 B3879700 		add	a5,a5,s1
 354 0258 03C507FF 		lbu	a0,-16(a5)
 355 025c 97000000 		call	putc@plt
 355      E7800000 
 356              	.LVL36:
 357 0264 6FF05FFE 		j	.L24
 358              	.LVL37:
 359              	.L26:
  66:test/printing.cpp ****         x = -xx;
 360              		.loc 1 66 9 is_stmt 1
  67:test/printing.cpp ****     } else {
 361              		.loc 1 67 9
  67:test/printing.cpp ****     } else {
 362              		.loc 1 67 11 is_stmt 0
GAS LISTING /tmp/ccEv3HF5.s 			page 9


 363 0268 3B059040 		negw	a0,s1
 364              	.LVL38:
  66:test/printing.cpp ****         x = -xx;
 365              		.loc 1 66 13
 366 026c 93051000 		li	a1,1
  67:test/printing.cpp ****     } else {
 367              		.loc 1 67 11
 368 0270 6FF0DFF7 		j	.L20
 369              	.LVL39:
 370              	.L23:
  81:test/printing.cpp ****     UNLOCK();
 371              		.loc 1 81 5 is_stmt 1
 372              		.loc 1 81 5
 373 0274 13060000 		li	a2,0
 374 0278 93051000 		li	a1,1
 375 027c 17050000 		lla	a0,.LANCHOR0
 375      13050500 
 376 0284 97000000 		call	copy_and_swap@plt
 376      E7800000 
 377              	.LVL40:
 378 028c E31405FE 		bnez	a0,.L23
  82:test/printing.cpp **** }
 379              		.loc 1 82 1 is_stmt 0
 380 0290 83308103 		ld	ra,56(sp)
 381              		.cfi_restore 1
 382 0294 03340103 		ld	s0,48(sp)
 383              		.cfi_restore 8
 384              		.cfi_def_cfa 2, 64
 385 0298 83348102 		ld	s1,40(sp)
 386              		.cfi_restore 9
 387 029c 03390102 		ld	s2,32(sp)
 388              		.cfi_restore 18
 389 02a0 83398101 		ld	s3,24(sp)
 390              		.cfi_restore 19
 391 02a4 13010104 		addi	sp,sp,64
 392              		.cfi_def_cfa_offset 0
 393 02a8 67800000 		jr	ra
 394              		.cfi_endproc
 395              	.LFE27:
 397              		.align	2
 398              		.globl	_Z15trapPrintStringPKc
 400              	_Z15trapPrintStringPKc:
 401              	.LFB28:
  83:test/printing.cpp **** 
  84:test/printing.cpp **** void trapPrintString(char const* string)
  85:test/printing.cpp **** {
 402              		.loc 1 85 1 is_stmt 1
 403              		.cfi_startproc
 404              	.LVL41:
 405 02ac 130101FE 		addi	sp,sp,-32
 406              		.cfi_def_cfa_offset 32
 407 02b0 233C1100 		sd	ra,24(sp)
 408 02b4 23388100 		sd	s0,16(sp)
 409 02b8 23349100 		sd	s1,8(sp)
 410              		.cfi_offset 1, -8
 411              		.cfi_offset 8, -16
 412              		.cfi_offset 9, -24
GAS LISTING /tmp/ccEv3HF5.s 			page 10


 413 02bc 13040102 		addi	s0,sp,32
 414              		.cfi_def_cfa 8, 0
 415 02c0 93040500 		mv	s1,a0
 416              	.LVL42:
 417              	.L28:
  86:test/printing.cpp ****     LOCK();
 418              		.loc 1 86 5
 419              		.loc 1 86 5
 420 02c4 13061000 		li	a2,1
 421 02c8 93050000 		li	a1,0
 422 02cc 17050000 		lla	a0,.LANCHOR0
 422      13050500 
 423 02d4 97000000 		call	copy_and_swap@plt
 423      E7800000 
 424              	.LVL43:
 425 02dc E31405FE 		bnez	a0,.L28
 426              	.L30:
  87:test/printing.cpp ****     while (*string != '\0') {
 427              		.loc 1 87 5
 428              		.loc 1 87 20
 429              		.loc 1 87 12 is_stmt 0
 430 02e0 03C50400 		lbu	a0,0(s1)
 431              		.loc 1 87 20
 432 02e4 630A0500 		beqz	a0,.L29
  88:test/printing.cpp ****         KConsole::putCharacterOutput(*string);
 433              		.loc 1 88 9 is_stmt 1
 434              		.loc 1 88 37 is_stmt 0
 435 02e8 97000000 		call	_ZN8KConsole18putCharacterOutputEc@plt
 435      E7800000 
 436              	.LVL44:
  89:test/printing.cpp ****         string++;
 437              		.loc 1 89 9 is_stmt 1
 438              		.loc 1 89 15 is_stmt 0
 439 02f0 93841400 		addi	s1,s1,1
 440              	.LVL45:
  87:test/printing.cpp ****     while (*string != '\0') {
 441              		.loc 1 87 5
 442 02f4 6FF0DFFE 		j	.L30
 443              	.L29:
  90:test/printing.cpp ****     }
  91:test/printing.cpp ****     UNLOCK();
 444              		.loc 1 91 5 is_stmt 1
 445              		.loc 1 91 5
 446 02f8 13060000 		li	a2,0
 447 02fc 93051000 		li	a1,1
 448 0300 17050000 		lla	a0,.LANCHOR0
 448      13050500 
 449 0308 97000000 		call	copy_and_swap@plt
 449      E7800000 
 450              	.LVL46:
 451 0310 E31405FE 		bnez	a0,.L29
  92:test/printing.cpp **** }
 452              		.loc 1 92 1 is_stmt 0
 453 0314 83308101 		ld	ra,24(sp)
 454              		.cfi_restore 1
 455 0318 03340101 		ld	s0,16(sp)
 456              		.cfi_restore 8
GAS LISTING /tmp/ccEv3HF5.s 			page 11


 457              		.cfi_def_cfa 2, 32
 458 031c 83348100 		ld	s1,8(sp)
 459              		.cfi_restore 9
 460              	.LVL47:
 461 0320 13010102 		addi	sp,sp,32
 462              		.cfi_def_cfa_offset 0
 463 0324 67800000 		jr	ra
 464              		.cfi_endproc
 465              	.LFE28:
 467              		.align	2
 468              		.globl	_Z12trapPrintIntiii
 470              	_Z12trapPrintIntiii:
 471              	.LFB29:
  93:test/printing.cpp **** 
  94:test/printing.cpp **** void trapPrintInt(int xx, int base, int sgn)
  95:test/printing.cpp **** {
 472              		.loc 1 95 1 is_stmt 1
 473              		.cfi_startproc
 474              	.LVL48:
 475 0328 130101FC 		addi	sp,sp,-64
 476              		.cfi_def_cfa_offset 64
 477 032c 233C1102 		sd	ra,56(sp)
 478 0330 23388102 		sd	s0,48(sp)
 479 0334 23349102 		sd	s1,40(sp)
 480 0338 23302103 		sd	s2,32(sp)
 481 033c 233C3101 		sd	s3,24(sp)
 482              		.cfi_offset 1, -8
 483              		.cfi_offset 8, -16
 484              		.cfi_offset 9, -24
 485              		.cfi_offset 18, -32
 486              		.cfi_offset 19, -40
 487 0340 13040104 		addi	s0,sp,64
 488              		.cfi_def_cfa 8, 0
 489 0344 93040500 		mv	s1,a0
 490 0348 13890500 		mv	s2,a1
 491 034c 93090600 		mv	s3,a2
 492              	.LVL49:
 493              	.L33:
  96:test/printing.cpp ****     LOCK();
 494              		.loc 1 96 5
 495              		.loc 1 96 5
 496 0350 13061000 		li	a2,1
 497 0354 93050000 		li	a1,0
 498 0358 17050000 		lla	a0,.LANCHOR0
 498      13050500 
 499 0360 97000000 		call	copy_and_swap@plt
 499      E7800000 
 500              	.LVL50:
 501 0368 E31405FE 		bnez	a0,.L33
  97:test/printing.cpp ****     char buf[16];
 502              		.loc 1 97 5
  98:test/printing.cpp ****     int i, neg;
 503              		.loc 1 98 5
  99:test/printing.cpp ****     uint x;
 504              		.loc 1 99 5
 100:test/printing.cpp **** 
 101:test/printing.cpp ****     neg = 0;
GAS LISTING /tmp/ccEv3HF5.s 			page 12


 505              		.loc 1 101 5
 506              	.LVL51:
 102:test/printing.cpp ****     if (sgn && xx < 0) {
 507              		.loc 1 102 5
 508 036c 63840900 		beqz	s3,.L34
 509              		.loc 1 102 13 is_stmt 0 discriminator 1
 510 0370 63C40408 		bltz	s1,.L41
 511              	.L34:
 103:test/printing.cpp ****         neg = 1;
 104:test/printing.cpp ****         x = -xx;
 105:test/printing.cpp ****     } else {
 106:test/printing.cpp ****         x = xx;
 512              		.loc 1 106 9 is_stmt 1
 513              		.loc 1 106 11 is_stmt 0
 514 0374 1B850400 		sext.w	a0,s1
 515              	.LVL52:
 101:test/printing.cpp ****     if (sgn && xx < 0) {
 516              		.loc 1 101 9
 517 0378 93050000 		li	a1,0
 518              	.LVL53:
 519              	.L35:
 107:test/printing.cpp ****     }
 108:test/printing.cpp **** 
 109:test/printing.cpp ****     i = 0;
 520              		.loc 1 109 5 is_stmt 1
 521              		.loc 1 109 7 is_stmt 0
 522 037c 93040000 		li	s1,0
 523              	.LVL54:
 524              	.L36:
 110:test/printing.cpp ****     do {
 525              		.loc 1 110 5 is_stmt 1
 111:test/printing.cpp ****         buf[i++] = digits[x % base];
 526              		.loc 1 111 9
 527              		.loc 1 111 31 is_stmt 0
 528 0380 9B070900 		sext.w	a5,s2
 529              		.loc 1 111 29
 530 0384 3B772503 		remuw	a4,a0,s2
 531 0388 13860400 		mv	a2,s1
 532              		.loc 1 111 14
 533 038c 9B841400 		addiw	s1,s1,1
 534              	.LVL55:
 535              		.loc 1 111 35
 536 0390 93160702 		slli	a3,a4,32
 537 0394 93D60602 		srli	a3,a3,32
 538 0398 17070000 		lla	a4,.LANCHOR1
 538      13070700 
 539 03a0 3307D700 		add	a4,a4,a3
 540 03a4 83460700 		lbu	a3,0(a4)
 541              		.loc 1 111 18
 542 03a8 130704FD 		addi	a4,s0,-48
 543 03ac 3307C700 		add	a4,a4,a2
 544 03b0 2308D7FE 		sb	a3,-16(a4)
 112:test/printing.cpp ****     } while ((x /= base) != 0);
 545              		.loc 1 112 26 is_stmt 1
 546 03b4 1B070500 		sext.w	a4,a0
 547              		.loc 1 112 17 is_stmt 0
 548 03b8 3B552503 		divuw	a0,a0,s2
GAS LISTING /tmp/ccEv3HF5.s 			page 13


 549              	.LVL56:
 550              		.loc 1 112 26
 551 03bc E372F7FC 		bleu	a5,a4,.L36
 113:test/printing.cpp ****     if (neg)
 552              		.loc 1 113 5 is_stmt 1
 553 03c0 638C0500 		beqz	a1,.L39
 114:test/printing.cpp ****         buf[i++] = '-';
 554              		.loc 1 114 9
 555              	.LVL57:
 556              		.loc 1 114 18 is_stmt 0
 557 03c4 930704FD 		addi	a5,s0,-48
 558 03c8 B3849700 		add	s1,a5,s1
 559 03cc 9307D002 		li	a5,45
 560 03d0 2388F4FE 		sb	a5,-16(s1)
 561              		.loc 1 114 14
 562 03d4 9B042600 		addiw	s1,a2,2
 563              	.LVL58:
 564              	.L39:
 115:test/printing.cpp **** 
 116:test/printing.cpp ****     while (--i >= 0)
 565              		.loc 1 116 5 is_stmt 1
 566              		.loc 1 116 16
 567 03d8 9B84F4FF 		addiw	s1,s1,-1
 568              	.LVL59:
 569 03dc 63C40402 		bltz	s1,.L38
 117:test/printing.cpp ****         KConsole::putCharacterOutput(buf[i]);
 570              		.loc 1 117 9
 571              		.loc 1 117 37 is_stmt 0
 572 03e0 930704FD 		addi	a5,s0,-48
 573 03e4 B3879700 		add	a5,a5,s1
 574 03e8 03C507FF 		lbu	a0,-16(a5)
 575 03ec 97000000 		call	_ZN8KConsole18putCharacterOutputEc@plt
 575      E7800000 
 576              	.LVL60:
 577 03f4 6FF05FFE 		j	.L39
 578              	.LVL61:
 579              	.L41:
 103:test/printing.cpp ****         x = -xx;
 580              		.loc 1 103 9 is_stmt 1
 104:test/printing.cpp ****     } else {
 581              		.loc 1 104 9
 104:test/printing.cpp ****     } else {
 582              		.loc 1 104 11 is_stmt 0
 583 03f8 3B059040 		negw	a0,s1
 584              	.LVL62:
 103:test/printing.cpp ****         x = -xx;
 585              		.loc 1 103 13
 586 03fc 93051000 		li	a1,1
 104:test/printing.cpp ****     } else {
 587              		.loc 1 104 11
 588 0400 6FF0DFF7 		j	.L35
 589              	.LVL63:
 590              	.L38:
 118:test/printing.cpp ****     UNLOCK();
 591              		.loc 1 118 5 is_stmt 1
 592              		.loc 1 118 5
 593 0404 13060000 		li	a2,0
GAS LISTING /tmp/ccEv3HF5.s 			page 14


 594 0408 93051000 		li	a1,1
 595 040c 17050000 		lla	a0,.LANCHOR0
 595      13050500 
 596 0414 97000000 		call	copy_and_swap@plt
 596      E7800000 
 597              	.LVL64:
 598 041c E31405FE 		bnez	a0,.L38
 119:test/printing.cpp **** }
 599              		.loc 1 119 1 is_stmt 0
 600 0420 83308103 		ld	ra,56(sp)
 601              		.cfi_restore 1
 602 0424 03340103 		ld	s0,48(sp)
 603              		.cfi_restore 8
 604              		.cfi_def_cfa 2, 64
 605 0428 83348102 		ld	s1,40(sp)
 606              		.cfi_restore 9
 607 042c 03390102 		ld	s2,32(sp)
 608              		.cfi_restore 18
 609 0430 83398101 		ld	s3,24(sp)
 610              		.cfi_restore 19
 611 0434 13010104 		addi	sp,sp,64
 612              		.cfi_def_cfa_offset 0
 613 0438 67800000 		jr	ra
 614              		.cfi_endproc
 615              	.LFE29:
 617              		.globl	lockPrint
 618              		.section	.rodata
 619              		.align	3
 620              		.set	.LANCHOR1,. + 0
 623              	_ZL6digits:
 624 0000 30313233 		.string	"0123456789ABCDEF"
 624      34353637 
 624      38394142 
 624      43444546 
 624      00
 625              		.bss
 626              		.align	3
 627              		.set	.LANCHOR0,. + 0
 630              	lockPrint:
 631 0000 00000000 		.zero	8
 631      00000000 
 632              		.text
 633              	.Letext0:
 634              		.file 2 "test/../h/../lib/hw.h"
 635              		.file 3 "test/../h/PCB.hpp"
 636              		.file 4 "test/../h/KSemaphore.hpp"
 637              		.file 5 "test/../h/KConsole.hpp"
 638              		.file 6 "test/../h/syscall_c.h"
GAS LISTING /tmp/ccEv3HF5.s 			page 15

