GAS LISTING /tmp/cck9bHzV.s 			page 1


   1              		.file	"Threads_C_API_test.cpp"
   2              		.option pic
   3              		.option norelax
   4              		.text
   5              	.Ltext0:
   6              		.section	.rodata.str1.8,"aMS",@progbits,1
   7              		.align	3
   8              	.LC0:
   9 0000 413A2069 		.string	"A: i="
   9      3D00
  10 0006 0000     		.align	3
  11              	.LC1:
  12 0008 0A00     		.string	"\n"
  13 000a 00000000 		.align	3
  13      0000
  14              	.LC2:
  15 0010 41206669 		.string	"A finished!\n"
  15      6E697368 
  15      6564210A 
  15      00
  16              		.text
  17              		.align	2
  18              		.globl	_Z11workerBodyAPv
  20              	_Z11workerBodyAPv:
  21              	.LFB24:
  22              		.file 1 "test/Threads_C_API_test.cpp"
   1:test/Threads_C_API_test.cpp **** //
   2:test/Threads_C_API_test.cpp **** // Created by os on 5/16/22.
   3:test/Threads_C_API_test.cpp **** //
   4:test/Threads_C_API_test.cpp **** 
   5:test/Threads_C_API_test.cpp **** #include "Threads_C_API_test.hpp"
   6:test/Threads_C_API_test.cpp **** 
   7:test/Threads_C_API_test.cpp **** static bool finishedA = false;
   8:test/Threads_C_API_test.cpp **** static bool finishedB = false;
   9:test/Threads_C_API_test.cpp **** static bool finishedC = false;
  10:test/Threads_C_API_test.cpp **** static bool finishedD = false;
  11:test/Threads_C_API_test.cpp **** 
  12:test/Threads_C_API_test.cpp **** static uint64 fibonacci(uint64 n) {
  13:test/Threads_C_API_test.cpp ****     //Riscv::printString("Recursion...\n");
  14:test/Threads_C_API_test.cpp ****     //Riscv::printInteger(n);
  15:test/Threads_C_API_test.cpp ****     Riscv::printString("calculating...\n");
  16:test/Threads_C_API_test.cpp ****     n = 0;
  17:test/Threads_C_API_test.cpp ****     if (n == 0 || n == 1) {return n; }
  18:test/Threads_C_API_test.cpp ****     if (n % 10 == 0) { thread_dispatch(); }
  19:test/Threads_C_API_test.cpp ****     return fibonacci(n - 1) + fibonacci(n - 2);
  20:test/Threads_C_API_test.cpp **** }
  21:test/Threads_C_API_test.cpp **** 
  22:test/Threads_C_API_test.cpp **** void workerBodyA(void* arg) {
  23              		.loc 1 22 29
  24              		.cfi_startproc
  25              	.LVL0:
  26 0000 130101FE 		addi	sp,sp,-32
  27              		.cfi_def_cfa_offset 32
  28 0004 233C1100 		sd	ra,24(sp)
  29 0008 23388100 		sd	s0,16(sp)
  30 000c 23349100 		sd	s1,8(sp)
  31              		.cfi_offset 1, -8
GAS LISTING /tmp/cck9bHzV.s 			page 2


  32              		.cfi_offset 8, -16
  33              		.cfi_offset 9, -24
  34 0010 13040102 		addi	s0,sp,32
  35              		.cfi_def_cfa 8, 0
  23:test/Threads_C_API_test.cpp ****     for (uint64 i = 0; i < 10; i++) {
  36              		.loc 1 23 5
  37              	.LVL1:
  38              	.LBB2:
  39              		.loc 1 23 17 is_stmt 0
  40 0014 93040000 		li	s1,0
  41 0018 6F000003 		j	.L7
  42              	.LVL2:
  43              	.L4:
  44              	.LBB3:
  45              	.LBB4:
  24:test/Threads_C_API_test.cpp ****         printString("A: i="); printInt(i); printString("\n");
  25:test/Threads_C_API_test.cpp ****         for (uint64 j = 0; j < 10000; j++) {
  46              		.loc 1 25 9 is_stmt 1 discriminator 2
  47 001c 93861600 		addi	a3,a3,1
  48              	.LVL3:
  49              	.L6:
  50              		.loc 1 25 30 discriminator 1
  51 0020 B7270000 		li	a5,8192
  52 0024 9387F770 		addi	a5,a5,1807
  53 0028 63EED700 		bgtu	a3,a5,.L3
  54              	.LBB5:
  26:test/Threads_C_API_test.cpp ****             //Riscv::printString("A j : ");
  27:test/Threads_C_API_test.cpp ****             //Riscv::printInteger(j);
  28:test/Threads_C_API_test.cpp ****             for (uint64 k = 0; k < 30000; k++) { /* busy wait */ }
  55              		.loc 1 28 25 is_stmt 0
  56 002c 13070000 		li	a4,0
  57              	.L5:
  58              	.LVL4:
  59              		.loc 1 28 34 is_stmt 1 discriminator 3
  60 0030 B7770000 		li	a5,28672
  61 0034 9387F752 		addi	a5,a5,1327
  62 0038 E3E2E7FE 		bgtu	a4,a5,.L4
  63              		.loc 1 28 13 discriminator 2
  64 003c 13071700 		addi	a4,a4,1
  65              	.LVL5:
  66 0040 6FF01FFF 		j	.L5
  67              	.LVL6:
  68              	.L3:
  69              	.LBE5:
  70              	.LBE4:
  71              	.LBE3:
  23:test/Threads_C_API_test.cpp ****         printString("A: i="); printInt(i); printString("\n");
  72              		.loc 1 23 5 discriminator 2
  73 0044 93841400 		addi	s1,s1,1
  74              	.LVL7:
  75              	.L7:
  23:test/Threads_C_API_test.cpp ****         printString("A: i="); printInt(i); printString("\n");
  76              		.loc 1 23 26 discriminator 1
  77 0048 93079000 		li	a5,9
  78 004c 63E09704 		bgtu	s1,a5,.L2
  79              	.LBB7:
  24:test/Threads_C_API_test.cpp ****         printString("A: i="); printInt(i); printString("\n");
GAS LISTING /tmp/cck9bHzV.s 			page 3


  80              		.loc 1 24 9
  24:test/Threads_C_API_test.cpp ****         printString("A: i="); printInt(i); printString("\n");
  81              		.loc 1 24 20 is_stmt 0
  82 0050 17050000 		lla	a0,.LC0
  82      13050500 
  83 0058 97000000 		call	_Z11printStringPKc@plt
  83      E7800000 
  84              	.LVL8:
  24:test/Threads_C_API_test.cpp ****         printString("A: i="); printInt(i); printString("\n");
  85              		.loc 1 24 31 is_stmt 1
  24:test/Threads_C_API_test.cpp ****         printString("A: i="); printInt(i); printString("\n");
  86              		.loc 1 24 39 is_stmt 0
  87 0060 13060000 		li	a2,0
  88 0064 9305A000 		li	a1,10
  89 0068 1B850400 		sext.w	a0,s1
  90 006c 97000000 		call	_Z8printIntiii@plt
  90      E7800000 
  91              	.LVL9:
  24:test/Threads_C_API_test.cpp ****         printString("A: i="); printInt(i); printString("\n");
  92              		.loc 1 24 44 is_stmt 1
  24:test/Threads_C_API_test.cpp ****         printString("A: i="); printInt(i); printString("\n");
  93              		.loc 1 24 55 is_stmt 0
  94 0074 17050000 		lla	a0,.LC1
  94      13050500 
  95 007c 97000000 		call	_Z11printStringPKc@plt
  95      E7800000 
  96              	.LVL10:
  25:test/Threads_C_API_test.cpp ****             //Riscv::printString("A j : ");
  97              		.loc 1 25 9 is_stmt 1
  98              	.LBB6:
  25:test/Threads_C_API_test.cpp ****             //Riscv::printString("A j : ");
  99              		.loc 1 25 21 is_stmt 0
 100 0084 93060000 		li	a3,0
 101 0088 6FF09FF9 		j	.L6
 102              	.LVL11:
 103              	.L2:
 104              	.LBE6:
 105              	.LBE7:
 106              	.LBE2:
  29:test/Threads_C_API_test.cpp ****             //thread_dispatch();
  30:test/Threads_C_API_test.cpp ****         }
  31:test/Threads_C_API_test.cpp ****     }
  32:test/Threads_C_API_test.cpp ****     Riscv::printString("A finished!\n");
 107              		.loc 1 32 5 is_stmt 1
 108              		.loc 1 32 23 is_stmt 0
 109 008c 17050000 		lla	a0,.LC2
 109      13050500 
 110 0094 97000000 		call	_ZN5Riscv11printStringEPKc@plt
 110      E7800000 
 111              	.LVL12:
  33:test/Threads_C_API_test.cpp ****     finishedA = true;
 112              		.loc 1 33 5 is_stmt 1
 113              		.loc 1 33 15 is_stmt 0
 114 009c 93071000 		li	a5,1
 115 00a0 17070000 		sb	a5,.LANCHOR0,a4
 115      2300F700 
  34:test/Threads_C_API_test.cpp **** }
GAS LISTING /tmp/cck9bHzV.s 			page 4


 116              		.loc 1 34 1
 117 00a8 83308101 		ld	ra,24(sp)
 118              		.cfi_restore 1
 119 00ac 03340101 		ld	s0,16(sp)
 120              		.cfi_restore 8
 121              		.cfi_def_cfa 2, 32
 122 00b0 83348100 		ld	s1,8(sp)
 123              		.cfi_restore 9
 124              	.LVL13:
 125 00b4 13010102 		addi	sp,sp,32
 126              		.cfi_def_cfa_offset 0
 127 00b8 67800000 		jr	ra
 128              		.cfi_endproc
 129              	.LFE24:
 131              		.section	.rodata.str1.8
 132 001d 000000   		.align	3
 133              	.LC3:
 134 0020 63616C63 		.string	"calculating...\n"
 134      756C6174 
 134      696E672E 
 134      2E2E0A00 
 135              		.text
 136              		.align	2
 138              	_ZL9fibonaccim:
 139              	.LFB23:
  12:test/Threads_C_API_test.cpp ****     //Riscv::printString("Recursion...\n");
 140              		.loc 1 12 35 is_stmt 1
 141              		.cfi_startproc
 142              	.LVL14:
 143 00bc 130101FF 		addi	sp,sp,-16
 144              		.cfi_def_cfa_offset 16
 145 00c0 23341100 		sd	ra,8(sp)
 146 00c4 23308100 		sd	s0,0(sp)
 147              		.cfi_offset 1, -8
 148              		.cfi_offset 8, -16
 149 00c8 13040101 		addi	s0,sp,16
 150              		.cfi_def_cfa 8, 0
  15:test/Threads_C_API_test.cpp ****     n = 0;
 151              		.loc 1 15 5
  15:test/Threads_C_API_test.cpp ****     n = 0;
 152              		.loc 1 15 23 is_stmt 0
 153 00cc 17050000 		lla	a0,.LC3
 153      13050500 
 154              	.LVL15:
 155 00d4 97000000 		call	_ZN5Riscv11printStringEPKc@plt
 155      E7800000 
 156              	.LVL16:
  16:test/Threads_C_API_test.cpp ****     if (n == 0 || n == 1) {return n; }
 157              		.loc 1 16 5 is_stmt 1
  17:test/Threads_C_API_test.cpp ****     if (n % 10 == 0) { thread_dispatch(); }
 158              		.loc 1 17 5
  17:test/Threads_C_API_test.cpp ****     if (n % 10 == 0) { thread_dispatch(); }
 159              		.loc 1 17 28
  20:test/Threads_C_API_test.cpp **** 
 160              		.loc 1 20 1 is_stmt 0
 161 00dc 13050000 		li	a0,0
 162 00e0 83308100 		ld	ra,8(sp)
GAS LISTING /tmp/cck9bHzV.s 			page 5


 163              		.cfi_restore 1
 164 00e4 03340100 		ld	s0,0(sp)
 165              		.cfi_restore 8
 166              		.cfi_def_cfa 2, 16
 167 00e8 13010101 		addi	sp,sp,16
 168              		.cfi_def_cfa_offset 0
 169 00ec 67800000 		jr	ra
 170              		.cfi_endproc
 171              	.LFE23:
 173              		.section	.rodata.str1.8
 174              		.align	3
 175              	.LC4:
 176 0030 423A2069 		.string	"B: i="
 176      3D00
 177 0036 0000     		.align	3
 178              	.LC5:
 179 0038 42206669 		.string	"B finished!\n"
 179      6E697368 
 179      6564210A 
 179      00
 180              		.text
 181              		.align	2
 182              		.globl	_Z11workerBodyBPv
 184              	_Z11workerBodyBPv:
 185              	.LFB25:
  35:test/Threads_C_API_test.cpp **** 
  36:test/Threads_C_API_test.cpp **** void workerBodyB(void* arg) {
 186              		.loc 1 36 29 is_stmt 1
 187              		.cfi_startproc
 188              	.LVL17:
 189 00f0 130101FE 		addi	sp,sp,-32
 190              		.cfi_def_cfa_offset 32
 191 00f4 233C1100 		sd	ra,24(sp)
 192 00f8 23388100 		sd	s0,16(sp)
 193 00fc 23349100 		sd	s1,8(sp)
 194              		.cfi_offset 1, -8
 195              		.cfi_offset 8, -16
 196              		.cfi_offset 9, -24
 197 0100 13040102 		addi	s0,sp,32
 198              		.cfi_def_cfa 8, 0
  37:test/Threads_C_API_test.cpp ****     for (uint64 i = 0; i < 16; i++) {
 199              		.loc 1 37 5
 200              	.LVL18:
 201              	.LBB8:
 202              		.loc 1 37 17 is_stmt 0
 203 0104 93040000 		li	s1,0
 204 0108 6F000003 		j	.L17
 205              	.LVL19:
 206              	.L14:
 207              	.LBB9:
 208              	.LBB10:
  38:test/Threads_C_API_test.cpp ****         printString("B: i="); printInt(i); printString("\n");
  39:test/Threads_C_API_test.cpp ****         for (uint64 j = 0; j < 10000; j++) {
 209              		.loc 1 39 9 is_stmt 1 discriminator 2
 210 010c 93861600 		addi	a3,a3,1
 211              	.LVL20:
 212              	.L16:
GAS LISTING /tmp/cck9bHzV.s 			page 6


 213              		.loc 1 39 30 discriminator 1
 214 0110 B7270000 		li	a5,8192
 215 0114 9387F770 		addi	a5,a5,1807
 216 0118 63EED700 		bgtu	a3,a5,.L13
 217              	.LBB11:
  40:test/Threads_C_API_test.cpp ****             //Riscv::printString("B j : ");
  41:test/Threads_C_API_test.cpp ****             //Riscv::printInteger(j);
  42:test/Threads_C_API_test.cpp ****             for (uint64 k = 0; k < 30000; k++) { /* busy wait */ }
 218              		.loc 1 42 25 is_stmt 0
 219 011c 13070000 		li	a4,0
 220              	.L15:
 221              	.LVL21:
 222              		.loc 1 42 34 is_stmt 1 discriminator 3
 223 0120 B7770000 		li	a5,28672
 224 0124 9387F752 		addi	a5,a5,1327
 225 0128 E3E2E7FE 		bgtu	a4,a5,.L14
 226              		.loc 1 42 13 discriminator 2
 227 012c 13071700 		addi	a4,a4,1
 228              	.LVL22:
 229 0130 6FF01FFF 		j	.L15
 230              	.LVL23:
 231              	.L13:
 232              	.LBE11:
 233              	.LBE10:
 234              	.LBE9:
  37:test/Threads_C_API_test.cpp ****         printString("B: i="); printInt(i); printString("\n");
 235              		.loc 1 37 5 discriminator 2
 236 0134 93841400 		addi	s1,s1,1
 237              	.LVL24:
 238              	.L17:
  37:test/Threads_C_API_test.cpp ****         printString("B: i="); printInt(i); printString("\n");
 239              		.loc 1 37 26 discriminator 1
 240 0138 9307F000 		li	a5,15
 241 013c 63E09704 		bgtu	s1,a5,.L12
 242              	.LBB13:
  38:test/Threads_C_API_test.cpp ****         printString("B: i="); printInt(i); printString("\n");
 243              		.loc 1 38 9
  38:test/Threads_C_API_test.cpp ****         printString("B: i="); printInt(i); printString("\n");
 244              		.loc 1 38 20 is_stmt 0
 245 0140 17050000 		lla	a0,.LC4
 245      13050500 
 246 0148 97000000 		call	_Z11printStringPKc@plt
 246      E7800000 
 247              	.LVL25:
  38:test/Threads_C_API_test.cpp ****         printString("B: i="); printInt(i); printString("\n");
 248              		.loc 1 38 31 is_stmt 1
  38:test/Threads_C_API_test.cpp ****         printString("B: i="); printInt(i); printString("\n");
 249              		.loc 1 38 39 is_stmt 0
 250 0150 13060000 		li	a2,0
 251 0154 9305A000 		li	a1,10
 252 0158 1B850400 		sext.w	a0,s1
 253 015c 97000000 		call	_Z8printIntiii@plt
 253      E7800000 
 254              	.LVL26:
  38:test/Threads_C_API_test.cpp ****         printString("B: i="); printInt(i); printString("\n");
 255              		.loc 1 38 44 is_stmt 1
  38:test/Threads_C_API_test.cpp ****         printString("B: i="); printInt(i); printString("\n");
GAS LISTING /tmp/cck9bHzV.s 			page 7


 256              		.loc 1 38 55 is_stmt 0
 257 0164 17050000 		lla	a0,.LC1
 257      13050500 
 258 016c 97000000 		call	_Z11printStringPKc@plt
 258      E7800000 
 259              	.LVL27:
  39:test/Threads_C_API_test.cpp ****             //Riscv::printString("B j : ");
 260              		.loc 1 39 9 is_stmt 1
 261              	.LBB12:
  39:test/Threads_C_API_test.cpp ****             //Riscv::printString("B j : ");
 262              		.loc 1 39 21 is_stmt 0
 263 0174 93060000 		li	a3,0
 264 0178 6FF09FF9 		j	.L16
 265              	.LVL28:
 266              	.L12:
 267              	.LBE12:
 268              	.LBE13:
 269              	.LBE8:
  43:test/Threads_C_API_test.cpp ****             //thread_dispatch();
  44:test/Threads_C_API_test.cpp ****         }
  45:test/Threads_C_API_test.cpp ****     }
  46:test/Threads_C_API_test.cpp ****     Riscv::printString("B finished!\n");
 270              		.loc 1 46 5 is_stmt 1
 271              		.loc 1 46 23 is_stmt 0
 272 017c 17050000 		lla	a0,.LC5
 272      13050500 
 273 0184 97000000 		call	_ZN5Riscv11printStringEPKc@plt
 273      E7800000 
 274              	.LVL29:
  47:test/Threads_C_API_test.cpp ****     thread_dispatch();
 275              		.loc 1 47 5 is_stmt 1
 276              		.loc 1 47 20 is_stmt 0
 277 018c 97000000 		call	thread_dispatch@plt
 277      E7800000 
 278              	.LVL30:
  48:test/Threads_C_API_test.cpp ****     finishedB = true;
 279              		.loc 1 48 5 is_stmt 1
 280              		.loc 1 48 15 is_stmt 0
 281 0194 93071000 		li	a5,1
 282 0198 17070000 		sb	a5,.LANCHOR0+1,a4
 282      2300F700 
  49:test/Threads_C_API_test.cpp **** }
 283              		.loc 1 49 1
 284 01a0 83308101 		ld	ra,24(sp)
 285              		.cfi_restore 1
 286 01a4 03340101 		ld	s0,16(sp)
 287              		.cfi_restore 8
 288              		.cfi_def_cfa 2, 32
 289 01a8 83348100 		ld	s1,8(sp)
 290              		.cfi_restore 9
 291              	.LVL31:
 292 01ac 13010102 		addi	sp,sp,32
 293              		.cfi_def_cfa_offset 0
 294 01b0 67800000 		jr	ra
 295              		.cfi_endproc
 296              	.LFE25:
 298              		.section	.rodata.str1.8
GAS LISTING /tmp/cck9bHzV.s 			page 8


 299 0045 000000   		.align	3
 300              	.LC6:
 301 0048 433A2069 		.string	"C: i="
 301      3D00
 302 004e 0000     		.align	3
 303              	.LC7:
 304 0050 433A2064 		.string	"C: dispatch\n"
 304      69737061 
 304      7463680A 
 304      00
 305 005d 000000   		.align	3
 306              	.LC8:
 307 0060 433A2072 		.string	"C: returned\n"
 307      65747572 
 307      6E65640A 
 307      00
 308 006d 000000   		.align	3
 309              	.LC9:
 310 0070 433A2074 		.string	"C: t1="
 310      313D00
 311 0077 00       		.align	3
 312              	.LC10:
 313 0078 433A2066 		.string	"C: fibonaci="
 313      69626F6E 
 313      6163693D 
 313      00
 314 0085 000000   		.align	3
 315              	.LC11:
 316 0088 43206669 		.string	"C finished!\n"
 316      6E697368 
 316      6564210A 
 316      00
 317              		.text
 318              		.align	2
 319              		.globl	_Z11workerBodyCPv
 321              	_Z11workerBodyCPv:
 322              	.LFB26:
  50:test/Threads_C_API_test.cpp **** 
  51:test/Threads_C_API_test.cpp **** void workerBodyC(void* arg) {
 323              		.loc 1 51 29 is_stmt 1
 324              		.cfi_startproc
 325              	.LVL32:
 326 01b4 130101FE 		addi	sp,sp,-32
 327              		.cfi_def_cfa_offset 32
 328 01b8 233C1100 		sd	ra,24(sp)
 329 01bc 23388100 		sd	s0,16(sp)
 330 01c0 23349100 		sd	s1,8(sp)
 331 01c4 23302101 		sd	s2,0(sp)
 332              		.cfi_offset 1, -8
 333              		.cfi_offset 8, -16
 334              		.cfi_offset 9, -24
 335              		.cfi_offset 18, -32
 336 01c8 13040102 		addi	s0,sp,32
 337              		.cfi_def_cfa 8, 0
  52:test/Threads_C_API_test.cpp ****     uint8 i = 0;
 338              		.loc 1 52 5
 339              	.LVL33:
GAS LISTING /tmp/cck9bHzV.s 			page 9


 340              		.loc 1 52 11 is_stmt 0
 341 01cc 93040000 		li	s1,0
 342 01d0 6F000004 		j	.L21
 343              	.LVL34:
 344              	.L25:
  53:test/Threads_C_API_test.cpp ****     for (; i < 3; i++) {
  54:test/Threads_C_API_test.cpp ****         printString("C: i="); printInt(i); printString("\n");
 345              		.loc 1 54 9 is_stmt 1 discriminator 1
 346              		.loc 1 54 20 is_stmt 0 discriminator 1
 347 01d4 17050000 		lla	a0,.LC6
 347      13050500 
 348 01dc 97000000 		call	_Z11printStringPKc@plt
 348      E7800000 
 349              	.LVL35:
 350              		.loc 1 54 31 is_stmt 1 discriminator 1
 351              		.loc 1 54 39 is_stmt 0 discriminator 1
 352 01e4 13060000 		li	a2,0
 353 01e8 9305A000 		li	a1,10
 354 01ec 13850400 		mv	a0,s1
 355 01f0 97000000 		call	_Z8printIntiii@plt
 355      E7800000 
 356              	.LVL36:
 357              		.loc 1 54 44 is_stmt 1 discriminator 1
 358              		.loc 1 54 55 is_stmt 0 discriminator 1
 359 01f8 17050000 		lla	a0,.LC1
 359      13050500 
 360 0200 97000000 		call	_Z11printStringPKc@plt
 360      E7800000 
 361              	.LVL37:
  53:test/Threads_C_API_test.cpp ****     for (; i < 3; i++) {
 362              		.loc 1 53 5 is_stmt 1 discriminator 1
 363 0208 9B841400 		addiw	s1,s1,1
 364              	.LVL38:
 365 020c 93F4F40F 		andi	s1,s1,0xff
 366              	.LVL39:
 367              	.L21:
  53:test/Threads_C_API_test.cpp ****     for (; i < 3; i++) {
 368              		.loc 1 53 5 discriminator 2
  53:test/Threads_C_API_test.cpp ****     for (; i < 3; i++) {
 369              		.loc 1 53 14 discriminator 2
 370 0210 93072000 		li	a5,2
 371 0214 E3F097FC 		bleu	s1,a5,.L25
  55:test/Threads_C_API_test.cpp ****     }
  56:test/Threads_C_API_test.cpp **** 
  57:test/Threads_C_API_test.cpp ****     printString("C: dispatch\n");
 372              		.loc 1 57 5
 373              		.loc 1 57 16 is_stmt 0
 374 0218 17050000 		lla	a0,.LC7
 374      13050500 
 375 0220 97000000 		call	_Z11printStringPKc@plt
 375      E7800000 
 376              	.LVL40:
  58:test/Threads_C_API_test.cpp ****     __asm__ ("li t1, 7");
 377              		.loc 1 58 5 is_stmt 1
 378              		.loc 1 58 25 is_stmt 0
 379              	#APP
 380              	# 58 "test/Threads_C_API_test.cpp" 1
GAS LISTING /tmp/cck9bHzV.s 			page 10


  59              	    thread_dispatch();
 381              		li t1, 7
 382              	# 0 "" 2
 383              		.loc 1 59 5 is_stmt 1
 384              		.loc 1 59 20 is_stmt 0
 385              	#NO_APP
 386 022c 97000000 		call	thread_dispatch@plt
 386      E7800000 
 387              	.LVL41:
  60:test/Threads_C_API_test.cpp ****     printString("C: returned\n");
 388              		.loc 1 60 5 is_stmt 1
 389              		.loc 1 60 16 is_stmt 0
 390 0234 17050000 		lla	a0,.LC8
 390      13050500 
 391 023c 97000000 		call	_Z11printStringPKc@plt
 391      E7800000 
 392              	.LVL42:
  61:test/Threads_C_API_test.cpp ****     uint64 t1 = 0;
 393              		.loc 1 61 5 is_stmt 1
  62:test/Threads_C_API_test.cpp ****     __asm__ ("mv %[t1], t1" : [t1] "=r"(t1));
 394              		.loc 1 62 5
 395              		.loc 1 62 45 is_stmt 0
 396              	#APP
 397              	# 62 "test/Threads_C_API_test.cpp" 1
  63              	
 398              		mv s2, t1
 399              	# 0 "" 2
 400              	.LVL43:
  64:test/Threads_C_API_test.cpp ****     printString("C: t1="); printInt(t1); printString("\n");
 401              		.loc 1 64 5 is_stmt 1
 402              		.loc 1 64 16 is_stmt 0
 403              	#NO_APP
 404 0248 17050000 		lla	a0,.LC9
 404      13050500 
 405 0250 97000000 		call	_Z11printStringPKc@plt
 405      E7800000 
 406              	.LVL44:
 407              		.loc 1 64 28 is_stmt 1
 408              		.loc 1 64 36 is_stmt 0
 409 0258 13060000 		li	a2,0
 410 025c 9305A000 		li	a1,10
 411 0260 1B050900 		sext.w	a0,s2
 412 0264 97000000 		call	_Z8printIntiii@plt
 412      E7800000 
 413              	.LVL45:
 414              		.loc 1 64 42 is_stmt 1
 415              		.loc 1 64 53 is_stmt 0
 416 026c 17050000 		lla	a0,.LC1
 416      13050500 
 417 0274 97000000 		call	_Z11printStringPKc@plt
 417      E7800000 
 418              	.LVL46:
  65:test/Threads_C_API_test.cpp **** 
  66:test/Threads_C_API_test.cpp ****     uint64 result = fibonacci(12);
 419              		.loc 1 66 5 is_stmt 1
 420              		.loc 1 66 30 is_stmt 0
 421 027c 1305C000 		li	a0,12
GAS LISTING /tmp/cck9bHzV.s 			page 11


 422 0280 97000000 		call	_ZL9fibonaccim
 422      E7800000 
 423              	.LVL47:
 424 0288 13090500 		mv	s2,a0
 425              	.LVL48:
  67:test/Threads_C_API_test.cpp ****     printString("C: fibonaci="); printInt(result); printString("\n");
 426              		.loc 1 67 5 is_stmt 1
 427              		.loc 1 67 16 is_stmt 0
 428 028c 17050000 		lla	a0,.LC10
 428      13050500 
 429              	.LVL49:
 430 0294 97000000 		call	_Z11printStringPKc@plt
 430      E7800000 
 431              	.LVL50:
 432              		.loc 1 67 34 is_stmt 1
 433              		.loc 1 67 42 is_stmt 0
 434 029c 13060000 		li	a2,0
 435 02a0 9305A000 		li	a1,10
 436 02a4 1B050900 		sext.w	a0,s2
 437 02a8 97000000 		call	_Z8printIntiii@plt
 437      E7800000 
 438              	.LVL51:
 439              		.loc 1 67 52 is_stmt 1
 440              		.loc 1 67 63 is_stmt 0
 441 02b0 17050000 		lla	a0,.LC1
 441      13050500 
 442 02b8 97000000 		call	_Z11printStringPKc@plt
 442      E7800000 
 443              	.LVL52:
 444 02c0 6F000004 		j	.L23
 445              	.L26:
  68:test/Threads_C_API_test.cpp **** 
  69:test/Threads_C_API_test.cpp ****     for (; i < 6; i++) {
  70:test/Threads_C_API_test.cpp ****         printString("C: i="); printInt(i); printString("\n");
 446              		.loc 1 70 9 is_stmt 1 discriminator 1
 447              		.loc 1 70 20 is_stmt 0 discriminator 1
 448 02c4 17050000 		lla	a0,.LC6
 448      13050500 
 449 02cc 97000000 		call	_Z11printStringPKc@plt
 449      E7800000 
 450              	.LVL53:
 451              		.loc 1 70 31 is_stmt 1 discriminator 1
 452              		.loc 1 70 39 is_stmt 0 discriminator 1
 453 02d4 13060000 		li	a2,0
 454 02d8 9305A000 		li	a1,10
 455 02dc 13850400 		mv	a0,s1
 456 02e0 97000000 		call	_Z8printIntiii@plt
 456      E7800000 
 457              	.LVL54:
 458              		.loc 1 70 44 is_stmt 1 discriminator 1
 459              		.loc 1 70 55 is_stmt 0 discriminator 1
 460 02e8 17050000 		lla	a0,.LC1
 460      13050500 
 461 02f0 97000000 		call	_Z11printStringPKc@plt
 461      E7800000 
 462              	.LVL55:
  69:test/Threads_C_API_test.cpp ****         printString("C: i="); printInt(i); printString("\n");
GAS LISTING /tmp/cck9bHzV.s 			page 12


 463              		.loc 1 69 5 is_stmt 1 discriminator 1
 464 02f8 9B841400 		addiw	s1,s1,1
 465              	.LVL56:
 466 02fc 93F4F40F 		andi	s1,s1,0xff
 467              	.LVL57:
 468              	.L23:
  69:test/Threads_C_API_test.cpp ****         printString("C: i="); printInt(i); printString("\n");
 469              		.loc 1 69 5 discriminator 2
  69:test/Threads_C_API_test.cpp ****         printString("C: i="); printInt(i); printString("\n");
 470              		.loc 1 69 14 discriminator 2
 471 0300 93075000 		li	a5,5
 472 0304 E3F097FC 		bleu	s1,a5,.L26
  71:test/Threads_C_API_test.cpp ****     }
  72:test/Threads_C_API_test.cpp **** 
  73:test/Threads_C_API_test.cpp ****     printString("C finished!\n");
 473              		.loc 1 73 5
 474              		.loc 1 73 16 is_stmt 0
 475 0308 17050000 		lla	a0,.LC11
 475      13050500 
 476 0310 97000000 		call	_Z11printStringPKc@plt
 476      E7800000 
 477              	.LVL58:
  74:test/Threads_C_API_test.cpp ****     thread_dispatch();
 478              		.loc 1 74 5 is_stmt 1
 479              		.loc 1 74 20 is_stmt 0
 480 0318 97000000 		call	thread_dispatch@plt
 480      E7800000 
 481              	.LVL59:
  75:test/Threads_C_API_test.cpp ****     finishedC = true;
 482              		.loc 1 75 5 is_stmt 1
 483              		.loc 1 75 15 is_stmt 0
 484 0320 93071000 		li	a5,1
 485 0324 17070000 		sb	a5,.LANCHOR0+2,a4
 485      2300F700 
  76:test/Threads_C_API_test.cpp **** }
 486              		.loc 1 76 1
 487 032c 83308101 		ld	ra,24(sp)
 488              		.cfi_restore 1
 489 0330 03340101 		ld	s0,16(sp)
 490              		.cfi_restore 8
 491              		.cfi_def_cfa 2, 32
 492 0334 83348100 		ld	s1,8(sp)
 493              		.cfi_restore 9
 494              	.LVL60:
 495 0338 03390100 		ld	s2,0(sp)
 496              		.cfi_restore 18
 497              	.LVL61:
 498 033c 13010102 		addi	sp,sp,32
 499              		.cfi_def_cfa_offset 0
 500 0340 67800000 		jr	ra
 501              		.cfi_endproc
 502              	.LFE26:
 504              		.section	.rodata.str1.8
 505 0095 000000   		.align	3
 506              	.LC12:
 507 0098 443A2069 		.string	"D: i="
 507      3D00
GAS LISTING /tmp/cck9bHzV.s 			page 13


 508 009e 0000     		.align	3
 509              	.LC13:
 510 00a0 443A2064 		.string	"D: dispatch\n"
 510      69737061 
 510      7463680A 
 510      00
 511 00ad 000000   		.align	3
 512              	.LC14:
 513 00b0 443A2072 		.string	"D: returned\n"
 513      65747572 
 513      6E65640A 
 513      00
 514 00bd 000000   		.align	3
 515              	.LC15:
 516 00c0 443A2066 		.string	"D: fibonaci="
 516      69626F6E 
 516      6163693D 
 516      00
 517 00cd 000000   		.align	3
 518              	.LC16:
 519 00d0 44206669 		.string	"D finished!\n"
 519      6E697368 
 519      6564210A 
 519      00
 520              		.text
 521              		.align	2
 522              		.globl	_Z11workerBodyDPv
 524              	_Z11workerBodyDPv:
 525              	.LFB27:
  77:test/Threads_C_API_test.cpp **** 
  78:test/Threads_C_API_test.cpp **** void workerBodyD(void* arg) {
 526              		.loc 1 78 29 is_stmt 1
 527              		.cfi_startproc
 528              	.LVL62:
 529 0344 130101FE 		addi	sp,sp,-32
 530              		.cfi_def_cfa_offset 32
 531 0348 233C1100 		sd	ra,24(sp)
 532 034c 23388100 		sd	s0,16(sp)
 533 0350 23349100 		sd	s1,8(sp)
 534 0354 23302101 		sd	s2,0(sp)
 535              		.cfi_offset 1, -8
 536              		.cfi_offset 8, -16
 537              		.cfi_offset 9, -24
 538              		.cfi_offset 18, -32
 539 0358 13040102 		addi	s0,sp,32
 540              		.cfi_def_cfa 8, 0
  79:test/Threads_C_API_test.cpp ****     uint8 i = 10;
 541              		.loc 1 79 5
 542              	.LVL63:
 543              		.loc 1 79 11 is_stmt 0
 544 035c 9304A000 		li	s1,10
 545 0360 6F000004 		j	.L29
 546              	.LVL64:
 547              	.L33:
  80:test/Threads_C_API_test.cpp ****     for (; i < 13; i++) {
  81:test/Threads_C_API_test.cpp ****         printString("D: i="); printInt(i); printString("\n");
 548              		.loc 1 81 9 is_stmt 1 discriminator 1
GAS LISTING /tmp/cck9bHzV.s 			page 14


 549              		.loc 1 81 20 is_stmt 0 discriminator 1
 550 0364 17050000 		lla	a0,.LC12
 550      13050500 
 551 036c 97000000 		call	_Z11printStringPKc@plt
 551      E7800000 
 552              	.LVL65:
 553              		.loc 1 81 31 is_stmt 1 discriminator 1
 554              		.loc 1 81 39 is_stmt 0 discriminator 1
 555 0374 13060000 		li	a2,0
 556 0378 9305A000 		li	a1,10
 557 037c 13850400 		mv	a0,s1
 558 0380 97000000 		call	_Z8printIntiii@plt
 558      E7800000 
 559              	.LVL66:
 560              		.loc 1 81 44 is_stmt 1 discriminator 1
 561              		.loc 1 81 55 is_stmt 0 discriminator 1
 562 0388 17050000 		lla	a0,.LC1
 562      13050500 
 563 0390 97000000 		call	_Z11printStringPKc@plt
 563      E7800000 
 564              	.LVL67:
  80:test/Threads_C_API_test.cpp ****     for (; i < 13; i++) {
 565              		.loc 1 80 5 is_stmt 1 discriminator 1
 566 0398 9B841400 		addiw	s1,s1,1
 567              	.LVL68:
 568 039c 93F4F40F 		andi	s1,s1,0xff
 569              	.LVL69:
 570              	.L29:
  80:test/Threads_C_API_test.cpp ****     for (; i < 13; i++) {
 571              		.loc 1 80 5 discriminator 2
  80:test/Threads_C_API_test.cpp ****     for (; i < 13; i++) {
 572              		.loc 1 80 14 discriminator 2
 573 03a0 9307C000 		li	a5,12
 574 03a4 E3F097FC 		bleu	s1,a5,.L33
  82:test/Threads_C_API_test.cpp ****     }
  83:test/Threads_C_API_test.cpp **** 
  84:test/Threads_C_API_test.cpp ****     printString("D: dispatch\n");
 575              		.loc 1 84 5
 576              		.loc 1 84 16 is_stmt 0
 577 03a8 17050000 		lla	a0,.LC13
 577      13050500 
 578 03b0 97000000 		call	_Z11printStringPKc@plt
 578      E7800000 
 579              	.LVL70:
  85:test/Threads_C_API_test.cpp ****     __asm__ ("li t1, 5");
 580              		.loc 1 85 5 is_stmt 1
 581              		.loc 1 85 25 is_stmt 0
 582              	#APP
 583              	# 85 "test/Threads_C_API_test.cpp" 1
  86              	    thread_dispatch();
 584              		li t1, 5
 585              	# 0 "" 2
 586              		.loc 1 86 5 is_stmt 1
 587              		.loc 1 86 20 is_stmt 0
 588              	#NO_APP
 589 03bc 97000000 		call	thread_dispatch@plt
 589      E7800000 
GAS LISTING /tmp/cck9bHzV.s 			page 15


 590              	.LVL71:
  87:test/Threads_C_API_test.cpp ****     printString("D: returned\n");
 591              		.loc 1 87 5 is_stmt 1
 592              		.loc 1 87 16 is_stmt 0
 593 03c4 17050000 		lla	a0,.LC14
 593      13050500 
 594 03cc 97000000 		call	_Z11printStringPKc@plt
 594      E7800000 
 595              	.LVL72:
  88:test/Threads_C_API_test.cpp ****     uint64 result = fibonacci(16);
 596              		.loc 1 88 5 is_stmt 1
 597              		.loc 1 88 30 is_stmt 0
 598 03d4 13050001 		li	a0,16
 599 03d8 97000000 		call	_ZL9fibonaccim
 599      E7800000 
 600              	.LVL73:
 601 03e0 13090500 		mv	s2,a0
 602              	.LVL74:
  89:test/Threads_C_API_test.cpp ****     printString("D: fibonaci="); printInt(result); printString("\n");
 603              		.loc 1 89 5 is_stmt 1
 604              		.loc 1 89 16 is_stmt 0
 605 03e4 17050000 		lla	a0,.LC15
 605      13050500 
 606              	.LVL75:
 607 03ec 97000000 		call	_Z11printStringPKc@plt
 607      E7800000 
 608              	.LVL76:
 609              		.loc 1 89 34 is_stmt 1
 610              		.loc 1 89 42 is_stmt 0
 611 03f4 13060000 		li	a2,0
 612 03f8 9305A000 		li	a1,10
 613 03fc 1B050900 		sext.w	a0,s2
 614 0400 97000000 		call	_Z8printIntiii@plt
 614      E7800000 
 615              	.LVL77:
 616              		.loc 1 89 52 is_stmt 1
 617              		.loc 1 89 63 is_stmt 0
 618 0408 17050000 		lla	a0,.LC1
 618      13050500 
 619 0410 97000000 		call	_Z11printStringPKc@plt
 619      E7800000 
 620              	.LVL78:
 621 0418 6F000004 		j	.L31
 622              	.L34:
  90:test/Threads_C_API_test.cpp **** 
  91:test/Threads_C_API_test.cpp ****     for (; i < 16; i++) {
  92:test/Threads_C_API_test.cpp ****         printString("D: i="); printInt(i); printString("\n");
 623              		.loc 1 92 9 is_stmt 1 discriminator 1
 624              		.loc 1 92 20 is_stmt 0 discriminator 1
 625 041c 17050000 		lla	a0,.LC12
 625      13050500 
 626 0424 97000000 		call	_Z11printStringPKc@plt
 626      E7800000 
 627              	.LVL79:
 628              		.loc 1 92 31 is_stmt 1 discriminator 1
 629              		.loc 1 92 39 is_stmt 0 discriminator 1
 630 042c 13060000 		li	a2,0
GAS LISTING /tmp/cck9bHzV.s 			page 16


 631 0430 9305A000 		li	a1,10
 632 0434 13850400 		mv	a0,s1
 633 0438 97000000 		call	_Z8printIntiii@plt
 633      E7800000 
 634              	.LVL80:
 635              		.loc 1 92 44 is_stmt 1 discriminator 1
 636              		.loc 1 92 55 is_stmt 0 discriminator 1
 637 0440 17050000 		lla	a0,.LC1
 637      13050500 
 638 0448 97000000 		call	_Z11printStringPKc@plt
 638      E7800000 
 639              	.LVL81:
  91:test/Threads_C_API_test.cpp ****         printString("D: i="); printInt(i); printString("\n");
 640              		.loc 1 91 5 is_stmt 1 discriminator 1
 641 0450 9B841400 		addiw	s1,s1,1
 642              	.LVL82:
 643 0454 93F4F40F 		andi	s1,s1,0xff
 644              	.LVL83:
 645              	.L31:
  91:test/Threads_C_API_test.cpp ****         printString("D: i="); printInt(i); printString("\n");
 646              		.loc 1 91 5 discriminator 2
  91:test/Threads_C_API_test.cpp ****         printString("D: i="); printInt(i); printString("\n");
 647              		.loc 1 91 14 discriminator 2
 648 0458 9307F000 		li	a5,15
 649 045c E3F097FC 		bleu	s1,a5,.L34
  93:test/Threads_C_API_test.cpp ****     }
  94:test/Threads_C_API_test.cpp **** 
  95:test/Threads_C_API_test.cpp ****     printString("D finished!\n");
 650              		.loc 1 95 5
 651              		.loc 1 95 16 is_stmt 0
 652 0460 17050000 		lla	a0,.LC16
 652      13050500 
 653 0468 97000000 		call	_Z11printStringPKc@plt
 653      E7800000 
 654              	.LVL84:
  96:test/Threads_C_API_test.cpp ****     thread_dispatch();
 655              		.loc 1 96 5 is_stmt 1
 656              		.loc 1 96 20 is_stmt 0
 657 0470 97000000 		call	thread_dispatch@plt
 657      E7800000 
 658              	.LVL85:
  97:test/Threads_C_API_test.cpp ****     finishedD = true;
 659              		.loc 1 97 5 is_stmt 1
 660              		.loc 1 97 15 is_stmt 0
 661 0478 93071000 		li	a5,1
 662 047c 17070000 		sb	a5,.LANCHOR0+3,a4
 662      2300F700 
  98:test/Threads_C_API_test.cpp **** }
 663              		.loc 1 98 1
 664 0484 83308101 		ld	ra,24(sp)
 665              		.cfi_restore 1
 666 0488 03340101 		ld	s0,16(sp)
 667              		.cfi_restore 8
 668              		.cfi_def_cfa 2, 32
 669 048c 83348100 		ld	s1,8(sp)
 670              		.cfi_restore 9
 671              	.LVL86:
GAS LISTING /tmp/cck9bHzV.s 			page 17


 672 0490 03390100 		ld	s2,0(sp)
 673              		.cfi_restore 18
 674              	.LVL87:
 675 0494 13010102 		addi	sp,sp,32
 676              		.cfi_def_cfa_offset 0
 677 0498 67800000 		jr	ra
 678              		.cfi_endproc
 679              	.LFE27:
 681              		.section	.rodata.str1.8
 682 00dd 000000   		.align	3
 683              	.LC17:
 684 00e0 54687265 		.string	"ThreadA created\n"
 684      61644120 
 684      63726561 
 684      7465640A 
 684      00
 685 00f1 00000000 		.align	3
 685      000000
 686              	.LC18:
 687 00f8 54687265 		.string	"ThreadB created\n"
 687      61644220 
 687      63726561 
 687      7465640A 
 687      00
 688 0109 00000000 		.align	3
 688      000000
 689              	.LC19:
 690 0110 54687265 		.string	"ThreadC created\n"
 690      61644320 
 690      63726561 
 690      7465640A 
 690      00
 691 0121 00000000 		.align	3
 691      000000
 692              	.LC20:
 693 0128 54687265 		.string	"ThreadD created\n"
 693      61644420 
 693      63726561 
 693      7465640A 
 693      00
 694              		.text
 695              		.align	2
 696              		.globl	_Z18Threads_C_API_testv
 698              	_Z18Threads_C_API_testv:
 699              	.LFB28:
  99:test/Threads_C_API_test.cpp **** 
 100:test/Threads_C_API_test.cpp **** 
 101:test/Threads_C_API_test.cpp **** void Threads_C_API_test() {
 700              		.loc 1 101 27 is_stmt 1
 701              		.cfi_startproc
 702 049c 130101FC 		addi	sp,sp,-64
 703              		.cfi_def_cfa_offset 64
 704 04a0 233C1102 		sd	ra,56(sp)
 705 04a4 23388102 		sd	s0,48(sp)
 706 04a8 23349102 		sd	s1,40(sp)
 707 04ac 23302103 		sd	s2,32(sp)
 708              		.cfi_offset 1, -8
GAS LISTING /tmp/cck9bHzV.s 			page 18


 709              		.cfi_offset 8, -16
 710              		.cfi_offset 9, -24
 711              		.cfi_offset 18, -32
 712 04b0 13040104 		addi	s0,sp,64
 713              		.cfi_def_cfa 8, 0
 102:test/Threads_C_API_test.cpp ****     thread_t threads[4];
 714              		.loc 1 102 5
 103:test/Threads_C_API_test.cpp ****     thread_create(&threads[0], workerBodyA, nullptr);
 715              		.loc 1 103 5
 716              		.loc 1 103 18 is_stmt 0
 717 04b4 13060000 		li	a2,0
 718 04b8 97050000 		lla	a1,_Z11workerBodyAPv
 718      93850500 
 719 04c0 130504FC 		addi	a0,s0,-64
 720 04c4 97000000 		call	thread_create@plt
 720      E7800000 
 721              	.LVL88:
 104:test/Threads_C_API_test.cpp ****     printString("ThreadA created\n");
 722              		.loc 1 104 5 is_stmt 1
 723              		.loc 1 104 16 is_stmt 0
 724 04cc 17050000 		lla	a0,.LC17
 724      13050500 
 725 04d4 97000000 		call	_Z11printStringPKc@plt
 725      E7800000 
 726              	.LVL89:
 105:test/Threads_C_API_test.cpp **** 
 106:test/Threads_C_API_test.cpp ****     thread_create(&threads[1], workerBodyB, nullptr);
 727              		.loc 1 106 5 is_stmt 1
 728              		.loc 1 106 18 is_stmt 0
 729 04dc 13060000 		li	a2,0
 730 04e0 97050000 		lla	a1,_Z11workerBodyBPv
 730      93850500 
 731 04e8 130584FC 		addi	a0,s0,-56
 732 04ec 97000000 		call	thread_create@plt
 732      E7800000 
 733              	.LVL90:
 107:test/Threads_C_API_test.cpp ****     printString("ThreadB created\n");
 734              		.loc 1 107 5 is_stmt 1
 735              		.loc 1 107 16 is_stmt 0
 736 04f4 17050000 		lla	a0,.LC18
 736      13050500 
 737 04fc 97000000 		call	_Z11printStringPKc@plt
 737      E7800000 
 738              	.LVL91:
 108:test/Threads_C_API_test.cpp **** 
 109:test/Threads_C_API_test.cpp ****     thread_create(&threads[2], workerBodyC, nullptr);
 739              		.loc 1 109 5 is_stmt 1
 740              		.loc 1 109 18 is_stmt 0
 741 0504 13060000 		li	a2,0
 742 0508 97050000 		lla	a1,_Z11workerBodyCPv
 742      93850500 
 743 0510 130504FD 		addi	a0,s0,-48
 744 0514 97000000 		call	thread_create@plt
 744      E7800000 
 745              	.LVL92:
 110:test/Threads_C_API_test.cpp ****     printString("ThreadC created\n");
 746              		.loc 1 110 5 is_stmt 1
GAS LISTING /tmp/cck9bHzV.s 			page 19


 747              		.loc 1 110 16 is_stmt 0
 748 051c 17050000 		lla	a0,.LC19
 748      13050500 
 749 0524 97000000 		call	_Z11printStringPKc@plt
 749      E7800000 
 750              	.LVL93:
 111:test/Threads_C_API_test.cpp **** 
 112:test/Threads_C_API_test.cpp ****     thread_create(&threads[3], workerBodyD, nullptr);
 751              		.loc 1 112 5 is_stmt 1
 752              		.loc 1 112 18 is_stmt 0
 753 052c 13060000 		li	a2,0
 754 0530 97050000 		lla	a1,_Z11workerBodyDPv
 754      93850500 
 755 0538 130584FD 		addi	a0,s0,-40
 756 053c 97000000 		call	thread_create@plt
 756      E7800000 
 757              	.LVL94:
 113:test/Threads_C_API_test.cpp ****     printString("ThreadD created\n");
 758              		.loc 1 113 5 is_stmt 1
 759              		.loc 1 113 16 is_stmt 0
 760 0544 17050000 		lla	a0,.LC20
 760      13050500 
 761 054c 97000000 		call	_Z11printStringPKc@plt
 761      E7800000 
 762              	.LVL95:
 763 0554 6F00C000 		j	.L38
 764              	.L36:
 114:test/Threads_C_API_test.cpp **** 
 115:test/Threads_C_API_test.cpp ****     while (!(finishedA && finishedB && finishedC && finishedD)) {
 116:test/Threads_C_API_test.cpp ****         //printString("Main thread\n");
 117:test/Threads_C_API_test.cpp ****         thread_dispatch();
 765              		.loc 1 117 9 is_stmt 1
 766              		.loc 1 117 24 is_stmt 0
 767 0558 97000000 		call	thread_dispatch@plt
 767      E7800000 
 768              	.LVL96:
 769              	.L38:
 115:test/Threads_C_API_test.cpp ****         //printString("Main thread\n");
 770              		.loc 1 115 5 is_stmt 1
 115:test/Threads_C_API_test.cpp ****         //printString("Main thread\n");
 771              		.loc 1 115 12
 772 0560 97070000 		lbu	a5,.LANCHOR0
 772      83C70700 
 773 0568 E38807FE 		beqz	a5,.L36
 115:test/Threads_C_API_test.cpp ****         //printString("Main thread\n");
 774              		.loc 1 115 24 is_stmt 0 discriminator 1
 775 056c 97070000 		lbu	a5,.LANCHOR0+1
 775      83C70700 
 776 0574 E38207FE 		beqz	a5,.L36
 115:test/Threads_C_API_test.cpp ****         //printString("Main thread\n");
 777              		.loc 1 115 37 discriminator 2
 778 0578 97070000 		lbu	a5,.LANCHOR0+2
 778      83C70700 
 779 0580 E38C07FC 		beqz	a5,.L36
 115:test/Threads_C_API_test.cpp ****         //printString("Main thread\n");
 780              		.loc 1 115 12 discriminator 3
 781 0584 97070000 		lbu	a5,.LANCHOR0+3
GAS LISTING /tmp/cck9bHzV.s 			page 20


 781      83C70700 
 782 058c E38607FC 		beqz	a5,.L36
 783              	.LBB14:
 118:test/Threads_C_API_test.cpp ****     }
 119:test/Threads_C_API_test.cpp **** 
 120:test/Threads_C_API_test.cpp ****     for (auto &thread: threads) {
 784              		.loc 1 120 24
 785 0590 930404FC 		addi	s1,s0,-64
 786 0594 6F008000 		j	.L37
 787              	.LVL97:
 788              	.L40:
 789              		.loc 1 120 5 is_stmt 1 discriminator 3
 790 0598 93848400 		addi	s1,s1,8
 791              	.LVL98:
 792              	.L37:
 793              		.loc 1 120 24 discriminator 1
 794 059c 930704FE 		addi	a5,s0,-32
 795 05a0 6384F402 		beq	s1,a5,.L35
 796              	.LVL99:
 121:test/Threads_C_API_test.cpp ****         //todo
 122:test/Threads_C_API_test.cpp ****         //in order to syscall.c to stay .c it gotta be converted
 123:test/Threads_C_API_test.cpp ****         delete (PCB*)thread;
 797              		.loc 1 123 9 discriminator 2
 798              		.loc 1 123 16 is_stmt 0 discriminator 2
 799 05a4 03B90400 		ld	s2,0(s1)
 800              		.loc 1 123 28 discriminator 2
 801 05a8 E30809FE 		beqz	s2,.L40
 802              		.loc 1 123 22 discriminator 1
 803 05ac 13050900 		mv	a0,s2
 804 05b0 97000000 		call	_ZN3PCBD1Ev@plt
 804      E7800000 
 805              	.LVL100:
 806 05b8 13050900 		mv	a0,s2
 807 05bc 97000000 		call	_ZN3PCBdlEPv@plt
 807      E7800000 
 808              	.LVL101:
 809 05c4 6FF05FFD 		j	.L40
 810              	.LVL102:
 811              	.L35:
 812              	.LBE14:
 124:test/Threads_C_API_test.cpp ****     }
 125:test/Threads_C_API_test.cpp **** }
 813              		.loc 1 125 1
 814 05c8 83308103 		ld	ra,56(sp)
 815              		.cfi_restore 1
 816 05cc 03340103 		ld	s0,48(sp)
 817              		.cfi_restore 8
 818              		.cfi_def_cfa 2, 64
 819 05d0 83348102 		ld	s1,40(sp)
 820              		.cfi_restore 9
 821              	.LVL103:
 822 05d4 03390102 		ld	s2,32(sp)
 823              		.cfi_restore 18
 824 05d8 13010104 		addi	sp,sp,64
 825              		.cfi_def_cfa_offset 0
 826 05dc 67800000 		jr	ra
 827              		.cfi_endproc
GAS LISTING /tmp/cck9bHzV.s 			page 21


 828              	.LFE28:
 830              		.bss
 831              		.set	.LANCHOR0,. + 0
 834              	_ZL9finishedA:
 835 0000 00       		.zero	1
 838              	_ZL9finishedB:
 839 0001 00       		.zero	1
 842              	_ZL9finishedC:
 843 0002 00       		.zero	1
 846              	_ZL9finishedD:
 847 0003 00       		.zero	1
 848              		.text
 849              	.Letext0:
 850              		.file 2 "test/../h/../lib/hw.h"
 851              		.file 3 "test/../h/syscall_c.h"
 852              		.file 4 "test/../h/PCB.hpp"
 853              		.file 5 "test/../h/Riscv.hpp"
 854              		.file 6 "test/printing.hpp"
GAS LISTING /tmp/cck9bHzV.s 			page 22


DEFINED SYMBOLS
                            *ABS*:0000000000000000 Threads_C_API_test.cpp
     /tmp/cck9bHzV.s:20     .text:0000000000000000 _Z11workerBodyAPv
     /tmp/cck9bHzV.s:24     .text:0000000000000000 .L0 
     /tmp/cck9bHzV.s:26     .text:0000000000000000 .L0 
     /tmp/cck9bHzV.s:27     .text:0000000000000004 .L0 
     /tmp/cck9bHzV.s:31     .text:0000000000000010 .L0 
     /tmp/cck9bHzV.s:32     .text:0000000000000010 .L0 
     /tmp/cck9bHzV.s:33     .text:0000000000000010 .L0 
     /tmp/cck9bHzV.s:35     .text:0000000000000014 .L0 
     /tmp/cck9bHzV.s:39     .text:0000000000000014 .L0 
     /tmp/cck9bHzV.s:40     .text:0000000000000014 .L0 
     /tmp/cck9bHzV.s:47     .text:000000000000001c .L0 
     /tmp/cck9bHzV.s:51     .text:0000000000000020 .L0 
     /tmp/cck9bHzV.s:56     .text:000000000000002c .L0 
     /tmp/cck9bHzV.s:60     .text:0000000000000030 .L0 
     /tmp/cck9bHzV.s:64     .text:000000000000003c .L0 
     /tmp/cck9bHzV.s:73     .text:0000000000000044 .L0 
     /tmp/cck9bHzV.s:77     .text:0000000000000048 .L0 
     /tmp/cck9bHzV.s:81     .text:0000000000000050 .L0 
     /tmp/cck9bHzV.s:82     .text:0000000000000050 .L0 
     /tmp/cck9bHzV.s:86     .text:0000000000000060 .L0 
     /tmp/cck9bHzV.s:87     .text:0000000000000060 .L0 
     /tmp/cck9bHzV.s:93     .text:0000000000000074 .L0 
     /tmp/cck9bHzV.s:94     .text:0000000000000074 .L0 
     /tmp/cck9bHzV.s:99     .text:0000000000000084 .L0 
     /tmp/cck9bHzV.s:100    .text:0000000000000084 .L0 
     /tmp/cck9bHzV.s:108    .text:000000000000008c .L0 
     /tmp/cck9bHzV.s:109    .text:000000000000008c .L0 
     /tmp/cck9bHzV.s:113    .text:000000000000009c .L0 
     /tmp/cck9bHzV.s:114    .text:000000000000009c .L0 
     /tmp/cck9bHzV.s:117    .text:00000000000000a8 .L0 
     /tmp/cck9bHzV.s:118    .text:00000000000000ac .L0 
     /tmp/cck9bHzV.s:120    .text:00000000000000b0 .L0 
     /tmp/cck9bHzV.s:121    .text:00000000000000b0 .L0 
     /tmp/cck9bHzV.s:123    .text:00000000000000b4 .L0 
     /tmp/cck9bHzV.s:126    .text:00000000000000b8 .L0 
     /tmp/cck9bHzV.s:128    .text:00000000000000bc .L0 
     /tmp/cck9bHzV.s:138    .text:00000000000000bc _ZL9fibonaccim
     /tmp/cck9bHzV.s:141    .text:00000000000000bc .L0 
     /tmp/cck9bHzV.s:143    .text:00000000000000bc .L0 
     /tmp/cck9bHzV.s:144    .text:00000000000000c0 .L0 
     /tmp/cck9bHzV.s:147    .text:00000000000000c8 .L0 
     /tmp/cck9bHzV.s:148    .text:00000000000000c8 .L0 
     /tmp/cck9bHzV.s:150    .text:00000000000000cc .L0 
     /tmp/cck9bHzV.s:152    .text:00000000000000cc .L0 
     /tmp/cck9bHzV.s:153    .text:00000000000000cc .L0 
     /tmp/cck9bHzV.s:158    .text:00000000000000dc .L0 
     /tmp/cck9bHzV.s:159    .text:00000000000000dc .L0 
     /tmp/cck9bHzV.s:160    .text:00000000000000dc .L0 
     /tmp/cck9bHzV.s:161    .text:00000000000000dc .L0 
     /tmp/cck9bHzV.s:163    .text:00000000000000e4 .L0 
     /tmp/cck9bHzV.s:165    .text:00000000000000e8 .L0 
     /tmp/cck9bHzV.s:166    .text:00000000000000e8 .L0 
     /tmp/cck9bHzV.s:168    .text:00000000000000ec .L0 
     /tmp/cck9bHzV.s:170    .text:00000000000000f0 .L0 
     /tmp/cck9bHzV.s:184    .text:00000000000000f0 _Z11workerBodyBPv
GAS LISTING /tmp/cck9bHzV.s 			page 23


     /tmp/cck9bHzV.s:187    .text:00000000000000f0 .L0 
     /tmp/cck9bHzV.s:189    .text:00000000000000f0 .L0 
     /tmp/cck9bHzV.s:190    .text:00000000000000f4 .L0 
     /tmp/cck9bHzV.s:194    .text:0000000000000100 .L0 
     /tmp/cck9bHzV.s:195    .text:0000000000000100 .L0 
     /tmp/cck9bHzV.s:196    .text:0000000000000100 .L0 
     /tmp/cck9bHzV.s:198    .text:0000000000000104 .L0 
     /tmp/cck9bHzV.s:202    .text:0000000000000104 .L0 
     /tmp/cck9bHzV.s:203    .text:0000000000000104 .L0 
     /tmp/cck9bHzV.s:210    .text:000000000000010c .L0 
     /tmp/cck9bHzV.s:214    .text:0000000000000110 .L0 
     /tmp/cck9bHzV.s:219    .text:000000000000011c .L0 
     /tmp/cck9bHzV.s:223    .text:0000000000000120 .L0 
     /tmp/cck9bHzV.s:227    .text:000000000000012c .L0 
     /tmp/cck9bHzV.s:236    .text:0000000000000134 .L0 
     /tmp/cck9bHzV.s:240    .text:0000000000000138 .L0 
     /tmp/cck9bHzV.s:244    .text:0000000000000140 .L0 
     /tmp/cck9bHzV.s:245    .text:0000000000000140 .L0 
     /tmp/cck9bHzV.s:249    .text:0000000000000150 .L0 
     /tmp/cck9bHzV.s:250    .text:0000000000000150 .L0 
     /tmp/cck9bHzV.s:256    .text:0000000000000164 .L0 
     /tmp/cck9bHzV.s:257    .text:0000000000000164 .L0 
     /tmp/cck9bHzV.s:262    .text:0000000000000174 .L0 
     /tmp/cck9bHzV.s:263    .text:0000000000000174 .L0 
     /tmp/cck9bHzV.s:271    .text:000000000000017c .L0 
     /tmp/cck9bHzV.s:272    .text:000000000000017c .L0 
     /tmp/cck9bHzV.s:276    .text:000000000000018c .L0 
     /tmp/cck9bHzV.s:277    .text:000000000000018c .L0 
     /tmp/cck9bHzV.s:280    .text:0000000000000194 .L0 
     /tmp/cck9bHzV.s:281    .text:0000000000000194 .L0 
     /tmp/cck9bHzV.s:284    .text:00000000000001a0 .L0 
     /tmp/cck9bHzV.s:285    .text:00000000000001a4 .L0 
     /tmp/cck9bHzV.s:287    .text:00000000000001a8 .L0 
     /tmp/cck9bHzV.s:288    .text:00000000000001a8 .L0 
     /tmp/cck9bHzV.s:290    .text:00000000000001ac .L0 
     /tmp/cck9bHzV.s:293    .text:00000000000001b0 .L0 
     /tmp/cck9bHzV.s:295    .text:00000000000001b4 .L0 
     /tmp/cck9bHzV.s:321    .text:00000000000001b4 _Z11workerBodyCPv
     /tmp/cck9bHzV.s:324    .text:00000000000001b4 .L0 
     /tmp/cck9bHzV.s:326    .text:00000000000001b4 .L0 
     /tmp/cck9bHzV.s:327    .text:00000000000001b8 .L0 
     /tmp/cck9bHzV.s:332    .text:00000000000001c8 .L0 
     /tmp/cck9bHzV.s:333    .text:00000000000001c8 .L0 
     /tmp/cck9bHzV.s:334    .text:00000000000001c8 .L0 
     /tmp/cck9bHzV.s:335    .text:00000000000001c8 .L0 
     /tmp/cck9bHzV.s:337    .text:00000000000001cc .L0 
     /tmp/cck9bHzV.s:340    .text:00000000000001cc .L0 
     /tmp/cck9bHzV.s:341    .text:00000000000001cc .L0 
     /tmp/cck9bHzV.s:346    .text:00000000000001d4 .L0 
     /tmp/cck9bHzV.s:347    .text:00000000000001d4 .L0 
     /tmp/cck9bHzV.s:351    .text:00000000000001e4 .L0 
     /tmp/cck9bHzV.s:352    .text:00000000000001e4 .L0 
     /tmp/cck9bHzV.s:358    .text:00000000000001f8 .L0 
     /tmp/cck9bHzV.s:359    .text:00000000000001f8 .L0 
     /tmp/cck9bHzV.s:363    .text:0000000000000208 .L0 
     /tmp/cck9bHzV.s:369    .text:0000000000000210 .L0 
     /tmp/cck9bHzV.s:370    .text:0000000000000210 .L0 
GAS LISTING /tmp/cck9bHzV.s 			page 24


     /tmp/cck9bHzV.s:373    .text:0000000000000218 .L0 
     /tmp/cck9bHzV.s:374    .text:0000000000000218 .L0 
     /tmp/cck9bHzV.s:378    .text:0000000000000228 .L0 
test/Threads_C_API_test.cpp:58     .text:0000000000000228 .L0 
     /tmp/cck9bHzV.s:384    .text:000000000000022c .L0 
     /tmp/cck9bHzV.s:386    .text:000000000000022c .L0 
     /tmp/cck9bHzV.s:389    .text:0000000000000234 .L0 
     /tmp/cck9bHzV.s:390    .text:0000000000000234 .L0 
     /tmp/cck9bHzV.s:394    .text:0000000000000244 .L0 
     /tmp/cck9bHzV.s:395    .text:0000000000000244 .L0 
test/Threads_C_API_test.cpp:62     .text:0000000000000244 .L0 
     /tmp/cck9bHzV.s:402    .text:0000000000000248 .L0 
     /tmp/cck9bHzV.s:404    .text:0000000000000248 .L0 
     /tmp/cck9bHzV.s:408    .text:0000000000000258 .L0 
     /tmp/cck9bHzV.s:409    .text:0000000000000258 .L0 
     /tmp/cck9bHzV.s:415    .text:000000000000026c .L0 
     /tmp/cck9bHzV.s:416    .text:000000000000026c .L0 
     /tmp/cck9bHzV.s:420    .text:000000000000027c .L0 
     /tmp/cck9bHzV.s:421    .text:000000000000027c .L0 
     /tmp/cck9bHzV.s:427    .text:000000000000028c .L0 
     /tmp/cck9bHzV.s:428    .text:000000000000028c .L0 
     /tmp/cck9bHzV.s:433    .text:000000000000029c .L0 
     /tmp/cck9bHzV.s:434    .text:000000000000029c .L0 
     /tmp/cck9bHzV.s:440    .text:00000000000002b0 .L0 
     /tmp/cck9bHzV.s:441    .text:00000000000002b0 .L0 
     /tmp/cck9bHzV.s:447    .text:00000000000002c4 .L0 
     /tmp/cck9bHzV.s:448    .text:00000000000002c4 .L0 
     /tmp/cck9bHzV.s:452    .text:00000000000002d4 .L0 
     /tmp/cck9bHzV.s:453    .text:00000000000002d4 .L0 
     /tmp/cck9bHzV.s:459    .text:00000000000002e8 .L0 
     /tmp/cck9bHzV.s:460    .text:00000000000002e8 .L0 
     /tmp/cck9bHzV.s:464    .text:00000000000002f8 .L0 
     /tmp/cck9bHzV.s:470    .text:0000000000000300 .L0 
     /tmp/cck9bHzV.s:471    .text:0000000000000300 .L0 
     /tmp/cck9bHzV.s:474    .text:0000000000000308 .L0 
     /tmp/cck9bHzV.s:475    .text:0000000000000308 .L0 
     /tmp/cck9bHzV.s:479    .text:0000000000000318 .L0 
     /tmp/cck9bHzV.s:480    .text:0000000000000318 .L0 
     /tmp/cck9bHzV.s:483    .text:0000000000000320 .L0 
     /tmp/cck9bHzV.s:484    .text:0000000000000320 .L0 
     /tmp/cck9bHzV.s:487    .text:000000000000032c .L0 
     /tmp/cck9bHzV.s:488    .text:0000000000000330 .L0 
     /tmp/cck9bHzV.s:490    .text:0000000000000334 .L0 
     /tmp/cck9bHzV.s:491    .text:0000000000000334 .L0 
     /tmp/cck9bHzV.s:493    .text:0000000000000338 .L0 
     /tmp/cck9bHzV.s:496    .text:000000000000033c .L0 
     /tmp/cck9bHzV.s:499    .text:0000000000000340 .L0 
     /tmp/cck9bHzV.s:501    .text:0000000000000344 .L0 
     /tmp/cck9bHzV.s:524    .text:0000000000000344 _Z11workerBodyDPv
     /tmp/cck9bHzV.s:527    .text:0000000000000344 .L0 
     /tmp/cck9bHzV.s:529    .text:0000000000000344 .L0 
     /tmp/cck9bHzV.s:530    .text:0000000000000348 .L0 
     /tmp/cck9bHzV.s:535    .text:0000000000000358 .L0 
     /tmp/cck9bHzV.s:536    .text:0000000000000358 .L0 
     /tmp/cck9bHzV.s:537    .text:0000000000000358 .L0 
     /tmp/cck9bHzV.s:538    .text:0000000000000358 .L0 
     /tmp/cck9bHzV.s:540    .text:000000000000035c .L0 
GAS LISTING /tmp/cck9bHzV.s 			page 25


     /tmp/cck9bHzV.s:543    .text:000000000000035c .L0 
     /tmp/cck9bHzV.s:544    .text:000000000000035c .L0 
     /tmp/cck9bHzV.s:549    .text:0000000000000364 .L0 
     /tmp/cck9bHzV.s:550    .text:0000000000000364 .L0 
     /tmp/cck9bHzV.s:554    .text:0000000000000374 .L0 
     /tmp/cck9bHzV.s:555    .text:0000000000000374 .L0 
     /tmp/cck9bHzV.s:561    .text:0000000000000388 .L0 
     /tmp/cck9bHzV.s:562    .text:0000000000000388 .L0 
     /tmp/cck9bHzV.s:566    .text:0000000000000398 .L0 
     /tmp/cck9bHzV.s:572    .text:00000000000003a0 .L0 
     /tmp/cck9bHzV.s:573    .text:00000000000003a0 .L0 
     /tmp/cck9bHzV.s:576    .text:00000000000003a8 .L0 
     /tmp/cck9bHzV.s:577    .text:00000000000003a8 .L0 
     /tmp/cck9bHzV.s:581    .text:00000000000003b8 .L0 
test/Threads_C_API_test.cpp:85     .text:00000000000003b8 .L0 
     /tmp/cck9bHzV.s:587    .text:00000000000003bc .L0 
     /tmp/cck9bHzV.s:589    .text:00000000000003bc .L0 
     /tmp/cck9bHzV.s:592    .text:00000000000003c4 .L0 
     /tmp/cck9bHzV.s:593    .text:00000000000003c4 .L0 
     /tmp/cck9bHzV.s:597    .text:00000000000003d4 .L0 
     /tmp/cck9bHzV.s:598    .text:00000000000003d4 .L0 
     /tmp/cck9bHzV.s:604    .text:00000000000003e4 .L0 
     /tmp/cck9bHzV.s:605    .text:00000000000003e4 .L0 
     /tmp/cck9bHzV.s:610    .text:00000000000003f4 .L0 
     /tmp/cck9bHzV.s:611    .text:00000000000003f4 .L0 
     /tmp/cck9bHzV.s:617    .text:0000000000000408 .L0 
     /tmp/cck9bHzV.s:618    .text:0000000000000408 .L0 
     /tmp/cck9bHzV.s:624    .text:000000000000041c .L0 
     /tmp/cck9bHzV.s:625    .text:000000000000041c .L0 
     /tmp/cck9bHzV.s:629    .text:000000000000042c .L0 
     /tmp/cck9bHzV.s:630    .text:000000000000042c .L0 
     /tmp/cck9bHzV.s:636    .text:0000000000000440 .L0 
     /tmp/cck9bHzV.s:637    .text:0000000000000440 .L0 
     /tmp/cck9bHzV.s:641    .text:0000000000000450 .L0 
     /tmp/cck9bHzV.s:647    .text:0000000000000458 .L0 
     /tmp/cck9bHzV.s:648    .text:0000000000000458 .L0 
     /tmp/cck9bHzV.s:651    .text:0000000000000460 .L0 
     /tmp/cck9bHzV.s:652    .text:0000000000000460 .L0 
     /tmp/cck9bHzV.s:656    .text:0000000000000470 .L0 
     /tmp/cck9bHzV.s:657    .text:0000000000000470 .L0 
     /tmp/cck9bHzV.s:660    .text:0000000000000478 .L0 
     /tmp/cck9bHzV.s:661    .text:0000000000000478 .L0 
     /tmp/cck9bHzV.s:664    .text:0000000000000484 .L0 
     /tmp/cck9bHzV.s:665    .text:0000000000000488 .L0 
     /tmp/cck9bHzV.s:667    .text:000000000000048c .L0 
     /tmp/cck9bHzV.s:668    .text:000000000000048c .L0 
     /tmp/cck9bHzV.s:670    .text:0000000000000490 .L0 
     /tmp/cck9bHzV.s:673    .text:0000000000000494 .L0 
     /tmp/cck9bHzV.s:676    .text:0000000000000498 .L0 
     /tmp/cck9bHzV.s:678    .text:000000000000049c .L0 
     /tmp/cck9bHzV.s:698    .text:000000000000049c _Z18Threads_C_API_testv
     /tmp/cck9bHzV.s:701    .text:000000000000049c .L0 
     /tmp/cck9bHzV.s:702    .text:000000000000049c .L0 
     /tmp/cck9bHzV.s:703    .text:00000000000004a0 .L0 
     /tmp/cck9bHzV.s:708    .text:00000000000004b0 .L0 
     /tmp/cck9bHzV.s:709    .text:00000000000004b0 .L0 
     /tmp/cck9bHzV.s:710    .text:00000000000004b0 .L0 
GAS LISTING /tmp/cck9bHzV.s 			page 26


     /tmp/cck9bHzV.s:711    .text:00000000000004b0 .L0 
     /tmp/cck9bHzV.s:713    .text:00000000000004b4 .L0 
     /tmp/cck9bHzV.s:715    .text:00000000000004b4 .L0 
     /tmp/cck9bHzV.s:716    .text:00000000000004b4 .L0 
     /tmp/cck9bHzV.s:717    .text:00000000000004b4 .L0 
     /tmp/cck9bHzV.s:723    .text:00000000000004cc .L0 
     /tmp/cck9bHzV.s:724    .text:00000000000004cc .L0 
     /tmp/cck9bHzV.s:728    .text:00000000000004dc .L0 
     /tmp/cck9bHzV.s:729    .text:00000000000004dc .L0 
     /tmp/cck9bHzV.s:735    .text:00000000000004f4 .L0 
     /tmp/cck9bHzV.s:736    .text:00000000000004f4 .L0 
     /tmp/cck9bHzV.s:740    .text:0000000000000504 .L0 
     /tmp/cck9bHzV.s:741    .text:0000000000000504 .L0 
     /tmp/cck9bHzV.s:747    .text:000000000000051c .L0 
     /tmp/cck9bHzV.s:748    .text:000000000000051c .L0 
     /tmp/cck9bHzV.s:752    .text:000000000000052c .L0 
     /tmp/cck9bHzV.s:753    .text:000000000000052c .L0 
     /tmp/cck9bHzV.s:759    .text:0000000000000544 .L0 
     /tmp/cck9bHzV.s:760    .text:0000000000000544 .L0 
     /tmp/cck9bHzV.s:766    .text:0000000000000558 .L0 
     /tmp/cck9bHzV.s:767    .text:0000000000000558 .L0 
     /tmp/cck9bHzV.s:771    .text:0000000000000560 .L0 
     /tmp/cck9bHzV.s:772    .text:0000000000000560 .L0 
     /tmp/cck9bHzV.s:775    .text:000000000000056c .L0 
     /tmp/cck9bHzV.s:778    .text:0000000000000578 .L0 
     /tmp/cck9bHzV.s:781    .text:0000000000000584 .L0 
     /tmp/cck9bHzV.s:785    .text:0000000000000590 .L0 
     /tmp/cck9bHzV.s:790    .text:0000000000000598 .L0 
     /tmp/cck9bHzV.s:794    .text:000000000000059c .L0 
     /tmp/cck9bHzV.s:798    .text:00000000000005a4 .L0 
     /tmp/cck9bHzV.s:799    .text:00000000000005a4 .L0 
     /tmp/cck9bHzV.s:801    .text:00000000000005a8 .L0 
     /tmp/cck9bHzV.s:803    .text:00000000000005ac .L0 
     /tmp/cck9bHzV.s:814    .text:00000000000005c8 .L0 
     /tmp/cck9bHzV.s:815    .text:00000000000005cc .L0 
     /tmp/cck9bHzV.s:817    .text:00000000000005d0 .L0 
     /tmp/cck9bHzV.s:818    .text:00000000000005d0 .L0 
     /tmp/cck9bHzV.s:820    .text:00000000000005d4 .L0 
     /tmp/cck9bHzV.s:823    .text:00000000000005d8 .L0 
     /tmp/cck9bHzV.s:825    .text:00000000000005dc .L0 
     /tmp/cck9bHzV.s:827    .text:00000000000005e0 .L0 
     /tmp/cck9bHzV.s:831    .bss:0000000000000000 .LANCHOR0
     /tmp/cck9bHzV.s:834    .bss:0000000000000000 _ZL9finishedA
     /tmp/cck9bHzV.s:838    .bss:0000000000000001 _ZL9finishedB
     /tmp/cck9bHzV.s:842    .bss:0000000000000002 _ZL9finishedC
     /tmp/cck9bHzV.s:846    .bss:0000000000000003 _ZL9finishedD
     /tmp/cck9bHzV.s:855    .text:00000000000005e0 .L0 
     /tmp/cck9bHzV.s:8      .rodata.str1.8:0000000000000000 .LC0
     /tmp/cck9bHzV.s:82     .text:0000000000000050 .L0 
     /tmp/cck9bHzV.s:11     .rodata.str1.8:0000000000000008 .LC1
     /tmp/cck9bHzV.s:94     .text:0000000000000074 .L0 
     /tmp/cck9bHzV.s:14     .rodata.str1.8:0000000000000010 .LC2
     /tmp/cck9bHzV.s:109    .text:000000000000008c .L0 
     /tmp/cck9bHzV.s:115    .text:00000000000000a0 .L0 
     /tmp/cck9bHzV.s:133    .rodata.str1.8:0000000000000020 .LC3
     /tmp/cck9bHzV.s:153    .text:00000000000000cc .L0 
     /tmp/cck9bHzV.s:175    .rodata.str1.8:0000000000000030 .LC4
GAS LISTING /tmp/cck9bHzV.s 			page 27


     /tmp/cck9bHzV.s:245    .text:0000000000000140 .L0 
     /tmp/cck9bHzV.s:257    .text:0000000000000164 .L0 
     /tmp/cck9bHzV.s:178    .rodata.str1.8:0000000000000038 .LC5
     /tmp/cck9bHzV.s:272    .text:000000000000017c .L0 
     /tmp/cck9bHzV.s:282    .text:0000000000000198 .L0 
     /tmp/cck9bHzV.s:300    .rodata.str1.8:0000000000000048 .LC6
     /tmp/cck9bHzV.s:347    .text:00000000000001d4 .L0 
     /tmp/cck9bHzV.s:359    .text:00000000000001f8 .L0 
     /tmp/cck9bHzV.s:303    .rodata.str1.8:0000000000000050 .LC7
     /tmp/cck9bHzV.s:374    .text:0000000000000218 .L0 
     /tmp/cck9bHzV.s:306    .rodata.str1.8:0000000000000060 .LC8
     /tmp/cck9bHzV.s:390    .text:0000000000000234 .L0 
     /tmp/cck9bHzV.s:309    .rodata.str1.8:0000000000000070 .LC9
     /tmp/cck9bHzV.s:404    .text:0000000000000248 .L0 
     /tmp/cck9bHzV.s:416    .text:000000000000026c .L0 
     /tmp/cck9bHzV.s:312    .rodata.str1.8:0000000000000078 .LC10
     /tmp/cck9bHzV.s:428    .text:000000000000028c .L0 
     /tmp/cck9bHzV.s:441    .text:00000000000002b0 .L0 
     /tmp/cck9bHzV.s:448    .text:00000000000002c4 .L0 
     /tmp/cck9bHzV.s:460    .text:00000000000002e8 .L0 
     /tmp/cck9bHzV.s:315    .rodata.str1.8:0000000000000088 .LC11
     /tmp/cck9bHzV.s:475    .text:0000000000000308 .L0 
     /tmp/cck9bHzV.s:485    .text:0000000000000324 .L0 
     /tmp/cck9bHzV.s:506    .rodata.str1.8:0000000000000098 .LC12
     /tmp/cck9bHzV.s:550    .text:0000000000000364 .L0 
     /tmp/cck9bHzV.s:562    .text:0000000000000388 .L0 
     /tmp/cck9bHzV.s:509    .rodata.str1.8:00000000000000a0 .LC13
     /tmp/cck9bHzV.s:577    .text:00000000000003a8 .L0 
     /tmp/cck9bHzV.s:512    .rodata.str1.8:00000000000000b0 .LC14
     /tmp/cck9bHzV.s:593    .text:00000000000003c4 .L0 
     /tmp/cck9bHzV.s:515    .rodata.str1.8:00000000000000c0 .LC15
     /tmp/cck9bHzV.s:605    .text:00000000000003e4 .L0 
     /tmp/cck9bHzV.s:618    .text:0000000000000408 .L0 
     /tmp/cck9bHzV.s:625    .text:000000000000041c .L0 
     /tmp/cck9bHzV.s:637    .text:0000000000000440 .L0 
     /tmp/cck9bHzV.s:518    .rodata.str1.8:00000000000000d0 .LC16
     /tmp/cck9bHzV.s:652    .text:0000000000000460 .L0 
     /tmp/cck9bHzV.s:662    .text:000000000000047c .L0 
     /tmp/cck9bHzV.s:718    .text:00000000000004b8 .L0 
     /tmp/cck9bHzV.s:683    .rodata.str1.8:00000000000000e0 .LC17
     /tmp/cck9bHzV.s:724    .text:00000000000004cc .L0 
     /tmp/cck9bHzV.s:730    .text:00000000000004e0 .L0 
     /tmp/cck9bHzV.s:686    .rodata.str1.8:00000000000000f8 .LC18
     /tmp/cck9bHzV.s:736    .text:00000000000004f4 .L0 
     /tmp/cck9bHzV.s:742    .text:0000000000000508 .L0 
     /tmp/cck9bHzV.s:689    .rodata.str1.8:0000000000000110 .LC19
     /tmp/cck9bHzV.s:748    .text:000000000000051c .L0 
     /tmp/cck9bHzV.s:754    .text:0000000000000530 .L0 
     /tmp/cck9bHzV.s:692    .rodata.str1.8:0000000000000128 .LC20
     /tmp/cck9bHzV.s:760    .text:0000000000000544 .L0 
     /tmp/cck9bHzV.s:772    .text:0000000000000560 .L0 
     /tmp/cck9bHzV.s:775    .text:000000000000056c .L0 
     /tmp/cck9bHzV.s:778    .text:0000000000000578 .L0 
     /tmp/cck9bHzV.s:781    .text:0000000000000584 .L0 
     /tmp/cck9bHzV.s:75     .text:0000000000000048 .L7
     /tmp/cck9bHzV.s:68     .text:0000000000000044 .L3
     /tmp/cck9bHzV.s:43     .text:000000000000001c .L4
GAS LISTING /tmp/cck9bHzV.s 			page 28


     /tmp/cck9bHzV.s:57     .text:0000000000000030 .L5
     /tmp/cck9bHzV.s:103    .text:000000000000008c .L2
     /tmp/cck9bHzV.s:49     .text:0000000000000020 .L6
     /tmp/cck9bHzV.s:238    .text:0000000000000138 .L17
     /tmp/cck9bHzV.s:231    .text:0000000000000134 .L13
     /tmp/cck9bHzV.s:206    .text:000000000000010c .L14
     /tmp/cck9bHzV.s:220    .text:0000000000000120 .L15
     /tmp/cck9bHzV.s:266    .text:000000000000017c .L12
     /tmp/cck9bHzV.s:212    .text:0000000000000110 .L16
     /tmp/cck9bHzV.s:367    .text:0000000000000210 .L21
     /tmp/cck9bHzV.s:344    .text:00000000000001d4 .L25
     /tmp/cck9bHzV.s:468    .text:0000000000000300 .L23
     /tmp/cck9bHzV.s:445    .text:00000000000002c4 .L26
     /tmp/cck9bHzV.s:570    .text:00000000000003a0 .L29
     /tmp/cck9bHzV.s:547    .text:0000000000000364 .L33
     /tmp/cck9bHzV.s:645    .text:0000000000000458 .L31
     /tmp/cck9bHzV.s:622    .text:000000000000041c .L34
     /tmp/cck9bHzV.s:769    .text:0000000000000560 .L38
     /tmp/cck9bHzV.s:764    .text:0000000000000558 .L36
     /tmp/cck9bHzV.s:792    .text:000000000000059c .L37
     /tmp/cck9bHzV.s:811    .text:00000000000005c8 .L35
     /tmp/cck9bHzV.s:788    .text:0000000000000598 .L40
     /tmp/cck9bHzV.s:2739   .debug_abbrev:0000000000000000 .Ldebug_abbrev0
     /tmp/cck9bHzV.s:3890   .debug_str:000000000000010b .LASF165
     /tmp/cck9bHzV.s:3892   .debug_str:00000000000001b7 .LASF166
     /tmp/cck9bHzV.s:4154   .debug_str:0000000000000938 .LASF167
     /tmp/cck9bHzV.s:5      .text:0000000000000000 .Ltext0
     /tmp/cck9bHzV.s:849    .text:00000000000005e0 .Letext0
     /tmp/cck9bHzV.s:3858   .debug_line:0000000000000000 .Ldebug_line0
     /tmp/cck9bHzV.s:3970   .debug_str:000000000000041e .LASF0
     /tmp/cck9bHzV.s:3996   .debug_str:00000000000004f7 .LASF1
     /tmp/cck9bHzV.s:4084   .debug_str:000000000000076b .LASF2
     /tmp/cck9bHzV.s:3940   .debug_str:0000000000000338 .LASF3
     /tmp/cck9bHzV.s:4092   .debug_str:00000000000007a4 .LASF4
     /tmp/cck9bHzV.s:3982   .debug_str:0000000000000479 .LASF5
     /tmp/cck9bHzV.s:3872   .debug_str:0000000000000057 .LASF6
     /tmp/cck9bHzV.s:4066   .debug_str:00000000000006ff .LASF7
     /tmp/cck9bHzV.s:4050   .debug_str:0000000000000688 .LASF8
     /tmp/cck9bHzV.s:3988   .debug_str:00000000000004ba .LASF9
     /tmp/cck9bHzV.s:3948   .debug_str:0000000000000369 .LASF10
     /tmp/cck9bHzV.s:3952   .debug_str:0000000000000395 .LASF11
     /tmp/cck9bHzV.s:3904   .debug_str:000000000000023a .LASF12
     /tmp/cck9bHzV.s:3944   .debug_str:0000000000000347 .LASF13
     /tmp/cck9bHzV.s:3912   .debug_str:000000000000026b .LASF14
     /tmp/cck9bHzV.s:3902   .debug_str:000000000000022a .LASF15
     /tmp/cck9bHzV.s:4132   .debug_str:00000000000008c3 .LASF16
     /tmp/cck9bHzV.s:3936   .debug_str:0000000000000316 .LASF17
     /tmp/cck9bHzV.s:4118   .debug_str:0000000000000845 .LASF18
     /tmp/cck9bHzV.s:4146   .debug_str:0000000000000901 .LASF19
     /tmp/cck9bHzV.s:4142   .debug_str:00000000000008f3 .LASF168
     /tmp/cck9bHzV.s:3898   .debug_str:0000000000000210 .LASF20
     /tmp/cck9bHzV.s:4112   .debug_str:0000000000000824 .LASF21
     /tmp/cck9bHzV.s:3908   .debug_str:0000000000000252 .LASF22
     /tmp/cck9bHzV.s:3888   .debug_str:0000000000000102 .LASF23
     /tmp/cck9bHzV.s:4054   .debug_str:00000000000006b1 .LASF24
     /tmp/cck9bHzV.s:3906   .debug_str:0000000000000249 .LASF25
     /tmp/cck9bHzV.s:4134   .debug_str:00000000000008cf .LASF69
GAS LISTING /tmp/cck9bHzV.s 			page 29


     /tmp/cck9bHzV.s:3962   .debug_str:00000000000003eb .LASF26
     /tmp/cck9bHzV.s:4158   .debug_str:0000000000000963 .LASF169
     /tmp/cck9bHzV.s:4042   .debug_str:000000000000064d .LASF170
     /tmp/cck9bHzV.s:3994   .debug_str:00000000000004f2 .LASF27
     /tmp/cck9bHzV.s:4200   .debug_str:0000000000000a8c .LASF29
     /tmp/cck9bHzV.s:4196   .debug_str:0000000000000a70 .LASF28
     /tmp/cck9bHzV.s:4148   .debug_str:000000000000090a .LASF30
     /tmp/cck9bHzV.s:3924   .debug_str:00000000000002d1 .LASF53
     /tmp/cck9bHzV.s:3878   .debug_str:000000000000008a .LASF55
     /tmp/cck9bHzV.s:3998   .debug_str:000000000000050a .LASF35
     /tmp/cck9bHzV.s:4044   .debug_str:0000000000000652 .LASF37
     /tmp/cck9bHzV.s:4144   .debug_str:00000000000008f9 .LASF31
     /tmp/cck9bHzV.s:4106   .debug_str:00000000000007ef .LASF32
     /tmp/cck9bHzV.s:4000   .debug_str:0000000000000510 .LASF39
     /tmp/cck9bHzV.s:4004   .debug_str:000000000000053b .LASF41
     /tmp/cck9bHzV.s:4204   .debug_str:0000000000000ab0 .LASF33
     /tmp/cck9bHzV.s:3938   .debug_str:000000000000032c .LASF34
     /tmp/cck9bHzV.s:3866   .debug_str:000000000000002a .LASF36
     /tmp/cck9bHzV.s:3980   .debug_str:000000000000046c .LASF38
     /tmp/cck9bHzV.s:4108   .debug_str:0000000000000800 .LASF40
     /tmp/cck9bHzV.s:4026   .debug_str:00000000000005dc .LASF42
     /tmp/cck9bHzV.s:4088   .debug_str:0000000000000791 .LASF43
     /tmp/cck9bHzV.s:4124   .debug_str:000000000000087f .LASF44
     /tmp/cck9bHzV.s:4028   .debug_str:00000000000005ef .LASF45
     /tmp/cck9bHzV.s:3862   .debug_str:000000000000000b .LASF46
     /tmp/cck9bHzV.s:4188   .debug_str:0000000000000a34 .LASF47
     /tmp/cck9bHzV.s:4048   .debug_str:000000000000066e .LASF48
     /tmp/cck9bHzV.s:4116   .debug_str:0000000000000837 .LASF49
     /tmp/cck9bHzV.s:4068   .debug_str:0000000000000706 .LASF50
     /tmp/cck9bHzV.s:3920   .debug_str:00000000000002af .LASF51
     /tmp/cck9bHzV.s:4194   .debug_str:0000000000000a65 .LASF52
     /tmp/cck9bHzV.s:3984   .debug_str:000000000000048b .LASF57
     /tmp/cck9bHzV.s:4114   .debug_str:000000000000082c .LASF54
     /tmp/cck9bHzV.s:4198   .debug_str:0000000000000a76 .LASF56
     /tmp/cck9bHzV.s:4102   .debug_str:00000000000007d9 .LASF58
     /tmp/cck9bHzV.s:4152   .debug_str:000000000000092e .LASF59
     /tmp/cck9bHzV.s:4046   .debug_str:0000000000000662 .LASF60
     /tmp/cck9bHzV.s:3916   .debug_str:000000000000029a .LASF61
     /tmp/cck9bHzV.s:3882   .debug_str:00000000000000b8 .LASF63
     /tmp/cck9bHzV.s:3972   .debug_str:000000000000042b .LASF62
     /tmp/cck9bHzV.s:3896   .debug_str:00000000000001e4 .LASF64
     /tmp/cck9bHzV.s:4184   .debug_str:0000000000000a1b .LASF171
     /tmp/cck9bHzV.s:3894   .debug_str:00000000000001d3 .LASF172
     /tmp/cck9bHzV.s:3864   .debug_str:0000000000000025 .LASF65
     /tmp/cck9bHzV.s:4168   .debug_str:00000000000009ab .LASF66
     /tmp/cck9bHzV.s:4008   .debug_str:000000000000055b .LASF67
     /tmp/cck9bHzV.s:3926   .debug_str:00000000000002da .LASF68
     /tmp/cck9bHzV.s:4156   .debug_str:000000000000095b .LASF70
     /tmp/cck9bHzV.s:4176   .debug_str:00000000000009e9 .LASF71
     /tmp/cck9bHzV.s:3964   .debug_str:00000000000003f1 .LASF72
     /tmp/cck9bHzV.s:4122   .debug_str:0000000000000867 .LASF73
     /tmp/cck9bHzV.s:4136   .debug_str:00000000000008d7 .LASF74
     /tmp/cck9bHzV.s:4012   .debug_str:0000000000000568 .LASF75
     /tmp/cck9bHzV.s:3934   .debug_str:000000000000030c .LASF76
     /tmp/cck9bHzV.s:4052   .debug_str:000000000000069b .LASF77
     /tmp/cck9bHzV.s:4016   .debug_str:000000000000058a .LASF78
     /tmp/cck9bHzV.s:4172   .debug_str:00000000000009c1 .LASF79
GAS LISTING /tmp/cck9bHzV.s 			page 30


     /tmp/cck9bHzV.s:4170   .debug_str:00000000000009b0 .LASF80
     /tmp/cck9bHzV.s:4002   .debug_str:000000000000051d .LASF81
     /tmp/cck9bHzV.s:3978   .debug_str:000000000000045a .LASF82
     /tmp/cck9bHzV.s:3914   .debug_str:000000000000027b .LASF83
     /tmp/cck9bHzV.s:4192   .debug_str:0000000000000a59 .LASF84
     /tmp/cck9bHzV.s:3880   .debug_str:000000000000009d .LASF85
     /tmp/cck9bHzV.s:4060   .debug_str:00000000000006da .LASF86
     /tmp/cck9bHzV.s:3874   .debug_str:000000000000005e .LASF87
     /tmp/cck9bHzV.s:4104   .debug_str:00000000000007e1 .LASF88
     /tmp/cck9bHzV.s:4110   .debug_str:0000000000000809 .LASF89
     /tmp/cck9bHzV.s:4030   .debug_str:00000000000005fe .LASF90
     /tmp/cck9bHzV.s:4180   .debug_str:00000000000009f9 .LASF91
     /tmp/cck9bHzV.s:4166   .debug_str:00000000000009a2 .LASF94
     /tmp/cck9bHzV.s:3870   .debug_str:0000000000000042 .LASF96
     /tmp/cck9bHzV.s:4080   .debug_str:0000000000000757 .LASF92
     /tmp/cck9bHzV.s:4040   .debug_str:0000000000000638 .LASF93
     /tmp/cck9bHzV.s:4070   .debug_str:0000000000000712 .LASF95
     /tmp/cck9bHzV.s:4072   .debug_str:0000000000000719 .LASF97
     /tmp/cck9bHzV.s:4036   .debug_str:000000000000061d .LASF98
     /tmp/cck9bHzV.s:3990   .debug_str:00000000000004cd .LASF99
     /tmp/cck9bHzV.s:4182   .debug_str:0000000000000a13 .LASF100
     /tmp/cck9bHzV.s:4150   .debug_str:000000000000091a .LASF101
     /tmp/cck9bHzV.s:4032   .debug_str:000000000000060b .LASF102
     /tmp/cck9bHzV.s:4038   .debug_str:0000000000000624 .LASF103
     /tmp/cck9bHzV.s:4020   .debug_str:00000000000005b0 .LASF104
     /tmp/cck9bHzV.s:4074   .debug_str:000000000000072c .LASF105
     /tmp/cck9bHzV.s:4208   .debug_str:0000000000000ac4 .LASF106
     /tmp/cck9bHzV.s:3976   .debug_str:0000000000000446 .LASF107
     /tmp/cck9bHzV.s:4128   .debug_str:00000000000008ae .LASF108
     /tmp/cck9bHzV.s:4098   .debug_str:00000000000007bf .LASF109
     /tmp/cck9bHzV.s:4100   .debug_str:00000000000007d2 .LASF110
     /tmp/cck9bHzV.s:3932   .debug_str:00000000000002f9 .LASF111
     /tmp/cck9bHzV.s:3928   .debug_str:00000000000002e0 .LASF112
     /tmp/cck9bHzV.s:3876   .debug_str:0000000000000078 .LASF113
     /tmp/cck9bHzV.s:3974   .debug_str:0000000000000440 .LASF114
     /tmp/cck9bHzV.s:3922   .debug_str:00000000000002bf .LASF115
     /tmp/cck9bHzV.s:3860   .debug_str:0000000000000000 .LASF116
     /tmp/cck9bHzV.s:4086   .debug_str:0000000000000779 .LASF117
     /tmp/cck9bHzV.s:4082   .debug_str:0000000000000760 .LASF118
     /tmp/cck9bHzV.s:4202   .debug_str:0000000000000a98 .LASF119
     /tmp/cck9bHzV.s:4178   .debug_str:00000000000009ef .LASF120
     /tmp/cck9bHzV.s:4190   .debug_str:0000000000000a43 .LASF121
     /tmp/cck9bHzV.s:4174   .debug_str:00000000000009df .LASF122
     /tmp/cck9bHzV.s:4018   .debug_str:000000000000059a .LASF123
     /tmp/cck9bHzV.s:3960   .debug_str:00000000000003e0 .LASF124
     /tmp/cck9bHzV.s:3966   .debug_str:00000000000003fc .LASF125
     /tmp/cck9bHzV.s:4164   .debug_str:0000000000000993 .LASF126
     /tmp/cck9bHzV.s:3950   .debug_str:0000000000000379 .LASF127
     /tmp/cck9bHzV.s:4056   .debug_str:00000000000006b9 .LASF128
     /tmp/cck9bHzV.s:3986   .debug_str:0000000000000498 .LASF129
     /tmp/cck9bHzV.s:3918   .debug_str:00000000000002a8 .LASF130
     /tmp/cck9bHzV.s:3868   .debug_str:000000000000003a .LASF131
     /tmp/cck9bHzV.s:3884   .debug_str:00000000000000e0 .LASF132
     /tmp/cck9bHzV.s:4162   .debug_str:0000000000000987 .LASF133
     /tmp/cck9bHzV.s:3886   .debug_str:00000000000000ef .LASF134
     /tmp/cck9bHzV.s:4024   .debug_str:00000000000005ca .LASF135
     /tmp/cck9bHzV.s:3954   .debug_str:00000000000003a3 .LASF136
GAS LISTING /tmp/cck9bHzV.s 			page 31


     /tmp/cck9bHzV.s:3930   .debug_str:00000000000002e6 .LASF137
     /tmp/cck9bHzV.s:3900   .debug_str:0000000000000216 .LASF138
     /tmp/cck9bHzV.s:4138   .debug_str:00000000000008e2 .LASF139
     /tmp/cck9bHzV.s:4010   .debug_str:0000000000000563 .LASF140
     /tmp/cck9bHzV.s:4090   .debug_str:000000000000079a .LASF141
     /tmp/cck9bHzV.s:3968   .debug_str:0000000000000414 .LASF142
     /tmp/cck9bHzV.s:4094   .debug_str:00000000000007ab .LASF143
     /tmp/cck9bHzV.s:4096   .debug_str:00000000000007b5 .LASF144
     /tmp/cck9bHzV.s:3946   .debug_str:0000000000000356 .LASF145
     /tmp/cck9bHzV.s:3958   .debug_str:00000000000003c8 .LASF146
     /tmp/cck9bHzV.s:699    .text:000000000000049c .LFB28
     /tmp/cck9bHzV.s:828    .text:00000000000005e0 .LFE28
     /tmp/cck9bHzV.s:4006   .debug_str:0000000000000553 .LASF147
     /tmp/cck9bHzV.s:783    .text:0000000000000590 .LBB14
     /tmp/cck9bHzV.s:812    .text:00000000000005c8 .LBE14
     /tmp/cck9bHzV.s:4078   .debug_str:0000000000000750 .LASF148
     /tmp/cck9bHzV.s:3598   .debug_loc:0000000000000000 .LLST16
     /tmp/cck9bHzV.s:4120   .debug_str:000000000000085b .LASF149
     /tmp/cck9bHzV.s:4140   .debug_str:00000000000008e7 .LASF173
     /tmp/cck9bHzV.s:3609   .debug_loc:0000000000000036 .LLST17
     /tmp/cck9bHzV.s:4034   .debug_str:0000000000000613 .LASF150
     /tmp/cck9bHzV.s:805    .text:00000000000005b8 .LVL100
     /tmp/cck9bHzV.s:808    .text:00000000000005c4 .LVL101
     /tmp/cck9bHzV.s:721    .text:00000000000004cc .LVL88
     /tmp/cck9bHzV.s:726    .text:00000000000004dc .LVL89
     /tmp/cck9bHzV.s:733    .text:00000000000004f4 .LVL90
     /tmp/cck9bHzV.s:738    .text:0000000000000504 .LVL91
     /tmp/cck9bHzV.s:745    .text:000000000000051c .LVL92
     /tmp/cck9bHzV.s:750    .text:000000000000052c .LVL93
     /tmp/cck9bHzV.s:757    .text:0000000000000544 .LVL94
     /tmp/cck9bHzV.s:762    .text:0000000000000554 .LVL95
     /tmp/cck9bHzV.s:768    .text:0000000000000560 .LVL96
     /tmp/cck9bHzV.s:4064   .debug_str:00000000000006f3 .LASF151
     /tmp/cck9bHzV.s:4186   .debug_str:0000000000000a22 .LASF152
     /tmp/cck9bHzV.s:525    .text:0000000000000344 .LFB27
     /tmp/cck9bHzV.s:679    .text:000000000000049c .LFE27
     /tmp/cck9bHzV.s:3616   .debug_loc:0000000000000059 .LLST13
     /tmp/cck9bHzV.s:3630   .debug_loc:0000000000000092 .LLST14
     /tmp/cck9bHzV.s:4206   .debug_str:0000000000000abd .LASF153
     /tmp/cck9bHzV.s:3650   .debug_loc:00000000000000ef .LLST15
     /tmp/cck9bHzV.s:552    .text:0000000000000374 .LVL65
     /tmp/cck9bHzV.s:559    .text:0000000000000388 .LVL66
     /tmp/cck9bHzV.s:564    .text:0000000000000398 .LVL67
     /tmp/cck9bHzV.s:579    .text:00000000000003b8 .LVL70
     /tmp/cck9bHzV.s:590    .text:00000000000003c4 .LVL71
     /tmp/cck9bHzV.s:595    .text:00000000000003d4 .LVL72
     /tmp/cck9bHzV.s:600    .text:00000000000003e0 .LVL73
     /tmp/cck9bHzV.s:608    .text:00000000000003f4 .LVL76
     /tmp/cck9bHzV.s:615    .text:0000000000000408 .LVL77
     /tmp/cck9bHzV.s:620    .text:0000000000000418 .LVL78
     /tmp/cck9bHzV.s:627    .text:000000000000042c .LVL79
     /tmp/cck9bHzV.s:634    .text:0000000000000440 .LVL80
     /tmp/cck9bHzV.s:639    .text:0000000000000450 .LVL81
     /tmp/cck9bHzV.s:654    .text:0000000000000470 .LVL84
     /tmp/cck9bHzV.s:658    .text:0000000000000478 .LVL85
     /tmp/cck9bHzV.s:4062   .debug_str:00000000000006e7 .LASF154
     /tmp/cck9bHzV.s:3992   .debug_str:00000000000004e0 .LASF155
GAS LISTING /tmp/cck9bHzV.s 			page 32


     /tmp/cck9bHzV.s:322    .text:00000000000001b4 .LFB26
     /tmp/cck9bHzV.s:502    .text:0000000000000344 .LFE26
     /tmp/cck9bHzV.s:3661   .debug_loc:0000000000000125 .LLST9
     /tmp/cck9bHzV.s:3675   .debug_loc:000000000000015e .LLST10
     /tmp/cck9bHzV.s:3695   .debug_loc:00000000000001bb .LLST11
     /tmp/cck9bHzV.s:3703   .debug_loc:00000000000001df .LLST12
     /tmp/cck9bHzV.s:349    .text:00000000000001e4 .LVL35
     /tmp/cck9bHzV.s:356    .text:00000000000001f8 .LVL36
     /tmp/cck9bHzV.s:361    .text:0000000000000208 .LVL37
     /tmp/cck9bHzV.s:376    .text:0000000000000228 .LVL40
     /tmp/cck9bHzV.s:387    .text:0000000000000234 .LVL41
     /tmp/cck9bHzV.s:392    .text:0000000000000244 .LVL42
     /tmp/cck9bHzV.s:406    .text:0000000000000258 .LVL44
     /tmp/cck9bHzV.s:413    .text:000000000000026c .LVL45
     /tmp/cck9bHzV.s:418    .text:000000000000027c .LVL46
     /tmp/cck9bHzV.s:423    .text:0000000000000288 .LVL47
     /tmp/cck9bHzV.s:431    .text:000000000000029c .LVL50
     /tmp/cck9bHzV.s:438    .text:00000000000002b0 .LVL51
     /tmp/cck9bHzV.s:443    .text:00000000000002c0 .LVL52
     /tmp/cck9bHzV.s:450    .text:00000000000002d4 .LVL53
     /tmp/cck9bHzV.s:457    .text:00000000000002e8 .LVL54
     /tmp/cck9bHzV.s:462    .text:00000000000002f8 .LVL55
     /tmp/cck9bHzV.s:477    .text:0000000000000318 .LVL58
     /tmp/cck9bHzV.s:481    .text:0000000000000320 .LVL59
     /tmp/cck9bHzV.s:4160   .debug_str:000000000000097b .LASF156
     /tmp/cck9bHzV.s:3956   .debug_str:00000000000003b6 .LASF157
     /tmp/cck9bHzV.s:185    .text:00000000000000f0 .LFB25
     /tmp/cck9bHzV.s:296    .text:00000000000001b4 .LFE25
     /tmp/cck9bHzV.s:3714   .debug_loc:0000000000000215 .LLST5
     /tmp/cck9bHzV.s:201    .text:0000000000000104 .LBB8
     /tmp/cck9bHzV.s:269    .text:000000000000017c .LBE8
     /tmp/cck9bHzV.s:3728   .debug_loc:000000000000024e .LLST6
     /tmp/cck9bHzV.s:3844   .debug_ranges:0000000000000000 .Ldebug_ranges0
     /tmp/cck9bHzV.s:3740   .debug_loc:0000000000000285 .LLST7
     /tmp/cck9bHzV.s:217    .text:000000000000011c .LBB11
     /tmp/cck9bHzV.s:232    .text:0000000000000134 .LBE11
     /tmp/cck9bHzV.s:3752   .debug_loc:00000000000002bc .LLST8
     /tmp/cck9bHzV.s:247    .text:0000000000000150 .LVL25
     /tmp/cck9bHzV.s:254    .text:0000000000000164 .LVL26
     /tmp/cck9bHzV.s:259    .text:0000000000000174 .LVL27
     /tmp/cck9bHzV.s:274    .text:000000000000018c .LVL29
     /tmp/cck9bHzV.s:278    .text:0000000000000194 .LVL30
     /tmp/cck9bHzV.s:4058   .debug_str:00000000000006ce .LASF158
     /tmp/cck9bHzV.s:4022   .debug_str:00000000000005b8 .LASF159
     /tmp/cck9bHzV.s:21     .text:0000000000000000 .LFB24
     /tmp/cck9bHzV.s:129    .text:00000000000000bc .LFE24
     /tmp/cck9bHzV.s:3763   .debug_loc:00000000000002f2 .LLST0
     /tmp/cck9bHzV.s:38     .text:0000000000000014 .LBB2
     /tmp/cck9bHzV.s:106    .text:000000000000008c .LBE2
     /tmp/cck9bHzV.s:3777   .debug_loc:000000000000032b .LLST1
     /tmp/cck9bHzV.s:3789   .debug_loc:0000000000000362 .LLST2
     /tmp/cck9bHzV.s:54     .text:000000000000002c .LBB5
     /tmp/cck9bHzV.s:69     .text:0000000000000044 .LBE5
     /tmp/cck9bHzV.s:3801   .debug_loc:0000000000000399 .LLST3
     /tmp/cck9bHzV.s:84     .text:0000000000000060 .LVL8
     /tmp/cck9bHzV.s:91     .text:0000000000000074 .LVL9
     /tmp/cck9bHzV.s:96     .text:0000000000000084 .LVL10
GAS LISTING /tmp/cck9bHzV.s 			page 33


     /tmp/cck9bHzV.s:111    .text:000000000000009c .LVL12
     /tmp/cck9bHzV.s:4014   .debug_str:0000000000000580 .LASF174
     /tmp/cck9bHzV.s:139    .text:00000000000000bc .LFB23
     /tmp/cck9bHzV.s:171    .text:00000000000000f0 .LFE23
     /tmp/cck9bHzV.s:3812   .debug_loc:00000000000003cf .LLST4
     /tmp/cck9bHzV.s:156    .text:00000000000000dc .LVL16
     /tmp/cck9bHzV.s:4130   .debug_str:00000000000008b5 .LASF160
     /tmp/cck9bHzV.s:4126   .debug_str:000000000000089b .LASF161
     /tmp/cck9bHzV.s:4076   .debug_str:0000000000000740 .LASF162
     /tmp/cck9bHzV.s:3910   .debug_str:000000000000025c .LASF163
     /tmp/cck9bHzV.s:3942   .debug_str:000000000000033e .LASF164
     /tmp/cck9bHzV.s:787    .text:0000000000000598 .LVL97
     /tmp/cck9bHzV.s:791    .text:000000000000059c .LVL98
     /tmp/cck9bHzV.s:796    .text:00000000000005a4 .LVL99
     /tmp/cck9bHzV.s:810    .text:00000000000005c8 .LVL102
     /tmp/cck9bHzV.s:821    .text:00000000000005d4 .LVL103
     /tmp/cck9bHzV.s:528    .text:0000000000000344 .LVL62
     /tmp/cck9bHzV.s:546    .text:0000000000000364 .LVL64
     /tmp/cck9bHzV.s:542    .text:000000000000035c .LVL63
     /tmp/cck9bHzV.s:567    .text:000000000000039c .LVL68
     /tmp/cck9bHzV.s:569    .text:00000000000003a0 .LVL69
     /tmp/cck9bHzV.s:642    .text:0000000000000454 .LVL82
     /tmp/cck9bHzV.s:644    .text:0000000000000458 .LVL83
     /tmp/cck9bHzV.s:671    .text:0000000000000490 .LVL86
     /tmp/cck9bHzV.s:602    .text:00000000000003e4 .LVL74
     /tmp/cck9bHzV.s:606    .text:00000000000003ec .LVL75
     /tmp/cck9bHzV.s:674    .text:0000000000000494 .LVL87
     /tmp/cck9bHzV.s:325    .text:00000000000001b4 .LVL32
     /tmp/cck9bHzV.s:343    .text:00000000000001d4 .LVL34
     /tmp/cck9bHzV.s:339    .text:00000000000001cc .LVL33
     /tmp/cck9bHzV.s:364    .text:000000000000020c .LVL38
     /tmp/cck9bHzV.s:366    .text:0000000000000210 .LVL39
     /tmp/cck9bHzV.s:465    .text:00000000000002fc .LVL56
     /tmp/cck9bHzV.s:467    .text:0000000000000300 .LVL57
     /tmp/cck9bHzV.s:494    .text:0000000000000338 .LVL60
     /tmp/cck9bHzV.s:400    .text:0000000000000248 .LVL43
     /tmp/cck9bHzV.s:425    .text:000000000000028c .LVL48
     /tmp/cck9bHzV.s:429    .text:0000000000000294 .LVL49
     /tmp/cck9bHzV.s:497    .text:000000000000033c .LVL61
     /tmp/cck9bHzV.s:188    .text:00000000000000f0 .LVL17
     /tmp/cck9bHzV.s:205    .text:000000000000010c .LVL19
     /tmp/cck9bHzV.s:200    .text:0000000000000104 .LVL18
     /tmp/cck9bHzV.s:291    .text:00000000000001ac .LVL31
     /tmp/cck9bHzV.s:237    .text:0000000000000138 .LVL24
     /tmp/cck9bHzV.s:265    .text:000000000000017c .LVL28
     /tmp/cck9bHzV.s:211    .text:0000000000000110 .LVL20
     /tmp/cck9bHzV.s:221    .text:0000000000000120 .LVL21
     /tmp/cck9bHzV.s:230    .text:0000000000000134 .LVL23
     /tmp/cck9bHzV.s:25     .text:0000000000000000 .LVL0
     /tmp/cck9bHzV.s:42     .text:000000000000001c .LVL2
     /tmp/cck9bHzV.s:37     .text:0000000000000014 .LVL1
     /tmp/cck9bHzV.s:124    .text:00000000000000b4 .LVL13
     /tmp/cck9bHzV.s:74     .text:0000000000000048 .LVL7
     /tmp/cck9bHzV.s:102    .text:000000000000008c .LVL11
     /tmp/cck9bHzV.s:48     .text:0000000000000020 .LVL3
     /tmp/cck9bHzV.s:58     .text:0000000000000030 .LVL4
     /tmp/cck9bHzV.s:67     .text:0000000000000044 .LVL6
GAS LISTING /tmp/cck9bHzV.s 			page 34


     /tmp/cck9bHzV.s:142    .text:00000000000000bc .LVL14
     /tmp/cck9bHzV.s:154    .text:00000000000000d4 .LVL15
     /tmp/cck9bHzV.s:856    .debug_info:0000000000000000 .Ldebug_info0
     /tmp/cck9bHzV.s:45     .text:000000000000001c .LBB4
     /tmp/cck9bHzV.s:70     .text:0000000000000044 .LBE4
     /tmp/cck9bHzV.s:98     .text:0000000000000084 .LBB6
     /tmp/cck9bHzV.s:104    .text:000000000000008c .LBE6
     /tmp/cck9bHzV.s:208    .text:000000000000010c .LBB10
     /tmp/cck9bHzV.s:233    .text:0000000000000134 .LBE10
     /tmp/cck9bHzV.s:261    .text:0000000000000174 .LBB12
     /tmp/cck9bHzV.s:267    .text:000000000000017c .LBE12

UNDEFINED SYMBOLS
_Z11printStringPKc
_Z8printIntiii
_ZN5Riscv11printStringEPKc
thread_dispatch
thread_create
_ZN3PCBD1Ev
_ZN3PCBdlEPv
