GAS LISTING /tmp/ccVu4BS5.s 			page 1


   1              		.file	"Threads_C_API_test.cpp"
   2              		.option pic
   3              		.option norelax
   4              		.text
   5              	.Ltext0:
   6              		.section	.rodata.str1.8,"aMS",@progbits,1
   7              		.align	3
   8              	.LC0:
   9 0000 413A2069 		.string	"A: i="
   9      3D00
  10 0006 0000     		.align	3
  11              	.LC1:
  12 0008 0A00     		.string	"\n"
  13 000a 00000000 		.align	3
  13      0000
  14              	.LC2:
  15 0010 41206669 		.string	"A finished!\n"
  15      6E697368 
  15      6564210A 
  15      00
  16              		.text
  17              		.align	2
  18              		.globl	_Z11workerBodyAPv
  20              	_Z11workerBodyAPv:
  21              	.LFB1:
  22              		.file 1 "test/Threads_C_API_test.cpp"
   1:test/Threads_C_API_test.cpp **** //
   2:test/Threads_C_API_test.cpp **** // Created by os on 5/16/22.
   3:test/Threads_C_API_test.cpp **** //
   4:test/Threads_C_API_test.cpp **** 
   5:test/Threads_C_API_test.cpp **** #include "Threads_C_API_test.hpp"
   6:test/Threads_C_API_test.cpp **** 
   7:test/Threads_C_API_test.cpp **** static bool finishedA = false;
   8:test/Threads_C_API_test.cpp **** static bool finishedB = false;
   9:test/Threads_C_API_test.cpp **** static bool finishedC = false;
  10:test/Threads_C_API_test.cpp **** static bool finishedD = false;
  11:test/Threads_C_API_test.cpp **** 
  12:test/Threads_C_API_test.cpp **** static uint64 fibonacci(uint64 n) {
  13:test/Threads_C_API_test.cpp ****     if (n == 0 || n == 1) { return n; }
  14:test/Threads_C_API_test.cpp ****     if (n % 10 == 0) { thread_dispatch(); }
  15:test/Threads_C_API_test.cpp ****     return fibonacci(n - 1) + fibonacci(n - 2);
  16:test/Threads_C_API_test.cpp **** }
  17:test/Threads_C_API_test.cpp **** 
  18:test/Threads_C_API_test.cpp **** void workerBodyA(void* arg) {
  23              		.loc 1 18 29
  24              		.cfi_startproc
  25              	.LVL0:
  26 0000 130101FE 		addi	sp,sp,-32
  27              		.cfi_def_cfa_offset 32
  28 0004 233C1100 		sd	ra,24(sp)
  29 0008 23388100 		sd	s0,16(sp)
  30 000c 23349100 		sd	s1,8(sp)
  31 0010 23302101 		sd	s2,0(sp)
  32              		.cfi_offset 1, -8
  33              		.cfi_offset 8, -16
  34              		.cfi_offset 9, -24
  35              		.cfi_offset 18, -32
GAS LISTING /tmp/ccVu4BS5.s 			page 2


  36 0014 13040102 		addi	s0,sp,32
  37              		.cfi_def_cfa 8, 0
  19:test/Threads_C_API_test.cpp ****     for (uint64 i = 0; i < 10; i++) {
  38              		.loc 1 19 5
  39              	.LVL1:
  40              	.LBB2:
  41              		.loc 1 19 17 is_stmt 0
  42 0018 13090000 		li	s2,0
  43 001c 6F008003 		j	.L7
  44              	.LVL2:
  45              	.L4:
  46              	.LBB3:
  47              	.LBB4:
  48              	.LBB5:
  20:test/Threads_C_API_test.cpp ****         printString("A: i="); printInt(i); printString("\n");
  21:test/Threads_C_API_test.cpp ****         for (uint64 j = 0; j < 10000; j++) {
  22:test/Threads_C_API_test.cpp ****             for (uint64 k = 0; k < 30000; k++) { /* busy wait */ }
  23:test/Threads_C_API_test.cpp ****             thread_dispatch();
  49              		.loc 1 23 13 is_stmt 1 discriminator 2
  50              		.loc 1 23 28 is_stmt 0 discriminator 2
  51 0020 97000000 		call	thread_dispatch@plt
  51      E7800000 
  52              	.LVL3:
  53              	.LBE5:
  21:test/Threads_C_API_test.cpp ****             for (uint64 k = 0; k < 30000; k++) { /* busy wait */ }
  54              		.loc 1 21 9 is_stmt 1 discriminator 2
  55 0028 93841400 		addi	s1,s1,1
  56              	.LVL4:
  57              	.L6:
  21:test/Threads_C_API_test.cpp ****             for (uint64 k = 0; k < 30000; k++) { /* busy wait */ }
  58              		.loc 1 21 30 discriminator 1
  59 002c B7270000 		li	a5,8192
  60 0030 9387F770 		addi	a5,a5,1807
  61 0034 63EE9700 		bgtu	s1,a5,.L3
  62              	.LBB7:
  63              	.LBB6:
  22:test/Threads_C_API_test.cpp ****             thread_dispatch();
  64              		.loc 1 22 25 is_stmt 0
  65 0038 13070000 		li	a4,0
  66              	.L5:
  67              	.LVL5:
  22:test/Threads_C_API_test.cpp ****             thread_dispatch();
  68              		.loc 1 22 34 is_stmt 1 discriminator 3
  69 003c B7770000 		li	a5,28672
  70 0040 9387F752 		addi	a5,a5,1327
  71 0044 E3EEE7FC 		bgtu	a4,a5,.L4
  22:test/Threads_C_API_test.cpp ****             thread_dispatch();
  72              		.loc 1 22 13 discriminator 2
  73 0048 13071700 		addi	a4,a4,1
  74              	.LVL6:
  75 004c 6FF01FFF 		j	.L5
  76              	.LVL7:
  77              	.L3:
  78              	.LBE6:
  79              	.LBE7:
  80              	.LBE4:
  81              	.LBE3:
GAS LISTING /tmp/ccVu4BS5.s 			page 3


  19:test/Threads_C_API_test.cpp ****         printString("A: i="); printInt(i); printString("\n");
  82              		.loc 1 19 5 discriminator 2
  83 0050 13091900 		addi	s2,s2,1
  84              	.LVL8:
  85              	.L7:
  19:test/Threads_C_API_test.cpp ****         printString("A: i="); printInt(i); printString("\n");
  86              		.loc 1 19 26 discriminator 1
  87 0054 93079000 		li	a5,9
  88 0058 63E02705 		bgtu	s2,a5,.L2
  89              	.LBB9:
  20:test/Threads_C_API_test.cpp ****         for (uint64 j = 0; j < 10000; j++) {
  90              		.loc 1 20 9
  20:test/Threads_C_API_test.cpp ****         for (uint64 j = 0; j < 10000; j++) {
  91              		.loc 1 20 20 is_stmt 0
  92 005c 17050000 		lla	a0,.LC0
  92      13050500 
  93 0064 97000000 		call	_Z11printStringPKc@plt
  93      E7800000 
  94              	.LVL9:
  20:test/Threads_C_API_test.cpp ****         for (uint64 j = 0; j < 10000; j++) {
  95              		.loc 1 20 31 is_stmt 1
  20:test/Threads_C_API_test.cpp ****         for (uint64 j = 0; j < 10000; j++) {
  96              		.loc 1 20 39 is_stmt 0
  97 006c 13060000 		li	a2,0
  98 0070 9305A000 		li	a1,10
  99 0074 1B050900 		sext.w	a0,s2
 100 0078 97000000 		call	_Z8printIntiii@plt
 100      E7800000 
 101              	.LVL10:
  20:test/Threads_C_API_test.cpp ****         for (uint64 j = 0; j < 10000; j++) {
 102              		.loc 1 20 44 is_stmt 1
  20:test/Threads_C_API_test.cpp ****         for (uint64 j = 0; j < 10000; j++) {
 103              		.loc 1 20 55 is_stmt 0
 104 0080 17050000 		lla	a0,.LC1
 104      13050500 
 105 0088 97000000 		call	_Z11printStringPKc@plt
 105      E7800000 
 106              	.LVL11:
  21:test/Threads_C_API_test.cpp ****             for (uint64 k = 0; k < 30000; k++) { /* busy wait */ }
 107              		.loc 1 21 9 is_stmt 1
 108              	.LBB8:
  21:test/Threads_C_API_test.cpp ****             for (uint64 k = 0; k < 30000; k++) { /* busy wait */ }
 109              		.loc 1 21 21 is_stmt 0
 110 0090 93040000 		li	s1,0
 111 0094 6FF09FF9 		j	.L6
 112              	.LVL12:
 113              	.L2:
 114              	.LBE8:
 115              	.LBE9:
 116              	.LBE2:
  24:test/Threads_C_API_test.cpp ****         }
  25:test/Threads_C_API_test.cpp ****     }
  26:test/Threads_C_API_test.cpp ****     printString("A finished!\n");
 117              		.loc 1 26 5 is_stmt 1
 118              		.loc 1 26 16 is_stmt 0
 119 0098 17050000 		lla	a0,.LC2
 119      13050500 
GAS LISTING /tmp/ccVu4BS5.s 			page 4


 120 00a0 97000000 		call	_Z11printStringPKc@plt
 120      E7800000 
 121              	.LVL13:
  27:test/Threads_C_API_test.cpp ****     finishedA = true;
 122              		.loc 1 27 5 is_stmt 1
 123              		.loc 1 27 15 is_stmt 0
 124 00a8 93071000 		li	a5,1
 125 00ac 17070000 		sb	a5,.LANCHOR0,a4
 125      2300F700 
  28:test/Threads_C_API_test.cpp **** }
 126              		.loc 1 28 1
 127 00b4 83308101 		ld	ra,24(sp)
 128              		.cfi_restore 1
 129 00b8 03340101 		ld	s0,16(sp)
 130              		.cfi_restore 8
 131              		.cfi_def_cfa 2, 32
 132 00bc 83348100 		ld	s1,8(sp)
 133              		.cfi_restore 9
 134 00c0 03390100 		ld	s2,0(sp)
 135              		.cfi_restore 18
 136              	.LVL14:
 137 00c4 13010102 		addi	sp,sp,32
 138              		.cfi_def_cfa_offset 0
 139 00c8 67800000 		jr	ra
 140              		.cfi_endproc
 141              	.LFE1:
 143              		.section	.rodata.str1.8
 144 001d 000000   		.align	3
 145              	.LC3:
 146 0020 423A2069 		.string	"B: i="
 146      3D00
 147 0026 0000     		.align	3
 148              	.LC4:
 149 0028 42206669 		.string	"B finished!\n"
 149      6E697368 
 149      6564210A 
 149      00
 150              		.text
 151              		.align	2
 152              		.globl	_Z11workerBodyBPv
 154              	_Z11workerBodyBPv:
 155              	.LFB2:
  29:test/Threads_C_API_test.cpp **** 
  30:test/Threads_C_API_test.cpp **** void workerBodyB(void* arg) {
 156              		.loc 1 30 29 is_stmt 1
 157              		.cfi_startproc
 158              	.LVL15:
 159 00cc 130101FE 		addi	sp,sp,-32
 160              		.cfi_def_cfa_offset 32
 161 00d0 233C1100 		sd	ra,24(sp)
 162 00d4 23388100 		sd	s0,16(sp)
 163 00d8 23349100 		sd	s1,8(sp)
 164 00dc 23302101 		sd	s2,0(sp)
 165              		.cfi_offset 1, -8
 166              		.cfi_offset 8, -16
 167              		.cfi_offset 9, -24
 168              		.cfi_offset 18, -32
GAS LISTING /tmp/ccVu4BS5.s 			page 5


 169 00e0 13040102 		addi	s0,sp,32
 170              		.cfi_def_cfa 8, 0
  31:test/Threads_C_API_test.cpp ****     for (uint64 i = 0; i < 16; i++) {
 171              		.loc 1 31 5
 172              	.LVL16:
 173              	.LBB10:
 174              		.loc 1 31 17 is_stmt 0
 175 00e4 13090000 		li	s2,0
 176 00e8 6F008003 		j	.L15
 177              	.LVL17:
 178              	.L12:
 179              	.LBB11:
 180              	.LBB12:
 181              	.LBB13:
  32:test/Threads_C_API_test.cpp ****         printString("B: i="); printInt(i); printString("\n");
  33:test/Threads_C_API_test.cpp ****         for (uint64 j = 0; j < 10000; j++) {
  34:test/Threads_C_API_test.cpp ****             for (uint64 k = 0; k < 30000; k++) { /* busy wait */ }
  35:test/Threads_C_API_test.cpp ****             thread_dispatch();
 182              		.loc 1 35 13 is_stmt 1 discriminator 2
 183              		.loc 1 35 28 is_stmt 0 discriminator 2
 184 00ec 97000000 		call	thread_dispatch@plt
 184      E7800000 
 185              	.LVL18:
 186              	.LBE13:
  33:test/Threads_C_API_test.cpp ****             for (uint64 k = 0; k < 30000; k++) { /* busy wait */ }
 187              		.loc 1 33 9 is_stmt 1 discriminator 2
 188 00f4 93841400 		addi	s1,s1,1
 189              	.LVL19:
 190              	.L14:
  33:test/Threads_C_API_test.cpp ****             for (uint64 k = 0; k < 30000; k++) { /* busy wait */ }
 191              		.loc 1 33 30 discriminator 1
 192 00f8 B7270000 		li	a5,8192
 193 00fc 9387F770 		addi	a5,a5,1807
 194 0100 63EE9700 		bgtu	s1,a5,.L11
 195              	.LBB15:
 196              	.LBB14:
  34:test/Threads_C_API_test.cpp ****             thread_dispatch();
 197              		.loc 1 34 25 is_stmt 0
 198 0104 13070000 		li	a4,0
 199              	.L13:
 200              	.LVL20:
  34:test/Threads_C_API_test.cpp ****             thread_dispatch();
 201              		.loc 1 34 34 is_stmt 1 discriminator 3
 202 0108 B7770000 		li	a5,28672
 203 010c 9387F752 		addi	a5,a5,1327
 204 0110 E3EEE7FC 		bgtu	a4,a5,.L12
  34:test/Threads_C_API_test.cpp ****             thread_dispatch();
 205              		.loc 1 34 13 discriminator 2
 206 0114 13071700 		addi	a4,a4,1
 207              	.LVL21:
 208 0118 6FF01FFF 		j	.L13
 209              	.LVL22:
 210              	.L11:
 211              	.LBE14:
 212              	.LBE15:
 213              	.LBE12:
 214              	.LBE11:
GAS LISTING /tmp/ccVu4BS5.s 			page 6


  31:test/Threads_C_API_test.cpp ****         printString("B: i="); printInt(i); printString("\n");
 215              		.loc 1 31 5 discriminator 2
 216 011c 13091900 		addi	s2,s2,1
 217              	.LVL23:
 218              	.L15:
  31:test/Threads_C_API_test.cpp ****         printString("B: i="); printInt(i); printString("\n");
 219              		.loc 1 31 26 discriminator 1
 220 0120 9307F000 		li	a5,15
 221 0124 63E02705 		bgtu	s2,a5,.L10
 222              	.LBB17:
  32:test/Threads_C_API_test.cpp ****         for (uint64 j = 0; j < 10000; j++) {
 223              		.loc 1 32 9
  32:test/Threads_C_API_test.cpp ****         for (uint64 j = 0; j < 10000; j++) {
 224              		.loc 1 32 20 is_stmt 0
 225 0128 17050000 		lla	a0,.LC3
 225      13050500 
 226 0130 97000000 		call	_Z11printStringPKc@plt
 226      E7800000 
 227              	.LVL24:
  32:test/Threads_C_API_test.cpp ****         for (uint64 j = 0; j < 10000; j++) {
 228              		.loc 1 32 31 is_stmt 1
  32:test/Threads_C_API_test.cpp ****         for (uint64 j = 0; j < 10000; j++) {
 229              		.loc 1 32 39 is_stmt 0
 230 0138 13060000 		li	a2,0
 231 013c 9305A000 		li	a1,10
 232 0140 1B050900 		sext.w	a0,s2
 233 0144 97000000 		call	_Z8printIntiii@plt
 233      E7800000 
 234              	.LVL25:
  32:test/Threads_C_API_test.cpp ****         for (uint64 j = 0; j < 10000; j++) {
 235              		.loc 1 32 44 is_stmt 1
  32:test/Threads_C_API_test.cpp ****         for (uint64 j = 0; j < 10000; j++) {
 236              		.loc 1 32 55 is_stmt 0
 237 014c 17050000 		lla	a0,.LC1
 237      13050500 
 238 0154 97000000 		call	_Z11printStringPKc@plt
 238      E7800000 
 239              	.LVL26:
  33:test/Threads_C_API_test.cpp ****             for (uint64 k = 0; k < 30000; k++) { /* busy wait */ }
 240              		.loc 1 33 9 is_stmt 1
 241              	.LBB16:
  33:test/Threads_C_API_test.cpp ****             for (uint64 k = 0; k < 30000; k++) { /* busy wait */ }
 242              		.loc 1 33 21 is_stmt 0
 243 015c 93040000 		li	s1,0
 244 0160 6FF09FF9 		j	.L14
 245              	.LVL27:
 246              	.L10:
 247              	.LBE16:
 248              	.LBE17:
 249              	.LBE10:
  36:test/Threads_C_API_test.cpp ****         }
  37:test/Threads_C_API_test.cpp ****     }
  38:test/Threads_C_API_test.cpp ****     printString("B finished!\n");
 250              		.loc 1 38 5 is_stmt 1
 251              		.loc 1 38 16 is_stmt 0
 252 0164 17050000 		lla	a0,.LC4
 252      13050500 
GAS LISTING /tmp/ccVu4BS5.s 			page 7


 253 016c 97000000 		call	_Z11printStringPKc@plt
 253      E7800000 
 254              	.LVL28:
  39:test/Threads_C_API_test.cpp ****     finishedB = true;
 255              		.loc 1 39 5 is_stmt 1
 256              		.loc 1 39 15 is_stmt 0
 257 0174 93071000 		li	a5,1
 258 0178 17070000 		sb	a5,.LANCHOR0+1,a4
 258      2300F700 
  40:test/Threads_C_API_test.cpp ****     thread_dispatch();
 259              		.loc 1 40 5 is_stmt 1
 260              		.loc 1 40 20 is_stmt 0
 261 0180 97000000 		call	thread_dispatch@plt
 261      E7800000 
 262              	.LVL29:
  41:test/Threads_C_API_test.cpp **** }
 263              		.loc 1 41 1
 264 0188 83308101 		ld	ra,24(sp)
 265              		.cfi_restore 1
 266 018c 03340101 		ld	s0,16(sp)
 267              		.cfi_restore 8
 268              		.cfi_def_cfa 2, 32
 269 0190 83348100 		ld	s1,8(sp)
 270              		.cfi_restore 9
 271 0194 03390100 		ld	s2,0(sp)
 272              		.cfi_restore 18
 273              	.LVL30:
 274 0198 13010102 		addi	sp,sp,32
 275              		.cfi_def_cfa_offset 0
 276 019c 67800000 		jr	ra
 277              		.cfi_endproc
 278              	.LFE2:
 280              		.align	2
 282              	_ZL9fibonaccim:
 283              	.LFB0:
  12:test/Threads_C_API_test.cpp ****     if (n == 0 || n == 1) { return n; }
 284              		.loc 1 12 35 is_stmt 1
 285              		.cfi_startproc
 286              	.LVL31:
 287 01a0 130101FE 		addi	sp,sp,-32
 288              		.cfi_def_cfa_offset 32
 289 01a4 233C1100 		sd	ra,24(sp)
 290 01a8 23388100 		sd	s0,16(sp)
 291 01ac 23349100 		sd	s1,8(sp)
 292 01b0 23302101 		sd	s2,0(sp)
 293              		.cfi_offset 1, -8
 294              		.cfi_offset 8, -16
 295              		.cfi_offset 9, -24
 296              		.cfi_offset 18, -32
 297 01b4 13040102 		addi	s0,sp,32
 298              		.cfi_def_cfa 8, 0
 299 01b8 93040500 		mv	s1,a0
  13:test/Threads_C_API_test.cpp ****     if (n % 10 == 0) { thread_dispatch(); }
 300              		.loc 1 13 5
 301 01bc 93071000 		li	a5,1
 302 01c0 63F8A702 		bleu	a0,a5,.L17
  14:test/Threads_C_API_test.cpp ****     return fibonacci(n - 1) + fibonacci(n - 2);
GAS LISTING /tmp/ccVu4BS5.s 			page 8


 303              		.loc 1 14 5
  14:test/Threads_C_API_test.cpp ****     return fibonacci(n - 1) + fibonacci(n - 2);
 304              		.loc 1 14 11 is_stmt 0
 305 01c4 9307A000 		li	a5,10
 306 01c8 B377F502 		remu	a5,a0,a5
  14:test/Threads_C_API_test.cpp ****     return fibonacci(n - 1) + fibonacci(n - 2);
 307              		.loc 1 14 5
 308 01cc 638E0702 		beqz	a5,.L22
 309              	.LVL32:
 310              	.L19:
  15:test/Threads_C_API_test.cpp **** }
 311              		.loc 1 15 5 is_stmt 1
  15:test/Threads_C_API_test.cpp **** }
 312              		.loc 1 15 21 is_stmt 0
 313 01d0 1385F4FF 		addi	a0,s1,-1
 314 01d4 97000000 		call	_ZL9fibonaccim
 314      E7800000 
 315              	.LVL33:
 316 01dc 13090500 		mv	s2,a0
  15:test/Threads_C_API_test.cpp **** }
 317              		.loc 1 15 40
 318 01e0 1385E4FF 		addi	a0,s1,-2
 319 01e4 97000000 		call	_ZL9fibonaccim
 319      E7800000 
 320              	.LVL34:
  15:test/Threads_C_API_test.cpp **** }
 321              		.loc 1 15 46
 322 01ec 3305A900 		add	a0,s2,a0
 323              	.L17:
  16:test/Threads_C_API_test.cpp **** 
 324              		.loc 1 16 1
 325 01f0 83308101 		ld	ra,24(sp)
 326              		.cfi_remember_state
 327              		.cfi_restore 1
 328 01f4 03340101 		ld	s0,16(sp)
 329              		.cfi_restore 8
 330              		.cfi_def_cfa 2, 32
 331 01f8 83348100 		ld	s1,8(sp)
 332              		.cfi_restore 9
 333              	.LVL35:
 334 01fc 03390100 		ld	s2,0(sp)
 335              		.cfi_restore 18
 336 0200 13010102 		addi	sp,sp,32
 337              		.cfi_def_cfa_offset 0
 338 0204 67800000 		jr	ra
 339              	.LVL36:
 340              	.L22:
 341              		.cfi_restore_state
  14:test/Threads_C_API_test.cpp ****     return fibonacci(n - 1) + fibonacci(n - 2);
 342              		.loc 1 14 24 is_stmt 1 discriminator 1
  14:test/Threads_C_API_test.cpp ****     return fibonacci(n - 1) + fibonacci(n - 2);
 343              		.loc 1 14 39 is_stmt 0 discriminator 1
 344 0208 97000000 		call	thread_dispatch@plt
 344      E7800000 
 345              	.LVL37:
 346 0210 6FF01FFC 		j	.L19
 347              		.cfi_endproc
GAS LISTING /tmp/ccVu4BS5.s 			page 9


 348              	.LFE0:
 350              		.section	.rodata.str1.8
 351 0035 000000   		.align	3
 352              	.LC5:
 353 0038 433A2069 		.string	"C: i="
 353      3D00
 354 003e 0000     		.align	3
 355              	.LC6:
 356 0040 433A2064 		.string	"C: dispatch\n"
 356      69737061 
 356      7463680A 
 356      00
 357 004d 000000   		.align	3
 358              	.LC7:
 359 0050 433A2074 		.string	"C: t1="
 359      313D00
 360 0057 00       		.align	3
 361              	.LC8:
 362 0058 433A2066 		.string	"C: fibonaci="
 362      69626F6E 
 362      6163693D 
 362      00
 363              		.text
 364              		.align	2
 365              		.globl	_Z11workerBodyCPv
 367              	_Z11workerBodyCPv:
 368              	.LFB3:
  42:test/Threads_C_API_test.cpp **** 
  43:test/Threads_C_API_test.cpp **** void workerBodyC(void* arg) {
 369              		.loc 1 43 29 is_stmt 1
 370              		.cfi_startproc
 371              	.LVL38:
 372 0214 130101FE 		addi	sp,sp,-32
 373              		.cfi_def_cfa_offset 32
 374 0218 233C1100 		sd	ra,24(sp)
 375 021c 23388100 		sd	s0,16(sp)
 376 0220 23349100 		sd	s1,8(sp)
 377 0224 23302101 		sd	s2,0(sp)
 378              		.cfi_offset 1, -8
 379              		.cfi_offset 8, -16
 380              		.cfi_offset 9, -24
 381              		.cfi_offset 18, -32
 382 0228 13040102 		addi	s0,sp,32
 383              		.cfi_def_cfa 8, 0
  44:test/Threads_C_API_test.cpp ****     uint8 i = 0;
 384              		.loc 1 44 5
 385              	.LVL39:
 386              		.loc 1 44 11 is_stmt 0
 387 022c 93040000 		li	s1,0
 388 0230 6F000004 		j	.L25
 389              	.LVL40:
 390              	.L29:
  45:test/Threads_C_API_test.cpp ****     for (; i < 3; i++) {
  46:test/Threads_C_API_test.cpp ****         printString("C: i="); printInt(i); printString("\n");
 391              		.loc 1 46 9 is_stmt 1 discriminator 1
 392              		.loc 1 46 20 is_stmt 0 discriminator 1
 393 0234 17050000 		lla	a0,.LC5
GAS LISTING /tmp/ccVu4BS5.s 			page 10


 393      13050500 
 394 023c 97000000 		call	_Z11printStringPKc@plt
 394      E7800000 
 395              	.LVL41:
 396              		.loc 1 46 31 is_stmt 1 discriminator 1
 397              		.loc 1 46 39 is_stmt 0 discriminator 1
 398 0244 13060000 		li	a2,0
 399 0248 9305A000 		li	a1,10
 400 024c 13850400 		mv	a0,s1
 401 0250 97000000 		call	_Z8printIntiii@plt
 401      E7800000 
 402              	.LVL42:
 403              		.loc 1 46 44 is_stmt 1 discriminator 1
 404              		.loc 1 46 55 is_stmt 0 discriminator 1
 405 0258 17050000 		lla	a0,.LC1
 405      13050500 
 406 0260 97000000 		call	_Z11printStringPKc@plt
 406      E7800000 
 407              	.LVL43:
  45:test/Threads_C_API_test.cpp ****     for (; i < 3; i++) {
 408              		.loc 1 45 5 is_stmt 1 discriminator 1
 409 0268 9B841400 		addiw	s1,s1,1
 410              	.LVL44:
 411 026c 93F4F40F 		andi	s1,s1,0xff
 412              	.LVL45:
 413              	.L25:
  45:test/Threads_C_API_test.cpp ****     for (; i < 3; i++) {
 414              		.loc 1 45 5 discriminator 2
  45:test/Threads_C_API_test.cpp ****     for (; i < 3; i++) {
 415              		.loc 1 45 14 discriminator 2
 416 0270 93072000 		li	a5,2
 417 0274 E3F097FC 		bleu	s1,a5,.L29
  47:test/Threads_C_API_test.cpp ****     }
  48:test/Threads_C_API_test.cpp **** 
  49:test/Threads_C_API_test.cpp ****     printString("C: dispatch\n");
 418              		.loc 1 49 5
 419              		.loc 1 49 16 is_stmt 0
 420 0278 17050000 		lla	a0,.LC6
 420      13050500 
 421 0280 97000000 		call	_Z11printStringPKc@plt
 421      E7800000 
 422              	.LVL46:
  50:test/Threads_C_API_test.cpp ****     __asm__ ("li t1, 7");
 423              		.loc 1 50 5 is_stmt 1
 424              		.loc 1 50 25 is_stmt 0
 425              	#APP
 426              	# 50 "test/Threads_C_API_test.cpp" 1
  51              	    thread_dispatch();
 427              		li t1, 7
 428              	# 0 "" 2
 429              		.loc 1 51 5 is_stmt 1
 430              		.loc 1 51 20 is_stmt 0
 431              	#NO_APP
 432 028c 97000000 		call	thread_dispatch@plt
 432      E7800000 
 433              	.LVL47:
  52:test/Threads_C_API_test.cpp **** 
GAS LISTING /tmp/ccVu4BS5.s 			page 11


  53:test/Threads_C_API_test.cpp ****     uint64 t1 = 0;
 434              		.loc 1 53 5 is_stmt 1
  54:test/Threads_C_API_test.cpp ****     __asm__ ("mv %[t1], t1" : [t1] "=r"(t1));
 435              		.loc 1 54 5
 436              		.loc 1 54 45 is_stmt 0
 437              	#APP
 438              	# 54 "test/Threads_C_API_test.cpp" 1
  55              	
 439              		mv s2, t1
 440              	# 0 "" 2
 441              	.LVL48:
  56:test/Threads_C_API_test.cpp ****     printString("C: t1="); printInt(t1); printString("\n");
 442              		.loc 1 56 5 is_stmt 1
 443              		.loc 1 56 16 is_stmt 0
 444              	#NO_APP
 445 0298 17050000 		lla	a0,.LC7
 445      13050500 
 446 02a0 97000000 		call	_Z11printStringPKc@plt
 446      E7800000 
 447              	.LVL49:
 448              		.loc 1 56 28 is_stmt 1
 449              		.loc 1 56 36 is_stmt 0
 450 02a8 13060000 		li	a2,0
 451 02ac 9305A000 		li	a1,10
 452 02b0 1B050900 		sext.w	a0,s2
 453 02b4 97000000 		call	_Z8printIntiii@plt
 453      E7800000 
 454              	.LVL50:
 455              		.loc 1 56 42 is_stmt 1
 456              		.loc 1 56 53 is_stmt 0
 457 02bc 17050000 		lla	a0,.LC1
 457      13050500 
 458 02c4 97000000 		call	_Z11printStringPKc@plt
 458      E7800000 
 459              	.LVL51:
  57:test/Threads_C_API_test.cpp **** 
  58:test/Threads_C_API_test.cpp ****     uint64 result = fibonacci(12);
 460              		.loc 1 58 5 is_stmt 1
 461              		.loc 1 58 30 is_stmt 0
 462 02cc 1305C000 		li	a0,12
 463 02d0 97000000 		call	_ZL9fibonaccim
 463      E7800000 
 464              	.LVL52:
 465 02d8 13090500 		mv	s2,a0
 466              	.LVL53:
  59:test/Threads_C_API_test.cpp ****     printString("C: fibonaci="); printInt(result); printString("\n");
 467              		.loc 1 59 5 is_stmt 1
 468              		.loc 1 59 16 is_stmt 0
 469 02dc 17050000 		lla	a0,.LC8
 469      13050500 
 470              	.LVL54:
 471 02e4 97000000 		call	_Z11printStringPKc@plt
 471      E7800000 
 472              	.LVL55:
 473              		.loc 1 59 34 is_stmt 1
 474              		.loc 1 59 42 is_stmt 0
 475 02ec 13060000 		li	a2,0
GAS LISTING /tmp/ccVu4BS5.s 			page 12


 476 02f0 9305A000 		li	a1,10
 477 02f4 1B050900 		sext.w	a0,s2
 478 02f8 97000000 		call	_Z8printIntiii@plt
 478      E7800000 
 479              	.LVL56:
 480              		.loc 1 59 52 is_stmt 1
 481              		.loc 1 59 63 is_stmt 0
 482 0300 17050000 		lla	a0,.LC1
 482      13050500 
 483 0308 97000000 		call	_Z11printStringPKc@plt
 483      E7800000 
 484              	.LVL57:
 485 0310 6F000004 		j	.L27
 486              	.L30:
  60:test/Threads_C_API_test.cpp **** 
  61:test/Threads_C_API_test.cpp ****     for (; i < 6; i++) {
  62:test/Threads_C_API_test.cpp ****         printString("C: i="); printInt(i); printString("\n");
 487              		.loc 1 62 9 is_stmt 1 discriminator 1
 488              		.loc 1 62 20 is_stmt 0 discriminator 1
 489 0314 17050000 		lla	a0,.LC5
 489      13050500 
 490 031c 97000000 		call	_Z11printStringPKc@plt
 490      E7800000 
 491              	.LVL58:
 492              		.loc 1 62 31 is_stmt 1 discriminator 1
 493              		.loc 1 62 39 is_stmt 0 discriminator 1
 494 0324 13060000 		li	a2,0
 495 0328 9305A000 		li	a1,10
 496 032c 13850400 		mv	a0,s1
 497 0330 97000000 		call	_Z8printIntiii@plt
 497      E7800000 
 498              	.LVL59:
 499              		.loc 1 62 44 is_stmt 1 discriminator 1
 500              		.loc 1 62 55 is_stmt 0 discriminator 1
 501 0338 17050000 		lla	a0,.LC1
 501      13050500 
 502 0340 97000000 		call	_Z11printStringPKc@plt
 502      E7800000 
 503              	.LVL60:
  61:test/Threads_C_API_test.cpp ****         printString("C: i="); printInt(i); printString("\n");
 504              		.loc 1 61 5 is_stmt 1 discriminator 1
 505 0348 9B841400 		addiw	s1,s1,1
 506              	.LVL61:
 507 034c 93F4F40F 		andi	s1,s1,0xff
 508              	.LVL62:
 509              	.L27:
  61:test/Threads_C_API_test.cpp ****         printString("C: i="); printInt(i); printString("\n");
 510              		.loc 1 61 5 discriminator 2
  61:test/Threads_C_API_test.cpp ****         printString("C: i="); printInt(i); printString("\n");
 511              		.loc 1 61 14 discriminator 2
 512 0350 93075000 		li	a5,5
 513 0354 E3F097FC 		bleu	s1,a5,.L30
  63:test/Threads_C_API_test.cpp ****     }
  64:test/Threads_C_API_test.cpp **** 
  65:test/Threads_C_API_test.cpp ****     printString("A finished!\n");
 514              		.loc 1 65 5
 515              		.loc 1 65 16 is_stmt 0
GAS LISTING /tmp/ccVu4BS5.s 			page 13


 516 0358 17050000 		lla	a0,.LC2
 516      13050500 
 517 0360 97000000 		call	_Z11printStringPKc@plt
 517      E7800000 
 518              	.LVL63:
  66:test/Threads_C_API_test.cpp ****     finishedC = true;
 519              		.loc 1 66 5 is_stmt 1
 520              		.loc 1 66 15 is_stmt 0
 521 0368 93071000 		li	a5,1
 522 036c 17070000 		sb	a5,.LANCHOR0+2,a4
 522      2300F700 
  67:test/Threads_C_API_test.cpp ****     thread_dispatch();
 523              		.loc 1 67 5 is_stmt 1
 524              		.loc 1 67 20 is_stmt 0
 525 0374 97000000 		call	thread_dispatch@plt
 525      E7800000 
 526              	.LVL64:
  68:test/Threads_C_API_test.cpp **** }
 527              		.loc 1 68 1
 528 037c 83308101 		ld	ra,24(sp)
 529              		.cfi_restore 1
 530 0380 03340101 		ld	s0,16(sp)
 531              		.cfi_restore 8
 532              		.cfi_def_cfa 2, 32
 533 0384 83348100 		ld	s1,8(sp)
 534              		.cfi_restore 9
 535              	.LVL65:
 536 0388 03390100 		ld	s2,0(sp)
 537              		.cfi_restore 18
 538              	.LVL66:
 539 038c 13010102 		addi	sp,sp,32
 540              		.cfi_def_cfa_offset 0
 541 0390 67800000 		jr	ra
 542              		.cfi_endproc
 543              	.LFE3:
 545              		.section	.rodata.str1.8
 546 0065 000000   		.align	3
 547              	.LC9:
 548 0068 443A2069 		.string	"D: i="
 548      3D00
 549 006e 0000     		.align	3
 550              	.LC10:
 551 0070 443A2064 		.string	"D: dispatch\n"
 551      69737061 
 551      7463680A 
 551      00
 552 007d 000000   		.align	3
 553              	.LC11:
 554 0080 443A2066 		.string	"D: fibonaci="
 554      69626F6E 
 554      6163693D 
 554      00
 555 008d 000000   		.align	3
 556              	.LC12:
 557 0090 44206669 		.string	"D finished!\n"
 557      6E697368 
 557      6564210A 
GAS LISTING /tmp/ccVu4BS5.s 			page 14


 557      00
 558              		.text
 559              		.align	2
 560              		.globl	_Z11workerBodyDPv
 562              	_Z11workerBodyDPv:
 563              	.LFB4:
  69:test/Threads_C_API_test.cpp **** 
  70:test/Threads_C_API_test.cpp **** void workerBodyD(void* arg) {
 564              		.loc 1 70 29 is_stmt 1
 565              		.cfi_startproc
 566              	.LVL67:
 567 0394 130101FE 		addi	sp,sp,-32
 568              		.cfi_def_cfa_offset 32
 569 0398 233C1100 		sd	ra,24(sp)
 570 039c 23388100 		sd	s0,16(sp)
 571 03a0 23349100 		sd	s1,8(sp)
 572 03a4 23302101 		sd	s2,0(sp)
 573              		.cfi_offset 1, -8
 574              		.cfi_offset 8, -16
 575              		.cfi_offset 9, -24
 576              		.cfi_offset 18, -32
 577 03a8 13040102 		addi	s0,sp,32
 578              		.cfi_def_cfa 8, 0
  71:test/Threads_C_API_test.cpp ****     uint8 i = 10;
 579              		.loc 1 71 5
 580              	.LVL68:
 581              		.loc 1 71 11 is_stmt 0
 582 03ac 9304A000 		li	s1,10
 583 03b0 6F000004 		j	.L33
 584              	.LVL69:
 585              	.L37:
  72:test/Threads_C_API_test.cpp ****     for (; i < 13; i++) {
  73:test/Threads_C_API_test.cpp ****         printString("D: i="); printInt(i); printString("\n");
 586              		.loc 1 73 9 is_stmt 1 discriminator 1
 587              		.loc 1 73 20 is_stmt 0 discriminator 1
 588 03b4 17050000 		lla	a0,.LC9
 588      13050500 
 589 03bc 97000000 		call	_Z11printStringPKc@plt
 589      E7800000 
 590              	.LVL70:
 591              		.loc 1 73 31 is_stmt 1 discriminator 1
 592              		.loc 1 73 39 is_stmt 0 discriminator 1
 593 03c4 13060000 		li	a2,0
 594 03c8 9305A000 		li	a1,10
 595 03cc 13850400 		mv	a0,s1
 596 03d0 97000000 		call	_Z8printIntiii@plt
 596      E7800000 
 597              	.LVL71:
 598              		.loc 1 73 44 is_stmt 1 discriminator 1
 599              		.loc 1 73 55 is_stmt 0 discriminator 1
 600 03d8 17050000 		lla	a0,.LC1
 600      13050500 
 601 03e0 97000000 		call	_Z11printStringPKc@plt
 601      E7800000 
 602              	.LVL72:
  72:test/Threads_C_API_test.cpp ****     for (; i < 13; i++) {
 603              		.loc 1 72 5 is_stmt 1 discriminator 1
GAS LISTING /tmp/ccVu4BS5.s 			page 15


 604 03e8 9B841400 		addiw	s1,s1,1
 605              	.LVL73:
 606 03ec 93F4F40F 		andi	s1,s1,0xff
 607              	.LVL74:
 608              	.L33:
  72:test/Threads_C_API_test.cpp ****     for (; i < 13; i++) {
 609              		.loc 1 72 5 discriminator 2
  72:test/Threads_C_API_test.cpp ****     for (; i < 13; i++) {
 610              		.loc 1 72 14 discriminator 2
 611 03f0 9307C000 		li	a5,12
 612 03f4 E3F097FC 		bleu	s1,a5,.L37
  74:test/Threads_C_API_test.cpp ****     }
  75:test/Threads_C_API_test.cpp **** 
  76:test/Threads_C_API_test.cpp ****     printString("D: dispatch\n");
 613              		.loc 1 76 5
 614              		.loc 1 76 16 is_stmt 0
 615 03f8 17050000 		lla	a0,.LC10
 615      13050500 
 616 0400 97000000 		call	_Z11printStringPKc@plt
 616      E7800000 
 617              	.LVL75:
  77:test/Threads_C_API_test.cpp ****     __asm__ ("li t1, 5");
 618              		.loc 1 77 5 is_stmt 1
 619              		.loc 1 77 25 is_stmt 0
 620              	#APP
 621              	# 77 "test/Threads_C_API_test.cpp" 1
  78              	    thread_dispatch();
 622              		li t1, 5
 623              	# 0 "" 2
 624              		.loc 1 78 5 is_stmt 1
 625              		.loc 1 78 20 is_stmt 0
 626              	#NO_APP
 627 040c 97000000 		call	thread_dispatch@plt
 627      E7800000 
 628              	.LVL76:
  79:test/Threads_C_API_test.cpp **** 
  80:test/Threads_C_API_test.cpp ****     uint64 result = fibonacci(16);
 629              		.loc 1 80 5 is_stmt 1
 630              		.loc 1 80 30 is_stmt 0
 631 0414 13050001 		li	a0,16
 632 0418 97000000 		call	_ZL9fibonaccim
 632      E7800000 
 633              	.LVL77:
 634 0420 13090500 		mv	s2,a0
 635              	.LVL78:
  81:test/Threads_C_API_test.cpp ****     printString("D: fibonaci="); printInt(result); printString("\n");
 636              		.loc 1 81 5 is_stmt 1
 637              		.loc 1 81 16 is_stmt 0
 638 0424 17050000 		lla	a0,.LC11
 638      13050500 
 639              	.LVL79:
 640 042c 97000000 		call	_Z11printStringPKc@plt
 640      E7800000 
 641              	.LVL80:
 642              		.loc 1 81 34 is_stmt 1
 643              		.loc 1 81 42 is_stmt 0
 644 0434 13060000 		li	a2,0
GAS LISTING /tmp/ccVu4BS5.s 			page 16


 645 0438 9305A000 		li	a1,10
 646 043c 1B050900 		sext.w	a0,s2
 647 0440 97000000 		call	_Z8printIntiii@plt
 647      E7800000 
 648              	.LVL81:
 649              		.loc 1 81 52 is_stmt 1
 650              		.loc 1 81 63 is_stmt 0
 651 0448 17050000 		lla	a0,.LC1
 651      13050500 
 652 0450 97000000 		call	_Z11printStringPKc@plt
 652      E7800000 
 653              	.LVL82:
 654 0458 6F000004 		j	.L35
 655              	.L38:
  82:test/Threads_C_API_test.cpp **** 
  83:test/Threads_C_API_test.cpp ****     for (; i < 16; i++) {
  84:test/Threads_C_API_test.cpp ****         printString("D: i="); printInt(i); printString("\n");
 656              		.loc 1 84 9 is_stmt 1 discriminator 1
 657              		.loc 1 84 20 is_stmt 0 discriminator 1
 658 045c 17050000 		lla	a0,.LC9
 658      13050500 
 659 0464 97000000 		call	_Z11printStringPKc@plt
 659      E7800000 
 660              	.LVL83:
 661              		.loc 1 84 31 is_stmt 1 discriminator 1
 662              		.loc 1 84 39 is_stmt 0 discriminator 1
 663 046c 13060000 		li	a2,0
 664 0470 9305A000 		li	a1,10
 665 0474 13850400 		mv	a0,s1
 666 0478 97000000 		call	_Z8printIntiii@plt
 666      E7800000 
 667              	.LVL84:
 668              		.loc 1 84 44 is_stmt 1 discriminator 1
 669              		.loc 1 84 55 is_stmt 0 discriminator 1
 670 0480 17050000 		lla	a0,.LC1
 670      13050500 
 671 0488 97000000 		call	_Z11printStringPKc@plt
 671      E7800000 
 672              	.LVL85:
  83:test/Threads_C_API_test.cpp ****         printString("D: i="); printInt(i); printString("\n");
 673              		.loc 1 83 5 is_stmt 1 discriminator 1
 674 0490 9B841400 		addiw	s1,s1,1
 675              	.LVL86:
 676 0494 93F4F40F 		andi	s1,s1,0xff
 677              	.LVL87:
 678              	.L35:
  83:test/Threads_C_API_test.cpp ****         printString("D: i="); printInt(i); printString("\n");
 679              		.loc 1 83 5 discriminator 2
  83:test/Threads_C_API_test.cpp ****         printString("D: i="); printInt(i); printString("\n");
 680              		.loc 1 83 14 discriminator 2
 681 0498 9307F000 		li	a5,15
 682 049c E3F097FC 		bleu	s1,a5,.L38
  85:test/Threads_C_API_test.cpp ****     }
  86:test/Threads_C_API_test.cpp **** 
  87:test/Threads_C_API_test.cpp ****     printString("D finished!\n");
 683              		.loc 1 87 5
 684              		.loc 1 87 16 is_stmt 0
GAS LISTING /tmp/ccVu4BS5.s 			page 17


 685 04a0 17050000 		lla	a0,.LC12
 685      13050500 
 686 04a8 97000000 		call	_Z11printStringPKc@plt
 686      E7800000 
 687              	.LVL88:
  88:test/Threads_C_API_test.cpp ****     finishedD = true;
 688              		.loc 1 88 5 is_stmt 1
 689              		.loc 1 88 15 is_stmt 0
 690 04b0 93071000 		li	a5,1
 691 04b4 17070000 		sb	a5,.LANCHOR0+3,a4
 691      2300F700 
  89:test/Threads_C_API_test.cpp ****     thread_dispatch();
 692              		.loc 1 89 5 is_stmt 1
 693              		.loc 1 89 20 is_stmt 0
 694 04bc 97000000 		call	thread_dispatch@plt
 694      E7800000 
 695              	.LVL89:
  90:test/Threads_C_API_test.cpp **** }
 696              		.loc 1 90 1
 697 04c4 83308101 		ld	ra,24(sp)
 698              		.cfi_restore 1
 699 04c8 03340101 		ld	s0,16(sp)
 700              		.cfi_restore 8
 701              		.cfi_def_cfa 2, 32
 702 04cc 83348100 		ld	s1,8(sp)
 703              		.cfi_restore 9
 704              	.LVL90:
 705 04d0 03390100 		ld	s2,0(sp)
 706              		.cfi_restore 18
 707              	.LVL91:
 708 04d4 13010102 		addi	sp,sp,32
 709              		.cfi_def_cfa_offset 0
 710 04d8 67800000 		jr	ra
 711              		.cfi_endproc
 712              	.LFE4:
 714              		.section	.rodata.str1.8
 715 009d 000000   		.align	3
 716              	.LC13:
 717 00a0 54687265 		.string	"ThreadA created\n"
 717      61644120 
 717      63726561 
 717      7465640A 
 717      00
 718 00b1 00000000 		.align	3
 718      000000
 719              	.LC14:
 720 00b8 54687265 		.string	"ThreadB created\n"
 720      61644220 
 720      63726561 
 720      7465640A 
 720      00
 721 00c9 00000000 		.align	3
 721      000000
 722              	.LC15:
 723 00d0 54687265 		.string	"ThreadC created\n"
 723      61644320 
 723      63726561 
GAS LISTING /tmp/ccVu4BS5.s 			page 18


 723      7465640A 
 723      00
 724 00e1 00000000 		.align	3
 724      000000
 725              	.LC16:
 726 00e8 54687265 		.string	"ThreadD created\n"
 726      61644420 
 726      63726561 
 726      7465640A 
 726      00
 727              		.text
 728              		.align	2
 729              		.globl	_Z18Threads_C_API_testv
 731              	_Z18Threads_C_API_testv:
 732              	.LFB5:
  91:test/Threads_C_API_test.cpp **** 
  92:test/Threads_C_API_test.cpp **** 
  93:test/Threads_C_API_test.cpp **** void Threads_C_API_test() {
 733              		.loc 1 93 27 is_stmt 1
 734              		.cfi_startproc
 735 04dc 130101FC 		addi	sp,sp,-64
 736              		.cfi_def_cfa_offset 64
 737 04e0 233C1102 		sd	ra,56(sp)
 738 04e4 23388102 		sd	s0,48(sp)
 739 04e8 23349102 		sd	s1,40(sp)
 740              		.cfi_offset 1, -8
 741              		.cfi_offset 8, -16
 742              		.cfi_offset 9, -24
 743 04ec 13040104 		addi	s0,sp,64
 744              		.cfi_def_cfa 8, 0
  94:test/Threads_C_API_test.cpp ****     thread_t threads[4];
 745              		.loc 1 94 5
  95:test/Threads_C_API_test.cpp ****     thread_create(&threads[0], workerBodyA, nullptr);
 746              		.loc 1 95 5
 747              		.loc 1 95 18 is_stmt 0
 748 04f0 13060000 		li	a2,0
 749 04f4 97050000 		lla	a1,_Z11workerBodyAPv
 749      93850500 
 750 04fc 130504FC 		addi	a0,s0,-64
 751 0500 97000000 		call	thread_create@plt
 751      E7800000 
 752              	.LVL92:
  96:test/Threads_C_API_test.cpp ****     printString("ThreadA created\n");
 753              		.loc 1 96 5 is_stmt 1
 754              		.loc 1 96 16 is_stmt 0
 755 0508 17050000 		lla	a0,.LC13
 755      13050500 
 756 0510 97000000 		call	_Z11printStringPKc@plt
 756      E7800000 
 757              	.LVL93:
  97:test/Threads_C_API_test.cpp **** 
  98:test/Threads_C_API_test.cpp ****     thread_create(&threads[1], workerBodyB, nullptr);
 758              		.loc 1 98 5 is_stmt 1
 759              		.loc 1 98 18 is_stmt 0
 760 0518 13060000 		li	a2,0
 761 051c 97050000 		lla	a1,_Z11workerBodyBPv
 761      93850500 
GAS LISTING /tmp/ccVu4BS5.s 			page 19


 762 0524 130584FC 		addi	a0,s0,-56
 763 0528 97000000 		call	thread_create@plt
 763      E7800000 
 764              	.LVL94:
  99:test/Threads_C_API_test.cpp ****     printString("ThreadB created\n");
 765              		.loc 1 99 5 is_stmt 1
 766              		.loc 1 99 16 is_stmt 0
 767 0530 17050000 		lla	a0,.LC14
 767      13050500 
 768 0538 97000000 		call	_Z11printStringPKc@plt
 768      E7800000 
 769              	.LVL95:
 100:test/Threads_C_API_test.cpp **** 
 101:test/Threads_C_API_test.cpp ****     thread_create(&threads[2], workerBodyC, nullptr);
 770              		.loc 1 101 5 is_stmt 1
 771              		.loc 1 101 18 is_stmt 0
 772 0540 13060000 		li	a2,0
 773 0544 97050000 		lla	a1,_Z11workerBodyCPv
 773      93850500 
 774 054c 130504FD 		addi	a0,s0,-48
 775 0550 97000000 		call	thread_create@plt
 775      E7800000 
 776              	.LVL96:
 102:test/Threads_C_API_test.cpp ****     printString("ThreadC created\n");
 777              		.loc 1 102 5 is_stmt 1
 778              		.loc 1 102 16 is_stmt 0
 779 0558 17050000 		lla	a0,.LC15
 779      13050500 
 780 0560 97000000 		call	_Z11printStringPKc@plt
 780      E7800000 
 781              	.LVL97:
 103:test/Threads_C_API_test.cpp **** 
 104:test/Threads_C_API_test.cpp ****     thread_create(&threads[3], workerBodyD, nullptr);
 782              		.loc 1 104 5 is_stmt 1
 783              		.loc 1 104 18 is_stmt 0
 784 0568 13060000 		li	a2,0
 785 056c 97050000 		lla	a1,_Z11workerBodyDPv
 785      93850500 
 786 0574 130584FD 		addi	a0,s0,-40
 787 0578 97000000 		call	thread_create@plt
 787      E7800000 
 788              	.LVL98:
 105:test/Threads_C_API_test.cpp ****     printString("ThreadD created\n");
 789              		.loc 1 105 5 is_stmt 1
 790              		.loc 1 105 16 is_stmt 0
 791 0580 17050000 		lla	a0,.LC16
 791      13050500 
 792 0588 97000000 		call	_Z11printStringPKc@plt
 792      E7800000 
 793              	.LVL99:
 794 0590 6F00C000 		j	.L42
 795              	.L40:
 106:test/Threads_C_API_test.cpp **** 
 107:test/Threads_C_API_test.cpp ****     while (!(finishedA && finishedB && finishedC && finishedD)) {
 108:test/Threads_C_API_test.cpp ****         thread_dispatch();
 796              		.loc 1 108 9 is_stmt 1
 797              		.loc 1 108 24 is_stmt 0
GAS LISTING /tmp/ccVu4BS5.s 			page 20


 798 0594 97000000 		call	thread_dispatch@plt
 798      E7800000 
 799              	.LVL100:
 800              	.L42:
 107:test/Threads_C_API_test.cpp ****         thread_dispatch();
 801              		.loc 1 107 5 is_stmt 1
 107:test/Threads_C_API_test.cpp ****         thread_dispatch();
 802              		.loc 1 107 12
 803 059c 97070000 		lbu	a5,.LANCHOR0
 803      83C70700 
 804 05a4 E38807FE 		beqz	a5,.L40
 107:test/Threads_C_API_test.cpp ****         thread_dispatch();
 805              		.loc 1 107 24 is_stmt 0 discriminator 1
 806 05a8 97070000 		lbu	a5,.LANCHOR0+1
 806      83C70700 
 807 05b0 E38207FE 		beqz	a5,.L40
 107:test/Threads_C_API_test.cpp ****         thread_dispatch();
 808              		.loc 1 107 37 discriminator 2
 809 05b4 97070000 		lbu	a5,.LANCHOR0+2
 809      83C70700 
 810 05bc E38C07FC 		beqz	a5,.L40
 107:test/Threads_C_API_test.cpp ****         thread_dispatch();
 811              		.loc 1 107 12 discriminator 3
 812 05c0 97070000 		lbu	a5,.LANCHOR0+3
 812      83C70700 
 813 05c8 E38607FC 		beqz	a5,.L40
 814              	.LBB18:
 109:test/Threads_C_API_test.cpp ****     }
 110:test/Threads_C_API_test.cpp **** 
 111:test/Threads_C_API_test.cpp ****     for (auto &thread: threads) { delete (uint64*)thread; }
 815              		.loc 1 111 24
 816 05cc 930404FC 		addi	s1,s0,-64
 817 05d0 6F008000 		j	.L41
 818              	.LVL101:
 819              	.L44:
 820              		.loc 1 111 5 is_stmt 1 discriminator 5
 821 05d4 93848400 		addi	s1,s1,8
 822              	.LVL102:
 823              	.L41:
 824              		.loc 1 111 24 discriminator 6
 825 05d8 930704FE 		addi	a5,s0,-32
 826 05dc 638CF400 		beq	s1,a5,.L39
 827              	.LVL103:
 828              		.loc 1 111 35 discriminator 2
 829              		.loc 1 111 42 is_stmt 0 discriminator 2
 830 05e0 03B50400 		ld	a0,0(s1)
 831              		.loc 1 111 57 discriminator 2
 832 05e4 E30805FE 		beqz	a0,.L44
 833              		.loc 1 111 51 discriminator 3
 834 05e8 97000000 		call	_ZdlPv@plt
 834      E7800000 
 835              	.LVL104:
 836 05f0 6FF05FFE 		j	.L44
 837              	.LVL105:
 838              	.L39:
 839              	.LBE18:
 112:test/Threads_C_API_test.cpp **** }
GAS LISTING /tmp/ccVu4BS5.s 			page 21


 840              		.loc 1 112 1
 841 05f4 83308103 		ld	ra,56(sp)
 842              		.cfi_restore 1
 843 05f8 03340103 		ld	s0,48(sp)
 844              		.cfi_restore 8
 845              		.cfi_def_cfa 2, 64
 846 05fc 83348102 		ld	s1,40(sp)
 847              		.cfi_restore 9
 848              	.LVL106:
 849 0600 13010104 		addi	sp,sp,64
 850              		.cfi_def_cfa_offset 0
 851 0604 67800000 		jr	ra
 852              		.cfi_endproc
 853              	.LFE5:
 855              		.bss
 856              		.set	.LANCHOR0,. + 0
 859              	_ZL9finishedA:
 860 0000 00       		.zero	1
 863              	_ZL9finishedB:
 864 0001 00       		.zero	1
 867              	_ZL9finishedC:
 868 0002 00       		.zero	1
 871              	_ZL9finishedD:
 872 0003 00       		.zero	1
 873              		.text
 874              	.Letext0:
 875              		.file 2 "test/../h/../lib/hw.h"
 876              		.file 3 "test/../h/syscall_c.h"
 877              		.file 4 "test/printing.hpp"
GAS LISTING /tmp/ccVu4BS5.s 			page 22

