GAS LISTING /tmp/ccrzZmNU.s 			page 1


   1              		.file	"Threads_CPP_API_test.cpp"
   2              		.option pic
   3              		.option norelax
   4              		.text
   5              	.Ltext0:
   6              		.align	2
   8              	_ZL9fibonaccim:
   9              	.LFB43:
  10              		.file 1 "test/Threads_CPP_API_test.cpp"
   1:test/Threads_CPP_API_test.cpp **** //
   2:test/Threads_CPP_API_test.cpp **** // Created by os on 5/19/22.
   3:test/Threads_CPP_API_test.cpp **** //
   4:test/Threads_CPP_API_test.cpp **** 
   5:test/Threads_CPP_API_test.cpp **** #include "Threads_CPP_API_test.hpp"
   6:test/Threads_CPP_API_test.cpp **** 
   7:test/Threads_CPP_API_test.cpp **** static bool finishedA = false;
   8:test/Threads_CPP_API_test.cpp **** static bool finishedB = false;
   9:test/Threads_CPP_API_test.cpp **** static bool finishedC = false;
  10:test/Threads_CPP_API_test.cpp **** static bool finishedD = false;
  11:test/Threads_CPP_API_test.cpp **** 
  12:test/Threads_CPP_API_test.cpp **** static uint64 fibonacci(uint64 n) {
  11              		.loc 1 12 35
  12              		.cfi_startproc
  13              	.LVL0:
  14 0000 130101FE 		addi	sp,sp,-32
  15              		.cfi_def_cfa_offset 32
  16 0004 233C1100 		sd	ra,24(sp)
  17 0008 23388100 		sd	s0,16(sp)
  18 000c 23349100 		sd	s1,8(sp)
  19 0010 23302101 		sd	s2,0(sp)
  20              		.cfi_offset 1, -8
  21              		.cfi_offset 8, -16
  22              		.cfi_offset 9, -24
  23              		.cfi_offset 18, -32
  24 0014 13040102 		addi	s0,sp,32
  25              		.cfi_def_cfa 8, 0
  26 0018 93040500 		mv	s1,a0
  13:test/Threads_CPP_API_test.cpp ****     if (n == 0 || n == 1) { return n; }
  27              		.loc 1 13 5
  28 001c 93071000 		li	a5,1
  29 0020 63F8A702 		bleu	a0,a5,.L1
  14:test/Threads_CPP_API_test.cpp ****     if (n % 10 == 0) { thread_dispatch(); }
  30              		.loc 1 14 5
  31              		.loc 1 14 11 is_stmt 0
  32 0024 9307A000 		li	a5,10
  33 0028 B377F502 		remu	a5,a0,a5
  34              		.loc 1 14 5
  35 002c 638E0702 		beqz	a5,.L6
  36              	.LVL1:
  37              	.L3:
  15:test/Threads_CPP_API_test.cpp ****     return fibonacci(n - 1) + fibonacci(n - 2);
  38              		.loc 1 15 5 is_stmt 1
  39              		.loc 1 15 21 is_stmt 0
  40 0030 1385F4FF 		addi	a0,s1,-1
  41 0034 97000000 		call	_ZL9fibonaccim
  41      E7800000 
  42              	.LVL2:
GAS LISTING /tmp/ccrzZmNU.s 			page 2


  43 003c 13090500 		mv	s2,a0
  44              		.loc 1 15 40
  45 0040 1385E4FF 		addi	a0,s1,-2
  46 0044 97000000 		call	_ZL9fibonaccim
  46      E7800000 
  47              	.LVL3:
  48              		.loc 1 15 46
  49 004c 3305A900 		add	a0,s2,a0
  50              	.L1:
  16:test/Threads_CPP_API_test.cpp **** }
  51              		.loc 1 16 1
  52 0050 83308101 		ld	ra,24(sp)
  53              		.cfi_remember_state
  54              		.cfi_restore 1
  55 0054 03340101 		ld	s0,16(sp)
  56              		.cfi_restore 8
  57              		.cfi_def_cfa 2, 32
  58 0058 83348100 		ld	s1,8(sp)
  59              		.cfi_restore 9
  60              	.LVL4:
  61 005c 03390100 		ld	s2,0(sp)
  62              		.cfi_restore 18
  63 0060 13010102 		addi	sp,sp,32
  64              		.cfi_def_cfa_offset 0
  65 0064 67800000 		jr	ra
  66              	.LVL5:
  67              	.L6:
  68              		.cfi_restore_state
  14:test/Threads_CPP_API_test.cpp ****     if (n % 10 == 0) { thread_dispatch(); }
  69              		.loc 1 14 24 is_stmt 1 discriminator 1
  14:test/Threads_CPP_API_test.cpp ****     if (n % 10 == 0) { thread_dispatch(); }
  70              		.loc 1 14 39 is_stmt 0 discriminator 1
  71 0068 97000000 		call	thread_dispatch@plt
  71      E7800000 
  72              	.LVL6:
  73 0070 6FF01FFC 		j	.L3
  74              		.cfi_endproc
  75              	.LFE43:
  77              		.section	.text._ZN7WorkerAD2Ev,"axG",@progbits,_ZN7WorkerAD5Ev,comdat
  78              		.align	2
  79              		.weak	_ZN7WorkerAD2Ev
  81              	_ZN7WorkerAD2Ev:
  82              	.LFB62:
  83              		.file 2 "test/Threads_CPP_API_test.hpp"
   1:test/Threads_CPP_API_test.hpp **** #ifndef XV6_THREADS_CPP_API_TEST_HPP
   2:test/Threads_CPP_API_test.hpp **** #define XV6_THREADS_CPP_API_TEST_HPP
   3:test/Threads_CPP_API_test.hpp **** 
   4:test/Threads_CPP_API_test.hpp **** #include "../h/syscall_cpp.hpp"
   5:test/Threads_CPP_API_test.hpp **** 
   6:test/Threads_CPP_API_test.hpp **** #include "printing.hpp"
   7:test/Threads_CPP_API_test.hpp **** 
   8:test/Threads_CPP_API_test.hpp **** class WorkerA: public Thread {
  84              		.loc 2 8 7 is_stmt 1
  85              		.cfi_startproc
  86              	.LVL7:
  87 0000 130101FF 		addi	sp,sp,-16
  88              		.cfi_def_cfa_offset 16
GAS LISTING /tmp/ccrzZmNU.s 			page 3


  89 0004 23341100 		sd	ra,8(sp)
  90 0008 23308100 		sd	s0,0(sp)
  91              		.cfi_offset 1, -8
  92              		.cfi_offset 8, -16
  93 000c 13040101 		addi	s0,sp,16
  94              		.cfi_def_cfa 8, 0
  95              	.LBB28:
  96              		.loc 2 8 7 is_stmt 0
  97 0010 97070000 		lla	a5,_ZTV7WorkerA+16
  97      93870700 
  98 0018 2330F500 		sd	a5,0(a0)
  99 001c 97000000 		call	_ZN6ThreadD2Ev@plt
  99      E7800000 
 100              	.LVL8:
 101              	.LBE28:
 102 0024 83308100 		ld	ra,8(sp)
 103              		.cfi_restore 1
 104 0028 03340100 		ld	s0,0(sp)
 105              		.cfi_restore 8
 106              		.cfi_def_cfa 2, 16
 107 002c 13010101 		addi	sp,sp,16
 108              		.cfi_def_cfa_offset 0
 109 0030 67800000 		jr	ra
 110              		.cfi_endproc
 111              	.LFE62:
 113              		.weak	_ZN7WorkerAD1Ev
 114              		.set	_ZN7WorkerAD1Ev,_ZN7WorkerAD2Ev
 115              		.section	.text._ZN7WorkerAD0Ev,"axG",@progbits,_ZN7WorkerAD5Ev,comdat
 116              		.align	2
 117              		.weak	_ZN7WorkerAD0Ev
 119              	_ZN7WorkerAD0Ev:
 120              	.LFB64:
 121              		.loc 2 8 7 is_stmt 1
 122              		.cfi_startproc
 123              	.LVL9:
 124 0000 130101FE 		addi	sp,sp,-32
 125              		.cfi_def_cfa_offset 32
 126 0004 233C1100 		sd	ra,24(sp)
 127 0008 23388100 		sd	s0,16(sp)
 128 000c 23349100 		sd	s1,8(sp)
 129              		.cfi_offset 1, -8
 130              		.cfi_offset 8, -16
 131              		.cfi_offset 9, -24
 132 0010 13040102 		addi	s0,sp,32
 133              		.cfi_def_cfa 8, 0
 134 0014 93040500 		mv	s1,a0
 135              	.LVL10:
 136              	.LBB29:
 137              	.LBB30:
 138              		.loc 2 8 7 is_stmt 0
 139 0018 97070000 		lla	a5,_ZTV7WorkerA+16
 139      93870700 
 140 0020 2330F500 		sd	a5,0(a0)
 141 0024 97000000 		call	_ZN6ThreadD2Ev@plt
 141      E7800000 
 142              	.LVL11:
 143              	.LBE30:
GAS LISTING /tmp/ccrzZmNU.s 			page 4


 144              	.LBE29:
 145 002c 13850400 		mv	a0,s1
 146 0030 97000000 		call	_ZdlPv@plt
 146      E7800000 
 147              	.LVL12:
 148 0038 83308101 		ld	ra,24(sp)
 149              		.cfi_restore 1
 150 003c 03340101 		ld	s0,16(sp)
 151              		.cfi_restore 8
 152              		.cfi_def_cfa 2, 32
 153 0040 83348100 		ld	s1,8(sp)
 154              		.cfi_restore 9
 155              	.LVL13:
 156 0044 13010102 		addi	sp,sp,32
 157              		.cfi_def_cfa_offset 0
 158 0048 67800000 		jr	ra
 159              		.cfi_endproc
 160              	.LFE64:
 162              		.section	.text._ZN7WorkerBD2Ev,"axG",@progbits,_ZN7WorkerBD5Ev,comdat
 163              		.align	2
 164              		.weak	_ZN7WorkerBD2Ev
 166              	_ZN7WorkerBD2Ev:
 167              	.LFB58:
   9:test/Threads_CPP_API_test.hpp ****     void workerBodyA(void* arg);
  10:test/Threads_CPP_API_test.hpp **** public:
  11:test/Threads_CPP_API_test.hpp ****     WorkerA():Thread() {}
  12:test/Threads_CPP_API_test.hpp **** 
  13:test/Threads_CPP_API_test.hpp ****     void run() override {
  14:test/Threads_CPP_API_test.hpp ****         workerBodyA(nullptr);
  15:test/Threads_CPP_API_test.hpp ****     }
  16:test/Threads_CPP_API_test.hpp **** };
  17:test/Threads_CPP_API_test.hpp **** 
  18:test/Threads_CPP_API_test.hpp **** class WorkerB: public Thread {
 168              		.loc 2 18 7 is_stmt 1
 169              		.cfi_startproc
 170              	.LVL14:
 171 0000 130101FF 		addi	sp,sp,-16
 172              		.cfi_def_cfa_offset 16
 173 0004 23341100 		sd	ra,8(sp)
 174 0008 23308100 		sd	s0,0(sp)
 175              		.cfi_offset 1, -8
 176              		.cfi_offset 8, -16
 177 000c 13040101 		addi	s0,sp,16
 178              		.cfi_def_cfa 8, 0
 179              	.LBB31:
 180              		.loc 2 18 7 is_stmt 0
 181 0010 97070000 		lla	a5,_ZTV7WorkerB+16
 181      93870700 
 182 0018 2330F500 		sd	a5,0(a0)
 183 001c 97000000 		call	_ZN6ThreadD2Ev@plt
 183      E7800000 
 184              	.LVL15:
 185              	.LBE31:
 186 0024 83308100 		ld	ra,8(sp)
 187              		.cfi_restore 1
 188 0028 03340100 		ld	s0,0(sp)
 189              		.cfi_restore 8
GAS LISTING /tmp/ccrzZmNU.s 			page 5


 190              		.cfi_def_cfa 2, 16
 191 002c 13010101 		addi	sp,sp,16
 192              		.cfi_def_cfa_offset 0
 193 0030 67800000 		jr	ra
 194              		.cfi_endproc
 195              	.LFE58:
 197              		.weak	_ZN7WorkerBD1Ev
 198              		.set	_ZN7WorkerBD1Ev,_ZN7WorkerBD2Ev
 199              		.section	.text._ZN7WorkerBD0Ev,"axG",@progbits,_ZN7WorkerBD5Ev,comdat
 200              		.align	2
 201              		.weak	_ZN7WorkerBD0Ev
 203              	_ZN7WorkerBD0Ev:
 204              	.LFB60:
 205              		.loc 2 18 7 is_stmt 1
 206              		.cfi_startproc
 207              	.LVL16:
 208 0000 130101FE 		addi	sp,sp,-32
 209              		.cfi_def_cfa_offset 32
 210 0004 233C1100 		sd	ra,24(sp)
 211 0008 23388100 		sd	s0,16(sp)
 212 000c 23349100 		sd	s1,8(sp)
 213              		.cfi_offset 1, -8
 214              		.cfi_offset 8, -16
 215              		.cfi_offset 9, -24
 216 0010 13040102 		addi	s0,sp,32
 217              		.cfi_def_cfa 8, 0
 218 0014 93040500 		mv	s1,a0
 219              	.LVL17:
 220              	.LBB32:
 221              	.LBB33:
 222              		.loc 2 18 7 is_stmt 0
 223 0018 97070000 		lla	a5,_ZTV7WorkerB+16
 223      93870700 
 224 0020 2330F500 		sd	a5,0(a0)
 225 0024 97000000 		call	_ZN6ThreadD2Ev@plt
 225      E7800000 
 226              	.LVL18:
 227              	.LBE33:
 228              	.LBE32:
 229 002c 13850400 		mv	a0,s1
 230 0030 97000000 		call	_ZdlPv@plt
 230      E7800000 
 231              	.LVL19:
 232 0038 83308101 		ld	ra,24(sp)
 233              		.cfi_restore 1
 234 003c 03340101 		ld	s0,16(sp)
 235              		.cfi_restore 8
 236              		.cfi_def_cfa 2, 32
 237 0040 83348100 		ld	s1,8(sp)
 238              		.cfi_restore 9
 239              	.LVL20:
 240 0044 13010102 		addi	sp,sp,32
 241              		.cfi_def_cfa_offset 0
 242 0048 67800000 		jr	ra
 243              		.cfi_endproc
 244              	.LFE60:
 246              		.section	.text._ZN7WorkerCD2Ev,"axG",@progbits,_ZN7WorkerCD5Ev,comdat
GAS LISTING /tmp/ccrzZmNU.s 			page 6


 247              		.align	2
 248              		.weak	_ZN7WorkerCD2Ev
 250              	_ZN7WorkerCD2Ev:
 251              	.LFB54:
  19:test/Threads_CPP_API_test.hpp ****     void workerBodyB(void* arg);
  20:test/Threads_CPP_API_test.hpp **** public:
  21:test/Threads_CPP_API_test.hpp ****     WorkerB():Thread() {}
  22:test/Threads_CPP_API_test.hpp **** 
  23:test/Threads_CPP_API_test.hpp ****     void run() override {
  24:test/Threads_CPP_API_test.hpp ****         workerBodyB(nullptr);
  25:test/Threads_CPP_API_test.hpp ****     }
  26:test/Threads_CPP_API_test.hpp **** };
  27:test/Threads_CPP_API_test.hpp **** 
  28:test/Threads_CPP_API_test.hpp **** class WorkerC: public Thread {
 252              		.loc 2 28 7 is_stmt 1
 253              		.cfi_startproc
 254              	.LVL21:
 255 0000 130101FF 		addi	sp,sp,-16
 256              		.cfi_def_cfa_offset 16
 257 0004 23341100 		sd	ra,8(sp)
 258 0008 23308100 		sd	s0,0(sp)
 259              		.cfi_offset 1, -8
 260              		.cfi_offset 8, -16
 261 000c 13040101 		addi	s0,sp,16
 262              		.cfi_def_cfa 8, 0
 263              	.LBB34:
 264              		.loc 2 28 7 is_stmt 0
 265 0010 97070000 		lla	a5,_ZTV7WorkerC+16
 265      93870700 
 266 0018 2330F500 		sd	a5,0(a0)
 267 001c 97000000 		call	_ZN6ThreadD2Ev@plt
 267      E7800000 
 268              	.LVL22:
 269              	.LBE34:
 270 0024 83308100 		ld	ra,8(sp)
 271              		.cfi_restore 1
 272 0028 03340100 		ld	s0,0(sp)
 273              		.cfi_restore 8
 274              		.cfi_def_cfa 2, 16
 275 002c 13010101 		addi	sp,sp,16
 276              		.cfi_def_cfa_offset 0
 277 0030 67800000 		jr	ra
 278              		.cfi_endproc
 279              	.LFE54:
 281              		.weak	_ZN7WorkerCD1Ev
 282              		.set	_ZN7WorkerCD1Ev,_ZN7WorkerCD2Ev
 283              		.section	.text._ZN7WorkerCD0Ev,"axG",@progbits,_ZN7WorkerCD5Ev,comdat
 284              		.align	2
 285              		.weak	_ZN7WorkerCD0Ev
 287              	_ZN7WorkerCD0Ev:
 288              	.LFB56:
 289              		.loc 2 28 7 is_stmt 1
 290              		.cfi_startproc
 291              	.LVL23:
 292 0000 130101FE 		addi	sp,sp,-32
 293              		.cfi_def_cfa_offset 32
 294 0004 233C1100 		sd	ra,24(sp)
GAS LISTING /tmp/ccrzZmNU.s 			page 7


 295 0008 23388100 		sd	s0,16(sp)
 296 000c 23349100 		sd	s1,8(sp)
 297              		.cfi_offset 1, -8
 298              		.cfi_offset 8, -16
 299              		.cfi_offset 9, -24
 300 0010 13040102 		addi	s0,sp,32
 301              		.cfi_def_cfa 8, 0
 302 0014 93040500 		mv	s1,a0
 303              	.LVL24:
 304              	.LBB35:
 305              	.LBB36:
 306              		.loc 2 28 7 is_stmt 0
 307 0018 97070000 		lla	a5,_ZTV7WorkerC+16
 307      93870700 
 308 0020 2330F500 		sd	a5,0(a0)
 309 0024 97000000 		call	_ZN6ThreadD2Ev@plt
 309      E7800000 
 310              	.LVL25:
 311              	.LBE36:
 312              	.LBE35:
 313 002c 13850400 		mv	a0,s1
 314 0030 97000000 		call	_ZdlPv@plt
 314      E7800000 
 315              	.LVL26:
 316 0038 83308101 		ld	ra,24(sp)
 317              		.cfi_restore 1
 318 003c 03340101 		ld	s0,16(sp)
 319              		.cfi_restore 8
 320              		.cfi_def_cfa 2, 32
 321 0040 83348100 		ld	s1,8(sp)
 322              		.cfi_restore 9
 323              	.LVL27:
 324 0044 13010102 		addi	sp,sp,32
 325              		.cfi_def_cfa_offset 0
 326 0048 67800000 		jr	ra
 327              		.cfi_endproc
 328              	.LFE56:
 330              		.section	.text._ZN7WorkerDD2Ev,"axG",@progbits,_ZN7WorkerDD5Ev,comdat
 331              		.align	2
 332              		.weak	_ZN7WorkerDD2Ev
 334              	_ZN7WorkerDD2Ev:
 335              	.LFB50:
  29:test/Threads_CPP_API_test.hpp ****     void workerBodyC(void* arg);
  30:test/Threads_CPP_API_test.hpp **** public:
  31:test/Threads_CPP_API_test.hpp ****     WorkerC():Thread() {}
  32:test/Threads_CPP_API_test.hpp **** 
  33:test/Threads_CPP_API_test.hpp ****     void run() override {
  34:test/Threads_CPP_API_test.hpp ****         workerBodyC(nullptr);
  35:test/Threads_CPP_API_test.hpp ****     }
  36:test/Threads_CPP_API_test.hpp **** };
  37:test/Threads_CPP_API_test.hpp **** 
  38:test/Threads_CPP_API_test.hpp **** class WorkerD: public Thread {
 336              		.loc 2 38 7 is_stmt 1
 337              		.cfi_startproc
 338              	.LVL28:
 339 0000 130101FF 		addi	sp,sp,-16
 340              		.cfi_def_cfa_offset 16
GAS LISTING /tmp/ccrzZmNU.s 			page 8


 341 0004 23341100 		sd	ra,8(sp)
 342 0008 23308100 		sd	s0,0(sp)
 343              		.cfi_offset 1, -8
 344              		.cfi_offset 8, -16
 345 000c 13040101 		addi	s0,sp,16
 346              		.cfi_def_cfa 8, 0
 347              	.LBB37:
 348              		.loc 2 38 7 is_stmt 0
 349 0010 97070000 		lla	a5,_ZTV7WorkerD+16
 349      93870700 
 350 0018 2330F500 		sd	a5,0(a0)
 351 001c 97000000 		call	_ZN6ThreadD2Ev@plt
 351      E7800000 
 352              	.LVL29:
 353              	.LBE37:
 354 0024 83308100 		ld	ra,8(sp)
 355              		.cfi_restore 1
 356 0028 03340100 		ld	s0,0(sp)
 357              		.cfi_restore 8
 358              		.cfi_def_cfa 2, 16
 359 002c 13010101 		addi	sp,sp,16
 360              		.cfi_def_cfa_offset 0
 361 0030 67800000 		jr	ra
 362              		.cfi_endproc
 363              	.LFE50:
 365              		.weak	_ZN7WorkerDD1Ev
 366              		.set	_ZN7WorkerDD1Ev,_ZN7WorkerDD2Ev
 367              		.section	.text._ZN7WorkerDD0Ev,"axG",@progbits,_ZN7WorkerDD5Ev,comdat
 368              		.align	2
 369              		.weak	_ZN7WorkerDD0Ev
 371              	_ZN7WorkerDD0Ev:
 372              	.LFB52:
 373              		.loc 2 38 7 is_stmt 1
 374              		.cfi_startproc
 375              	.LVL30:
 376 0000 130101FE 		addi	sp,sp,-32
 377              		.cfi_def_cfa_offset 32
 378 0004 233C1100 		sd	ra,24(sp)
 379 0008 23388100 		sd	s0,16(sp)
 380 000c 23349100 		sd	s1,8(sp)
 381              		.cfi_offset 1, -8
 382              		.cfi_offset 8, -16
 383              		.cfi_offset 9, -24
 384 0010 13040102 		addi	s0,sp,32
 385              		.cfi_def_cfa 8, 0
 386 0014 93040500 		mv	s1,a0
 387              	.LVL31:
 388              	.LBB38:
 389              	.LBB39:
 390              		.loc 2 38 7 is_stmt 0
 391 0018 97070000 		lla	a5,_ZTV7WorkerD+16
 391      93870700 
 392 0020 2330F500 		sd	a5,0(a0)
 393 0024 97000000 		call	_ZN6ThreadD2Ev@plt
 393      E7800000 
 394              	.LVL32:
 395              	.LBE39:
GAS LISTING /tmp/ccrzZmNU.s 			page 9


 396              	.LBE38:
 397 002c 13850400 		mv	a0,s1
 398 0030 97000000 		call	_ZdlPv@plt
 398      E7800000 
 399              	.LVL33:
 400 0038 83308101 		ld	ra,24(sp)
 401              		.cfi_restore 1
 402 003c 03340101 		ld	s0,16(sp)
 403              		.cfi_restore 8
 404              		.cfi_def_cfa 2, 32
 405 0040 83348100 		ld	s1,8(sp)
 406              		.cfi_restore 9
 407              	.LVL34:
 408 0044 13010102 		addi	sp,sp,32
 409              		.cfi_def_cfa_offset 0
 410 0048 67800000 		jr	ra
 411              		.cfi_endproc
 412              	.LFE52:
 414              		.section	.rodata.str1.8,"aMS",@progbits,1
 415              		.align	3
 416              	.LC0:
 417 0000 413A2069 		.string	"A: i="
 417      3D00
 418 0006 0000     		.align	3
 419              	.LC1:
 420 0008 0A00     		.string	"\n"
 421 000a 00000000 		.align	3
 421      0000
 422              	.LC2:
 423 0010 41206669 		.string	"A finished!\n"
 423      6E697368 
 423      6564210A 
 423      00
 424              		.text
 425              		.align	2
 426              		.globl	_ZN7WorkerA11workerBodyAEPv
 428              	_ZN7WorkerA11workerBodyAEPv:
 429              	.LFB44:
  17:test/Threads_CPP_API_test.cpp **** 
  18:test/Threads_CPP_API_test.cpp **** void WorkerA::workerBodyA(void *arg) {
 430              		.loc 1 18 38 is_stmt 1
 431              		.cfi_startproc
 432              	.LVL35:
 433 0074 130101FE 		addi	sp,sp,-32
 434              		.cfi_def_cfa_offset 32
 435 0078 233C1100 		sd	ra,24(sp)
 436 007c 23388100 		sd	s0,16(sp)
 437 0080 23349100 		sd	s1,8(sp)
 438 0084 23302101 		sd	s2,0(sp)
 439              		.cfi_offset 1, -8
 440              		.cfi_offset 8, -16
 441              		.cfi_offset 9, -24
 442              		.cfi_offset 18, -32
 443 0088 13040102 		addi	s0,sp,32
 444              		.cfi_def_cfa 8, 0
  19:test/Threads_CPP_API_test.cpp ****     for (uint64 i = 0; i < 10; i++) {
 445              		.loc 1 19 5
GAS LISTING /tmp/ccrzZmNU.s 			page 10


 446              	.LVL36:
 447              	.LBB40:
 448              		.loc 1 19 17 is_stmt 0
 449 008c 13090000 		li	s2,0
 450 0090 6F008003 		j	.L29
 451              	.LVL37:
 452              	.L26:
 453              	.LBB41:
 454              	.LBB42:
 455              	.LBB43:
  20:test/Threads_CPP_API_test.cpp ****         printString("A: i="); printInt(i); printString("\n");
  21:test/Threads_CPP_API_test.cpp ****         for (uint64 j = 0; j < 10000; j++) {
  22:test/Threads_CPP_API_test.cpp ****             for (uint64 k = 0; k < 30000; k++) { /* busy wait */ }
  23:test/Threads_CPP_API_test.cpp ****             thread_dispatch();
 456              		.loc 1 23 13 is_stmt 1 discriminator 2
 457              		.loc 1 23 28 is_stmt 0 discriminator 2
 458 0094 97000000 		call	thread_dispatch@plt
 458      E7800000 
 459              	.LVL38:
 460              	.LBE43:
  21:test/Threads_CPP_API_test.cpp ****             for (uint64 k = 0; k < 30000; k++) { /* busy wait */ }
 461              		.loc 1 21 9 is_stmt 1 discriminator 2
 462 009c 93841400 		addi	s1,s1,1
 463              	.LVL39:
 464              	.L28:
  21:test/Threads_CPP_API_test.cpp ****             for (uint64 k = 0; k < 30000; k++) { /* busy wait */ }
 465              		.loc 1 21 30 discriminator 1
 466 00a0 B7270000 		li	a5,8192
 467 00a4 9387F770 		addi	a5,a5,1807
 468 00a8 63EE9700 		bgtu	s1,a5,.L25
 469              	.LBB45:
 470              	.LBB44:
  22:test/Threads_CPP_API_test.cpp ****             thread_dispatch();
 471              		.loc 1 22 25 is_stmt 0
 472 00ac 13070000 		li	a4,0
 473              	.L27:
 474              	.LVL40:
  22:test/Threads_CPP_API_test.cpp ****             thread_dispatch();
 475              		.loc 1 22 34 is_stmt 1 discriminator 3
 476 00b0 B7770000 		li	a5,28672
 477 00b4 9387F752 		addi	a5,a5,1327
 478 00b8 E3EEE7FC 		bgtu	a4,a5,.L26
  22:test/Threads_CPP_API_test.cpp ****             thread_dispatch();
 479              		.loc 1 22 13 discriminator 2
 480 00bc 13071700 		addi	a4,a4,1
 481              	.LVL41:
 482 00c0 6FF01FFF 		j	.L27
 483              	.LVL42:
 484              	.L25:
 485              	.LBE44:
 486              	.LBE45:
 487              	.LBE42:
 488              	.LBE41:
  19:test/Threads_CPP_API_test.cpp ****         printString("A: i="); printInt(i); printString("\n");
 489              		.loc 1 19 5 discriminator 2
 490 00c4 13091900 		addi	s2,s2,1
 491              	.LVL43:
GAS LISTING /tmp/ccrzZmNU.s 			page 11


 492              	.L29:
  19:test/Threads_CPP_API_test.cpp ****         printString("A: i="); printInt(i); printString("\n");
 493              		.loc 1 19 26 discriminator 1
 494 00c8 93079000 		li	a5,9
 495 00cc 63E02705 		bgtu	s2,a5,.L24
 496              	.LBB47:
  20:test/Threads_CPP_API_test.cpp ****         for (uint64 j = 0; j < 10000; j++) {
 497              		.loc 1 20 9
  20:test/Threads_CPP_API_test.cpp ****         for (uint64 j = 0; j < 10000; j++) {
 498              		.loc 1 20 20 is_stmt 0
 499 00d0 17050000 		lla	a0,.LC0
 499      13050500 
 500 00d8 97000000 		call	_Z11printStringPKc@plt
 500      E7800000 
 501              	.LVL44:
  20:test/Threads_CPP_API_test.cpp ****         for (uint64 j = 0; j < 10000; j++) {
 502              		.loc 1 20 31 is_stmt 1
  20:test/Threads_CPP_API_test.cpp ****         for (uint64 j = 0; j < 10000; j++) {
 503              		.loc 1 20 39 is_stmt 0
 504 00e0 13060000 		li	a2,0
 505 00e4 9305A000 		li	a1,10
 506 00e8 1B050900 		sext.w	a0,s2
 507 00ec 97000000 		call	_Z8printIntiii@plt
 507      E7800000 
 508              	.LVL45:
  20:test/Threads_CPP_API_test.cpp ****         for (uint64 j = 0; j < 10000; j++) {
 509              		.loc 1 20 44 is_stmt 1
  20:test/Threads_CPP_API_test.cpp ****         for (uint64 j = 0; j < 10000; j++) {
 510              		.loc 1 20 55 is_stmt 0
 511 00f4 17050000 		lla	a0,.LC1
 511      13050500 
 512 00fc 97000000 		call	_Z11printStringPKc@plt
 512      E7800000 
 513              	.LVL46:
  21:test/Threads_CPP_API_test.cpp ****             for (uint64 k = 0; k < 30000; k++) { /* busy wait */ }
 514              		.loc 1 21 9 is_stmt 1
 515              	.LBB46:
  21:test/Threads_CPP_API_test.cpp ****             for (uint64 k = 0; k < 30000; k++) { /* busy wait */ }
 516              		.loc 1 21 21 is_stmt 0
 517 0104 93040000 		li	s1,0
 518 0108 6FF09FF9 		j	.L28
 519              	.LVL47:
 520              	.L24:
 521              	.LBE46:
 522              	.LBE47:
 523              	.LBE40:
  24:test/Threads_CPP_API_test.cpp ****         }
  25:test/Threads_CPP_API_test.cpp ****     }
  26:test/Threads_CPP_API_test.cpp ****     printString("A finished!\n");
 524              		.loc 1 26 5 is_stmt 1
 525              		.loc 1 26 16 is_stmt 0
 526 010c 17050000 		lla	a0,.LC2
 526      13050500 
 527 0114 97000000 		call	_Z11printStringPKc@plt
 527      E7800000 
 528              	.LVL48:
  27:test/Threads_CPP_API_test.cpp ****     finishedA = true;
GAS LISTING /tmp/ccrzZmNU.s 			page 12


 529              		.loc 1 27 5 is_stmt 1
 530              		.loc 1 27 15 is_stmt 0
 531 011c 93071000 		li	a5,1
 532 0120 17070000 		sb	a5,.LANCHOR0,a4
 532      2300F700 
  28:test/Threads_CPP_API_test.cpp **** }
 533              		.loc 1 28 1
 534 0128 83308101 		ld	ra,24(sp)
 535              		.cfi_restore 1
 536 012c 03340101 		ld	s0,16(sp)
 537              		.cfi_restore 8
 538              		.cfi_def_cfa 2, 32
 539 0130 83348100 		ld	s1,8(sp)
 540              		.cfi_restore 9
 541 0134 03390100 		ld	s2,0(sp)
 542              		.cfi_restore 18
 543              	.LVL49:
 544 0138 13010102 		addi	sp,sp,32
 545              		.cfi_def_cfa_offset 0
 546 013c 67800000 		jr	ra
 547              		.cfi_endproc
 548              	.LFE44:
 550              		.section	.text._ZN7WorkerA3runEv,"axG",@progbits,_ZN7WorkerA3runEv,comdat
 551              		.align	2
 552              		.weak	_ZN7WorkerA3runEv
 554              	_ZN7WorkerA3runEv:
 555              	.LFB30:
  13:test/Threads_CPP_API_test.hpp ****         workerBodyA(nullptr);
 556              		.loc 2 13 10 is_stmt 1
 557              		.cfi_startproc
 558              	.LVL50:
 559 0000 130101FF 		addi	sp,sp,-16
 560              		.cfi_def_cfa_offset 16
 561 0004 23341100 		sd	ra,8(sp)
 562 0008 23308100 		sd	s0,0(sp)
 563              		.cfi_offset 1, -8
 564              		.cfi_offset 8, -16
 565 000c 13040101 		addi	s0,sp,16
 566              		.cfi_def_cfa 8, 0
  14:test/Threads_CPP_API_test.hpp ****     }
 567              		.loc 2 14 9
  14:test/Threads_CPP_API_test.hpp ****     }
 568              		.loc 2 14 20 is_stmt 0
 569 0010 93050000 		li	a1,0
 570 0014 97000000 		call	_ZN7WorkerA11workerBodyAEPv
 570      E7800000 
 571              	.LVL51:
  15:test/Threads_CPP_API_test.hpp **** };
 572              		.loc 2 15 5
 573 001c 83308100 		ld	ra,8(sp)
 574              		.cfi_restore 1
 575 0020 03340100 		ld	s0,0(sp)
 576              		.cfi_restore 8
 577              		.cfi_def_cfa 2, 16
 578 0024 13010101 		addi	sp,sp,16
 579              		.cfi_def_cfa_offset 0
 580 0028 67800000 		jr	ra
GAS LISTING /tmp/ccrzZmNU.s 			page 13


 581              		.cfi_endproc
 582              	.LFE30:
 584              		.section	.rodata.str1.8
 585 001d 000000   		.align	3
 586              	.LC3:
 587 0020 423A2069 		.string	"B: i="
 587      3D00
 588 0026 0000     		.align	3
 589              	.LC4:
 590 0028 42206669 		.string	"B finished!\n"
 590      6E697368 
 590      6564210A 
 590      00
 591              		.text
 592              		.align	2
 593              		.globl	_ZN7WorkerB11workerBodyBEPv
 595              	_ZN7WorkerB11workerBodyBEPv:
 596              	.LFB45:
  29:test/Threads_CPP_API_test.cpp **** 
  30:test/Threads_CPP_API_test.cpp **** void WorkerB::workerBodyB(void *arg)
  31:test/Threads_CPP_API_test.cpp **** {
 597              		.loc 1 31 1 is_stmt 1
 598              		.cfi_startproc
 599              	.LVL52:
 600 0140 130101FE 		addi	sp,sp,-32
 601              		.cfi_def_cfa_offset 32
 602 0144 233C1100 		sd	ra,24(sp)
 603 0148 23388100 		sd	s0,16(sp)
 604 014c 23349100 		sd	s1,8(sp)
 605 0150 23302101 		sd	s2,0(sp)
 606              		.cfi_offset 1, -8
 607              		.cfi_offset 8, -16
 608              		.cfi_offset 9, -24
 609              		.cfi_offset 18, -32
 610 0154 13040102 		addi	s0,sp,32
 611              		.cfi_def_cfa 8, 0
  32:test/Threads_CPP_API_test.cpp ****     for (uint64 i = 0; i < 16; i++) {
 612              		.loc 1 32 5
 613              	.LVL53:
 614              	.LBB48:
 615              		.loc 1 32 17 is_stmt 0
 616 0158 13090000 		li	s2,0
 617 015c 6F008003 		j	.L39
 618              	.LVL54:
 619              	.L36:
 620              	.LBB49:
 621              	.LBB50:
 622              	.LBB51:
  33:test/Threads_CPP_API_test.cpp ****         printString("B: i="); printInt(i); printString("\n");
  34:test/Threads_CPP_API_test.cpp ****         for (uint64 j = 0; j < 10000; j++) {
  35:test/Threads_CPP_API_test.cpp ****             for (uint64 k = 0; k < 30000; k++) { /* busy wait */ }
  36:test/Threads_CPP_API_test.cpp ****             thread_dispatch();
 623              		.loc 1 36 13 is_stmt 1 discriminator 2
 624              		.loc 1 36 28 is_stmt 0 discriminator 2
 625 0160 97000000 		call	thread_dispatch@plt
 625      E7800000 
 626              	.LVL55:
GAS LISTING /tmp/ccrzZmNU.s 			page 14


 627              	.LBE51:
  34:test/Threads_CPP_API_test.cpp ****             for (uint64 k = 0; k < 30000; k++) { /* busy wait */ }
 628              		.loc 1 34 9 is_stmt 1 discriminator 2
 629 0168 93841400 		addi	s1,s1,1
 630              	.LVL56:
 631              	.L38:
  34:test/Threads_CPP_API_test.cpp ****             for (uint64 k = 0; k < 30000; k++) { /* busy wait */ }
 632              		.loc 1 34 30 discriminator 1
 633 016c B7270000 		li	a5,8192
 634 0170 9387F770 		addi	a5,a5,1807
 635 0174 63EE9700 		bgtu	s1,a5,.L35
 636              	.LBB53:
 637              	.LBB52:
  35:test/Threads_CPP_API_test.cpp ****             thread_dispatch();
 638              		.loc 1 35 25 is_stmt 0
 639 0178 13070000 		li	a4,0
 640              	.L37:
 641              	.LVL57:
  35:test/Threads_CPP_API_test.cpp ****             thread_dispatch();
 642              		.loc 1 35 34 is_stmt 1 discriminator 3
 643 017c B7770000 		li	a5,28672
 644 0180 9387F752 		addi	a5,a5,1327
 645 0184 E3EEE7FC 		bgtu	a4,a5,.L36
  35:test/Threads_CPP_API_test.cpp ****             thread_dispatch();
 646              		.loc 1 35 13 discriminator 2
 647 0188 13071700 		addi	a4,a4,1
 648              	.LVL58:
 649 018c 6FF01FFF 		j	.L37
 650              	.LVL59:
 651              	.L35:
 652              	.LBE52:
 653              	.LBE53:
 654              	.LBE50:
 655              	.LBE49:
  32:test/Threads_CPP_API_test.cpp ****         printString("B: i="); printInt(i); printString("\n");
 656              		.loc 1 32 5 discriminator 2
 657 0190 13091900 		addi	s2,s2,1
 658              	.LVL60:
 659              	.L39:
  32:test/Threads_CPP_API_test.cpp ****         printString("B: i="); printInt(i); printString("\n");
 660              		.loc 1 32 26 discriminator 1
 661 0194 9307F000 		li	a5,15
 662 0198 63E02705 		bgtu	s2,a5,.L34
 663              	.LBB55:
  33:test/Threads_CPP_API_test.cpp ****         for (uint64 j = 0; j < 10000; j++) {
 664              		.loc 1 33 9
  33:test/Threads_CPP_API_test.cpp ****         for (uint64 j = 0; j < 10000; j++) {
 665              		.loc 1 33 20 is_stmt 0
 666 019c 17050000 		lla	a0,.LC3
 666      13050500 
 667 01a4 97000000 		call	_Z11printStringPKc@plt
 667      E7800000 
 668              	.LVL61:
  33:test/Threads_CPP_API_test.cpp ****         for (uint64 j = 0; j < 10000; j++) {
 669              		.loc 1 33 31 is_stmt 1
  33:test/Threads_CPP_API_test.cpp ****         for (uint64 j = 0; j < 10000; j++) {
 670              		.loc 1 33 39 is_stmt 0
GAS LISTING /tmp/ccrzZmNU.s 			page 15


 671 01ac 13060000 		li	a2,0
 672 01b0 9305A000 		li	a1,10
 673 01b4 1B050900 		sext.w	a0,s2
 674 01b8 97000000 		call	_Z8printIntiii@plt
 674      E7800000 
 675              	.LVL62:
  33:test/Threads_CPP_API_test.cpp ****         for (uint64 j = 0; j < 10000; j++) {
 676              		.loc 1 33 44 is_stmt 1
  33:test/Threads_CPP_API_test.cpp ****         for (uint64 j = 0; j < 10000; j++) {
 677              		.loc 1 33 55 is_stmt 0
 678 01c0 17050000 		lla	a0,.LC1
 678      13050500 
 679 01c8 97000000 		call	_Z11printStringPKc@plt
 679      E7800000 
 680              	.LVL63:
  34:test/Threads_CPP_API_test.cpp ****             for (uint64 k = 0; k < 30000; k++) { /* busy wait */ }
 681              		.loc 1 34 9 is_stmt 1
 682              	.LBB54:
  34:test/Threads_CPP_API_test.cpp ****             for (uint64 k = 0; k < 30000; k++) { /* busy wait */ }
 683              		.loc 1 34 21 is_stmt 0
 684 01d0 93040000 		li	s1,0
 685 01d4 6FF09FF9 		j	.L38
 686              	.LVL64:
 687              	.L34:
 688              	.LBE54:
 689              	.LBE55:
 690              	.LBE48:
  37:test/Threads_CPP_API_test.cpp ****         }
  38:test/Threads_CPP_API_test.cpp ****     }
  39:test/Threads_CPP_API_test.cpp ****     thread_dispatch();
 691              		.loc 1 39 5 is_stmt 1
 692              		.loc 1 39 20 is_stmt 0
 693 01d8 97000000 		call	thread_dispatch@plt
 693      E7800000 
 694              	.LVL65:
  40:test/Threads_CPP_API_test.cpp ****     printString("B finished!\n");
 695              		.loc 1 40 5 is_stmt 1
 696              		.loc 1 40 16 is_stmt 0
 697 01e0 17050000 		lla	a0,.LC4
 697      13050500 
 698 01e8 97000000 		call	_Z11printStringPKc@plt
 698      E7800000 
 699              	.LVL66:
  41:test/Threads_CPP_API_test.cpp ****     finishedB = true;
 700              		.loc 1 41 5 is_stmt 1
 701              		.loc 1 41 15 is_stmt 0
 702 01f0 93071000 		li	a5,1
 703 01f4 17070000 		sb	a5,.LANCHOR0+1,a4
 703      2300F700 
  42:test/Threads_CPP_API_test.cpp **** }
 704              		.loc 1 42 1
 705 01fc 83308101 		ld	ra,24(sp)
 706              		.cfi_restore 1
 707 0200 03340101 		ld	s0,16(sp)
 708              		.cfi_restore 8
 709              		.cfi_def_cfa 2, 32
 710 0204 83348100 		ld	s1,8(sp)
GAS LISTING /tmp/ccrzZmNU.s 			page 16


 711              		.cfi_restore 9
 712 0208 03390100 		ld	s2,0(sp)
 713              		.cfi_restore 18
 714              	.LVL67:
 715 020c 13010102 		addi	sp,sp,32
 716              		.cfi_def_cfa_offset 0
 717 0210 67800000 		jr	ra
 718              		.cfi_endproc
 719              	.LFE45:
 721              		.section	.text._ZN7WorkerB3runEv,"axG",@progbits,_ZN7WorkerB3runEv,comdat
 722              		.align	2
 723              		.weak	_ZN7WorkerB3runEv
 725              	_ZN7WorkerB3runEv:
 726              	.LFB34:
  23:test/Threads_CPP_API_test.hpp ****         workerBodyB(nullptr);
 727              		.loc 2 23 10 is_stmt 1
 728              		.cfi_startproc
 729              	.LVL68:
 730 0000 130101FF 		addi	sp,sp,-16
 731              		.cfi_def_cfa_offset 16
 732 0004 23341100 		sd	ra,8(sp)
 733 0008 23308100 		sd	s0,0(sp)
 734              		.cfi_offset 1, -8
 735              		.cfi_offset 8, -16
 736 000c 13040101 		addi	s0,sp,16
 737              		.cfi_def_cfa 8, 0
  24:test/Threads_CPP_API_test.hpp ****     }
 738              		.loc 2 24 9
  24:test/Threads_CPP_API_test.hpp ****     }
 739              		.loc 2 24 20 is_stmt 0
 740 0010 93050000 		li	a1,0
 741 0014 97000000 		call	_ZN7WorkerB11workerBodyBEPv
 741      E7800000 
 742              	.LVL69:
  25:test/Threads_CPP_API_test.hpp **** };
 743              		.loc 2 25 5
 744 001c 83308100 		ld	ra,8(sp)
 745              		.cfi_restore 1
 746 0020 03340100 		ld	s0,0(sp)
 747              		.cfi_restore 8
 748              		.cfi_def_cfa 2, 16
 749 0024 13010101 		addi	sp,sp,16
 750              		.cfi_def_cfa_offset 0
 751 0028 67800000 		jr	ra
 752              		.cfi_endproc
 753              	.LFE34:
 755              		.section	.rodata.str1.8
 756 0035 000000   		.align	3
 757              	.LC5:
 758 0038 433A2069 		.string	"C: i="
 758      3D00
 759 003e 0000     		.align	3
 760              	.LC6:
 761 0040 433A2064 		.string	"C: dispatch\n"
 761      69737061 
 761      7463680A 
 761      00
GAS LISTING /tmp/ccrzZmNU.s 			page 17


 762 004d 000000   		.align	3
 763              	.LC7:
 764 0050 433A2074 		.string	"C: t1="
 764      313D00
 765 0057 00       		.align	3
 766              	.LC8:
 767 0058 433A2066 		.string	"C: fibonaci="
 767      69626F6E 
 767      6163693D 
 767      00
 768 0065 000000   		.align	3
 769              	.LC9:
 770 0068 43206669 		.string	"C finished!\n"
 770      6E697368 
 770      6564210A 
 770      00
 771              		.text
 772              		.align	2
 773              		.globl	_ZN7WorkerC11workerBodyCEPv
 775              	_ZN7WorkerC11workerBodyCEPv:
 776              	.LFB46:
  43:test/Threads_CPP_API_test.cpp **** 
  44:test/Threads_CPP_API_test.cpp **** void WorkerC::workerBodyC(void *arg) {
 777              		.loc 1 44 38 is_stmt 1
 778              		.cfi_startproc
 779              	.LVL70:
 780 0214 130101FE 		addi	sp,sp,-32
 781              		.cfi_def_cfa_offset 32
 782 0218 233C1100 		sd	ra,24(sp)
 783 021c 23388100 		sd	s0,16(sp)
 784 0220 23349100 		sd	s1,8(sp)
 785 0224 23302101 		sd	s2,0(sp)
 786              		.cfi_offset 1, -8
 787              		.cfi_offset 8, -16
 788              		.cfi_offset 9, -24
 789              		.cfi_offset 18, -32
 790 0228 13040102 		addi	s0,sp,32
 791              		.cfi_def_cfa 8, 0
  45:test/Threads_CPP_API_test.cpp ****     uint8 i = 0;
 792              		.loc 1 45 5
 793              	.LVL71:
 794              		.loc 1 45 11 is_stmt 0
 795 022c 93040000 		li	s1,0
 796 0230 6F000004 		j	.L45
 797              	.LVL72:
 798              	.L49:
  46:test/Threads_CPP_API_test.cpp ****     for (; i < 3; i++) {
  47:test/Threads_CPP_API_test.cpp ****         printString("C: i="); printInt(i); printString("\n");
 799              		.loc 1 47 9 is_stmt 1 discriminator 1
 800              		.loc 1 47 20 is_stmt 0 discriminator 1
 801 0234 17050000 		lla	a0,.LC5
 801      13050500 
 802 023c 97000000 		call	_Z11printStringPKc@plt
 802      E7800000 
 803              	.LVL73:
 804              		.loc 1 47 31 is_stmt 1 discriminator 1
 805              		.loc 1 47 39 is_stmt 0 discriminator 1
GAS LISTING /tmp/ccrzZmNU.s 			page 18


 806 0244 13060000 		li	a2,0
 807 0248 9305A000 		li	a1,10
 808 024c 13850400 		mv	a0,s1
 809 0250 97000000 		call	_Z8printIntiii@plt
 809      E7800000 
 810              	.LVL74:
 811              		.loc 1 47 44 is_stmt 1 discriminator 1
 812              		.loc 1 47 55 is_stmt 0 discriminator 1
 813 0258 17050000 		lla	a0,.LC1
 813      13050500 
 814 0260 97000000 		call	_Z11printStringPKc@plt
 814      E7800000 
 815              	.LVL75:
  46:test/Threads_CPP_API_test.cpp ****     for (; i < 3; i++) {
 816              		.loc 1 46 5 is_stmt 1 discriminator 1
 817 0268 9B841400 		addiw	s1,s1,1
 818              	.LVL76:
 819 026c 93F4F40F 		andi	s1,s1,0xff
 820              	.LVL77:
 821              	.L45:
  46:test/Threads_CPP_API_test.cpp ****     for (; i < 3; i++) {
 822              		.loc 1 46 5 discriminator 2
  46:test/Threads_CPP_API_test.cpp ****     for (; i < 3; i++) {
 823              		.loc 1 46 14 discriminator 2
 824 0270 93072000 		li	a5,2
 825 0274 E3F097FC 		bleu	s1,a5,.L49
  48:test/Threads_CPP_API_test.cpp ****     }
  49:test/Threads_CPP_API_test.cpp **** 
  50:test/Threads_CPP_API_test.cpp ****     printString("C: dispatch\n");
 826              		.loc 1 50 5
 827              		.loc 1 50 16 is_stmt 0
 828 0278 17050000 		lla	a0,.LC6
 828      13050500 
 829 0280 97000000 		call	_Z11printStringPKc@plt
 829      E7800000 
 830              	.LVL78:
  51:test/Threads_CPP_API_test.cpp ****     __asm__ ("li t1, 7");
 831              		.loc 1 51 5 is_stmt 1
 832              		.loc 1 51 25 is_stmt 0
 833              	#APP
 834              	# 51 "test/Threads_CPP_API_test.cpp" 1
  52              	    thread_dispatch();
 835              		li t1, 7
 836              	# 0 "" 2
 837              		.loc 1 52 5 is_stmt 1
 838              		.loc 1 52 20 is_stmt 0
 839              	#NO_APP
 840 028c 97000000 		call	thread_dispatch@plt
 840      E7800000 
 841              	.LVL79:
  53:test/Threads_CPP_API_test.cpp **** 
  54:test/Threads_CPP_API_test.cpp ****     uint64 t1 = 0;
 842              		.loc 1 54 5 is_stmt 1
  55:test/Threads_CPP_API_test.cpp ****     __asm__ ("mv %[t1], t1" : [t1] "=r"(t1));
 843              		.loc 1 55 5
 844              		.loc 1 55 45 is_stmt 0
 845              	#APP
GAS LISTING /tmp/ccrzZmNU.s 			page 19


 846              	# 55 "test/Threads_CPP_API_test.cpp" 1
  56              	
 847              		mv s2, t1
 848              	# 0 "" 2
 849              	.LVL80:
  57:test/Threads_CPP_API_test.cpp ****     printString("C: t1="); printInt(t1); printString("\n");
 850              		.loc 1 57 5 is_stmt 1
 851              		.loc 1 57 16 is_stmt 0
 852              	#NO_APP
 853 0298 17050000 		lla	a0,.LC7
 853      13050500 
 854 02a0 97000000 		call	_Z11printStringPKc@plt
 854      E7800000 
 855              	.LVL81:
 856              		.loc 1 57 28 is_stmt 1
 857              		.loc 1 57 36 is_stmt 0
 858 02a8 13060000 		li	a2,0
 859 02ac 9305A000 		li	a1,10
 860 02b0 1B050900 		sext.w	a0,s2
 861 02b4 97000000 		call	_Z8printIntiii@plt
 861      E7800000 
 862              	.LVL82:
 863              		.loc 1 57 42 is_stmt 1
 864              		.loc 1 57 53 is_stmt 0
 865 02bc 17050000 		lla	a0,.LC1
 865      13050500 
 866 02c4 97000000 		call	_Z11printStringPKc@plt
 866      E7800000 
 867              	.LVL83:
  58:test/Threads_CPP_API_test.cpp **** 
  59:test/Threads_CPP_API_test.cpp ****     uint64 result = fibonacci(12);
 868              		.loc 1 59 5 is_stmt 1
 869              		.loc 1 59 30 is_stmt 0
 870 02cc 1305C000 		li	a0,12
 871 02d0 97000000 		call	_ZL9fibonaccim
 871      E7800000 
 872              	.LVL84:
 873 02d8 13090500 		mv	s2,a0
 874              	.LVL85:
  60:test/Threads_CPP_API_test.cpp ****     printString("C: fibonaci="); printInt(result); printString("\n");
 875              		.loc 1 60 5 is_stmt 1
 876              		.loc 1 60 16 is_stmt 0
 877 02dc 17050000 		lla	a0,.LC8
 877      13050500 
 878              	.LVL86:
 879 02e4 97000000 		call	_Z11printStringPKc@plt
 879      E7800000 
 880              	.LVL87:
 881              		.loc 1 60 34 is_stmt 1
 882              		.loc 1 60 42 is_stmt 0
 883 02ec 13060000 		li	a2,0
 884 02f0 9305A000 		li	a1,10
 885 02f4 1B050900 		sext.w	a0,s2
 886 02f8 97000000 		call	_Z8printIntiii@plt
 886      E7800000 
 887              	.LVL88:
 888              		.loc 1 60 52 is_stmt 1
GAS LISTING /tmp/ccrzZmNU.s 			page 20


 889              		.loc 1 60 63 is_stmt 0
 890 0300 17050000 		lla	a0,.LC1
 890      13050500 
 891 0308 97000000 		call	_Z11printStringPKc@plt
 891      E7800000 
 892              	.LVL89:
 893 0310 6F000004 		j	.L47
 894              	.L50:
  61:test/Threads_CPP_API_test.cpp **** 
  62:test/Threads_CPP_API_test.cpp ****     for (; i < 6; i++) {
  63:test/Threads_CPP_API_test.cpp ****         printString("C: i="); printInt(i); printString("\n");
 895              		.loc 1 63 9 is_stmt 1 discriminator 1
 896              		.loc 1 63 20 is_stmt 0 discriminator 1
 897 0314 17050000 		lla	a0,.LC5
 897      13050500 
 898 031c 97000000 		call	_Z11printStringPKc@plt
 898      E7800000 
 899              	.LVL90:
 900              		.loc 1 63 31 is_stmt 1 discriminator 1
 901              		.loc 1 63 39 is_stmt 0 discriminator 1
 902 0324 13060000 		li	a2,0
 903 0328 9305A000 		li	a1,10
 904 032c 13850400 		mv	a0,s1
 905 0330 97000000 		call	_Z8printIntiii@plt
 905      E7800000 
 906              	.LVL91:
 907              		.loc 1 63 44 is_stmt 1 discriminator 1
 908              		.loc 1 63 55 is_stmt 0 discriminator 1
 909 0338 17050000 		lla	a0,.LC1
 909      13050500 
 910 0340 97000000 		call	_Z11printStringPKc@plt
 910      E7800000 
 911              	.LVL92:
  62:test/Threads_CPP_API_test.cpp ****         printString("C: i="); printInt(i); printString("\n");
 912              		.loc 1 62 5 is_stmt 1 discriminator 1
 913 0348 9B841400 		addiw	s1,s1,1
 914              	.LVL93:
 915 034c 93F4F40F 		andi	s1,s1,0xff
 916              	.LVL94:
 917              	.L47:
  62:test/Threads_CPP_API_test.cpp ****         printString("C: i="); printInt(i); printString("\n");
 918              		.loc 1 62 5 discriminator 2
  62:test/Threads_CPP_API_test.cpp ****         printString("C: i="); printInt(i); printString("\n");
 919              		.loc 1 62 14 discriminator 2
 920 0350 93075000 		li	a5,5
 921 0354 E3F097FC 		bleu	s1,a5,.L50
  64:test/Threads_CPP_API_test.cpp ****     }
  65:test/Threads_CPP_API_test.cpp **** 
  66:test/Threads_CPP_API_test.cpp ****     thread_dispatch();
 922              		.loc 1 66 5
 923              		.loc 1 66 20 is_stmt 0
 924 0358 97000000 		call	thread_dispatch@plt
 924      E7800000 
 925              	.LVL95:
  67:test/Threads_CPP_API_test.cpp ****     printString("C finished!\n");
 926              		.loc 1 67 5 is_stmt 1
 927              		.loc 1 67 16 is_stmt 0
GAS LISTING /tmp/ccrzZmNU.s 			page 21


 928 0360 17050000 		lla	a0,.LC9
 928      13050500 
 929 0368 97000000 		call	_Z11printStringPKc@plt
 929      E7800000 
 930              	.LVL96:
  68:test/Threads_CPP_API_test.cpp ****     finishedC = true;
 931              		.loc 1 68 5 is_stmt 1
 932              		.loc 1 68 15 is_stmt 0
 933 0370 93071000 		li	a5,1
 934 0374 17070000 		sb	a5,.LANCHOR0+2,a4
 934      2300F700 
  69:test/Threads_CPP_API_test.cpp **** }
 935              		.loc 1 69 1
 936 037c 83308101 		ld	ra,24(sp)
 937              		.cfi_restore 1
 938 0380 03340101 		ld	s0,16(sp)
 939              		.cfi_restore 8
 940              		.cfi_def_cfa 2, 32
 941 0384 83348100 		ld	s1,8(sp)
 942              		.cfi_restore 9
 943              	.LVL97:
 944 0388 03390100 		ld	s2,0(sp)
 945              		.cfi_restore 18
 946              	.LVL98:
 947 038c 13010102 		addi	sp,sp,32
 948              		.cfi_def_cfa_offset 0
 949 0390 67800000 		jr	ra
 950              		.cfi_endproc
 951              	.LFE46:
 953              		.section	.text._ZN7WorkerC3runEv,"axG",@progbits,_ZN7WorkerC3runEv,comdat
 954              		.align	2
 955              		.weak	_ZN7WorkerC3runEv
 957              	_ZN7WorkerC3runEv:
 958              	.LFB38:
  33:test/Threads_CPP_API_test.hpp ****         workerBodyC(nullptr);
 959              		.loc 2 33 10 is_stmt 1
 960              		.cfi_startproc
 961              	.LVL99:
 962 0000 130101FF 		addi	sp,sp,-16
 963              		.cfi_def_cfa_offset 16
 964 0004 23341100 		sd	ra,8(sp)
 965 0008 23308100 		sd	s0,0(sp)
 966              		.cfi_offset 1, -8
 967              		.cfi_offset 8, -16
 968 000c 13040101 		addi	s0,sp,16
 969              		.cfi_def_cfa 8, 0
  34:test/Threads_CPP_API_test.hpp ****     }
 970              		.loc 2 34 9
  34:test/Threads_CPP_API_test.hpp ****     }
 971              		.loc 2 34 20 is_stmt 0
 972 0010 93050000 		li	a1,0
 973 0014 97000000 		call	_ZN7WorkerC11workerBodyCEPv
 973      E7800000 
 974              	.LVL100:
  35:test/Threads_CPP_API_test.hpp **** };
 975              		.loc 2 35 5
 976 001c 83308100 		ld	ra,8(sp)
GAS LISTING /tmp/ccrzZmNU.s 			page 22


 977              		.cfi_restore 1
 978 0020 03340100 		ld	s0,0(sp)
 979              		.cfi_restore 8
 980              		.cfi_def_cfa 2, 16
 981 0024 13010101 		addi	sp,sp,16
 982              		.cfi_def_cfa_offset 0
 983 0028 67800000 		jr	ra
 984              		.cfi_endproc
 985              	.LFE38:
 987              		.section	.rodata.str1.8
 988 0075 000000   		.align	3
 989              	.LC10:
 990 0078 443A2069 		.string	"D: i="
 990      3D00
 991 007e 0000     		.align	3
 992              	.LC11:
 993 0080 443A2064 		.string	"D: dispatch\n"
 993      69737061 
 993      7463680A 
 993      00
 994 008d 000000   		.align	3
 995              	.LC12:
 996 0090 443A2066 		.string	"D: fibonaci="
 996      69626F6E 
 996      6163693D 
 996      00
 997 009d 000000   		.align	3
 998              	.LC13:
 999 00a0 44206669 		.string	"D finished!\n"
 999      6E697368 
 999      6564210A 
 999      00
 1000              		.text
 1001              		.align	2
 1002              		.globl	_ZN7WorkerD11workerBodyDEPv
 1004              	_ZN7WorkerD11workerBodyDEPv:
 1005              	.LFB47:
  70:test/Threads_CPP_API_test.cpp **** 
  71:test/Threads_CPP_API_test.cpp **** void WorkerD::workerBodyD(void* arg) {
 1006              		.loc 1 71 38 is_stmt 1
 1007              		.cfi_startproc
 1008              	.LVL101:
 1009 0394 130101FE 		addi	sp,sp,-32
 1010              		.cfi_def_cfa_offset 32
 1011 0398 233C1100 		sd	ra,24(sp)
 1012 039c 23388100 		sd	s0,16(sp)
 1013 03a0 23349100 		sd	s1,8(sp)
 1014 03a4 23302101 		sd	s2,0(sp)
 1015              		.cfi_offset 1, -8
 1016              		.cfi_offset 8, -16
 1017              		.cfi_offset 9, -24
 1018              		.cfi_offset 18, -32
 1019 03a8 13040102 		addi	s0,sp,32
 1020              		.cfi_def_cfa 8, 0
  72:test/Threads_CPP_API_test.cpp ****     uint8 i = 10;
 1021              		.loc 1 72 5
 1022              	.LVL102:
GAS LISTING /tmp/ccrzZmNU.s 			page 23


 1023              		.loc 1 72 11 is_stmt 0
 1024 03ac 9304A000 		li	s1,10
 1025 03b0 6F000004 		j	.L55
 1026              	.LVL103:
 1027              	.L59:
  73:test/Threads_CPP_API_test.cpp ****     for (; i < 13; i++) {
  74:test/Threads_CPP_API_test.cpp ****         printString("D: i="); printInt(i); printString("\n");
 1028              		.loc 1 74 9 is_stmt 1 discriminator 1
 1029              		.loc 1 74 20 is_stmt 0 discriminator 1
 1030 03b4 17050000 		lla	a0,.LC10
 1030      13050500 
 1031 03bc 97000000 		call	_Z11printStringPKc@plt
 1031      E7800000 
 1032              	.LVL104:
 1033              		.loc 1 74 31 is_stmt 1 discriminator 1
 1034              		.loc 1 74 39 is_stmt 0 discriminator 1
 1035 03c4 13060000 		li	a2,0
 1036 03c8 9305A000 		li	a1,10
 1037 03cc 13850400 		mv	a0,s1
 1038 03d0 97000000 		call	_Z8printIntiii@plt
 1038      E7800000 
 1039              	.LVL105:
 1040              		.loc 1 74 44 is_stmt 1 discriminator 1
 1041              		.loc 1 74 55 is_stmt 0 discriminator 1
 1042 03d8 17050000 		lla	a0,.LC1
 1042      13050500 
 1043 03e0 97000000 		call	_Z11printStringPKc@plt
 1043      E7800000 
 1044              	.LVL106:
  73:test/Threads_CPP_API_test.cpp ****     for (; i < 13; i++) {
 1045              		.loc 1 73 5 is_stmt 1 discriminator 1
 1046 03e8 9B841400 		addiw	s1,s1,1
 1047              	.LVL107:
 1048 03ec 93F4F40F 		andi	s1,s1,0xff
 1049              	.LVL108:
 1050              	.L55:
  73:test/Threads_CPP_API_test.cpp ****     for (; i < 13; i++) {
 1051              		.loc 1 73 5 discriminator 2
  73:test/Threads_CPP_API_test.cpp ****     for (; i < 13; i++) {
 1052              		.loc 1 73 14 discriminator 2
 1053 03f0 9307C000 		li	a5,12
 1054 03f4 E3F097FC 		bleu	s1,a5,.L59
  75:test/Threads_CPP_API_test.cpp ****     }
  76:test/Threads_CPP_API_test.cpp **** 
  77:test/Threads_CPP_API_test.cpp ****     printString("D: dispatch\n");
 1055              		.loc 1 77 5
 1056              		.loc 1 77 16 is_stmt 0
 1057 03f8 17050000 		lla	a0,.LC11
 1057      13050500 
 1058 0400 97000000 		call	_Z11printStringPKc@plt
 1058      E7800000 
 1059              	.LVL109:
  78:test/Threads_CPP_API_test.cpp ****     __asm__ ("li t1, 5");
 1060              		.loc 1 78 5 is_stmt 1
 1061              		.loc 1 78 25 is_stmt 0
 1062              	#APP
 1063              	# 78 "test/Threads_CPP_API_test.cpp" 1
GAS LISTING /tmp/ccrzZmNU.s 			page 24


  79              	    thread_dispatch();
 1064              		li t1, 5
 1065              	# 0 "" 2
 1066              		.loc 1 79 5 is_stmt 1
 1067              		.loc 1 79 20 is_stmt 0
 1068              	#NO_APP
 1069 040c 97000000 		call	thread_dispatch@plt
 1069      E7800000 
 1070              	.LVL110:
  80:test/Threads_CPP_API_test.cpp **** 
  81:test/Threads_CPP_API_test.cpp ****     uint64 result = fibonacci(16);
 1071              		.loc 1 81 5 is_stmt 1
 1072              		.loc 1 81 30 is_stmt 0
 1073 0414 13050001 		li	a0,16
 1074 0418 97000000 		call	_ZL9fibonaccim
 1074      E7800000 
 1075              	.LVL111:
 1076 0420 13090500 		mv	s2,a0
 1077              	.LVL112:
  82:test/Threads_CPP_API_test.cpp ****     printString("D: fibonaci="); printInt(result); printString("\n");
 1078              		.loc 1 82 5 is_stmt 1
 1079              		.loc 1 82 16 is_stmt 0
 1080 0424 17050000 		lla	a0,.LC12
 1080      13050500 
 1081              	.LVL113:
 1082 042c 97000000 		call	_Z11printStringPKc@plt
 1082      E7800000 
 1083              	.LVL114:
 1084              		.loc 1 82 34 is_stmt 1
 1085              		.loc 1 82 42 is_stmt 0
 1086 0434 13060000 		li	a2,0
 1087 0438 9305A000 		li	a1,10
 1088 043c 1B050900 		sext.w	a0,s2
 1089 0440 97000000 		call	_Z8printIntiii@plt
 1089      E7800000 
 1090              	.LVL115:
 1091              		.loc 1 82 52 is_stmt 1
 1092              		.loc 1 82 63 is_stmt 0
 1093 0448 17050000 		lla	a0,.LC1
 1093      13050500 
 1094 0450 97000000 		call	_Z11printStringPKc@plt
 1094      E7800000 
 1095              	.LVL116:
 1096 0458 6F000004 		j	.L57
 1097              	.L60:
  83:test/Threads_CPP_API_test.cpp **** 
  84:test/Threads_CPP_API_test.cpp ****     for (; i < 16; i++) {
  85:test/Threads_CPP_API_test.cpp ****         printString("D: i="); printInt(i); printString("\n");
 1098              		.loc 1 85 9 is_stmt 1 discriminator 1
 1099              		.loc 1 85 20 is_stmt 0 discriminator 1
 1100 045c 17050000 		lla	a0,.LC10
 1100      13050500 
 1101 0464 97000000 		call	_Z11printStringPKc@plt
 1101      E7800000 
 1102              	.LVL117:
 1103              		.loc 1 85 31 is_stmt 1 discriminator 1
 1104              		.loc 1 85 39 is_stmt 0 discriminator 1
GAS LISTING /tmp/ccrzZmNU.s 			page 25


 1105 046c 13060000 		li	a2,0
 1106 0470 9305A000 		li	a1,10
 1107 0474 13850400 		mv	a0,s1
 1108 0478 97000000 		call	_Z8printIntiii@plt
 1108      E7800000 
 1109              	.LVL118:
 1110              		.loc 1 85 44 is_stmt 1 discriminator 1
 1111              		.loc 1 85 55 is_stmt 0 discriminator 1
 1112 0480 17050000 		lla	a0,.LC1
 1112      13050500 
 1113 0488 97000000 		call	_Z11printStringPKc@plt
 1113      E7800000 
 1114              	.LVL119:
  84:test/Threads_CPP_API_test.cpp ****         printString("D: i="); printInt(i); printString("\n");
 1115              		.loc 1 84 5 is_stmt 1 discriminator 1
 1116 0490 9B841400 		addiw	s1,s1,1
 1117              	.LVL120:
 1118 0494 93F4F40F 		andi	s1,s1,0xff
 1119              	.LVL121:
 1120              	.L57:
  84:test/Threads_CPP_API_test.cpp ****         printString("D: i="); printInt(i); printString("\n");
 1121              		.loc 1 84 5 discriminator 2
  84:test/Threads_CPP_API_test.cpp ****         printString("D: i="); printInt(i); printString("\n");
 1122              		.loc 1 84 14 discriminator 2
 1123 0498 9307F000 		li	a5,15
 1124 049c E3F097FC 		bleu	s1,a5,.L60
  86:test/Threads_CPP_API_test.cpp ****     }
  87:test/Threads_CPP_API_test.cpp **** 
  88:test/Threads_CPP_API_test.cpp ****     thread_dispatch();
 1125              		.loc 1 88 5
 1126              		.loc 1 88 20 is_stmt 0
 1127 04a0 97000000 		call	thread_dispatch@plt
 1127      E7800000 
 1128              	.LVL122:
  89:test/Threads_CPP_API_test.cpp ****     printString("D finished!\n");
 1129              		.loc 1 89 5 is_stmt 1
 1130              		.loc 1 89 16 is_stmt 0
 1131 04a8 17050000 		lla	a0,.LC13
 1131      13050500 
 1132 04b0 97000000 		call	_Z11printStringPKc@plt
 1132      E7800000 
 1133              	.LVL123:
  90:test/Threads_CPP_API_test.cpp ****     finishedD = true;
 1134              		.loc 1 90 5 is_stmt 1
 1135              		.loc 1 90 15 is_stmt 0
 1136 04b8 93071000 		li	a5,1
 1137 04bc 17070000 		sb	a5,.LANCHOR0+3,a4
 1137      2300F700 
  91:test/Threads_CPP_API_test.cpp **** }
 1138              		.loc 1 91 1
 1139 04c4 83308101 		ld	ra,24(sp)
 1140              		.cfi_restore 1
 1141 04c8 03340101 		ld	s0,16(sp)
 1142              		.cfi_restore 8
 1143              		.cfi_def_cfa 2, 32
 1144 04cc 83348100 		ld	s1,8(sp)
 1145              		.cfi_restore 9
GAS LISTING /tmp/ccrzZmNU.s 			page 26


 1146              	.LVL124:
 1147 04d0 03390100 		ld	s2,0(sp)
 1148              		.cfi_restore 18
 1149              	.LVL125:
 1150 04d4 13010102 		addi	sp,sp,32
 1151              		.cfi_def_cfa_offset 0
 1152 04d8 67800000 		jr	ra
 1153              		.cfi_endproc
 1154              	.LFE47:
 1156              		.section	.text._ZN7WorkerD3runEv,"axG",@progbits,_ZN7WorkerD3runEv,comdat
 1157              		.align	2
 1158              		.weak	_ZN7WorkerD3runEv
 1160              	_ZN7WorkerD3runEv:
 1161              	.LFB42:
  39:test/Threads_CPP_API_test.hpp ****     void workerBodyD(void* arg);
  40:test/Threads_CPP_API_test.hpp **** public:
  41:test/Threads_CPP_API_test.hpp ****     WorkerD():Thread() {}
  42:test/Threads_CPP_API_test.hpp **** 
  43:test/Threads_CPP_API_test.hpp ****     void run() override {
 1162              		.loc 2 43 10 is_stmt 1
 1163              		.cfi_startproc
 1164              	.LVL126:
 1165 0000 130101FF 		addi	sp,sp,-16
 1166              		.cfi_def_cfa_offset 16
 1167 0004 23341100 		sd	ra,8(sp)
 1168 0008 23308100 		sd	s0,0(sp)
 1169              		.cfi_offset 1, -8
 1170              		.cfi_offset 8, -16
 1171 000c 13040101 		addi	s0,sp,16
 1172              		.cfi_def_cfa 8, 0
  44:test/Threads_CPP_API_test.hpp ****         workerBodyD(nullptr);
 1173              		.loc 2 44 9
 1174              		.loc 2 44 20 is_stmt 0
 1175 0010 93050000 		li	a1,0
 1176 0014 97000000 		call	_ZN7WorkerD11workerBodyDEPv
 1176      E7800000 
 1177              	.LVL127:
  45:test/Threads_CPP_API_test.hpp ****     }
 1178              		.loc 2 45 5
 1179 001c 83308100 		ld	ra,8(sp)
 1180              		.cfi_restore 1
 1181 0020 03340100 		ld	s0,0(sp)
 1182              		.cfi_restore 8
 1183              		.cfi_def_cfa 2, 16
 1184 0024 13010101 		addi	sp,sp,16
 1185              		.cfi_def_cfa_offset 0
 1186 0028 67800000 		jr	ra
 1187              		.cfi_endproc
 1188              	.LFE42:
 1190              		.section	.rodata.str1.8
 1191 00ad 000000   		.align	3
 1192              	.LC14:
 1193 00b0 54687265 		.string	"ThreadA created\n"
 1193      61644120 
 1193      63726561 
 1193      7465640A 
 1193      00
GAS LISTING /tmp/ccrzZmNU.s 			page 27


 1194 00c1 00000000 		.align	3
 1194      000000
 1195              	.LC15:
 1196 00c8 54687265 		.string	"ThreadB created\n"
 1196      61644220 
 1196      63726561 
 1196      7465640A 
 1196      00
 1197 00d9 00000000 		.align	3
 1197      000000
 1198              	.LC16:
 1199 00e0 54687265 		.string	"ThreadC created\n"
 1199      61644320 
 1199      63726561 
 1199      7465640A 
 1199      00
 1200 00f1 00000000 		.align	3
 1200      000000
 1201              	.LC17:
 1202 00f8 54687265 		.string	"ThreadD created\n"
 1202      61644420 
 1202      63726561 
 1202      7465640A 
 1202      00
 1203              		.text
 1204              		.align	2
 1205              		.globl	_Z20Threads_CPP_API_testv
 1207              	_Z20Threads_CPP_API_testv:
 1208              	.LFB48:
  92:test/Threads_CPP_API_test.cpp **** 
  93:test/Threads_CPP_API_test.cpp **** 
  94:test/Threads_CPP_API_test.cpp **** void Threads_CPP_API_test() {
 1209              		.loc 1 94 29 is_stmt 1
 1210              		.cfi_startproc
 1211              		.cfi_personality 0x9b,DW.ref.__gxx_personality_v0
 1212              		.cfi_lsda 0x1b,.LLSDA48
 1213 04dc 130101FC 		addi	sp,sp,-64
 1214              		.cfi_def_cfa_offset 64
 1215 04e0 233C1102 		sd	ra,56(sp)
 1216 04e4 23388102 		sd	s0,48(sp)
 1217 04e8 23349102 		sd	s1,40(sp)
 1218 04ec 23302103 		sd	s2,32(sp)
 1219              		.cfi_offset 1, -8
 1220              		.cfi_offset 8, -16
 1221              		.cfi_offset 9, -24
 1222              		.cfi_offset 18, -32
 1223 04f0 13040104 		addi	s0,sp,64
 1224              		.cfi_def_cfa 8, 0
  95:test/Threads_CPP_API_test.cpp ****     Thread* threads[4];
 1225              		.loc 1 95 5
  96:test/Threads_CPP_API_test.cpp **** 
  97:test/Threads_CPP_API_test.cpp ****     //Riscv::printString("Got here\n");
  98:test/Threads_CPP_API_test.cpp ****     threads[0] = new WorkerA();
 1226              		.loc 1 98 5
 1227              		.loc 1 98 30 is_stmt 0
 1228 04f4 13050001 		li	a0,16
 1229              	.LEHB0:
GAS LISTING /tmp/ccrzZmNU.s 			page 28


 1230 04f8 97000000 		call	_Znwm@plt
 1230      E7800000 
 1231              	.LVL128:
 1232              	.LEHE0:
 1233 0500 93040500 		mv	s1,a0
 1234              	.LVL129:
 1235              	.LEHB1:
 1236              	.LBB56:
 1237              	.LBB57:
  11:test/Threads_CPP_API_test.hpp **** 
 1238              		.loc 2 11 22
 1239 0504 97000000 		call	_ZN6ThreadC2Ev@plt
 1239      E7800000 
 1240              	.LVL130:
 1241              	.LEHE1:
 1242 050c 97070000 		lla	a5,_ZTV7WorkerA+16
 1242      93870700 
 1243 0514 23B0F400 		sd	a5,0(s1)
 1244              	.LVL131:
 1245              	.LBE57:
 1246              	.LBE56:
 1247              		.loc 1 98 16
 1248 0518 233094FC 		sd	s1,-64(s0)
  99:test/Threads_CPP_API_test.cpp ****     printString("ThreadA created\n");
 1249              		.loc 1 99 5 is_stmt 1
 1250              		.loc 1 99 16 is_stmt 0
 1251 051c 17050000 		lla	a0,.LC14
 1251      13050500 
 1252              	.LEHB2:
 1253 0524 97000000 		call	_Z11printStringPKc@plt
 1253      E7800000 
 1254              	.LVL132:
 100:test/Threads_CPP_API_test.cpp **** 
 101:test/Threads_CPP_API_test.cpp ****     threads[1] = new WorkerB();
 1255              		.loc 1 101 5 is_stmt 1
 1256              		.loc 1 101 30 is_stmt 0
 1257 052c 13050001 		li	a0,16
 1258 0530 97000000 		call	_Znwm@plt
 1258      E7800000 
 1259              	.LVL133:
 1260              	.LEHE2:
 1261 0538 93040500 		mv	s1,a0
 1262              	.LVL134:
 1263              	.LEHB3:
 1264              	.LBB58:
 1265              	.LBB59:
  21:test/Threads_CPP_API_test.hpp **** 
 1266              		.loc 2 21 22
 1267 053c 97000000 		call	_ZN6ThreadC2Ev@plt
 1267      E7800000 
 1268              	.LVL135:
 1269              	.LEHE3:
 1270 0544 97070000 		lla	a5,_ZTV7WorkerB+16
 1270      93870700 
 1271 054c 23B0F400 		sd	a5,0(s1)
 1272              	.LVL136:
 1273              	.LBE59:
GAS LISTING /tmp/ccrzZmNU.s 			page 29


 1274              	.LBE58:
 1275              		.loc 1 101 16
 1276 0550 233494FC 		sd	s1,-56(s0)
 102:test/Threads_CPP_API_test.cpp ****     printString("ThreadB created\n");
 1277              		.loc 1 102 5 is_stmt 1
 1278              		.loc 1 102 16 is_stmt 0
 1279 0554 17050000 		lla	a0,.LC15
 1279      13050500 
 1280              	.LEHB4:
 1281 055c 97000000 		call	_Z11printStringPKc@plt
 1281      E7800000 
 1282              	.LVL137:
 103:test/Threads_CPP_API_test.cpp **** 
 104:test/Threads_CPP_API_test.cpp ****     threads[2] = new WorkerC();
 1283              		.loc 1 104 5 is_stmt 1
 1284              		.loc 1 104 30 is_stmt 0
 1285 0564 13050001 		li	a0,16
 1286 0568 97000000 		call	_Znwm@plt
 1286      E7800000 
 1287              	.LVL138:
 1288              	.LEHE4:
 1289 0570 93040500 		mv	s1,a0
 1290              	.LVL139:
 1291              	.LEHB5:
 1292              	.LBB60:
 1293              	.LBB61:
  31:test/Threads_CPP_API_test.hpp **** 
 1294              		.loc 2 31 22
 1295 0574 97000000 		call	_ZN6ThreadC2Ev@plt
 1295      E7800000 
 1296              	.LVL140:
 1297              	.LEHE5:
 1298 057c 97070000 		lla	a5,_ZTV7WorkerC+16
 1298      93870700 
 1299 0584 23B0F400 		sd	a5,0(s1)
 1300              	.LVL141:
 1301              	.LBE61:
 1302              	.LBE60:
 1303              		.loc 1 104 16
 1304 0588 233894FC 		sd	s1,-48(s0)
 105:test/Threads_CPP_API_test.cpp ****     printString("ThreadC created\n");
 1305              		.loc 1 105 5 is_stmt 1
 1306              		.loc 1 105 16 is_stmt 0
 1307 058c 17050000 		lla	a0,.LC16
 1307      13050500 
 1308              	.LEHB6:
 1309 0594 97000000 		call	_Z11printStringPKc@plt
 1309      E7800000 
 1310              	.LVL142:
 106:test/Threads_CPP_API_test.cpp **** 
 107:test/Threads_CPP_API_test.cpp ****     threads[3] = new WorkerD();
 1311              		.loc 1 107 5 is_stmt 1
 1312              		.loc 1 107 30 is_stmt 0
 1313 059c 13050001 		li	a0,16
 1314 05a0 97000000 		call	_Znwm@plt
 1314      E7800000 
 1315              	.LVL143:
GAS LISTING /tmp/ccrzZmNU.s 			page 30


 1316              	.LEHE6:
 1317 05a8 93040500 		mv	s1,a0
 1318              	.LVL144:
 1319              	.LEHB7:
 1320              	.LBB62:
 1321              	.LBB63:
  41:test/Threads_CPP_API_test.hpp **** 
 1322              		.loc 2 41 22
 1323 05ac 97000000 		call	_ZN6ThreadC2Ev@plt
 1323      E7800000 
 1324              	.LVL145:
 1325              	.LEHE7:
 1326 05b4 97070000 		lla	a5,_ZTV7WorkerD+16
 1326      93870700 
 1327 05bc 23B0F400 		sd	a5,0(s1)
 1328              	.LVL146:
 1329              	.LBE63:
 1330              	.LBE62:
 1331              		.loc 1 107 16
 1332 05c0 233C94FC 		sd	s1,-40(s0)
 108:test/Threads_CPP_API_test.cpp ****     printString("ThreadD created\n");
 1333              		.loc 1 108 5 is_stmt 1
 1334              		.loc 1 108 16 is_stmt 0
 1335 05c4 17050000 		lla	a0,.LC17
 1335      13050500 
 1336              	.LEHB8:
 1337 05cc 97000000 		call	_Z11printStringPKc@plt
 1337      E7800000 
 1338              	.LVL147:
 1339              	.LBB64:
 109:test/Threads_CPP_API_test.cpp **** 
 110:test/Threads_CPP_API_test.cpp ****     for(int i=0; i<4; i++) {
 1340              		.loc 1 110 13
 1341 05d4 93040000 		li	s1,0
 1342              	.L65:
 1343              	.LVL148:
 1344              		.loc 1 110 19 is_stmt 1 discriminator 1
 1345 05d8 93073000 		li	a5,3
 1346 05dc 63C69702 		bgt	s1,a5,.L64
 111:test/Threads_CPP_API_test.cpp ****         //Riscv::printString("Starting...\n");
 112:test/Threads_CPP_API_test.cpp ****         threads[i]->start();
 1347              		.loc 1 112 9
 1348              		.loc 1 112 18 is_stmt 0
 1349 05e0 93973400 		slli	a5,s1,3
 1350 05e4 130704FE 		addi	a4,s0,-32
 1351 05e8 B307F700 		add	a5,a4,a5
 1352              		.loc 1 112 26
 1353 05ec 03B507FE 		ld	a0,-32(a5)
 1354 05f0 97000000 		call	_ZN6Thread5startEv@plt
 1354      E7800000 
 1355              	.LVL149:
 110:test/Threads_CPP_API_test.cpp ****         //Riscv::printString("Starting...\n");
 1356              		.loc 1 110 5 is_stmt 1
 1357 05f8 9B841400 		addiw	s1,s1,1
 1358              	.LVL150:
 1359 05fc 6FF0DFFD 		j	.L65
 1360              	.LVL151:
GAS LISTING /tmp/ccrzZmNU.s 			page 31


 1361              	.L66:
 1362              	.LBE64:
 113:test/Threads_CPP_API_test.cpp ****     }
 114:test/Threads_CPP_API_test.cpp **** 
 115:test/Threads_CPP_API_test.cpp ****     //Riscv::printString("Thread started\n");
 116:test/Threads_CPP_API_test.cpp ****     while (!(finishedA && finishedB && finishedC && finishedD)) {
 117:test/Threads_CPP_API_test.cpp ****         Thread::dispatch();
 1363              		.loc 1 117 9
 1364              		.loc 1 117 25 is_stmt 0
 1365 0600 97000000 		call	_ZN6Thread8dispatchEv@plt
 1365      E7800000 
 1366              	.LVL152:
 1367              	.LEHE8:
 1368              	.L64:
 116:test/Threads_CPP_API_test.cpp ****         Thread::dispatch();
 1369              		.loc 1 116 5 is_stmt 1
 116:test/Threads_CPP_API_test.cpp ****         Thread::dispatch();
 1370              		.loc 1 116 12
 1371 0608 97070000 		lbu	a5,.LANCHOR0
 1371      83C70700 
 1372 0610 E38807FE 		beqz	a5,.L66
 116:test/Threads_CPP_API_test.cpp ****         Thread::dispatch();
 1373              		.loc 1 116 24 is_stmt 0 discriminator 1
 1374 0614 97070000 		lbu	a5,.LANCHOR0+1
 1374      83C70700 
 1375 061c E38207FE 		beqz	a5,.L66
 116:test/Threads_CPP_API_test.cpp ****         Thread::dispatch();
 1376              		.loc 1 116 37 discriminator 2
 1377 0620 97070000 		lbu	a5,.LANCHOR0+2
 1377      83C70700 
 1378 0628 E38C07FC 		beqz	a5,.L66
 116:test/Threads_CPP_API_test.cpp ****         Thread::dispatch();
 1379              		.loc 1 116 12 discriminator 3
 1380 062c 97070000 		lbu	a5,.LANCHOR0+3
 1380      83C70700 
 1381 0634 E38607FC 		beqz	a5,.L66
 1382              	.LBB65:
 118:test/Threads_CPP_API_test.cpp ****         //Riscv::printString("main\n");
 119:test/Threads_CPP_API_test.cpp ****     }
 120:test/Threads_CPP_API_test.cpp ****     for (auto thread: threads) { delete thread; }
 1383              		.loc 1 120 23
 1384 0638 930404FC 		addi	s1,s0,-64
 1385              	.LVL153:
 1386 063c 6F008000 		j	.L67
 1387              	.LVL154:
 1388              	.L69:
 1389              		.loc 1 120 5 is_stmt 1 discriminator 5
 1390 0640 93848400 		addi	s1,s1,8
 1391              	.LVL155:
 1392              	.L67:
 1393              		.loc 1 120 23 discriminator 6
 1394 0644 930704FE 		addi	a5,s0,-32
 1395 0648 6386F408 		beq	s1,a5,.L63
 1396              		.loc 1 120 15 is_stmt 0 discriminator 2
 1397 064c 03B50400 		ld	a0,0(s1)
 1398              	.LVL156:
 1399              		.loc 1 120 34 is_stmt 1 discriminator 2
GAS LISTING /tmp/ccrzZmNU.s 			page 32


 1400              		.loc 1 120 47 is_stmt 0 discriminator 2
 1401 0650 E30805FE 		beqz	a0,.L69
 1402              		.loc 1 120 41 discriminator 3
 1403 0654 83370500 		ld	a5,0(a0)
 1404 0658 83B78700 		ld	a5,8(a5)
 1405 065c E7800700 		jalr	a5
 1406              	.LVL157:
 1407 0660 6FF01FFE 		j	.L69
 1408              	.LVL158:
 1409              	.L75:
 1410 0664 13090500 		mv	s2,a0
 1411              	.LBE65:
  98:test/Threads_CPP_API_test.cpp ****     printString("ThreadA created\n");
 1412              		.loc 1 98 30
 1413 0668 13850400 		mv	a0,s1
 1414 066c 97000000 		call	_ZdlPv@plt
 1414      E7800000 
 1415              	.LVL159:
 1416 0674 13050900 		mv	a0,s2
 1417              	.LEHB9:
 1418 0678 97000000 		call	_Unwind_Resume@plt
 1418      E7800000 
 1419              	.LVL160:
 1420              	.LEHE9:
 1421              	.L76:
 1422 0680 13090500 		mv	s2,a0
 101:test/Threads_CPP_API_test.cpp ****     printString("ThreadB created\n");
 1423              		.loc 1 101 30
 1424 0684 13850400 		mv	a0,s1
 1425 0688 97000000 		call	_ZdlPv@plt
 1425      E7800000 
 1426              	.LVL161:
 1427 0690 13050900 		mv	a0,s2
 1428              	.LEHB10:
 1429 0694 97000000 		call	_Unwind_Resume@plt
 1429      E7800000 
 1430              	.LVL162:
 1431              	.LEHE10:
 1432              	.L77:
 1433 069c 13090500 		mv	s2,a0
 104:test/Threads_CPP_API_test.cpp ****     printString("ThreadC created\n");
 1434              		.loc 1 104 30
 1435 06a0 13850400 		mv	a0,s1
 1436 06a4 97000000 		call	_ZdlPv@plt
 1436      E7800000 
 1437              	.LVL163:
 1438 06ac 13050900 		mv	a0,s2
 1439              	.LEHB11:
 1440 06b0 97000000 		call	_Unwind_Resume@plt
 1440      E7800000 
 1441              	.LVL164:
 1442              	.LEHE11:
 1443              	.L78:
 1444 06b8 13090500 		mv	s2,a0
 107:test/Threads_CPP_API_test.cpp ****     printString("ThreadD created\n");
 1445              		.loc 1 107 30
 1446 06bc 13850400 		mv	a0,s1
GAS LISTING /tmp/ccrzZmNU.s 			page 33


 1447 06c0 97000000 		call	_ZdlPv@plt
 1447      E7800000 
 1448              	.LVL165:
 1449 06c8 13050900 		mv	a0,s2
 1450              	.LEHB12:
 1451 06cc 97000000 		call	_Unwind_Resume@plt
 1451      E7800000 
 1452              	.LVL166:
 1453              	.LEHE12:
 1454              	.L63:
 121:test/Threads_CPP_API_test.cpp **** }...
 1455              		.loc 1 121 1
 1456 06d4 83308103 		ld	ra,56(sp)
 1457              		.cfi_restore 1
 1458 06d8 03340103 		ld	s0,48(sp)
 1459              		.cfi_restore 8
 1460              		.cfi_def_cfa 2, 64
 1461 06dc 83348102 		ld	s1,40(sp)
 1462              		.cfi_restore 9
 1463              	.LVL167:
 1464 06e0 03390102 		ld	s2,32(sp)
 1465              		.cfi_restore 18
 1466 06e4 13010104 		addi	sp,sp,64
 1467              		.cfi_def_cfa_offset 0
 1468 06e8 67800000 		jr	ra
 1469              		.cfi_endproc
 1470              	.LFE48:
 1471              		.globl	__gxx_personality_v0
 1472              		.section	.gcc_except_table,"a",@progbits
 1473              	.LLSDA48:
 1474 0000 FF       		.byte	0xff
 1475 0001 FF       		.byte	0xff
 1476 0002 03       		.byte	0x3
 1477 0003 A901     		.byte	0xa9,0x1
 1478 0005 00000000 		.4byte	.LEHB0-.LFB48
 1479 0009 00000000 		.4byte	.LEHE0-.LEHB0
 1480 000d 00000000 		.4byte	0
 1481 0011 00       		.byte	0
 1482 0012 00000000 		.4byte	.LEHB1-.LFB48
 1483 0016 00000000 		.4byte	.LEHE1-.LEHB1
 1484 001a 00000000 		.4byte	.L75-.LFB48
 1485 001e 00       		.byte	0
 1486 001f 00000000 		.4byte	.LEHB2-.LFB48
 1487 0023 00000000 		.4byte	.LEHE2-.LEHB2
 1488 0027 00000000 		.4byte	0
 1489 002b 00       		.byte	0
 1490 002c 00000000 		.4byte	.LEHB3-.LFB48
 1491 0030 00000000 		.4byte	.LEHE3-.LEHB3
 1492 0034 00000000 		.4byte	.L76-.LFB48
 1493 0038 00       		.byte	0
 1494 0039 00000000 		.4byte	.LEHB4-.LFB48
 1495 003d 00000000 		.4byte	.LEHE4-.LEHB4
 1496 0041 00000000 		.4byte	0
 1497 0045 00       		.byte	0
 1498 0046 00000000 		.4byte	.LEHB5-.LFB48
 1499 004a 00000000 		.4byte	.LEHE5-.LEHB5
 1500 004e 00000000 		.4byte	.L77-.LFB48
GAS LISTING /tmp/ccrzZmNU.s 			page 34


 1501 0052 00       		.byte	0
 1502 0053 00000000 		.4byte	.LEHB6-.LFB48
 1503 0057 00000000 		.4byte	.LEHE6-.LEHB6
 1504 005b 00000000 		.4byte	0
 1505 005f 00       		.byte	0
 1506 0060 00000000 		.4byte	.LEHB7-.LFB48
 1507 0064 00000000 		.4byte	.LEHE7-.LEHB7
 1508 0068 00000000 		.4byte	.L78-.LFB48
 1509 006c 00       		.byte	0
 1510 006d 00000000 		.4byte	.LEHB8-.LFB48
 1511 0071 00000000 		.4byte	.LEHE8-.LEHB8
 1512 0075 00000000 		.4byte	0
 1513 0079 00       		.byte	0
 1514 007a 00000000 		.4byte	.LEHB9-.LFB48
 1515 007e 00000000 		.4byte	.LEHE9-.LEHB9
 1516 0082 00000000 		.4byte	0
 1517 0086 00       		.byte	0
 1518 0087 00000000 		.4byte	.LEHB10-.LFB48
 1519 008b 00000000 		.4byte	.LEHE10-.LEHB10
 1520 008f 00000000 		.4byte	0
 1521 0093 00       		.byte	0
 1522 0094 00000000 		.4byte	.LEHB11-.LFB48
 1523 0098 00000000 		.4byte	.LEHE11-.LEHB11
 1524 009c 00000000 		.4byte	0
 1525 00a0 00       		.byte	0
 1526 00a1 00000000 		.4byte	.LEHB12-.LFB48
 1527 00a5 00000000 		.4byte	.LEHE12-.LEHB12
 1528 00a9 00000000 		.4byte	0
 1529 00ad 00       		.byte	0
 1530              		.text
 1532              		.weak	_ZTV7WorkerA
 1533              		.section	.data.rel.ro.local._ZTV7WorkerA,"awG",@progbits,_ZTV7WorkerA,comdat
 1534              		.align	3
 1537              	_ZTV7WorkerA:
 1538 0000 00000000 		.dword	0
 1538      00000000 
 1539 0008 00000000 		.dword	0
 1539      00000000 
 1540 0010 00000000 		.dword	_ZN7WorkerAD1Ev
 1540      00000000 
 1541 0018 00000000 		.dword	_ZN7WorkerAD0Ev
 1541      00000000 
 1542 0020 00000000 		.dword	_ZN7WorkerA3runEv
 1542      00000000 
 1543              		.weak	_ZTV7WorkerB
 1544              		.section	.data.rel.ro.local._ZTV7WorkerB,"awG",@progbits,_ZTV7WorkerB,comdat
 1545              		.align	3
 1548              	_ZTV7WorkerB:
 1549 0000 00000000 		.dword	0
 1549      00000000 
 1550 0008 00000000 		.dword	0
 1550      00000000 
 1551 0010 00000000 		.dword	_ZN7WorkerBD1Ev
 1551      00000000 
 1552 0018 00000000 		.dword	_ZN7WorkerBD0Ev
 1552      00000000 
 1553 0020 00000000 		.dword	_ZN7WorkerB3runEv
GAS LISTING /tmp/ccrzZmNU.s 			page 35


 1553      00000000 
 1554              		.weak	_ZTV7WorkerC
 1555              		.section	.data.rel.ro.local._ZTV7WorkerC,"awG",@progbits,_ZTV7WorkerC,comdat
 1556              		.align	3
 1559              	_ZTV7WorkerC:
 1560 0000 00000000 		.dword	0
 1560      00000000 
 1561 0008 00000000 		.dword	0
 1561      00000000 
 1562 0010 00000000 		.dword	_ZN7WorkerCD1Ev
 1562      00000000 
 1563 0018 00000000 		.dword	_ZN7WorkerCD0Ev
 1563      00000000 
 1564 0020 00000000 		.dword	_ZN7WorkerC3runEv
 1564      00000000 
 1565              		.weak	_ZTV7WorkerD
 1566              		.section	.data.rel.ro.local._ZTV7WorkerD,"awG",@progbits,_ZTV7WorkerD,comdat
 1567              		.align	3
 1570              	_ZTV7WorkerD:
 1571 0000 00000000 		.dword	0
 1571      00000000 
 1572 0008 00000000 		.dword	0
 1572      00000000 
 1573 0010 00000000 		.dword	_ZN7WorkerDD1Ev
 1573      00000000 
 1574 0018 00000000 		.dword	_ZN7WorkerDD0Ev
 1574      00000000 
 1575 0020 00000000 		.dword	_ZN7WorkerD3runEv
 1575      00000000 
 1576              		.bss
 1577              		.set	.LANCHOR0,. + 0
 1580              	_ZL9finishedA:
 1581 0000 00       		.zero	1
 1584              	_ZL9finishedB:
 1585 0001 00       		.zero	1
 1588              	_ZL9finishedC:
 1589 0002 00       		.zero	1
 1592              	_ZL9finishedD:
 1593 0003 00       		.zero	1
 1594              		.text
 1595              	.Letext0:
 1596              		.file 3 "test/../h/../lib/hw.h"
 1597              		.file 4 "test/../h/syscall_cpp.hpp"
 1598              		.file 5 "test/../h/../test/printing.hpp"
 1599              		.file 6 "test/../h/syscall_c.h"
 5405              		.align	3
 5408              	DW.ref.__gxx_personality_v0:
 5409 0000 00000000 		.dword	__gxx_personality_v0
 5409      00000000 
 5410              		.ident	"GCC: (Ubuntu 9.3.0-17ubuntu1~20.04) 9.3.0"
 5411              		.section	.note.GNU-stack,"",@progbits
GAS LISTING /tmp/ccrzZmNU.s 			page 36

