GAS LISTING /tmp/ccq5LnY6.s 			page 1


   1              		.file	"ThreadSleep_C_API_test.cpp"
   2              		.option pic
   3              		.option norelax
   4              		.text
   5              	.Ltext0:
   6              		.section	.rodata.str1.8,"aMS",@progbits,1
   7              		.align	3
   8              	.LC0:
   9 0000 48656C6C 		.string	"Hello "
   9      6F2000
  10 0007 00       		.align	3
  11              	.LC1:
  12 0008 20210A00 		.string	" !\n"
  13              		.text
  14              		.align	2
  15              		.globl	_Z9sleepyRunPv
  17              	_Z9sleepyRunPv:
  18              	.LFB0:
  19              		.file 1 "test/ThreadSleep_C_API_test.cpp"
   1:test/ThreadSleep_C_API_test.cpp **** //
   2:test/ThreadSleep_C_API_test.cpp **** // Created by os on 5/16/22.
   3:test/ThreadSleep_C_API_test.cpp **** //
   4:test/ThreadSleep_C_API_test.cpp **** 
   5:test/ThreadSleep_C_API_test.cpp **** #include "ThreadSleep_C_API_test.hpp"
   6:test/ThreadSleep_C_API_test.cpp **** 
   7:test/ThreadSleep_C_API_test.cpp **** bool finished[2];
   8:test/ThreadSleep_C_API_test.cpp **** 
   9:test/ThreadSleep_C_API_test.cpp **** void sleepyRun(void *arg) {
  20              		.loc 1 9 27
  21              		.cfi_startproc
  22              	.LVL0:
  23 0000 130101FE 		addi	sp,sp,-32
  24              		.cfi_def_cfa_offset 32
  25 0004 233C1100 		sd	ra,24(sp)
  26 0008 23388100 		sd	s0,16(sp)
  27 000c 23349100 		sd	s1,8(sp)
  28 0010 23302101 		sd	s2,0(sp)
  29              		.cfi_offset 1, -8
  30              		.cfi_offset 8, -16
  31              		.cfi_offset 9, -24
  32              		.cfi_offset 18, -32
  33 0014 13040102 		addi	s0,sp,32
  34              		.cfi_def_cfa 8, 0
  10:test/ThreadSleep_C_API_test.cpp ****     time_t sleep_time = *((time_t *) arg);
  35              		.loc 1 10 5
  36              		.loc 1 10 12 is_stmt 0
  37 0018 03390500 		ld	s2,0(a0)
  38              	.LVL1:
  11:test/ThreadSleep_C_API_test.cpp ****     int i = 6;
  39              		.loc 1 11 5 is_stmt 1
  40              		.loc 1 11 9 is_stmt 0
  41 001c 93046000 		li	s1,6
  42              	.LVL2:
  43              	.L3:
  12:test/ThreadSleep_C_API_test.cpp ****     while (--i > 0) {
  44              		.loc 1 12 5 is_stmt 1
  45              		.loc 1 12 16
GAS LISTING /tmp/ccq5LnY6.s 			page 2


  46 0020 9B84F4FF 		addiw	s1,s1,-1
  47              	.LVL3:
  48 0024 63549004 		blez	s1,.L2
  13:test/ThreadSleep_C_API_test.cpp **** 
  14:test/ThreadSleep_C_API_test.cpp ****         printString("Hello ");
  49              		.loc 1 14 9
  50              		.loc 1 14 20 is_stmt 0
  51 0028 17050000 		lla	a0,.LC0
  51      13050500 
  52 0030 97000000 		call	_Z11printStringPKc@plt
  52      E7800000 
  53              	.LVL4:
  15:test/ThreadSleep_C_API_test.cpp ****         printInt(sleep_time);
  54              		.loc 1 15 9 is_stmt 1
  55              		.loc 1 15 17 is_stmt 0
  56 0038 13060000 		li	a2,0
  57 003c 9305A000 		li	a1,10
  58 0040 1B050900 		sext.w	a0,s2
  59 0044 97000000 		call	_Z8printIntiii@plt
  59      E7800000 
  60              	.LVL5:
  16:test/ThreadSleep_C_API_test.cpp ****         printString(" !\n");
  61              		.loc 1 16 9 is_stmt 1
  62              		.loc 1 16 20 is_stmt 0
  63 004c 17050000 		lla	a0,.LC1
  63      13050500 
  64 0054 97000000 		call	_Z11printStringPKc@plt
  64      E7800000 
  65              	.LVL6:
  17:test/ThreadSleep_C_API_test.cpp ****         time_sleep(sleep_time);
  66              		.loc 1 17 9 is_stmt 1
  67              		.loc 1 17 19 is_stmt 0
  68 005c 13050900 		mv	a0,s2
  69 0060 97000000 		call	time_sleep@plt
  69      E7800000 
  70              	.LVL7:
  12:test/ThreadSleep_C_API_test.cpp **** 
  71              		.loc 1 12 5
  72 0068 6FF09FFB 		j	.L3
  73              	.L2:
  18:test/ThreadSleep_C_API_test.cpp ****     }
  19:test/ThreadSleep_C_API_test.cpp ****     finished[sleep_time/10-1] = true;
  74              		.loc 1 19 5 is_stmt 1
  75              		.loc 1 19 24 is_stmt 0
  76 006c 9307A000 		li	a5,10
  77 0070 3359F902 		divu	s2,s2,a5
  78              	.LVL8:
  79              		.loc 1 19 27
  80 0074 1309F9FF 		addi	s2,s2,-1
  81              		.loc 1 19 31
  82 0078 97070000 		lla	a5,.LANCHOR0
  82      93870700 
  83 0080 33892701 		add	s2,a5,s2
  84 0084 93071000 		li	a5,1
  85 0088 2300F900 		sb	a5,0(s2)
  20:test/ThreadSleep_C_API_test.cpp **** }
  86              		.loc 1 20 1
GAS LISTING /tmp/ccq5LnY6.s 			page 3


  87 008c 83308101 		ld	ra,24(sp)
  88              		.cfi_restore 1
  89 0090 03340101 		ld	s0,16(sp)
  90              		.cfi_restore 8
  91              		.cfi_def_cfa 2, 32
  92 0094 83348100 		ld	s1,8(sp)
  93              		.cfi_restore 9
  94 0098 03390100 		ld	s2,0(sp)
  95              		.cfi_restore 18
  96 009c 13010102 		addi	sp,sp,32
  97              		.cfi_def_cfa_offset 0
  98 00a0 67800000 		jr	ra
  99              		.cfi_endproc
 100              	.LFE0:
 102              		.align	2
 103              		.globl	_Z12testSleepingv
 105              	_Z12testSleepingv:
 106              	.LFB1:
  21:test/ThreadSleep_C_API_test.cpp **** 
  22:test/ThreadSleep_C_API_test.cpp **** void testSleeping() {
 107              		.loc 1 22 21 is_stmt 1
 108              		.cfi_startproc
 109 00a4 130101FC 		addi	sp,sp,-64
 110              		.cfi_def_cfa_offset 64
 111 00a8 233C1102 		sd	ra,56(sp)
 112 00ac 23388102 		sd	s0,48(sp)
 113 00b0 23349102 		sd	s1,40(sp)
 114              		.cfi_offset 1, -8
 115              		.cfi_offset 8, -16
 116              		.cfi_offset 9, -24
 117 00b4 13040104 		addi	s0,sp,64
 118              		.cfi_def_cfa 8, 0
  23:test/ThreadSleep_C_API_test.cpp ****     const int sleepy_thread_count = 2;
 119              		.loc 1 23 5
 120              	.LVL9:
  24:test/ThreadSleep_C_API_test.cpp ****     time_t sleep_times[sleepy_thread_count] = {10, 20};
 121              		.loc 1 24 5
 122              		.loc 1 24 12 is_stmt 0
 123 00b8 9307A000 		li	a5,10
 124 00bc 2338F4FC 		sd	a5,-48(s0)
 125 00c0 93074001 		li	a5,20
 126 00c4 233CF4FC 		sd	a5,-40(s0)
  25:test/ThreadSleep_C_API_test.cpp ****     thread_t sleepyThread[sleepy_thread_count];
 127              		.loc 1 25 5 is_stmt 1
  26:test/ThreadSleep_C_API_test.cpp **** 
  27:test/ThreadSleep_C_API_test.cpp ****     for (int i = 0; i < sleepy_thread_count; i++) {
 128              		.loc 1 27 5
 129              	.LVL10:
 130              	.LBB2:
 131              		.loc 1 27 14 is_stmt 0
 132 00c8 93040000 		li	s1,0
 133 00cc 6F00C002 		j	.L7
 134              	.LVL11:
 135              	.L10:
  28:test/ThreadSleep_C_API_test.cpp ****         thread_create(&sleepyThread[i], sleepyRun, sleep_times + i);
 136              		.loc 1 28 9 is_stmt 1
 137              		.loc 1 28 64 is_stmt 0
GAS LISTING /tmp/ccq5LnY6.s 			page 4


 138 00d0 93973400 		slli	a5,s1,3
 139              		.loc 1 28 22
 140 00d4 130604FD 		addi	a2,s0,-48
 141 00d8 3306F600 		add	a2,a2,a5
 142 00dc 97050000 		lla	a1,_Z9sleepyRunPv
 142      93850500 
 143 00e4 130504FC 		addi	a0,s0,-64
 144 00e8 3305F500 		add	a0,a0,a5
 145 00ec 97000000 		call	thread_create@plt
 145      E7800000 
 146              	.LVL12:
  27:test/ThreadSleep_C_API_test.cpp ****         thread_create(&sleepyThread[i], sleepyRun, sleep_times + i);
 147              		.loc 1 27 5 is_stmt 1
 148 00f4 9B841400 		addiw	s1,s1,1
 149              	.LVL13:
 150              	.L7:
  27:test/ThreadSleep_C_API_test.cpp ****         thread_create(&sleepyThread[i], sleepyRun, sleep_times + i);
 151              		.loc 1 27 23 discriminator 1
 152 00f8 93071000 		li	a5,1
 153 00fc E3DA97FC 		ble	s1,a5,.L10
 154              	.L8:
 155              	.LBE2:
  29:test/ThreadSleep_C_API_test.cpp ****     }
  30:test/ThreadSleep_C_API_test.cpp **** 
  31:test/ThreadSleep_C_API_test.cpp ****     while (!(finished[0] && finished[1])) {}
 156              		.loc 1 31 5
 157              		.loc 1 31 12
 158              		.loc 1 31 24 is_stmt 0
 159 0100 97070000 		lbu	a5,.LANCHOR0
 159      83C70700 
 160              		.loc 1 31 12
 161 0108 E38C07FE 		beqz	a5,.L8
 162              		.loc 1 31 39 discriminator 1
 163 010c 97070000 		lbu	a5,.LANCHOR0+1
 163      83C70700 
 164              		.loc 1 31 12 discriminator 1
 165 0114 E38607FE 		beqz	a5,.L8
  32:test/ThreadSleep_C_API_test.cpp **** }...
 166              		.loc 1 32 1
 167 0118 83308103 		ld	ra,56(sp)
 168              		.cfi_restore 1
 169 011c 03340103 		ld	s0,48(sp)
 170              		.cfi_restore 8
 171              		.cfi_def_cfa 2, 64
 172 0120 83348102 		ld	s1,40(sp)
 173              		.cfi_restore 9
 174              	.LVL14:
 175 0124 13010104 		addi	sp,sp,64
 176              		.cfi_def_cfa_offset 0
 177 0128 67800000 		jr	ra
 178              		.cfi_endproc
 179              	.LFE1:
 181              		.globl	finished
 182              		.bss
 183              		.align	3
 184              		.set	.LANCHOR0,. + 0
 187              	finished:
GAS LISTING /tmp/ccq5LnY6.s 			page 5


 188 0000 0000     		.zero	2
 189              		.text
 190              	.Letext0:
 191              		.file 2 "test/../h/../lib/hw.h"
 192              		.file 3 "test/../h/syscall_c.h"
 193              		.file 4 "test/printing.hpp"
GAS LISTING /tmp/ccq5LnY6.s 			page 6


DEFINED SYMBOLS
                            *ABS*:0000000000000000 ThreadSleep_C_API_test.cpp
     /tmp/ccq5LnY6.s:17     .text:0000000000000000 _Z9sleepyRunPv
     /tmp/ccq5LnY6.s:21     .text:0000000000000000 .L0 
     /tmp/ccq5LnY6.s:23     .text:0000000000000000 .L0 
     /tmp/ccq5LnY6.s:24     .text:0000000000000004 .L0 
     /tmp/ccq5LnY6.s:29     .text:0000000000000014 .L0 
     /tmp/ccq5LnY6.s:30     .text:0000000000000014 .L0 
     /tmp/ccq5LnY6.s:31     .text:0000000000000014 .L0 
     /tmp/ccq5LnY6.s:32     .text:0000000000000014 .L0 
     /tmp/ccq5LnY6.s:34     .text:0000000000000018 .L0 
     /tmp/ccq5LnY6.s:36     .text:0000000000000018 .L0 
     /tmp/ccq5LnY6.s:37     .text:0000000000000018 .L0 
     /tmp/ccq5LnY6.s:40     .text:000000000000001c .L0 
     /tmp/ccq5LnY6.s:41     .text:000000000000001c .L0 
     /tmp/ccq5LnY6.s:45     .text:0000000000000020 .L0 
     /tmp/ccq5LnY6.s:46     .text:0000000000000020 .L0 
     /tmp/ccq5LnY6.s:50     .text:0000000000000028 .L0 
     /tmp/ccq5LnY6.s:51     .text:0000000000000028 .L0 
     /tmp/ccq5LnY6.s:55     .text:0000000000000038 .L0 
     /tmp/ccq5LnY6.s:56     .text:0000000000000038 .L0 
     /tmp/ccq5LnY6.s:62     .text:000000000000004c .L0 
     /tmp/ccq5LnY6.s:63     .text:000000000000004c .L0 
     /tmp/ccq5LnY6.s:67     .text:000000000000005c .L0 
     /tmp/ccq5LnY6.s:68     .text:000000000000005c .L0 
     /tmp/ccq5LnY6.s:72     .text:0000000000000068 .L0 
     /tmp/ccq5LnY6.s:75     .text:000000000000006c .L0 
     /tmp/ccq5LnY6.s:76     .text:000000000000006c .L0 
     /tmp/ccq5LnY6.s:80     .text:0000000000000074 .L0 
     /tmp/ccq5LnY6.s:82     .text:0000000000000078 .L0 
     /tmp/ccq5LnY6.s:87     .text:000000000000008c .L0 
     /tmp/ccq5LnY6.s:88     .text:0000000000000090 .L0 
     /tmp/ccq5LnY6.s:90     .text:0000000000000094 .L0 
     /tmp/ccq5LnY6.s:91     .text:0000000000000094 .L0 
     /tmp/ccq5LnY6.s:93     .text:0000000000000098 .L0 
     /tmp/ccq5LnY6.s:95     .text:000000000000009c .L0 
     /tmp/ccq5LnY6.s:97     .text:00000000000000a0 .L0 
     /tmp/ccq5LnY6.s:99     .text:00000000000000a4 .L0 
     /tmp/ccq5LnY6.s:105    .text:00000000000000a4 _Z12testSleepingv
     /tmp/ccq5LnY6.s:108    .text:00000000000000a4 .L0 
     /tmp/ccq5LnY6.s:109    .text:00000000000000a4 .L0 
     /tmp/ccq5LnY6.s:110    .text:00000000000000a8 .L0 
     /tmp/ccq5LnY6.s:114    .text:00000000000000b4 .L0 
     /tmp/ccq5LnY6.s:115    .text:00000000000000b4 .L0 
     /tmp/ccq5LnY6.s:116    .text:00000000000000b4 .L0 
     /tmp/ccq5LnY6.s:118    .text:00000000000000b8 .L0 
     /tmp/ccq5LnY6.s:121    .text:00000000000000b8 .L0 
     /tmp/ccq5LnY6.s:122    .text:00000000000000b8 .L0 
     /tmp/ccq5LnY6.s:123    .text:00000000000000b8 .L0 
     /tmp/ccq5LnY6.s:128    .text:00000000000000c8 .L0 
     /tmp/ccq5LnY6.s:131    .text:00000000000000c8 .L0 
     /tmp/ccq5LnY6.s:132    .text:00000000000000c8 .L0 
     /tmp/ccq5LnY6.s:137    .text:00000000000000d0 .L0 
     /tmp/ccq5LnY6.s:138    .text:00000000000000d0 .L0 
     /tmp/ccq5LnY6.s:140    .text:00000000000000d4 .L0 
     /tmp/ccq5LnY6.s:148    .text:00000000000000f4 .L0 
     /tmp/ccq5LnY6.s:152    .text:00000000000000f8 .L0 
GAS LISTING /tmp/ccq5LnY6.s 			page 7


     /tmp/ccq5LnY6.s:157    .text:0000000000000100 .L0 
     /tmp/ccq5LnY6.s:158    .text:0000000000000100 .L0 
     /tmp/ccq5LnY6.s:159    .text:0000000000000100 .L0 
     /tmp/ccq5LnY6.s:161    .text:0000000000000108 .L0 
     /tmp/ccq5LnY6.s:163    .text:000000000000010c .L0 
     /tmp/ccq5LnY6.s:165    .text:0000000000000114 .L0 
     /tmp/ccq5LnY6.s:167    .text:0000000000000118 .L0 
     /tmp/ccq5LnY6.s:168    .text:000000000000011c .L0 
     /tmp/ccq5LnY6.s:170    .text:0000000000000120 .L0 
     /tmp/ccq5LnY6.s:171    .text:0000000000000120 .L0 
     /tmp/ccq5LnY6.s:173    .text:0000000000000124 .L0 
     /tmp/ccq5LnY6.s:176    .text:0000000000000128 .L0 
     /tmp/ccq5LnY6.s:178    .text:000000000000012c .L0 
     /tmp/ccq5LnY6.s:187    .bss:0000000000000000 finished
     /tmp/ccq5LnY6.s:184    .bss:0000000000000000 .LANCHOR0
     /tmp/ccq5LnY6.s:194    .text:000000000000012c .L0 
     /tmp/ccq5LnY6.s:8      .rodata.str1.8:0000000000000000 .LC0
     /tmp/ccq5LnY6.s:51     .text:0000000000000028 .L0 
     /tmp/ccq5LnY6.s:11     .rodata.str1.8:0000000000000008 .LC1
     /tmp/ccq5LnY6.s:63     .text:000000000000004c .L0 
     /tmp/ccq5LnY6.s:82     .text:0000000000000078 .L0 
     /tmp/ccq5LnY6.s:142    .text:00000000000000dc .L0 
     /tmp/ccq5LnY6.s:159    .text:0000000000000100 .L0 
     /tmp/ccq5LnY6.s:163    .text:000000000000010c .L0 
     /tmp/ccq5LnY6.s:73     .text:000000000000006c .L2
     /tmp/ccq5LnY6.s:43     .text:0000000000000020 .L3
     /tmp/ccq5LnY6.s:150    .text:00000000000000f8 .L7
     /tmp/ccq5LnY6.s:135    .text:00000000000000d0 .L10
     /tmp/ccq5LnY6.s:154    .text:0000000000000100 .L8
     /tmp/ccq5LnY6.s:565    .debug_abbrev:0000000000000000 .Ldebug_abbrev0
     /tmp/ccq5LnY6.s:971    .debug_str:0000000000000064 .LASF35
     /tmp/ccq5LnY6.s:983    .debug_str:000000000000018a .LASF36
     /tmp/ccq5LnY6.s:977    .debug_str:0000000000000149 .LASF37
     /tmp/ccq5LnY6.s:5      .text:0000000000000000 .Ltext0
     /tmp/ccq5LnY6.s:190    .text:000000000000012c .Letext0
     /tmp/ccq5LnY6.s:953    .debug_line:0000000000000000 .Ldebug_line0
     /tmp/ccq5LnY6.s:957    .debug_str:000000000000000c .LASF0
     /tmp/ccq5LnY6.s:1009   .debug_str:0000000000000253 .LASF1
     /tmp/ccq5LnY6.s:991    .debug_str:00000000000001c4 .LASF2
     /tmp/ccq5LnY6.s:1021   .debug_str:00000000000002ad .LASF4
     /tmp/ccq5LnY6.s:973    .debug_str:0000000000000128 .LASF3
     /tmp/ccq5LnY6.s:963    .debug_str:0000000000000036 .LASF5
     /tmp/ccq5LnY6.s:995    .debug_str:00000000000001e0 .LASF6
     /tmp/ccq5LnY6.s:981    .debug_str:0000000000000177 .LASF7
     /tmp/ccq5LnY6.s:1007   .debug_str:0000000000000240 .LASF8
     /tmp/ccq5LnY6.s:1023   .debug_str:00000000000002b4 .LASF9
     /tmp/ccq5LnY6.s:959    .debug_str:0000000000000019 .LASF10
     /tmp/ccq5LnY6.s:961    .debug_str:0000000000000027 .LASF11
     /tmp/ccq5LnY6.s:1013   .debug_str:0000000000000276 .LASF12
     /tmp/ccq5LnY6.s:965    .debug_str:000000000000003d .LASF13
     /tmp/ccq5LnY6.s:1011   .debug_str:0000000000000266 .LASF14
     /tmp/ccq5LnY6.s:989    .debug_str:00000000000001b8 .LASF15
     /tmp/ccq5LnY6.s:1001   .debug_str:000000000000020c .LASF16
     /tmp/ccq5LnY6.s:997    .debug_str:00000000000001e7 .LASF17
     /tmp/ccq5LnY6.s:987    .debug_str:00000000000001af .LASF18
     /tmp/ccq5LnY6.s:985    .debug_str:00000000000001aa .LASF19
     /tmp/ccq5LnY6.s:1025   .debug_str:00000000000002c4 .LASF20
GAS LISTING /tmp/ccq5LnY6.s 			page 8


     /tmp/ccq5LnY6.s:1029   .debug_str:00000000000002e0 .LASF24
     /tmp/ccq5LnY6.s:1015   .debug_str:0000000000000285 .LASF26
     /tmp/ccq5LnY6.s:106    .text:00000000000000a4 .LFB1
     /tmp/ccq5LnY6.s:179    .text:000000000000012c .LFE1
     /tmp/ccq5LnY6.s:1005   .debug_str:000000000000022c .LASF21
     /tmp/ccq5LnY6.s:955    .debug_str:0000000000000000 .LASF22
     /tmp/ccq5LnY6.s:1017   .debug_str:0000000000000297 .LASF23
     /tmp/ccq5LnY6.s:130    .text:00000000000000c8 .LBB2
     /tmp/ccq5LnY6.s:155    .text:0000000000000100 .LBE2
     /tmp/ccq5LnY6.s:895    .debug_loc:0000000000000000 .LLST3
     /tmp/ccq5LnY6.s:146    .text:00000000000000f4 .LVL12
     /tmp/ccq5LnY6.s:1003   .debug_str:0000000000000222 .LASF25
     /tmp/ccq5LnY6.s:975    .debug_str:000000000000013a .LASF27
     /tmp/ccq5LnY6.s:18     .text:0000000000000000 .LFB0
     /tmp/ccq5LnY6.s:100    .text:00000000000000a4 .LFE0
     /tmp/ccq5LnY6.s:907    .debug_loc:0000000000000037 .LLST0
     /tmp/ccq5LnY6.s:979    .debug_str:000000000000016c .LASF28
     /tmp/ccq5LnY6.s:921    .debug_loc:0000000000000070 .LLST1
     /tmp/ccq5LnY6.s:928    .debug_loc:0000000000000093 .LLST2
     /tmp/ccq5LnY6.s:53     .text:0000000000000038 .LVL4
     /tmp/ccq5LnY6.s:60     .text:000000000000004c .LVL5
     /tmp/ccq5LnY6.s:65     .text:000000000000005c .LVL6
     /tmp/ccq5LnY6.s:70     .text:0000000000000068 .LVL7
     /tmp/ccq5LnY6.s:993    .debug_str:00000000000001d2 .LASF29
     /tmp/ccq5LnY6.s:1027   .debug_str:00000000000002cd .LASF30
     /tmp/ccq5LnY6.s:967    .debug_str:000000000000004d .LASF31
     /tmp/ccq5LnY6.s:999    .debug_str:00000000000001fd .LASF32
     /tmp/ccq5LnY6.s:1019   .debug_str:00000000000002a4 .LASF33
     /tmp/ccq5LnY6.s:969    .debug_str:0000000000000059 .LASF34
     /tmp/ccq5LnY6.s:129    .text:00000000000000c8 .LVL10
     /tmp/ccq5LnY6.s:134    .text:00000000000000d0 .LVL11
     /tmp/ccq5LnY6.s:174    .text:0000000000000124 .LVL14
     /tmp/ccq5LnY6.s:22     .text:0000000000000000 .LVL0
     /tmp/ccq5LnY6.s:42     .text:0000000000000020 .LVL2
     /tmp/ccq5LnY6.s:38     .text:000000000000001c .LVL1
     /tmp/ccq5LnY6.s:78     .text:0000000000000074 .LVL8
     /tmp/ccq5LnY6.s:47     .text:0000000000000024 .LVL3
     /tmp/ccq5LnY6.s:195    .debug_info:0000000000000000 .Ldebug_info0

UNDEFINED SYMBOLS
_Z11printStringPKc
_Z8printIntiii
time_sleep
thread_create
