GAS LISTING /tmp/ccPPXEGX.s 			page 1


   1              		.file	"Threads_C_API_test.cpp"
   2              		.option pic
   3              		.option norelax
   4              		.text
   5              	.Ltext0:
   6              		.section	.rodata.str1.8,"aMS",@progbits,1
   7              		.align	3
   8              	.LC0:
   9 0000 413A2069 		.string	"A: i="
   9      3D00
  10 0006 0000     		.align	3
  11              	.LC1:
  12 0008 0A00     		.string	"\n"
  13 000a 00000000 		.align	3
  13      0000
  14              	.LC2:
  15 0010 41206669 		.string	"A finished!\n"
  15      6E697368 
  15      6564210A 
  15      00
  16              		.text
  17              		.align	2
  18              		.globl	_Z11workerBodyAPv
  20              	_Z11workerBodyAPv:
  21              	.LFB1:
  22              		.file 1 "test/Threads_C_API_test.cpp"
   1:test/Threads_C_API_test.cpp **** //
   2:test/Threads_C_API_test.cpp **** // Created by os on 5/16/22.
   3:test/Threads_C_API_test.cpp **** //
   4:test/Threads_C_API_test.cpp **** 
   5:test/Threads_C_API_test.cpp **** #include "Threads_C_API_test.hpp"
   6:test/Threads_C_API_test.cpp **** 
   7:test/Threads_C_API_test.cpp **** bool finishedA = false;
   8:test/Threads_C_API_test.cpp **** bool finishedB = false;
   9:test/Threads_C_API_test.cpp **** bool finishedC = false;
  10:test/Threads_C_API_test.cpp **** bool finishedD = false;
  11:test/Threads_C_API_test.cpp **** 
  12:test/Threads_C_API_test.cpp **** uint64 fibonacci(uint64 n) {
  13:test/Threads_C_API_test.cpp ****     if (n == 0 || n == 1) { return n; }
  14:test/Threads_C_API_test.cpp ****     if (n % 10 == 0) { thread_dispatch(); }
  15:test/Threads_C_API_test.cpp ****     return fibonacci(n - 1) + fibonacci(n - 2);
  16:test/Threads_C_API_test.cpp **** }
  17:test/Threads_C_API_test.cpp **** 
  18:test/Threads_C_API_test.cpp **** void workerBodyA(void* arg) {
  23              		.loc 1 18 29
  24              		.cfi_startproc
  25              	.LVL0:
  26 0000 130101FE 		addi	sp,sp,-32
  27              		.cfi_def_cfa_offset 32
  28 0004 233C1100 		sd	ra,24(sp)
  29 0008 23388100 		sd	s0,16(sp)
  30 000c 23349100 		sd	s1,8(sp)
  31 0010 23302101 		sd	s2,0(sp)
  32              		.cfi_offset 1, -8
  33              		.cfi_offset 8, -16
  34              		.cfi_offset 9, -24
  35              		.cfi_offset 18, -32
GAS LISTING /tmp/ccPPXEGX.s 			page 2


  36 0014 13040102 		addi	s0,sp,32
  37              		.cfi_def_cfa 8, 0
  19:test/Threads_C_API_test.cpp ****     for (uint64 i = 0; i < 10; i++) {
  38              		.loc 1 19 5
  39              	.LVL1:
  40              	.LBB2:
  41              		.loc 1 19 17 is_stmt 0
  42 0018 13090000 		li	s2,0
  43 001c 6F008003 		j	.L7
  44              	.LVL2:
  45              	.L4:
  46              	.LBB3:
  47              	.LBB4:
  48              	.LBB5:
  20:test/Threads_C_API_test.cpp ****         printString("A: i="); printInt(i); printString("\n");
  21:test/Threads_C_API_test.cpp ****         for (uint64 j = 0; j < 10000; j++) {
  22:test/Threads_C_API_test.cpp ****             for (uint64 k = 0; k < 30000; k++) { /* busy wait */ }
  23:test/Threads_C_API_test.cpp ****             thread_dispatch();
  49              		.loc 1 23 13 is_stmt 1 discriminator 2
  50              		.loc 1 23 28 is_stmt 0 discriminator 2
  51 0020 97000000 		call	thread_dispatch@plt
  51      E7800000 
  52              	.LVL3:
  53              	.LBE5:
  21:test/Threads_C_API_test.cpp ****             for (uint64 k = 0; k < 30000; k++) { /* busy wait */ }
  54              		.loc 1 21 9 is_stmt 1 discriminator 2
  55 0028 93841400 		addi	s1,s1,1
  56              	.LVL4:
  57              	.L6:
  21:test/Threads_C_API_test.cpp ****             for (uint64 k = 0; k < 30000; k++) { /* busy wait */ }
  58              		.loc 1 21 30 discriminator 1
  59 002c B7270000 		li	a5,8192
  60 0030 9387F770 		addi	a5,a5,1807
  61 0034 63EE9700 		bgtu	s1,a5,.L3
  62              	.LBB7:
  63              	.LBB6:
  22:test/Threads_C_API_test.cpp ****             thread_dispatch();
  64              		.loc 1 22 25 is_stmt 0
  65 0038 13070000 		li	a4,0
  66              	.L5:
  67              	.LVL5:
  22:test/Threads_C_API_test.cpp ****             thread_dispatch();
  68              		.loc 1 22 34 is_stmt 1 discriminator 3
  69 003c B7770000 		li	a5,28672
  70 0040 9387F752 		addi	a5,a5,1327
  71 0044 E3EEE7FC 		bgtu	a4,a5,.L4
  22:test/Threads_C_API_test.cpp ****             thread_dispatch();
  72              		.loc 1 22 13 discriminator 2
  73 0048 13071700 		addi	a4,a4,1
  74              	.LVL6:
  75 004c 6FF01FFF 		j	.L5
  76              	.LVL7:
  77              	.L3:
  78              	.LBE6:
  79              	.LBE7:
  80              	.LBE4:
  81              	.LBE3:
GAS LISTING /tmp/ccPPXEGX.s 			page 3


  19:test/Threads_C_API_test.cpp ****         printString("A: i="); printInt(i); printString("\n");
  82              		.loc 1 19 5 discriminator 2
  83 0050 13091900 		addi	s2,s2,1
  84              	.LVL8:
  85              	.L7:
  19:test/Threads_C_API_test.cpp ****         printString("A: i="); printInt(i); printString("\n");
  86              		.loc 1 19 26 discriminator 1
  87 0054 93079000 		li	a5,9
  88 0058 63E02705 		bgtu	s2,a5,.L2
  89              	.LBB9:
  20:test/Threads_C_API_test.cpp ****         for (uint64 j = 0; j < 10000; j++) {
  90              		.loc 1 20 9
  20:test/Threads_C_API_test.cpp ****         for (uint64 j = 0; j < 10000; j++) {
  91              		.loc 1 20 20 is_stmt 0
  92 005c 17050000 		lla	a0,.LC0
  92      13050500 
  93 0064 97000000 		call	_Z11printStringPKc@plt
  93      E7800000 
  94              	.LVL9:
  20:test/Threads_C_API_test.cpp ****         for (uint64 j = 0; j < 10000; j++) {
  95              		.loc 1 20 31 is_stmt 1
  20:test/Threads_C_API_test.cpp ****         for (uint64 j = 0; j < 10000; j++) {
  96              		.loc 1 20 39 is_stmt 0
  97 006c 13060000 		li	a2,0
  98 0070 9305A000 		li	a1,10
  99 0074 1B050900 		sext.w	a0,s2
 100 0078 97000000 		call	_Z8printIntiii@plt
 100      E7800000 
 101              	.LVL10:
  20:test/Threads_C_API_test.cpp ****         for (uint64 j = 0; j < 10000; j++) {
 102              		.loc 1 20 44 is_stmt 1
  20:test/Threads_C_API_test.cpp ****         for (uint64 j = 0; j < 10000; j++) {
 103              		.loc 1 20 55 is_stmt 0
 104 0080 17050000 		lla	a0,.LC1
 104      13050500 
 105 0088 97000000 		call	_Z11printStringPKc@plt
 105      E7800000 
 106              	.LVL11:
  21:test/Threads_C_API_test.cpp ****             for (uint64 k = 0; k < 30000; k++) { /* busy wait */ }
 107              		.loc 1 21 9 is_stmt 1
 108              	.LBB8:
  21:test/Threads_C_API_test.cpp ****             for (uint64 k = 0; k < 30000; k++) { /* busy wait */ }
 109              		.loc 1 21 21 is_stmt 0
 110 0090 93040000 		li	s1,0
 111 0094 6FF09FF9 		j	.L6
 112              	.LVL12:
 113              	.L2:
 114              	.LBE8:
 115              	.LBE9:
 116              	.LBE2:
  24:test/Threads_C_API_test.cpp ****         }
  25:test/Threads_C_API_test.cpp ****     }
  26:test/Threads_C_API_test.cpp ****     printString("A finished!\n");
 117              		.loc 1 26 5 is_stmt 1
 118              		.loc 1 26 16 is_stmt 0
 119 0098 17050000 		lla	a0,.LC2
 119      13050500 
GAS LISTING /tmp/ccPPXEGX.s 			page 4


 120 00a0 97000000 		call	_Z11printStringPKc@plt
 120      E7800000 
 121              	.LVL13:
  27:test/Threads_C_API_test.cpp ****     finishedA = true;
 122              		.loc 1 27 5 is_stmt 1
 123              		.loc 1 27 15 is_stmt 0
 124 00a8 93071000 		li	a5,1
 125 00ac 17070000 		sb	a5,.LANCHOR0,a4
 125      2300F700 
  28:test/Threads_C_API_test.cpp **** }
 126              		.loc 1 28 1
 127 00b4 83308101 		ld	ra,24(sp)
 128              		.cfi_restore 1
 129 00b8 03340101 		ld	s0,16(sp)
 130              		.cfi_restore 8
 131              		.cfi_def_cfa 2, 32
 132 00bc 83348100 		ld	s1,8(sp)
 133              		.cfi_restore 9
 134 00c0 03390100 		ld	s2,0(sp)
 135              		.cfi_restore 18
 136              	.LVL14:
 137 00c4 13010102 		addi	sp,sp,32
 138              		.cfi_def_cfa_offset 0
 139 00c8 67800000 		jr	ra
 140              		.cfi_endproc
 141              	.LFE1:
 143              		.section	.rodata.str1.8
 144 001d 000000   		.align	3
 145              	.LC3:
 146 0020 423A2069 		.string	"B: i="
 146      3D00
 147 0026 0000     		.align	3
 148              	.LC4:
 149 0028 42206669 		.string	"B finished!\n"
 149      6E697368 
 149      6564210A 
 149      00
 150              		.text
 151              		.align	2
 152              		.globl	_Z11workerBodyBPv
 154              	_Z11workerBodyBPv:
 155              	.LFB2:
  29:test/Threads_C_API_test.cpp **** 
  30:test/Threads_C_API_test.cpp **** void workerBodyB(void* arg) {
 156              		.loc 1 30 29 is_stmt 1
 157              		.cfi_startproc
 158              	.LVL15:
 159 00cc 130101FE 		addi	sp,sp,-32
 160              		.cfi_def_cfa_offset 32
 161 00d0 233C1100 		sd	ra,24(sp)
 162 00d4 23388100 		sd	s0,16(sp)
 163 00d8 23349100 		sd	s1,8(sp)
 164 00dc 23302101 		sd	s2,0(sp)
 165              		.cfi_offset 1, -8
 166              		.cfi_offset 8, -16
 167              		.cfi_offset 9, -24
 168              		.cfi_offset 18, -32
GAS LISTING /tmp/ccPPXEGX.s 			page 5


 169 00e0 13040102 		addi	s0,sp,32
 170              		.cfi_def_cfa 8, 0
  31:test/Threads_C_API_test.cpp ****     for (uint64 i = 0; i < 16; i++) {
 171              		.loc 1 31 5
 172              	.LVL16:
 173              	.LBB10:
 174              		.loc 1 31 17 is_stmt 0
 175 00e4 13090000 		li	s2,0
 176 00e8 6F008003 		j	.L15
 177              	.LVL17:
 178              	.L12:
 179              	.LBB11:
 180              	.LBB12:
 181              	.LBB13:
  32:test/Threads_C_API_test.cpp ****         printString("B: i="); printInt(i); printString("\n");
  33:test/Threads_C_API_test.cpp ****         for (uint64 j = 0; j < 10000; j++) {
  34:test/Threads_C_API_test.cpp ****             for (uint64 k = 0; k < 30000; k++) { /* busy wait */ }
  35:test/Threads_C_API_test.cpp ****             thread_dispatch();
 182              		.loc 1 35 13 is_stmt 1 discriminator 2
 183              		.loc 1 35 28 is_stmt 0 discriminator 2
 184 00ec 97000000 		call	thread_dispatch@plt
 184      E7800000 
 185              	.LVL18:
 186              	.LBE13:
  33:test/Threads_C_API_test.cpp ****             for (uint64 k = 0; k < 30000; k++) { /* busy wait */ }
 187              		.loc 1 33 9 is_stmt 1 discriminator 2
 188 00f4 93841400 		addi	s1,s1,1
 189              	.LVL19:
 190              	.L14:
  33:test/Threads_C_API_test.cpp ****             for (uint64 k = 0; k < 30000; k++) { /* busy wait */ }
 191              		.loc 1 33 30 discriminator 1
 192 00f8 B7270000 		li	a5,8192
 193 00fc 9387F770 		addi	a5,a5,1807
 194 0100 63EE9700 		bgtu	s1,a5,.L11
 195              	.LBB15:
 196              	.LBB14:
  34:test/Threads_C_API_test.cpp ****             thread_dispatch();
 197              		.loc 1 34 25 is_stmt 0
 198 0104 13070000 		li	a4,0
 199              	.L13:
 200              	.LVL20:
  34:test/Threads_C_API_test.cpp ****             thread_dispatch();
 201              		.loc 1 34 34 is_stmt 1 discriminator 3
 202 0108 B7770000 		li	a5,28672
 203 010c 9387F752 		addi	a5,a5,1327
 204 0110 E3EEE7FC 		bgtu	a4,a5,.L12
  34:test/Threads_C_API_test.cpp ****             thread_dispatch();
 205              		.loc 1 34 13 discriminator 2
 206 0114 13071700 		addi	a4,a4,1
 207              	.LVL21:
 208 0118 6FF01FFF 		j	.L13
 209              	.LVL22:
 210              	.L11:
 211              	.LBE14:
 212              	.LBE15:
 213              	.LBE12:
 214              	.LBE11:
GAS LISTING /tmp/ccPPXEGX.s 			page 6


  31:test/Threads_C_API_test.cpp ****         printString("B: i="); printInt(i); printString("\n");
 215              		.loc 1 31 5 discriminator 2
 216 011c 13091900 		addi	s2,s2,1
 217              	.LVL23:
 218              	.L15:
  31:test/Threads_C_API_test.cpp ****         printString("B: i="); printInt(i); printString("\n");
 219              		.loc 1 31 26 discriminator 1
 220 0120 9307F000 		li	a5,15
 221 0124 63E02705 		bgtu	s2,a5,.L10
 222              	.LBB17:
  32:test/Threads_C_API_test.cpp ****         for (uint64 j = 0; j < 10000; j++) {
 223              		.loc 1 32 9
  32:test/Threads_C_API_test.cpp ****         for (uint64 j = 0; j < 10000; j++) {
 224              		.loc 1 32 20 is_stmt 0
 225 0128 17050000 		lla	a0,.LC3
 225      13050500 
 226 0130 97000000 		call	_Z11printStringPKc@plt
 226      E7800000 
 227              	.LVL24:
  32:test/Threads_C_API_test.cpp ****         for (uint64 j = 0; j < 10000; j++) {
 228              		.loc 1 32 31 is_stmt 1
  32:test/Threads_C_API_test.cpp ****         for (uint64 j = 0; j < 10000; j++) {
 229              		.loc 1 32 39 is_stmt 0
 230 0138 13060000 		li	a2,0
 231 013c 9305A000 		li	a1,10
 232 0140 1B050900 		sext.w	a0,s2
 233 0144 97000000 		call	_Z8printIntiii@plt
 233      E7800000 
 234              	.LVL25:
  32:test/Threads_C_API_test.cpp ****         for (uint64 j = 0; j < 10000; j++) {
 235              		.loc 1 32 44 is_stmt 1
  32:test/Threads_C_API_test.cpp ****         for (uint64 j = 0; j < 10000; j++) {
 236              		.loc 1 32 55 is_stmt 0
 237 014c 17050000 		lla	a0,.LC1
 237      13050500 
 238 0154 97000000 		call	_Z11printStringPKc@plt
 238      E7800000 
 239              	.LVL26:
  33:test/Threads_C_API_test.cpp ****             for (uint64 k = 0; k < 30000; k++) { /* busy wait */ }
 240              		.loc 1 33 9 is_stmt 1
 241              	.LBB16:
  33:test/Threads_C_API_test.cpp ****             for (uint64 k = 0; k < 30000; k++) { /* busy wait */ }
 242              		.loc 1 33 21 is_stmt 0
 243 015c 93040000 		li	s1,0
 244 0160 6FF09FF9 		j	.L14
 245              	.LVL27:
 246              	.L10:
 247              	.LBE16:
 248              	.LBE17:
 249              	.LBE10:
  36:test/Threads_C_API_test.cpp ****         }
  37:test/Threads_C_API_test.cpp ****     }
  38:test/Threads_C_API_test.cpp ****     printString("B finished!\n");
 250              		.loc 1 38 5 is_stmt 1
 251              		.loc 1 38 16 is_stmt 0
 252 0164 17050000 		lla	a0,.LC4
 252      13050500 
GAS LISTING /tmp/ccPPXEGX.s 			page 7


 253 016c 97000000 		call	_Z11printStringPKc@plt
 253      E7800000 
 254              	.LVL28:
  39:test/Threads_C_API_test.cpp ****     finishedB = true;
 255              		.loc 1 39 5 is_stmt 1
 256              		.loc 1 39 15 is_stmt 0
 257 0174 93071000 		li	a5,1
 258 0178 17070000 		sb	a5,.LANCHOR0+1,a4
 258      2300F700 
  40:test/Threads_C_API_test.cpp ****     thread_dispatch();
 259              		.loc 1 40 5 is_stmt 1
 260              		.loc 1 40 20 is_stmt 0
 261 0180 97000000 		call	thread_dispatch@plt
 261      E7800000 
 262              	.LVL29:
  41:test/Threads_C_API_test.cpp **** }
 263              		.loc 1 41 1
 264 0188 83308101 		ld	ra,24(sp)
 265              		.cfi_restore 1
 266 018c 03340101 		ld	s0,16(sp)
 267              		.cfi_restore 8
 268              		.cfi_def_cfa 2, 32
 269 0190 83348100 		ld	s1,8(sp)
 270              		.cfi_restore 9
 271 0194 03390100 		ld	s2,0(sp)
 272              		.cfi_restore 18
 273              	.LVL30:
 274 0198 13010102 		addi	sp,sp,32
 275              		.cfi_def_cfa_offset 0
 276 019c 67800000 		jr	ra
 277              		.cfi_endproc
 278              	.LFE2:
 280              		.align	2
 281              		.globl	_Z9fibonaccim
 283              	_Z9fibonaccim:
 284              	.LFB0:
  12:test/Threads_C_API_test.cpp ****     if (n == 0 || n == 1) { return n; }
 285              		.loc 1 12 28 is_stmt 1
 286              		.cfi_startproc
 287              	.LVL31:
 288 01a0 130101FE 		addi	sp,sp,-32
 289              		.cfi_def_cfa_offset 32
 290 01a4 233C1100 		sd	ra,24(sp)
 291 01a8 23388100 		sd	s0,16(sp)
 292 01ac 23349100 		sd	s1,8(sp)
 293 01b0 23302101 		sd	s2,0(sp)
 294              		.cfi_offset 1, -8
 295              		.cfi_offset 8, -16
 296              		.cfi_offset 9, -24
 297              		.cfi_offset 18, -32
 298 01b4 13040102 		addi	s0,sp,32
 299              		.cfi_def_cfa 8, 0
 300 01b8 93040500 		mv	s1,a0
  13:test/Threads_C_API_test.cpp ****     if (n % 10 == 0) { thread_dispatch(); }
 301              		.loc 1 13 5
 302 01bc 93071000 		li	a5,1
 303 01c0 63F8A702 		bleu	a0,a5,.L17
GAS LISTING /tmp/ccPPXEGX.s 			page 8


  14:test/Threads_C_API_test.cpp ****     return fibonacci(n - 1) + fibonacci(n - 2);
 304              		.loc 1 14 5
  14:test/Threads_C_API_test.cpp ****     return fibonacci(n - 1) + fibonacci(n - 2);
 305              		.loc 1 14 11 is_stmt 0
 306 01c4 9307A000 		li	a5,10
 307 01c8 B377F502 		remu	a5,a0,a5
  14:test/Threads_C_API_test.cpp ****     return fibonacci(n - 1) + fibonacci(n - 2);
 308              		.loc 1 14 5
 309 01cc 638E0702 		beqz	a5,.L22
 310              	.LVL32:
 311              	.L19:
  15:test/Threads_C_API_test.cpp **** }
 312              		.loc 1 15 5 is_stmt 1
  15:test/Threads_C_API_test.cpp **** }
 313              		.loc 1 15 21 is_stmt 0
 314 01d0 1385F4FF 		addi	a0,s1,-1
 315 01d4 97000000 		call	_Z9fibonaccim
 315      E7800000 
 316              	.LVL33:
 317 01dc 13090500 		mv	s2,a0
  15:test/Threads_C_API_test.cpp **** }
 318              		.loc 1 15 40
 319 01e0 1385E4FF 		addi	a0,s1,-2
 320 01e4 97000000 		call	_Z9fibonaccim
 320      E7800000 
 321              	.LVL34:
  15:test/Threads_C_API_test.cpp **** }
 322              		.loc 1 15 46
 323 01ec 3305A900 		add	a0,s2,a0
 324              	.L17:
  16:test/Threads_C_API_test.cpp **** 
 325              		.loc 1 16 1
 326 01f0 83308101 		ld	ra,24(sp)
 327              		.cfi_remember_state
 328              		.cfi_restore 1
 329 01f4 03340101 		ld	s0,16(sp)
 330              		.cfi_restore 8
 331              		.cfi_def_cfa 2, 32
 332 01f8 83348100 		ld	s1,8(sp)
 333              		.cfi_restore 9
 334              	.LVL35:
 335 01fc 03390100 		ld	s2,0(sp)
 336              		.cfi_restore 18
 337 0200 13010102 		addi	sp,sp,32
 338              		.cfi_def_cfa_offset 0
 339 0204 67800000 		jr	ra
 340              	.LVL36:
 341              	.L22:
 342              		.cfi_restore_state
  14:test/Threads_C_API_test.cpp ****     return fibonacci(n - 1) + fibonacci(n - 2);
 343              		.loc 1 14 24 is_stmt 1 discriminator 1
  14:test/Threads_C_API_test.cpp ****     return fibonacci(n - 1) + fibonacci(n - 2);
 344              		.loc 1 14 39 is_stmt 0 discriminator 1
 345 0208 97000000 		call	thread_dispatch@plt
 345      E7800000 
 346              	.LVL37:
 347 0210 6FF01FFC 		j	.L19
GAS LISTING /tmp/ccPPXEGX.s 			page 9


 348              		.cfi_endproc
 349              	.LFE0:
 351              		.section	.rodata.str1.8
 352 0035 000000   		.align	3
 353              	.LC5:
 354 0038 433A2069 		.string	"C: i="
 354      3D00
 355 003e 0000     		.align	3
 356              	.LC6:
 357 0040 433A2064 		.string	"C: dispatch\n"
 357      69737061 
 357      7463680A 
 357      00
 358 004d 000000   		.align	3
 359              	.LC7:
 360 0050 433A2074 		.string	"C: t1="
 360      313D00
 361 0057 00       		.align	3
 362              	.LC8:
 363 0058 433A2066 		.string	"C: fibonaci="
 363      69626F6E 
 363      6163693D 
 363      00
 364              		.text
 365              		.align	2
 366              		.globl	_Z11workerBodyCPv
 368              	_Z11workerBodyCPv:
 369              	.LFB3:
  42:test/Threads_C_API_test.cpp **** 
  43:test/Threads_C_API_test.cpp **** void workerBodyC(void* arg) {
 370              		.loc 1 43 29 is_stmt 1
 371              		.cfi_startproc
 372              	.LVL38:
 373 0214 130101FE 		addi	sp,sp,-32
 374              		.cfi_def_cfa_offset 32
 375 0218 233C1100 		sd	ra,24(sp)
 376 021c 23388100 		sd	s0,16(sp)
 377 0220 23349100 		sd	s1,8(sp)
 378 0224 23302101 		sd	s2,0(sp)
 379              		.cfi_offset 1, -8
 380              		.cfi_offset 8, -16
 381              		.cfi_offset 9, -24
 382              		.cfi_offset 18, -32
 383 0228 13040102 		addi	s0,sp,32
 384              		.cfi_def_cfa 8, 0
  44:test/Threads_C_API_test.cpp ****     uint8 i = 0;
 385              		.loc 1 44 5
 386              	.LVL39:
 387              		.loc 1 44 11 is_stmt 0
 388 022c 93040000 		li	s1,0
 389 0230 6F000004 		j	.L25
 390              	.LVL40:
 391              	.L29:
  45:test/Threads_C_API_test.cpp ****     for (; i < 3; i++) {
  46:test/Threads_C_API_test.cpp ****         printString("C: i="); printInt(i); printString("\n");
 392              		.loc 1 46 9 is_stmt 1 discriminator 1
 393              		.loc 1 46 20 is_stmt 0 discriminator 1
GAS LISTING /tmp/ccPPXEGX.s 			page 10


 394 0234 17050000 		lla	a0,.LC5
 394      13050500 
 395 023c 97000000 		call	_Z11printStringPKc@plt
 395      E7800000 
 396              	.LVL41:
 397              		.loc 1 46 31 is_stmt 1 discriminator 1
 398              		.loc 1 46 39 is_stmt 0 discriminator 1
 399 0244 13060000 		li	a2,0
 400 0248 9305A000 		li	a1,10
 401 024c 13850400 		mv	a0,s1
 402 0250 97000000 		call	_Z8printIntiii@plt
 402      E7800000 
 403              	.LVL42:
 404              		.loc 1 46 44 is_stmt 1 discriminator 1
 405              		.loc 1 46 55 is_stmt 0 discriminator 1
 406 0258 17050000 		lla	a0,.LC1
 406      13050500 
 407 0260 97000000 		call	_Z11printStringPKc@plt
 407      E7800000 
 408              	.LVL43:
  45:test/Threads_C_API_test.cpp ****     for (; i < 3; i++) {
 409              		.loc 1 45 5 is_stmt 1 discriminator 1
 410 0268 9B841400 		addiw	s1,s1,1
 411              	.LVL44:
 412 026c 93F4F40F 		andi	s1,s1,0xff
 413              	.LVL45:
 414              	.L25:
  45:test/Threads_C_API_test.cpp ****     for (; i < 3; i++) {
 415              		.loc 1 45 5 discriminator 2
  45:test/Threads_C_API_test.cpp ****     for (; i < 3; i++) {
 416              		.loc 1 45 14 discriminator 2
 417 0270 93072000 		li	a5,2
 418 0274 E3F097FC 		bleu	s1,a5,.L29
  47:test/Threads_C_API_test.cpp ****     }
  48:test/Threads_C_API_test.cpp **** 
  49:test/Threads_C_API_test.cpp ****     printString("C: dispatch\n");
 419              		.loc 1 49 5
 420              		.loc 1 49 16 is_stmt 0
 421 0278 17050000 		lla	a0,.LC6
 421      13050500 
 422 0280 97000000 		call	_Z11printStringPKc@plt
 422      E7800000 
 423              	.LVL46:
  50:test/Threads_C_API_test.cpp ****     __asm__ ("li t1, 7");
 424              		.loc 1 50 5 is_stmt 1
 425              		.loc 1 50 25 is_stmt 0
 426              	#APP
 427              	# 50 "test/Threads_C_API_test.cpp" 1
  51              	    thread_dispatch();
 428              		li t1, 7
 429              	# 0 "" 2
 430              		.loc 1 51 5 is_stmt 1
 431              		.loc 1 51 20 is_stmt 0
 432              	#NO_APP
 433 028c 97000000 		call	thread_dispatch@plt
 433      E7800000 
 434              	.LVL47:
GAS LISTING /tmp/ccPPXEGX.s 			page 11


  52:test/Threads_C_API_test.cpp **** 
  53:test/Threads_C_API_test.cpp ****     uint64 t1 = 0;
 435              		.loc 1 53 5 is_stmt 1
  54:test/Threads_C_API_test.cpp ****     __asm__ ("mv %[t1], t1" : [t1] "=r"(t1));
 436              		.loc 1 54 5
 437              		.loc 1 54 45 is_stmt 0
 438              	#APP
 439              	# 54 "test/Threads_C_API_test.cpp" 1
  55              	
 440              		mv s2, t1
 441              	# 0 "" 2
 442              	.LVL48:
  56:test/Threads_C_API_test.cpp ****     printString("C: t1="); printInt(t1); printString("\n");
 443              		.loc 1 56 5 is_stmt 1
 444              		.loc 1 56 16 is_stmt 0
 445              	#NO_APP
 446 0298 17050000 		lla	a0,.LC7
 446      13050500 
 447 02a0 97000000 		call	_Z11printStringPKc@plt
 447      E7800000 
 448              	.LVL49:
 449              		.loc 1 56 28 is_stmt 1
 450              		.loc 1 56 36 is_stmt 0
 451 02a8 13060000 		li	a2,0
 452 02ac 9305A000 		li	a1,10
 453 02b0 1B050900 		sext.w	a0,s2
 454 02b4 97000000 		call	_Z8printIntiii@plt
 454      E7800000 
 455              	.LVL50:
 456              		.loc 1 56 42 is_stmt 1
 457              		.loc 1 56 53 is_stmt 0
 458 02bc 17050000 		lla	a0,.LC1
 458      13050500 
 459 02c4 97000000 		call	_Z11printStringPKc@plt
 459      E7800000 
 460              	.LVL51:
  57:test/Threads_C_API_test.cpp **** 
  58:test/Threads_C_API_test.cpp ****     uint64 result = fibonacci(12);
 461              		.loc 1 58 5 is_stmt 1
 462              		.loc 1 58 30 is_stmt 0
 463 02cc 1305C000 		li	a0,12
 464 02d0 97000000 		call	_Z9fibonaccim
 464      E7800000 
 465              	.LVL52:
 466 02d8 13090500 		mv	s2,a0
 467              	.LVL53:
  59:test/Threads_C_API_test.cpp ****     printString("C: fibonaci="); printInt(result); printString("\n");
 468              		.loc 1 59 5 is_stmt 1
 469              		.loc 1 59 16 is_stmt 0
 470 02dc 17050000 		lla	a0,.LC8
 470      13050500 
 471              	.LVL54:
 472 02e4 97000000 		call	_Z11printStringPKc@plt
 472      E7800000 
 473              	.LVL55:
 474              		.loc 1 59 34 is_stmt 1
 475              		.loc 1 59 42 is_stmt 0
GAS LISTING /tmp/ccPPXEGX.s 			page 12


 476 02ec 13060000 		li	a2,0
 477 02f0 9305A000 		li	a1,10
 478 02f4 1B050900 		sext.w	a0,s2
 479 02f8 97000000 		call	_Z8printIntiii@plt
 479      E7800000 
 480              	.LVL56:
 481              		.loc 1 59 52 is_stmt 1
 482              		.loc 1 59 63 is_stmt 0
 483 0300 17050000 		lla	a0,.LC1
 483      13050500 
 484 0308 97000000 		call	_Z11printStringPKc@plt
 484      E7800000 
 485              	.LVL57:
 486 0310 6F000004 		j	.L27
 487              	.L30:
  60:test/Threads_C_API_test.cpp **** 
  61:test/Threads_C_API_test.cpp ****     for (; i < 6; i++) {
  62:test/Threads_C_API_test.cpp ****         printString("C: i="); printInt(i); printString("\n");
 488              		.loc 1 62 9 is_stmt 1 discriminator 1
 489              		.loc 1 62 20 is_stmt 0 discriminator 1
 490 0314 17050000 		lla	a0,.LC5
 490      13050500 
 491 031c 97000000 		call	_Z11printStringPKc@plt
 491      E7800000 
 492              	.LVL58:
 493              		.loc 1 62 31 is_stmt 1 discriminator 1
 494              		.loc 1 62 39 is_stmt 0 discriminator 1
 495 0324 13060000 		li	a2,0
 496 0328 9305A000 		li	a1,10
 497 032c 13850400 		mv	a0,s1
 498 0330 97000000 		call	_Z8printIntiii@plt
 498      E7800000 
 499              	.LVL59:
 500              		.loc 1 62 44 is_stmt 1 discriminator 1
 501              		.loc 1 62 55 is_stmt 0 discriminator 1
 502 0338 17050000 		lla	a0,.LC1
 502      13050500 
 503 0340 97000000 		call	_Z11printStringPKc@plt
 503      E7800000 
 504              	.LVL60:
  61:test/Threads_C_API_test.cpp ****         printString("C: i="); printInt(i); printString("\n");
 505              		.loc 1 61 5 is_stmt 1 discriminator 1
 506 0348 9B841400 		addiw	s1,s1,1
 507              	.LVL61:
 508 034c 93F4F40F 		andi	s1,s1,0xff
 509              	.LVL62:
 510              	.L27:
  61:test/Threads_C_API_test.cpp ****         printString("C: i="); printInt(i); printString("\n");
 511              		.loc 1 61 5 discriminator 2
  61:test/Threads_C_API_test.cpp ****         printString("C: i="); printInt(i); printString("\n");
 512              		.loc 1 61 14 discriminator 2
 513 0350 93075000 		li	a5,5
 514 0354 E3F097FC 		bleu	s1,a5,.L30
  63:test/Threads_C_API_test.cpp ****     }
  64:test/Threads_C_API_test.cpp **** 
  65:test/Threads_C_API_test.cpp ****     printString("A finished!\n");
 515              		.loc 1 65 5
GAS LISTING /tmp/ccPPXEGX.s 			page 13


 516              		.loc 1 65 16 is_stmt 0
 517 0358 17050000 		lla	a0,.LC2
 517      13050500 
 518 0360 97000000 		call	_Z11printStringPKc@plt
 518      E7800000 
 519              	.LVL63:
  66:test/Threads_C_API_test.cpp ****     finishedC = true;
 520              		.loc 1 66 5 is_stmt 1
 521              		.loc 1 66 15 is_stmt 0
 522 0368 93071000 		li	a5,1
 523 036c 17070000 		sb	a5,.LANCHOR0+2,a4
 523      2300F700 
  67:test/Threads_C_API_test.cpp ****     thread_dispatch();
 524              		.loc 1 67 5 is_stmt 1
 525              		.loc 1 67 20 is_stmt 0
 526 0374 97000000 		call	thread_dispatch@plt
 526      E7800000 
 527              	.LVL64:
  68:test/Threads_C_API_test.cpp **** }
 528              		.loc 1 68 1
 529 037c 83308101 		ld	ra,24(sp)
 530              		.cfi_restore 1
 531 0380 03340101 		ld	s0,16(sp)
 532              		.cfi_restore 8
 533              		.cfi_def_cfa 2, 32
 534 0384 83348100 		ld	s1,8(sp)
 535              		.cfi_restore 9
 536              	.LVL65:
 537 0388 03390100 		ld	s2,0(sp)
 538              		.cfi_restore 18
 539              	.LVL66:
 540 038c 13010102 		addi	sp,sp,32
 541              		.cfi_def_cfa_offset 0
 542 0390 67800000 		jr	ra
 543              		.cfi_endproc
 544              	.LFE3:
 546              		.section	.rodata.str1.8
 547 0065 000000   		.align	3
 548              	.LC9:
 549 0068 443A2069 		.string	"D: i="
 549      3D00
 550 006e 0000     		.align	3
 551              	.LC10:
 552 0070 443A2064 		.string	"D: dispatch\n"
 552      69737061 
 552      7463680A 
 552      00
 553 007d 000000   		.align	3
 554              	.LC11:
 555 0080 443A2066 		.string	"D: fibonaci="
 555      69626F6E 
 555      6163693D 
 555      00
 556 008d 000000   		.align	3
 557              	.LC12:
 558 0090 44206669 		.string	"D finished!\n"
 558      6E697368 
GAS LISTING /tmp/ccPPXEGX.s 			page 14


 558      6564210A 
 558      00
 559              		.text
 560              		.align	2
 561              		.globl	_Z11workerBodyDPv
 563              	_Z11workerBodyDPv:
 564              	.LFB4:
  69:test/Threads_C_API_test.cpp **** 
  70:test/Threads_C_API_test.cpp **** void workerBodyD(void* arg) {
 565              		.loc 1 70 29 is_stmt 1
 566              		.cfi_startproc
 567              	.LVL67:
 568 0394 130101FE 		addi	sp,sp,-32
 569              		.cfi_def_cfa_offset 32
 570 0398 233C1100 		sd	ra,24(sp)
 571 039c 23388100 		sd	s0,16(sp)
 572 03a0 23349100 		sd	s1,8(sp)
 573 03a4 23302101 		sd	s2,0(sp)
 574              		.cfi_offset 1, -8
 575              		.cfi_offset 8, -16
 576              		.cfi_offset 9, -24
 577              		.cfi_offset 18, -32
 578 03a8 13040102 		addi	s0,sp,32
 579              		.cfi_def_cfa 8, 0
  71:test/Threads_C_API_test.cpp ****     uint8 i = 10;
 580              		.loc 1 71 5
 581              	.LVL68:
 582              		.loc 1 71 11 is_stmt 0
 583 03ac 9304A000 		li	s1,10
 584 03b0 6F000004 		j	.L33
 585              	.LVL69:
 586              	.L37:
  72:test/Threads_C_API_test.cpp ****     for (; i < 13; i++) {
  73:test/Threads_C_API_test.cpp ****         printString("D: i="); printInt(i); printString("\n");
 587              		.loc 1 73 9 is_stmt 1 discriminator 1
 588              		.loc 1 73 20 is_stmt 0 discriminator 1
 589 03b4 17050000 		lla	a0,.LC9
 589      13050500 
 590 03bc 97000000 		call	_Z11printStringPKc@plt
 590      E7800000 
 591              	.LVL70:
 592              		.loc 1 73 31 is_stmt 1 discriminator 1
 593              		.loc 1 73 39 is_stmt 0 discriminator 1
 594 03c4 13060000 		li	a2,0
 595 03c8 9305A000 		li	a1,10
 596 03cc 13850400 		mv	a0,s1
 597 03d0 97000000 		call	_Z8printIntiii@plt
 597      E7800000 
 598              	.LVL71:
 599              		.loc 1 73 44 is_stmt 1 discriminator 1
 600              		.loc 1 73 55 is_stmt 0 discriminator 1
 601 03d8 17050000 		lla	a0,.LC1
 601      13050500 
 602 03e0 97000000 		call	_Z11printStringPKc@plt
 602      E7800000 
 603              	.LVL72:
  72:test/Threads_C_API_test.cpp ****     for (; i < 13; i++) {
GAS LISTING /tmp/ccPPXEGX.s 			page 15


 604              		.loc 1 72 5 is_stmt 1 discriminator 1
 605 03e8 9B841400 		addiw	s1,s1,1
 606              	.LVL73:
 607 03ec 93F4F40F 		andi	s1,s1,0xff
 608              	.LVL74:
 609              	.L33:
  72:test/Threads_C_API_test.cpp ****     for (; i < 13; i++) {
 610              		.loc 1 72 5 discriminator 2
  72:test/Threads_C_API_test.cpp ****     for (; i < 13; i++) {
 611              		.loc 1 72 14 discriminator 2
 612 03f0 9307C000 		li	a5,12
 613 03f4 E3F097FC 		bleu	s1,a5,.L37
  74:test/Threads_C_API_test.cpp ****     }
  75:test/Threads_C_API_test.cpp **** 
  76:test/Threads_C_API_test.cpp ****     printString("D: dispatch\n");
 614              		.loc 1 76 5
 615              		.loc 1 76 16 is_stmt 0
 616 03f8 17050000 		lla	a0,.LC10
 616      13050500 
 617 0400 97000000 		call	_Z11printStringPKc@plt
 617      E7800000 
 618              	.LVL75:
  77:test/Threads_C_API_test.cpp ****     __asm__ ("li t1, 5");
 619              		.loc 1 77 5 is_stmt 1
 620              		.loc 1 77 25 is_stmt 0
 621              	#APP
 622              	# 77 "test/Threads_C_API_test.cpp" 1
  78              	    thread_dispatch();
 623              		li t1, 5
 624              	# 0 "" 2
 625              		.loc 1 78 5 is_stmt 1
 626              		.loc 1 78 20 is_stmt 0
 627              	#NO_APP
 628 040c 97000000 		call	thread_dispatch@plt
 628      E7800000 
 629              	.LVL76:
  79:test/Threads_C_API_test.cpp **** 
  80:test/Threads_C_API_test.cpp ****     uint64 result = fibonacci(16);
 630              		.loc 1 80 5 is_stmt 1
 631              		.loc 1 80 30 is_stmt 0
 632 0414 13050001 		li	a0,16
 633 0418 97000000 		call	_Z9fibonaccim
 633      E7800000 
 634              	.LVL77:
 635 0420 13090500 		mv	s2,a0
 636              	.LVL78:
  81:test/Threads_C_API_test.cpp ****     printString("D: fibonaci="); printInt(result); printString("\n");
 637              		.loc 1 81 5 is_stmt 1
 638              		.loc 1 81 16 is_stmt 0
 639 0424 17050000 		lla	a0,.LC11
 639      13050500 
 640              	.LVL79:
 641 042c 97000000 		call	_Z11printStringPKc@plt
 641      E7800000 
 642              	.LVL80:
 643              		.loc 1 81 34 is_stmt 1
 644              		.loc 1 81 42 is_stmt 0
GAS LISTING /tmp/ccPPXEGX.s 			page 16


 645 0434 13060000 		li	a2,0
 646 0438 9305A000 		li	a1,10
 647 043c 1B050900 		sext.w	a0,s2
 648 0440 97000000 		call	_Z8printIntiii@plt
 648      E7800000 
 649              	.LVL81:
 650              		.loc 1 81 52 is_stmt 1
 651              		.loc 1 81 63 is_stmt 0
 652 0448 17050000 		lla	a0,.LC1
 652      13050500 
 653 0450 97000000 		call	_Z11printStringPKc@plt
 653      E7800000 
 654              	.LVL82:
 655 0458 6F000004 		j	.L35
 656              	.L38:
  82:test/Threads_C_API_test.cpp **** 
  83:test/Threads_C_API_test.cpp ****     for (; i < 16; i++) {
  84:test/Threads_C_API_test.cpp ****         printString("D: i="); printInt(i); printString("\n");
 657              		.loc 1 84 9 is_stmt 1 discriminator 1
 658              		.loc 1 84 20 is_stmt 0 discriminator 1
 659 045c 17050000 		lla	a0,.LC9
 659      13050500 
 660 0464 97000000 		call	_Z11printStringPKc@plt
 660      E7800000 
 661              	.LVL83:
 662              		.loc 1 84 31 is_stmt 1 discriminator 1
 663              		.loc 1 84 39 is_stmt 0 discriminator 1
 664 046c 13060000 		li	a2,0
 665 0470 9305A000 		li	a1,10
 666 0474 13850400 		mv	a0,s1
 667 0478 97000000 		call	_Z8printIntiii@plt
 667      E7800000 
 668              	.LVL84:
 669              		.loc 1 84 44 is_stmt 1 discriminator 1
 670              		.loc 1 84 55 is_stmt 0 discriminator 1
 671 0480 17050000 		lla	a0,.LC1
 671      13050500 
 672 0488 97000000 		call	_Z11printStringPKc@plt
 672      E7800000 
 673              	.LVL85:
  83:test/Threads_C_API_test.cpp ****         printString("D: i="); printInt(i); printString("\n");
 674              		.loc 1 83 5 is_stmt 1 discriminator 1
 675 0490 9B841400 		addiw	s1,s1,1
 676              	.LVL86:
 677 0494 93F4F40F 		andi	s1,s1,0xff
 678              	.LVL87:
 679              	.L35:
  83:test/Threads_C_API_test.cpp ****         printString("D: i="); printInt(i); printString("\n");
 680              		.loc 1 83 5 discriminator 2
  83:test/Threads_C_API_test.cpp ****         printString("D: i="); printInt(i); printString("\n");
 681              		.loc 1 83 14 discriminator 2
 682 0498 9307F000 		li	a5,15
 683 049c E3F097FC 		bleu	s1,a5,.L38
  85:test/Threads_C_API_test.cpp ****     }
  86:test/Threads_C_API_test.cpp **** 
  87:test/Threads_C_API_test.cpp ****     printString("D finished!\n");
 684              		.loc 1 87 5
GAS LISTING /tmp/ccPPXEGX.s 			page 17


 685              		.loc 1 87 16 is_stmt 0
 686 04a0 17050000 		lla	a0,.LC12
 686      13050500 
 687 04a8 97000000 		call	_Z11printStringPKc@plt
 687      E7800000 
 688              	.LVL88:
  88:test/Threads_C_API_test.cpp ****     finishedD = true;
 689              		.loc 1 88 5 is_stmt 1
 690              		.loc 1 88 15 is_stmt 0
 691 04b0 93071000 		li	a5,1
 692 04b4 17070000 		sb	a5,.LANCHOR0+3,a4
 692      2300F700 
  89:test/Threads_C_API_test.cpp ****     thread_dispatch();
 693              		.loc 1 89 5 is_stmt 1
 694              		.loc 1 89 20 is_stmt 0
 695 04bc 97000000 		call	thread_dispatch@plt
 695      E7800000 
 696              	.LVL89:
  90:test/Threads_C_API_test.cpp **** }
 697              		.loc 1 90 1
 698 04c4 83308101 		ld	ra,24(sp)
 699              		.cfi_restore 1
 700 04c8 03340101 		ld	s0,16(sp)
 701              		.cfi_restore 8
 702              		.cfi_def_cfa 2, 32
 703 04cc 83348100 		ld	s1,8(sp)
 704              		.cfi_restore 9
 705              	.LVL90:
 706 04d0 03390100 		ld	s2,0(sp)
 707              		.cfi_restore 18
 708              	.LVL91:
 709 04d4 13010102 		addi	sp,sp,32
 710              		.cfi_def_cfa_offset 0
 711 04d8 67800000 		jr	ra
 712              		.cfi_endproc
 713              	.LFE4:
 715              		.section	.rodata.str1.8
 716 009d 000000   		.align	3
 717              	.LC13:
 718 00a0 54687265 		.string	"ThreadA created\n"
 718      61644120 
 718      63726561 
 718      7465640A 
 718      00
 719 00b1 00000000 		.align	3
 719      000000
 720              	.LC14:
 721 00b8 54687265 		.string	"ThreadB created\n"
 721      61644220 
 721      63726561 
 721      7465640A 
 721      00
 722 00c9 00000000 		.align	3
 722      000000
 723              	.LC15:
 724 00d0 54687265 		.string	"ThreadC created\n"
 724      61644320 
GAS LISTING /tmp/ccPPXEGX.s 			page 18


 724      63726561 
 724      7465640A 
 724      00
 725 00e1 00000000 		.align	3
 725      000000
 726              	.LC16:
 727 00e8 54687265 		.string	"ThreadD created\n"
 727      61644420 
 727      63726561 
 727      7465640A 
 727      00
 728              		.text
 729              		.align	2
 730              		.globl	_Z18Threads_C_API_testv
 732              	_Z18Threads_C_API_testv:
 733              	.LFB5:
  91:test/Threads_C_API_test.cpp **** 
  92:test/Threads_C_API_test.cpp **** void Threads_C_API_test() {
 734              		.loc 1 92 27 is_stmt 1
 735              		.cfi_startproc
 736 04dc 130101FC 		addi	sp,sp,-64
 737              		.cfi_def_cfa_offset 64
 738 04e0 233C1102 		sd	ra,56(sp)
 739 04e4 23388102 		sd	s0,48(sp)
 740 04e8 23349102 		sd	s1,40(sp)
 741              		.cfi_offset 1, -8
 742              		.cfi_offset 8, -16
 743              		.cfi_offset 9, -24
 744 04ec 13040104 		addi	s0,sp,64
 745              		.cfi_def_cfa 8, 0
  93:test/Threads_C_API_test.cpp ****     thread_t threads[4];
 746              		.loc 1 93 5
  94:test/Threads_C_API_test.cpp ****     thread_create(&threads[0], workerBodyA, nullptr);
 747              		.loc 1 94 5
 748              		.loc 1 94 18 is_stmt 0
 749 04f0 13060000 		li	a2,0
 750 04f4 97050000 		lla	a1,_Z11workerBodyAPv
 750      93850500 
 751 04fc 130504FC 		addi	a0,s0,-64
 752 0500 97000000 		call	thread_create@plt
 752      E7800000 
 753              	.LVL92:
  95:test/Threads_C_API_test.cpp ****     printString("ThreadA created\n");
 754              		.loc 1 95 5 is_stmt 1
 755              		.loc 1 95 16 is_stmt 0
 756 0508 17050000 		lla	a0,.LC13
 756      13050500 
 757 0510 97000000 		call	_Z11printStringPKc@plt
 757      E7800000 
 758              	.LVL93:
  96:test/Threads_C_API_test.cpp **** 
  97:test/Threads_C_API_test.cpp ****     thread_create(&threads[1], workerBodyB, nullptr);
 759              		.loc 1 97 5 is_stmt 1
 760              		.loc 1 97 18 is_stmt 0
 761 0518 13060000 		li	a2,0
 762 051c 97050000 		lla	a1,_Z11workerBodyBPv
 762      93850500 
GAS LISTING /tmp/ccPPXEGX.s 			page 19


 763 0524 130584FC 		addi	a0,s0,-56
 764 0528 97000000 		call	thread_create@plt
 764      E7800000 
 765              	.LVL94:
  98:test/Threads_C_API_test.cpp ****     printString("ThreadB created\n");
 766              		.loc 1 98 5 is_stmt 1
 767              		.loc 1 98 16 is_stmt 0
 768 0530 17050000 		lla	a0,.LC14
 768      13050500 
 769 0538 97000000 		call	_Z11printStringPKc@plt
 769      E7800000 
 770              	.LVL95:
  99:test/Threads_C_API_test.cpp **** 
 100:test/Threads_C_API_test.cpp ****     thread_create(&threads[2], workerBodyC, nullptr);
 771              		.loc 1 100 5 is_stmt 1
 772              		.loc 1 100 18 is_stmt 0
 773 0540 13060000 		li	a2,0
 774 0544 97050000 		lla	a1,_Z11workerBodyCPv
 774      93850500 
 775 054c 130504FD 		addi	a0,s0,-48
 776 0550 97000000 		call	thread_create@plt
 776      E7800000 
 777              	.LVL96:
 101:test/Threads_C_API_test.cpp ****     printString("ThreadC created\n");
 778              		.loc 1 101 5 is_stmt 1
 779              		.loc 1 101 16 is_stmt 0
 780 0558 17050000 		lla	a0,.LC15
 780      13050500 
 781 0560 97000000 		call	_Z11printStringPKc@plt
 781      E7800000 
 782              	.LVL97:
 102:test/Threads_C_API_test.cpp **** 
 103:test/Threads_C_API_test.cpp ****     thread_create(&threads[3], workerBodyD, nullptr);
 783              		.loc 1 103 5 is_stmt 1
 784              		.loc 1 103 18 is_stmt 0
 785 0568 13060000 		li	a2,0
 786 056c 97050000 		lla	a1,_Z11workerBodyDPv
 786      93850500 
 787 0574 130584FD 		addi	a0,s0,-40
 788 0578 97000000 		call	thread_create@plt
 788      E7800000 
 789              	.LVL98:
 104:test/Threads_C_API_test.cpp ****     printString("ThreadD created\n");
 790              		.loc 1 104 5 is_stmt 1
 791              		.loc 1 104 16 is_stmt 0
 792 0580 17050000 		lla	a0,.LC16
 792      13050500 
 793 0588 97000000 		call	_Z11printStringPKc@plt
 793      E7800000 
 794              	.LVL99:
 795 0590 6F00C000 		j	.L42
 796              	.L40:
 105:test/Threads_C_API_test.cpp **** 
 106:test/Threads_C_API_test.cpp ****     while (!(finishedA && finishedB && finishedC && finishedD)) {
 107:test/Threads_C_API_test.cpp ****         thread_dispatch();
 797              		.loc 1 107 9 is_stmt 1
 798              		.loc 1 107 24 is_stmt 0
GAS LISTING /tmp/ccPPXEGX.s 			page 20


 799 0594 97000000 		call	thread_dispatch@plt
 799      E7800000 
 800              	.LVL100:
 801              	.L42:
 106:test/Threads_C_API_test.cpp ****         thread_dispatch();
 802              		.loc 1 106 5 is_stmt 1
 106:test/Threads_C_API_test.cpp ****         thread_dispatch();
 803              		.loc 1 106 12
 804 059c 97070000 		lbu	a5,.LANCHOR0
 804      83C70700 
 805 05a4 E38807FE 		beqz	a5,.L40
 106:test/Threads_C_API_test.cpp ****         thread_dispatch();
 806              		.loc 1 106 24 is_stmt 0 discriminator 1
 807 05a8 97070000 		lbu	a5,.LANCHOR0+1
 807      83C70700 
 808 05b0 E38207FE 		beqz	a5,.L40
 106:test/Threads_C_API_test.cpp ****         thread_dispatch();
 809              		.loc 1 106 37 discriminator 2
 810 05b4 97070000 		lbu	a5,.LANCHOR0+2
 810      83C70700 
 811 05bc E38C07FC 		beqz	a5,.L40
 106:test/Threads_C_API_test.cpp ****         thread_dispatch();
 812              		.loc 1 106 12 discriminator 3
 813 05c0 97070000 		lbu	a5,.LANCHOR0+3
 813      83C70700 
 814 05c8 E38607FC 		beqz	a5,.L40
 815              	.LBB18:
 108:test/Threads_C_API_test.cpp ****     }
 109:test/Threads_C_API_test.cpp **** 
 110:test/Threads_C_API_test.cpp ****     for (auto &thread: threads) { delete (uint64*)thread; }
 816              		.loc 1 110 24
 817 05cc 930404FC 		addi	s1,s0,-64
 818 05d0 6F008000 		j	.L41
 819              	.LVL101:
 820              	.L44:
 821              		.loc 1 110 5 is_stmt 1 discriminator 5
 822 05d4 93848400 		addi	s1,s1,8
 823              	.LVL102:
 824              	.L41:
 825              		.loc 1 110 24 discriminator 6
 826 05d8 930704FE 		addi	a5,s0,-32
 827 05dc 638CF400 		beq	s1,a5,.L39
 828              	.LVL103:
 829              		.loc 1 110 35 discriminator 2
 830              		.loc 1 110 42 is_stmt 0 discriminator 2
 831 05e0 03B50400 		ld	a0,0(s1)
 832              		.loc 1 110 57 discriminator 2
 833 05e4 E30805FE 		beqz	a0,.L44
 834              		.loc 1 110 51 discriminator 3
 835 05e8 97000000 		call	_ZdlPv@plt
 835      E7800000 
 836              	.LVL104:
 837 05f0 6FF05FFE 		j	.L44
 838              	.LVL105:
 839              	.L39:
 840              	.LBE18:
 111:test/Threads_C_API_test.cpp **** }
GAS LISTING /tmp/ccPPXEGX.s 			page 21


 841              		.loc 1 111 1
 842 05f4 83308103 		ld	ra,56(sp)
 843              		.cfi_restore 1
 844 05f8 03340103 		ld	s0,48(sp)
 845              		.cfi_restore 8
 846              		.cfi_def_cfa 2, 64
 847 05fc 83348102 		ld	s1,40(sp)
 848              		.cfi_restore 9
 849              	.LVL106:
 850 0600 13010104 		addi	sp,sp,64
 851              		.cfi_def_cfa_offset 0
 852 0604 67800000 		jr	ra
 853              		.cfi_endproc
 854              	.LFE5:
 856              		.globl	finishedD
 857              		.globl	finishedC
 858              		.globl	finishedB
 859              		.globl	finishedA
 860              		.bss
 861              		.set	.LANCHOR0,. + 0
 864              	finishedA:
 865 0000 00       		.zero	1
 868              	finishedB:
 869 0001 00       		.zero	1
 872              	finishedC:
 873 0002 00       		.zero	1
 876              	finishedD:
 877 0003 00       		.zero	1
 878              		.text
 879              	.Letext0:
 880              		.file 2 "test/../h/../lib/hw.h"
 881              		.file 3 "test/../h/syscall_c.h"
 882              		.file 4 "test/printing.hpp"
GAS LISTING /tmp/ccPPXEGX.s 			page 22


DEFINED SYMBOLS
                            *ABS*:0000000000000000 Threads_C_API_test.cpp
     /tmp/ccPPXEGX.s:20     .text:0000000000000000 _Z11workerBodyAPv
     /tmp/ccPPXEGX.s:24     .text:0000000000000000 .L0 
     /tmp/ccPPXEGX.s:26     .text:0000000000000000 .L0 
     /tmp/ccPPXEGX.s:27     .text:0000000000000004 .L0 
     /tmp/ccPPXEGX.s:32     .text:0000000000000014 .L0 
     /tmp/ccPPXEGX.s:33     .text:0000000000000014 .L0 
     /tmp/ccPPXEGX.s:34     .text:0000000000000014 .L0 
     /tmp/ccPPXEGX.s:35     .text:0000000000000014 .L0 
     /tmp/ccPPXEGX.s:37     .text:0000000000000018 .L0 
     /tmp/ccPPXEGX.s:41     .text:0000000000000018 .L0 
     /tmp/ccPPXEGX.s:42     .text:0000000000000018 .L0 
     /tmp/ccPPXEGX.s:50     .text:0000000000000020 .L0 
     /tmp/ccPPXEGX.s:51     .text:0000000000000020 .L0 
     /tmp/ccPPXEGX.s:55     .text:0000000000000028 .L0 
     /tmp/ccPPXEGX.s:59     .text:000000000000002c .L0 
     /tmp/ccPPXEGX.s:65     .text:0000000000000038 .L0 
     /tmp/ccPPXEGX.s:69     .text:000000000000003c .L0 
     /tmp/ccPPXEGX.s:73     .text:0000000000000048 .L0 
     /tmp/ccPPXEGX.s:83     .text:0000000000000050 .L0 
     /tmp/ccPPXEGX.s:87     .text:0000000000000054 .L0 
     /tmp/ccPPXEGX.s:91     .text:000000000000005c .L0 
     /tmp/ccPPXEGX.s:92     .text:000000000000005c .L0 
     /tmp/ccPPXEGX.s:96     .text:000000000000006c .L0 
     /tmp/ccPPXEGX.s:97     .text:000000000000006c .L0 
     /tmp/ccPPXEGX.s:103    .text:0000000000000080 .L0 
     /tmp/ccPPXEGX.s:104    .text:0000000000000080 .L0 
     /tmp/ccPPXEGX.s:109    .text:0000000000000090 .L0 
     /tmp/ccPPXEGX.s:110    .text:0000000000000090 .L0 
     /tmp/ccPPXEGX.s:118    .text:0000000000000098 .L0 
     /tmp/ccPPXEGX.s:119    .text:0000000000000098 .L0 
     /tmp/ccPPXEGX.s:123    .text:00000000000000a8 .L0 
     /tmp/ccPPXEGX.s:124    .text:00000000000000a8 .L0 
     /tmp/ccPPXEGX.s:127    .text:00000000000000b4 .L0 
     /tmp/ccPPXEGX.s:128    .text:00000000000000b8 .L0 
     /tmp/ccPPXEGX.s:130    .text:00000000000000bc .L0 
     /tmp/ccPPXEGX.s:131    .text:00000000000000bc .L0 
     /tmp/ccPPXEGX.s:133    .text:00000000000000c0 .L0 
     /tmp/ccPPXEGX.s:135    .text:00000000000000c4 .L0 
     /tmp/ccPPXEGX.s:138    .text:00000000000000c8 .L0 
     /tmp/ccPPXEGX.s:140    .text:00000000000000cc .L0 
     /tmp/ccPPXEGX.s:154    .text:00000000000000cc _Z11workerBodyBPv
     /tmp/ccPPXEGX.s:157    .text:00000000000000cc .L0 
     /tmp/ccPPXEGX.s:159    .text:00000000000000cc .L0 
     /tmp/ccPPXEGX.s:160    .text:00000000000000d0 .L0 
     /tmp/ccPPXEGX.s:165    .text:00000000000000e0 .L0 
     /tmp/ccPPXEGX.s:166    .text:00000000000000e0 .L0 
     /tmp/ccPPXEGX.s:167    .text:00000000000000e0 .L0 
     /tmp/ccPPXEGX.s:168    .text:00000000000000e0 .L0 
     /tmp/ccPPXEGX.s:170    .text:00000000000000e4 .L0 
     /tmp/ccPPXEGX.s:174    .text:00000000000000e4 .L0 
     /tmp/ccPPXEGX.s:175    .text:00000000000000e4 .L0 
     /tmp/ccPPXEGX.s:183    .text:00000000000000ec .L0 
     /tmp/ccPPXEGX.s:184    .text:00000000000000ec .L0 
     /tmp/ccPPXEGX.s:188    .text:00000000000000f4 .L0 
     /tmp/ccPPXEGX.s:192    .text:00000000000000f8 .L0 
GAS LISTING /tmp/ccPPXEGX.s 			page 23


     /tmp/ccPPXEGX.s:198    .text:0000000000000104 .L0 
     /tmp/ccPPXEGX.s:202    .text:0000000000000108 .L0 
     /tmp/ccPPXEGX.s:206    .text:0000000000000114 .L0 
     /tmp/ccPPXEGX.s:216    .text:000000000000011c .L0 
     /tmp/ccPPXEGX.s:220    .text:0000000000000120 .L0 
     /tmp/ccPPXEGX.s:224    .text:0000000000000128 .L0 
     /tmp/ccPPXEGX.s:225    .text:0000000000000128 .L0 
     /tmp/ccPPXEGX.s:229    .text:0000000000000138 .L0 
     /tmp/ccPPXEGX.s:230    .text:0000000000000138 .L0 
     /tmp/ccPPXEGX.s:236    .text:000000000000014c .L0 
     /tmp/ccPPXEGX.s:237    .text:000000000000014c .L0 
     /tmp/ccPPXEGX.s:242    .text:000000000000015c .L0 
     /tmp/ccPPXEGX.s:243    .text:000000000000015c .L0 
     /tmp/ccPPXEGX.s:251    .text:0000000000000164 .L0 
     /tmp/ccPPXEGX.s:252    .text:0000000000000164 .L0 
     /tmp/ccPPXEGX.s:256    .text:0000000000000174 .L0 
     /tmp/ccPPXEGX.s:257    .text:0000000000000174 .L0 
     /tmp/ccPPXEGX.s:260    .text:0000000000000180 .L0 
     /tmp/ccPPXEGX.s:261    .text:0000000000000180 .L0 
     /tmp/ccPPXEGX.s:264    .text:0000000000000188 .L0 
     /tmp/ccPPXEGX.s:265    .text:000000000000018c .L0 
     /tmp/ccPPXEGX.s:267    .text:0000000000000190 .L0 
     /tmp/ccPPXEGX.s:268    .text:0000000000000190 .L0 
     /tmp/ccPPXEGX.s:270    .text:0000000000000194 .L0 
     /tmp/ccPPXEGX.s:272    .text:0000000000000198 .L0 
     /tmp/ccPPXEGX.s:275    .text:000000000000019c .L0 
     /tmp/ccPPXEGX.s:277    .text:00000000000001a0 .L0 
     /tmp/ccPPXEGX.s:283    .text:00000000000001a0 _Z9fibonaccim
     /tmp/ccPPXEGX.s:286    .text:00000000000001a0 .L0 
     /tmp/ccPPXEGX.s:288    .text:00000000000001a0 .L0 
     /tmp/ccPPXEGX.s:289    .text:00000000000001a4 .L0 
     /tmp/ccPPXEGX.s:294    .text:00000000000001b4 .L0 
     /tmp/ccPPXEGX.s:295    .text:00000000000001b4 .L0 
     /tmp/ccPPXEGX.s:296    .text:00000000000001b4 .L0 
     /tmp/ccPPXEGX.s:297    .text:00000000000001b4 .L0 
     /tmp/ccPPXEGX.s:299    .text:00000000000001b8 .L0 
     /tmp/ccPPXEGX.s:302    .text:00000000000001bc .L0 
     /tmp/ccPPXEGX.s:305    .text:00000000000001c4 .L0 
     /tmp/ccPPXEGX.s:306    .text:00000000000001c4 .L0 
     /tmp/ccPPXEGX.s:309    .text:00000000000001cc .L0 
     /tmp/ccPPXEGX.s:313    .text:00000000000001d0 .L0 
     /tmp/ccPPXEGX.s:314    .text:00000000000001d0 .L0 
     /tmp/ccPPXEGX.s:319    .text:00000000000001e0 .L0 
     /tmp/ccPPXEGX.s:323    .text:00000000000001ec .L0 
     /tmp/ccPPXEGX.s:326    .text:00000000000001f0 .L0 
     /tmp/ccPPXEGX.s:327    .text:00000000000001f4 .L0 
     /tmp/ccPPXEGX.s:328    .text:00000000000001f4 .L0 
     /tmp/ccPPXEGX.s:330    .text:00000000000001f8 .L0 
     /tmp/ccPPXEGX.s:331    .text:00000000000001f8 .L0 
     /tmp/ccPPXEGX.s:333    .text:00000000000001fc .L0 
     /tmp/ccPPXEGX.s:336    .text:0000000000000200 .L0 
     /tmp/ccPPXEGX.s:338    .text:0000000000000204 .L0 
     /tmp/ccPPXEGX.s:342    .text:0000000000000208 .L0 
     /tmp/ccPPXEGX.s:344    .text:0000000000000208 .L0 
     /tmp/ccPPXEGX.s:345    .text:0000000000000208 .L0 
     /tmp/ccPPXEGX.s:348    .text:0000000000000214 .L0 
     /tmp/ccPPXEGX.s:368    .text:0000000000000214 _Z11workerBodyCPv
GAS LISTING /tmp/ccPPXEGX.s 			page 24


     /tmp/ccPPXEGX.s:371    .text:0000000000000214 .L0 
     /tmp/ccPPXEGX.s:373    .text:0000000000000214 .L0 
     /tmp/ccPPXEGX.s:374    .text:0000000000000218 .L0 
     /tmp/ccPPXEGX.s:379    .text:0000000000000228 .L0 
     /tmp/ccPPXEGX.s:380    .text:0000000000000228 .L0 
     /tmp/ccPPXEGX.s:381    .text:0000000000000228 .L0 
     /tmp/ccPPXEGX.s:382    .text:0000000000000228 .L0 
     /tmp/ccPPXEGX.s:384    .text:000000000000022c .L0 
     /tmp/ccPPXEGX.s:387    .text:000000000000022c .L0 
     /tmp/ccPPXEGX.s:388    .text:000000000000022c .L0 
     /tmp/ccPPXEGX.s:393    .text:0000000000000234 .L0 
     /tmp/ccPPXEGX.s:394    .text:0000000000000234 .L0 
     /tmp/ccPPXEGX.s:398    .text:0000000000000244 .L0 
     /tmp/ccPPXEGX.s:399    .text:0000000000000244 .L0 
     /tmp/ccPPXEGX.s:405    .text:0000000000000258 .L0 
     /tmp/ccPPXEGX.s:406    .text:0000000000000258 .L0 
     /tmp/ccPPXEGX.s:410    .text:0000000000000268 .L0 
     /tmp/ccPPXEGX.s:416    .text:0000000000000270 .L0 
     /tmp/ccPPXEGX.s:417    .text:0000000000000270 .L0 
     /tmp/ccPPXEGX.s:420    .text:0000000000000278 .L0 
     /tmp/ccPPXEGX.s:421    .text:0000000000000278 .L0 
     /tmp/ccPPXEGX.s:425    .text:0000000000000288 .L0 
test/Threads_C_API_test.cpp:50     .text:0000000000000288 .L0 
     /tmp/ccPPXEGX.s:431    .text:000000000000028c .L0 
     /tmp/ccPPXEGX.s:433    .text:000000000000028c .L0 
     /tmp/ccPPXEGX.s:436    .text:0000000000000294 .L0 
     /tmp/ccPPXEGX.s:437    .text:0000000000000294 .L0 
test/Threads_C_API_test.cpp:54     .text:0000000000000294 .L0 
     /tmp/ccPPXEGX.s:444    .text:0000000000000298 .L0 
     /tmp/ccPPXEGX.s:446    .text:0000000000000298 .L0 
     /tmp/ccPPXEGX.s:450    .text:00000000000002a8 .L0 
     /tmp/ccPPXEGX.s:451    .text:00000000000002a8 .L0 
     /tmp/ccPPXEGX.s:457    .text:00000000000002bc .L0 
     /tmp/ccPPXEGX.s:458    .text:00000000000002bc .L0 
     /tmp/ccPPXEGX.s:462    .text:00000000000002cc .L0 
     /tmp/ccPPXEGX.s:463    .text:00000000000002cc .L0 
     /tmp/ccPPXEGX.s:469    .text:00000000000002dc .L0 
     /tmp/ccPPXEGX.s:470    .text:00000000000002dc .L0 
     /tmp/ccPPXEGX.s:475    .text:00000000000002ec .L0 
     /tmp/ccPPXEGX.s:476    .text:00000000000002ec .L0 
     /tmp/ccPPXEGX.s:482    .text:0000000000000300 .L0 
     /tmp/ccPPXEGX.s:483    .text:0000000000000300 .L0 
     /tmp/ccPPXEGX.s:489    .text:0000000000000314 .L0 
     /tmp/ccPPXEGX.s:490    .text:0000000000000314 .L0 
     /tmp/ccPPXEGX.s:494    .text:0000000000000324 .L0 
     /tmp/ccPPXEGX.s:495    .text:0000000000000324 .L0 
     /tmp/ccPPXEGX.s:501    .text:0000000000000338 .L0 
     /tmp/ccPPXEGX.s:502    .text:0000000000000338 .L0 
     /tmp/ccPPXEGX.s:506    .text:0000000000000348 .L0 
     /tmp/ccPPXEGX.s:512    .text:0000000000000350 .L0 
     /tmp/ccPPXEGX.s:513    .text:0000000000000350 .L0 
     /tmp/ccPPXEGX.s:516    .text:0000000000000358 .L0 
     /tmp/ccPPXEGX.s:517    .text:0000000000000358 .L0 
     /tmp/ccPPXEGX.s:521    .text:0000000000000368 .L0 
     /tmp/ccPPXEGX.s:522    .text:0000000000000368 .L0 
     /tmp/ccPPXEGX.s:525    .text:0000000000000374 .L0 
     /tmp/ccPPXEGX.s:526    .text:0000000000000374 .L0 
GAS LISTING /tmp/ccPPXEGX.s 			page 25


     /tmp/ccPPXEGX.s:529    .text:000000000000037c .L0 
     /tmp/ccPPXEGX.s:530    .text:0000000000000380 .L0 
     /tmp/ccPPXEGX.s:532    .text:0000000000000384 .L0 
     /tmp/ccPPXEGX.s:533    .text:0000000000000384 .L0 
     /tmp/ccPPXEGX.s:535    .text:0000000000000388 .L0 
     /tmp/ccPPXEGX.s:538    .text:000000000000038c .L0 
     /tmp/ccPPXEGX.s:541    .text:0000000000000390 .L0 
     /tmp/ccPPXEGX.s:543    .text:0000000000000394 .L0 
     /tmp/ccPPXEGX.s:563    .text:0000000000000394 _Z11workerBodyDPv
     /tmp/ccPPXEGX.s:566    .text:0000000000000394 .L0 
     /tmp/ccPPXEGX.s:568    .text:0000000000000394 .L0 
     /tmp/ccPPXEGX.s:569    .text:0000000000000398 .L0 
     /tmp/ccPPXEGX.s:574    .text:00000000000003a8 .L0 
     /tmp/ccPPXEGX.s:575    .text:00000000000003a8 .L0 
     /tmp/ccPPXEGX.s:576    .text:00000000000003a8 .L0 
     /tmp/ccPPXEGX.s:577    .text:00000000000003a8 .L0 
     /tmp/ccPPXEGX.s:579    .text:00000000000003ac .L0 
     /tmp/ccPPXEGX.s:582    .text:00000000000003ac .L0 
     /tmp/ccPPXEGX.s:583    .text:00000000000003ac .L0 
     /tmp/ccPPXEGX.s:588    .text:00000000000003b4 .L0 
     /tmp/ccPPXEGX.s:589    .text:00000000000003b4 .L0 
     /tmp/ccPPXEGX.s:593    .text:00000000000003c4 .L0 
     /tmp/ccPPXEGX.s:594    .text:00000000000003c4 .L0 
     /tmp/ccPPXEGX.s:600    .text:00000000000003d8 .L0 
     /tmp/ccPPXEGX.s:601    .text:00000000000003d8 .L0 
     /tmp/ccPPXEGX.s:605    .text:00000000000003e8 .L0 
     /tmp/ccPPXEGX.s:611    .text:00000000000003f0 .L0 
     /tmp/ccPPXEGX.s:612    .text:00000000000003f0 .L0 
     /tmp/ccPPXEGX.s:615    .text:00000000000003f8 .L0 
     /tmp/ccPPXEGX.s:616    .text:00000000000003f8 .L0 
     /tmp/ccPPXEGX.s:620    .text:0000000000000408 .L0 
test/Threads_C_API_test.cpp:77     .text:0000000000000408 .L0 
     /tmp/ccPPXEGX.s:626    .text:000000000000040c .L0 
     /tmp/ccPPXEGX.s:628    .text:000000000000040c .L0 
     /tmp/ccPPXEGX.s:631    .text:0000000000000414 .L0 
     /tmp/ccPPXEGX.s:632    .text:0000000000000414 .L0 
     /tmp/ccPPXEGX.s:638    .text:0000000000000424 .L0 
     /tmp/ccPPXEGX.s:639    .text:0000000000000424 .L0 
     /tmp/ccPPXEGX.s:644    .text:0000000000000434 .L0 
     /tmp/ccPPXEGX.s:645    .text:0000000000000434 .L0 
     /tmp/ccPPXEGX.s:651    .text:0000000000000448 .L0 
     /tmp/ccPPXEGX.s:652    .text:0000000000000448 .L0 
     /tmp/ccPPXEGX.s:658    .text:000000000000045c .L0 
     /tmp/ccPPXEGX.s:659    .text:000000000000045c .L0 
     /tmp/ccPPXEGX.s:663    .text:000000000000046c .L0 
     /tmp/ccPPXEGX.s:664    .text:000000000000046c .L0 
     /tmp/ccPPXEGX.s:670    .text:0000000000000480 .L0 
     /tmp/ccPPXEGX.s:671    .text:0000000000000480 .L0 
     /tmp/ccPPXEGX.s:675    .text:0000000000000490 .L0 
     /tmp/ccPPXEGX.s:681    .text:0000000000000498 .L0 
     /tmp/ccPPXEGX.s:682    .text:0000000000000498 .L0 
     /tmp/ccPPXEGX.s:685    .text:00000000000004a0 .L0 
     /tmp/ccPPXEGX.s:686    .text:00000000000004a0 .L0 
     /tmp/ccPPXEGX.s:690    .text:00000000000004b0 .L0 
     /tmp/ccPPXEGX.s:691    .text:00000000000004b0 .L0 
     /tmp/ccPPXEGX.s:694    .text:00000000000004bc .L0 
     /tmp/ccPPXEGX.s:695    .text:00000000000004bc .L0 
GAS LISTING /tmp/ccPPXEGX.s 			page 26


     /tmp/ccPPXEGX.s:698    .text:00000000000004c4 .L0 
     /tmp/ccPPXEGX.s:699    .text:00000000000004c8 .L0 
     /tmp/ccPPXEGX.s:701    .text:00000000000004cc .L0 
     /tmp/ccPPXEGX.s:702    .text:00000000000004cc .L0 
     /tmp/ccPPXEGX.s:704    .text:00000000000004d0 .L0 
     /tmp/ccPPXEGX.s:707    .text:00000000000004d4 .L0 
     /tmp/ccPPXEGX.s:710    .text:00000000000004d8 .L0 
     /tmp/ccPPXEGX.s:712    .text:00000000000004dc .L0 
     /tmp/ccPPXEGX.s:732    .text:00000000000004dc _Z18Threads_C_API_testv
     /tmp/ccPPXEGX.s:735    .text:00000000000004dc .L0 
     /tmp/ccPPXEGX.s:736    .text:00000000000004dc .L0 
     /tmp/ccPPXEGX.s:737    .text:00000000000004e0 .L0 
     /tmp/ccPPXEGX.s:741    .text:00000000000004ec .L0 
     /tmp/ccPPXEGX.s:742    .text:00000000000004ec .L0 
     /tmp/ccPPXEGX.s:743    .text:00000000000004ec .L0 
     /tmp/ccPPXEGX.s:745    .text:00000000000004f0 .L0 
     /tmp/ccPPXEGX.s:747    .text:00000000000004f0 .L0 
     /tmp/ccPPXEGX.s:748    .text:00000000000004f0 .L0 
     /tmp/ccPPXEGX.s:749    .text:00000000000004f0 .L0 
     /tmp/ccPPXEGX.s:755    .text:0000000000000508 .L0 
     /tmp/ccPPXEGX.s:756    .text:0000000000000508 .L0 
     /tmp/ccPPXEGX.s:760    .text:0000000000000518 .L0 
     /tmp/ccPPXEGX.s:761    .text:0000000000000518 .L0 
     /tmp/ccPPXEGX.s:767    .text:0000000000000530 .L0 
     /tmp/ccPPXEGX.s:768    .text:0000000000000530 .L0 
     /tmp/ccPPXEGX.s:772    .text:0000000000000540 .L0 
     /tmp/ccPPXEGX.s:773    .text:0000000000000540 .L0 
     /tmp/ccPPXEGX.s:779    .text:0000000000000558 .L0 
     /tmp/ccPPXEGX.s:780    .text:0000000000000558 .L0 
     /tmp/ccPPXEGX.s:784    .text:0000000000000568 .L0 
     /tmp/ccPPXEGX.s:785    .text:0000000000000568 .L0 
     /tmp/ccPPXEGX.s:791    .text:0000000000000580 .L0 
     /tmp/ccPPXEGX.s:792    .text:0000000000000580 .L0 
     /tmp/ccPPXEGX.s:798    .text:0000000000000594 .L0 
     /tmp/ccPPXEGX.s:799    .text:0000000000000594 .L0 
     /tmp/ccPPXEGX.s:803    .text:000000000000059c .L0 
     /tmp/ccPPXEGX.s:804    .text:000000000000059c .L0 
     /tmp/ccPPXEGX.s:807    .text:00000000000005a8 .L0 
     /tmp/ccPPXEGX.s:810    .text:00000000000005b4 .L0 
     /tmp/ccPPXEGX.s:813    .text:00000000000005c0 .L0 
     /tmp/ccPPXEGX.s:817    .text:00000000000005cc .L0 
     /tmp/ccPPXEGX.s:822    .text:00000000000005d4 .L0 
     /tmp/ccPPXEGX.s:826    .text:00000000000005d8 .L0 
     /tmp/ccPPXEGX.s:830    .text:00000000000005e0 .L0 
     /tmp/ccPPXEGX.s:831    .text:00000000000005e0 .L0 
     /tmp/ccPPXEGX.s:833    .text:00000000000005e4 .L0 
     /tmp/ccPPXEGX.s:835    .text:00000000000005e8 .L0 
     /tmp/ccPPXEGX.s:842    .text:00000000000005f4 .L0 
     /tmp/ccPPXEGX.s:843    .text:00000000000005f8 .L0 
     /tmp/ccPPXEGX.s:845    .text:00000000000005fc .L0 
     /tmp/ccPPXEGX.s:846    .text:00000000000005fc .L0 
     /tmp/ccPPXEGX.s:848    .text:0000000000000600 .L0 
     /tmp/ccPPXEGX.s:851    .text:0000000000000604 .L0 
     /tmp/ccPPXEGX.s:853    .text:0000000000000608 .L0 
     /tmp/ccPPXEGX.s:876    .bss:0000000000000003 finishedD
     /tmp/ccPPXEGX.s:872    .bss:0000000000000002 finishedC
     /tmp/ccPPXEGX.s:868    .bss:0000000000000001 finishedB
GAS LISTING /tmp/ccPPXEGX.s 			page 27


     /tmp/ccPPXEGX.s:864    .bss:0000000000000000 finishedA
     /tmp/ccPPXEGX.s:861    .bss:0000000000000000 .LANCHOR0
     /tmp/ccPPXEGX.s:883    .text:0000000000000608 .L0 
     /tmp/ccPPXEGX.s:8      .rodata.str1.8:0000000000000000 .LC0
     /tmp/ccPPXEGX.s:92     .text:000000000000005c .L0 
     /tmp/ccPPXEGX.s:11     .rodata.str1.8:0000000000000008 .LC1
     /tmp/ccPPXEGX.s:104    .text:0000000000000080 .L0 
     /tmp/ccPPXEGX.s:14     .rodata.str1.8:0000000000000010 .LC2
     /tmp/ccPPXEGX.s:119    .text:0000000000000098 .L0 
     /tmp/ccPPXEGX.s:125    .text:00000000000000ac .L0 
     /tmp/ccPPXEGX.s:145    .rodata.str1.8:0000000000000020 .LC3
     /tmp/ccPPXEGX.s:225    .text:0000000000000128 .L0 
     /tmp/ccPPXEGX.s:237    .text:000000000000014c .L0 
     /tmp/ccPPXEGX.s:148    .rodata.str1.8:0000000000000028 .LC4
     /tmp/ccPPXEGX.s:252    .text:0000000000000164 .L0 
     /tmp/ccPPXEGX.s:258    .text:0000000000000178 .L0 
     /tmp/ccPPXEGX.s:353    .rodata.str1.8:0000000000000038 .LC5
     /tmp/ccPPXEGX.s:394    .text:0000000000000234 .L0 
     /tmp/ccPPXEGX.s:406    .text:0000000000000258 .L0 
     /tmp/ccPPXEGX.s:356    .rodata.str1.8:0000000000000040 .LC6
     /tmp/ccPPXEGX.s:421    .text:0000000000000278 .L0 
     /tmp/ccPPXEGX.s:359    .rodata.str1.8:0000000000000050 .LC7
     /tmp/ccPPXEGX.s:446    .text:0000000000000298 .L0 
     /tmp/ccPPXEGX.s:458    .text:00000000000002bc .L0 
     /tmp/ccPPXEGX.s:362    .rodata.str1.8:0000000000000058 .LC8
     /tmp/ccPPXEGX.s:470    .text:00000000000002dc .L0 
     /tmp/ccPPXEGX.s:483    .text:0000000000000300 .L0 
     /tmp/ccPPXEGX.s:490    .text:0000000000000314 .L0 
     /tmp/ccPPXEGX.s:502    .text:0000000000000338 .L0 
     /tmp/ccPPXEGX.s:517    .text:0000000000000358 .L0 
     /tmp/ccPPXEGX.s:523    .text:000000000000036c .L0 
     /tmp/ccPPXEGX.s:548    .rodata.str1.8:0000000000000068 .LC9
     /tmp/ccPPXEGX.s:589    .text:00000000000003b4 .L0 
     /tmp/ccPPXEGX.s:601    .text:00000000000003d8 .L0 
     /tmp/ccPPXEGX.s:551    .rodata.str1.8:0000000000000070 .LC10
     /tmp/ccPPXEGX.s:616    .text:00000000000003f8 .L0 
     /tmp/ccPPXEGX.s:554    .rodata.str1.8:0000000000000080 .LC11
     /tmp/ccPPXEGX.s:639    .text:0000000000000424 .L0 
     /tmp/ccPPXEGX.s:652    .text:0000000000000448 .L0 
     /tmp/ccPPXEGX.s:659    .text:000000000000045c .L0 
     /tmp/ccPPXEGX.s:671    .text:0000000000000480 .L0 
     /tmp/ccPPXEGX.s:557    .rodata.str1.8:0000000000000090 .LC12
     /tmp/ccPPXEGX.s:686    .text:00000000000004a0 .L0 
     /tmp/ccPPXEGX.s:692    .text:00000000000004b4 .L0 
     /tmp/ccPPXEGX.s:750    .text:00000000000004f4 .L0 
     /tmp/ccPPXEGX.s:717    .rodata.str1.8:00000000000000a0 .LC13
     /tmp/ccPPXEGX.s:756    .text:0000000000000508 .L0 
     /tmp/ccPPXEGX.s:762    .text:000000000000051c .L0 
     /tmp/ccPPXEGX.s:720    .rodata.str1.8:00000000000000b8 .LC14
     /tmp/ccPPXEGX.s:768    .text:0000000000000530 .L0 
     /tmp/ccPPXEGX.s:774    .text:0000000000000544 .L0 
     /tmp/ccPPXEGX.s:723    .rodata.str1.8:00000000000000d0 .LC15
     /tmp/ccPPXEGX.s:780    .text:0000000000000558 .L0 
     /tmp/ccPPXEGX.s:786    .text:000000000000056c .L0 
     /tmp/ccPPXEGX.s:726    .rodata.str1.8:00000000000000e8 .LC16
     /tmp/ccPPXEGX.s:792    .text:0000000000000580 .L0 
     /tmp/ccPPXEGX.s:804    .text:000000000000059c .L0 
GAS LISTING /tmp/ccPPXEGX.s 			page 28


     /tmp/ccPPXEGX.s:807    .text:00000000000005a8 .L0 
     /tmp/ccPPXEGX.s:810    .text:00000000000005b4 .L0 
     /tmp/ccPPXEGX.s:813    .text:00000000000005c0 .L0 
     /tmp/ccPPXEGX.s:85     .text:0000000000000054 .L7
     /tmp/ccPPXEGX.s:77     .text:0000000000000050 .L3
     /tmp/ccPPXEGX.s:45     .text:0000000000000020 .L4
     /tmp/ccPPXEGX.s:66     .text:000000000000003c .L5
     /tmp/ccPPXEGX.s:113    .text:0000000000000098 .L2
     /tmp/ccPPXEGX.s:57     .text:000000000000002c .L6
     /tmp/ccPPXEGX.s:218    .text:0000000000000120 .L15
     /tmp/ccPPXEGX.s:210    .text:000000000000011c .L11
     /tmp/ccPPXEGX.s:178    .text:00000000000000ec .L12
     /tmp/ccPPXEGX.s:199    .text:0000000000000108 .L13
     /tmp/ccPPXEGX.s:246    .text:0000000000000164 .L10
     /tmp/ccPPXEGX.s:190    .text:00000000000000f8 .L14
     /tmp/ccPPXEGX.s:324    .text:00000000000001f0 .L17
     /tmp/ccPPXEGX.s:341    .text:0000000000000208 .L22
     /tmp/ccPPXEGX.s:311    .text:00000000000001d0 .L19
     /tmp/ccPPXEGX.s:414    .text:0000000000000270 .L25
     /tmp/ccPPXEGX.s:391    .text:0000000000000234 .L29
     /tmp/ccPPXEGX.s:510    .text:0000000000000350 .L27
     /tmp/ccPPXEGX.s:487    .text:0000000000000314 .L30
     /tmp/ccPPXEGX.s:609    .text:00000000000003f0 .L33
     /tmp/ccPPXEGX.s:586    .text:00000000000003b4 .L37
     /tmp/ccPPXEGX.s:679    .text:0000000000000498 .L35
     /tmp/ccPPXEGX.s:656    .text:000000000000045c .L38
     /tmp/ccPPXEGX.s:801    .text:000000000000059c .L42
     /tmp/ccPPXEGX.s:796    .text:0000000000000594 .L40
     /tmp/ccPPXEGX.s:824    .text:00000000000005d8 .L41
     /tmp/ccPPXEGX.s:839    .text:00000000000005f4 .L39
     /tmp/ccPPXEGX.s:820    .text:00000000000005d4 .L44
     /tmp/ccPPXEGX.s:2009   .debug_abbrev:0000000000000000 .Ldebug_abbrev0
     /tmp/ccPPXEGX.s:2698   .debug_str:0000000000000046 .LASF45
     /tmp/ccPPXEGX.s:2704   .debug_str:000000000000012b .LASF46
     /tmp/ccPPXEGX.s:2762   .debug_str:00000000000002cd .LASF47
     /tmp/ccPPXEGX.s:5      .text:0000000000000000 .Ltext0
     /tmp/ccPPXEGX.s:879    .text:0000000000000608 .Letext0
     /tmp/ccPPXEGX.s:2686   .debug_line:0000000000000000 .Ldebug_line0
     /tmp/ccPPXEGX.s:2742   .debug_str:0000000000000245 .LASF0
     /tmp/ccPPXEGX.s:2732   .debug_str:0000000000000203 .LASF1
     /tmp/ccPPXEGX.s:2726   .debug_str:00000000000001d5 .LASF2
     /tmp/ccPPXEGX.s:2780   .debug_str:0000000000000352 .LASF3
     /tmp/ccPPXEGX.s:2706   .debug_str:0000000000000147 .LASF4
     /tmp/ccPPXEGX.s:2730   .debug_str:00000000000001f1 .LASF5
     /tmp/ccPPXEGX.s:2692   .debug_str:000000000000001f .LASF6
     /tmp/ccPPXEGX.s:2688   .debug_str:0000000000000000 .LASF7
     /tmp/ccPPXEGX.s:2720   .debug_str:00000000000001a0 .LASF8
     /tmp/ccPPXEGX.s:2750   .debug_str:0000000000000278 .LASF9
     /tmp/ccPPXEGX.s:2702   .debug_str:000000000000011d .LASF10
     /tmp/ccPPXEGX.s:2792   .debug_str:0000000000000397 .LASF11
     /tmp/ccPPXEGX.s:2722   .debug_str:00000000000001b3 .LASF12
     /tmp/ccPPXEGX.s:2784   .debug_str:000000000000036a .LASF13
     /tmp/ccPPXEGX.s:2758   .debug_str:00000000000002b3 .LASF14
     /tmp/ccPPXEGX.s:2736   .debug_str:000000000000021d .LASF15
     /tmp/ccPPXEGX.s:2716   .debug_str:0000000000000180 .LASF16
     /tmp/ccPPXEGX.s:2752   .debug_str:0000000000000288 .LASF17
     /tmp/ccPPXEGX.s:2754   .debug_str:000000000000029e .LASF18
GAS LISTING /tmp/ccPPXEGX.s 			page 29


     /tmp/ccPPXEGX.s:2760   .debug_str:00000000000002c3 .LASF19
     /tmp/ccPPXEGX.s:2708   .debug_str:000000000000014e .LASF20
     /tmp/ccPPXEGX.s:2718   .debug_str:0000000000000196 .LASF21
     /tmp/ccPPXEGX.s:2764   .debug_str:00000000000002f0 .LASF22
     /tmp/ccPPXEGX.s:2766   .debug_str:00000000000002fa .LASF23
     /tmp/ccPPXEGX.s:2700   .debug_str:000000000000010a .LASF28
     /tmp/ccPPXEGX.s:2712   .debug_str:000000000000015f .LASF30
     /tmp/ccPPXEGX.s:733    .text:00000000000004dc .LFB5
     /tmp/ccPPXEGX.s:854    .text:0000000000000608 .LFE5
     /tmp/ccPPXEGX.s:2770   .debug_str:0000000000000314 .LASF24
     /tmp/ccPPXEGX.s:815    .text:00000000000005cc .LBB18
     /tmp/ccPPXEGX.s:840    .text:00000000000005f4 .LBE18
     /tmp/ccPPXEGX.s:2734   .debug_str:0000000000000216 .LASF25
     /tmp/ccPPXEGX.s:2423   .debug_loc:0000000000000000 .LLST16
     /tmp/ccPPXEGX.s:2690   .debug_str:0000000000000013 .LASF26
     /tmp/ccPPXEGX.s:2710   .debug_str:0000000000000153 .LASF48
     /tmp/ccPPXEGX.s:2434   .debug_loc:0000000000000036 .LLST17
     /tmp/ccPPXEGX.s:2738   .debug_str:0000000000000229 .LASF27
     /tmp/ccPPXEGX.s:836    .text:00000000000005f0 .LVL104
     /tmp/ccPPXEGX.s:753    .text:0000000000000508 .LVL92
     /tmp/ccPPXEGX.s:758    .text:0000000000000518 .LVL93
     /tmp/ccPPXEGX.s:765    .text:0000000000000530 .LVL94
     /tmp/ccPPXEGX.s:770    .text:0000000000000540 .LVL95
     /tmp/ccPPXEGX.s:777    .text:0000000000000558 .LVL96
     /tmp/ccPPXEGX.s:782    .text:0000000000000568 .LVL97
     /tmp/ccPPXEGX.s:789    .text:0000000000000580 .LVL98
     /tmp/ccPPXEGX.s:794    .text:0000000000000590 .LVL99
     /tmp/ccPPXEGX.s:800    .text:000000000000059c .LVL100
     /tmp/ccPPXEGX.s:2776   .debug_str:0000000000000334 .LASF29
     /tmp/ccPPXEGX.s:2782   .debug_str:0000000000000358 .LASF31
     /tmp/ccPPXEGX.s:564    .text:0000000000000394 .LFB4
     /tmp/ccPPXEGX.s:713    .text:00000000000004dc .LFE4
     /tmp/ccPPXEGX.s:2441   .debug_loc:0000000000000059 .LLST13
     /tmp/ccPPXEGX.s:2455   .debug_loc:0000000000000092 .LLST14
     /tmp/ccPPXEGX.s:2748   .debug_str:0000000000000271 .LASF32
     /tmp/ccPPXEGX.s:2475   .debug_loc:00000000000000ef .LLST15
     /tmp/ccPPXEGX.s:591    .text:00000000000003c4 .LVL70
     /tmp/ccPPXEGX.s:598    .text:00000000000003d8 .LVL71
     /tmp/ccPPXEGX.s:603    .text:00000000000003e8 .LVL72
     /tmp/ccPPXEGX.s:618    .text:0000000000000408 .LVL75
     /tmp/ccPPXEGX.s:629    .text:0000000000000414 .LVL76
     /tmp/ccPPXEGX.s:634    .text:0000000000000420 .LVL77
     /tmp/ccPPXEGX.s:642    .text:0000000000000434 .LVL80
     /tmp/ccPPXEGX.s:649    .text:0000000000000448 .LVL81
     /tmp/ccPPXEGX.s:654    .text:0000000000000458 .LVL82
     /tmp/ccPPXEGX.s:661    .text:000000000000046c .LVL83
     /tmp/ccPPXEGX.s:668    .text:0000000000000480 .LVL84
     /tmp/ccPPXEGX.s:673    .text:0000000000000490 .LVL85
     /tmp/ccPPXEGX.s:688    .text:00000000000004b0 .LVL88
     /tmp/ccPPXEGX.s:696    .text:00000000000004c4 .LVL89
     /tmp/ccPPXEGX.s:2774   .debug_str:0000000000000328 .LASF33
     /tmp/ccPPXEGX.s:2740   .debug_str:0000000000000233 .LASF34
     /tmp/ccPPXEGX.s:369    .text:0000000000000214 .LFB3
     /tmp/ccPPXEGX.s:544    .text:0000000000000394 .LFE3
     /tmp/ccPPXEGX.s:2486   .debug_loc:0000000000000125 .LLST9
     /tmp/ccPPXEGX.s:2500   .debug_loc:000000000000015e .LLST10
     /tmp/ccPPXEGX.s:2520   .debug_loc:00000000000001bb .LLST11
GAS LISTING /tmp/ccPPXEGX.s 			page 30


     /tmp/ccPPXEGX.s:2528   .debug_loc:00000000000001df .LLST12
     /tmp/ccPPXEGX.s:396    .text:0000000000000244 .LVL41
     /tmp/ccPPXEGX.s:403    .text:0000000000000258 .LVL42
     /tmp/ccPPXEGX.s:408    .text:0000000000000268 .LVL43
     /tmp/ccPPXEGX.s:423    .text:0000000000000288 .LVL46
     /tmp/ccPPXEGX.s:434    .text:0000000000000294 .LVL47
     /tmp/ccPPXEGX.s:448    .text:00000000000002a8 .LVL49
     /tmp/ccPPXEGX.s:455    .text:00000000000002bc .LVL50
     /tmp/ccPPXEGX.s:460    .text:00000000000002cc .LVL51
     /tmp/ccPPXEGX.s:465    .text:00000000000002d8 .LVL52
     /tmp/ccPPXEGX.s:473    .text:00000000000002ec .LVL55
     /tmp/ccPPXEGX.s:480    .text:0000000000000300 .LVL56
     /tmp/ccPPXEGX.s:485    .text:0000000000000310 .LVL57
     /tmp/ccPPXEGX.s:492    .text:0000000000000324 .LVL58
     /tmp/ccPPXEGX.s:499    .text:0000000000000338 .LVL59
     /tmp/ccPPXEGX.s:504    .text:0000000000000348 .LVL60
     /tmp/ccPPXEGX.s:519    .text:0000000000000368 .LVL63
     /tmp/ccPPXEGX.s:527    .text:000000000000037c .LVL64
     /tmp/ccPPXEGX.s:2772   .debug_str:000000000000031c .LASF35
     /tmp/ccPPXEGX.s:2696   .debug_str:0000000000000034 .LASF36
     /tmp/ccPPXEGX.s:155    .text:00000000000000cc .LFB2
     /tmp/ccPPXEGX.s:278    .text:00000000000001a0 .LFE2
     /tmp/ccPPXEGX.s:2539   .debug_loc:0000000000000215 .LLST4
     /tmp/ccPPXEGX.s:173    .text:00000000000000e4 .LBB10
     /tmp/ccPPXEGX.s:249    .text:0000000000000164 .LBE10
     /tmp/ccPPXEGX.s:2553   .debug_loc:000000000000024e .LLST5
     /tmp/ccPPXEGX.s:2672   .debug_ranges:0000000000000000 .Ldebug_ranges0
     /tmp/ccPPXEGX.s:2565   .debug_loc:0000000000000285 .LLST6
     /tmp/ccPPXEGX.s:196    .text:0000000000000104 .LBB14
     /tmp/ccPPXEGX.s:211    .text:000000000000011c .LBE14
     /tmp/ccPPXEGX.s:2577   .debug_loc:00000000000002bc .LLST7
     /tmp/ccPPXEGX.s:185    .text:00000000000000f4 .LVL18
     /tmp/ccPPXEGX.s:227    .text:0000000000000138 .LVL24
     /tmp/ccPPXEGX.s:234    .text:000000000000014c .LVL25
     /tmp/ccPPXEGX.s:239    .text:000000000000015c .LVL26
     /tmp/ccPPXEGX.s:254    .text:0000000000000174 .LVL28
     /tmp/ccPPXEGX.s:262    .text:0000000000000188 .LVL29
     /tmp/ccPPXEGX.s:2756   .debug_str:00000000000002a7 .LASF37
     /tmp/ccPPXEGX.s:2778   .debug_str:0000000000000340 .LASF38
     /tmp/ccPPXEGX.s:21     .text:0000000000000000 .LFB1
     /tmp/ccPPXEGX.s:141    .text:00000000000000cc .LFE1
     /tmp/ccPPXEGX.s:2588   .debug_loc:00000000000002f2 .LLST0
     /tmp/ccPPXEGX.s:40     .text:0000000000000018 .LBB2
     /tmp/ccPPXEGX.s:116    .text:0000000000000098 .LBE2
     /tmp/ccPPXEGX.s:2602   .debug_loc:000000000000032b .LLST1
     /tmp/ccPPXEGX.s:2614   .debug_loc:0000000000000362 .LLST2
     /tmp/ccPPXEGX.s:63     .text:0000000000000038 .LBB6
     /tmp/ccPPXEGX.s:78     .text:0000000000000050 .LBE6
     /tmp/ccPPXEGX.s:2626   .debug_loc:0000000000000399 .LLST3
     /tmp/ccPPXEGX.s:52     .text:0000000000000028 .LVL3
     /tmp/ccPPXEGX.s:94     .text:000000000000006c .LVL9
     /tmp/ccPPXEGX.s:101    .text:0000000000000080 .LVL10
     /tmp/ccPPXEGX.s:106    .text:0000000000000090 .LVL11
     /tmp/ccPPXEGX.s:121    .text:00000000000000a8 .LVL13
     /tmp/ccPPXEGX.s:2788   .debug_str:0000000000000381 .LASF49
     /tmp/ccPPXEGX.s:2694   .debug_str:0000000000000026 .LASF50
     /tmp/ccPPXEGX.s:284    .text:00000000000001a0 .LFB0
GAS LISTING /tmp/ccPPXEGX.s 			page 31


     /tmp/ccPPXEGX.s:349    .text:0000000000000214 .LFE0
     /tmp/ccPPXEGX.s:2637   .debug_loc:00000000000003cf .LLST8
     /tmp/ccPPXEGX.s:316    .text:00000000000001dc .LVL33
     /tmp/ccPPXEGX.s:321    .text:00000000000001ec .LVL34
     /tmp/ccPPXEGX.s:346    .text:0000000000000210 .LVL37
     /tmp/ccPPXEGX.s:2786   .debug_str:000000000000037a .LASF51
     /tmp/ccPPXEGX.s:2744   .debug_str:0000000000000252 .LASF52
     /tmp/ccPPXEGX.s:2728   .debug_str:00000000000001e3 .LASF39
     /tmp/ccPPXEGX.s:2724   .debug_str:00000000000001c2 .LASF40
     /tmp/ccPPXEGX.s:2790   .debug_str:000000000000038b .LASF41
     /tmp/ccPPXEGX.s:2768   .debug_str:0000000000000304 .LASF42
     /tmp/ccPPXEGX.s:2746   .debug_str:0000000000000262 .LASF43
     /tmp/ccPPXEGX.s:2714   .debug_str:0000000000000177 .LASF44
     /tmp/ccPPXEGX.s:819    .text:00000000000005d4 .LVL101
     /tmp/ccPPXEGX.s:823    .text:00000000000005d8 .LVL102
     /tmp/ccPPXEGX.s:828    .text:00000000000005e0 .LVL103
     /tmp/ccPPXEGX.s:838    .text:00000000000005f4 .LVL105
     /tmp/ccPPXEGX.s:849    .text:0000000000000600 .LVL106
     /tmp/ccPPXEGX.s:567    .text:0000000000000394 .LVL67
     /tmp/ccPPXEGX.s:585    .text:00000000000003b4 .LVL69
     /tmp/ccPPXEGX.s:581    .text:00000000000003ac .LVL68
     /tmp/ccPPXEGX.s:606    .text:00000000000003ec .LVL73
     /tmp/ccPPXEGX.s:608    .text:00000000000003f0 .LVL74
     /tmp/ccPPXEGX.s:676    .text:0000000000000494 .LVL86
     /tmp/ccPPXEGX.s:678    .text:0000000000000498 .LVL87
     /tmp/ccPPXEGX.s:705    .text:00000000000004d0 .LVL90
     /tmp/ccPPXEGX.s:636    .text:0000000000000424 .LVL78
     /tmp/ccPPXEGX.s:640    .text:000000000000042c .LVL79
     /tmp/ccPPXEGX.s:708    .text:00000000000004d4 .LVL91
     /tmp/ccPPXEGX.s:372    .text:0000000000000214 .LVL38
     /tmp/ccPPXEGX.s:390    .text:0000000000000234 .LVL40
     /tmp/ccPPXEGX.s:386    .text:000000000000022c .LVL39
     /tmp/ccPPXEGX.s:411    .text:000000000000026c .LVL44
     /tmp/ccPPXEGX.s:413    .text:0000000000000270 .LVL45
     /tmp/ccPPXEGX.s:507    .text:000000000000034c .LVL61
     /tmp/ccPPXEGX.s:509    .text:0000000000000350 .LVL62
     /tmp/ccPPXEGX.s:536    .text:0000000000000388 .LVL65
     /tmp/ccPPXEGX.s:442    .text:0000000000000298 .LVL48
     /tmp/ccPPXEGX.s:467    .text:00000000000002dc .LVL53
     /tmp/ccPPXEGX.s:471    .text:00000000000002e4 .LVL54
     /tmp/ccPPXEGX.s:539    .text:000000000000038c .LVL66
     /tmp/ccPPXEGX.s:158    .text:00000000000000cc .LVL15
     /tmp/ccPPXEGX.s:177    .text:00000000000000ec .LVL17
     /tmp/ccPPXEGX.s:172    .text:00000000000000e4 .LVL16
     /tmp/ccPPXEGX.s:273    .text:0000000000000198 .LVL30
     /tmp/ccPPXEGX.s:217    .text:0000000000000120 .LVL23
     /tmp/ccPPXEGX.s:245    .text:0000000000000164 .LVL27
     /tmp/ccPPXEGX.s:200    .text:0000000000000108 .LVL20
     /tmp/ccPPXEGX.s:209    .text:000000000000011c .LVL22
     /tmp/ccPPXEGX.s:25     .text:0000000000000000 .LVL0
     /tmp/ccPPXEGX.s:44     .text:0000000000000020 .LVL2
     /tmp/ccPPXEGX.s:39     .text:0000000000000018 .LVL1
     /tmp/ccPPXEGX.s:136    .text:00000000000000c4 .LVL14
     /tmp/ccPPXEGX.s:84     .text:0000000000000054 .LVL8
     /tmp/ccPPXEGX.s:112    .text:0000000000000098 .LVL12
     /tmp/ccPPXEGX.s:67     .text:000000000000003c .LVL5
     /tmp/ccPPXEGX.s:76     .text:0000000000000050 .LVL7
GAS LISTING /tmp/ccPPXEGX.s 			page 32


     /tmp/ccPPXEGX.s:287    .text:00000000000001a0 .LVL31
     /tmp/ccPPXEGX.s:310    .text:00000000000001d0 .LVL32
     /tmp/ccPPXEGX.s:334    .text:00000000000001fc .LVL35
     /tmp/ccPPXEGX.s:340    .text:0000000000000208 .LVL36
     /tmp/ccPPXEGX.s:884    .debug_info:0000000000000000 .Ldebug_info0
     /tmp/ccPPXEGX.s:47     .text:0000000000000020 .LBB4
     /tmp/ccPPXEGX.s:80     .text:0000000000000050 .LBE4
     /tmp/ccPPXEGX.s:108    .text:0000000000000090 .LBB8
     /tmp/ccPPXEGX.s:114    .text:0000000000000098 .LBE8
     /tmp/ccPPXEGX.s:180    .text:00000000000000ec .LBB12
     /tmp/ccPPXEGX.s:213    .text:000000000000011c .LBE12
     /tmp/ccPPXEGX.s:241    .text:000000000000015c .LBB16
     /tmp/ccPPXEGX.s:247    .text:0000000000000164 .LBE16

UNDEFINED SYMBOLS
thread_dispatch
_Z11printStringPKc
_Z8printIntiii
thread_create
_ZdlPv
