GAS LISTING /tmp/ccxZaPj9.s 			page 1


   1              		.file	"Threads_C_API_test.cpp"
   2              		.option pic
   3              		.option norelax
   4              		.text
   5              	.Ltext0:
   6              		.section	.rodata.str1.8,"aMS",@progbits,1
   7              		.align	3
   8              	.LC0:
   9 0000 413A2069 		.string	"A: i="
   9      3D00
  10 0006 0000     		.align	3
  11              	.LC1:
  12 0008 0A00     		.string	"\n"
  13 000a 00000000 		.align	3
  13      0000
  14              	.LC2:
  15 0010 41206669 		.string	"A finished!\n"
  15      6E697368 
  15      6564210A 
  15      00
  16              		.text
  17              		.align	2
  18              		.globl	_Z11workerBodyAPv
  20              	_Z11workerBodyAPv:
  21              	.LFB24:
  22              		.file 1 "test/Threads_C_API_test.cpp"
   1:test/Threads_C_API_test.cpp **** //
   2:test/Threads_C_API_test.cpp **** // Created by os on 5/16/22.
   3:test/Threads_C_API_test.cpp **** //
   4:test/Threads_C_API_test.cpp **** 
   5:test/Threads_C_API_test.cpp **** #include "Threads_C_API_test.hpp"
   6:test/Threads_C_API_test.cpp **** 
   7:test/Threads_C_API_test.cpp **** static bool finishedA = false;
   8:test/Threads_C_API_test.cpp **** static bool finishedB = false;
   9:test/Threads_C_API_test.cpp **** static bool finishedC = false;
  10:test/Threads_C_API_test.cpp **** static bool finishedD = false;
  11:test/Threads_C_API_test.cpp **** 
  12:test/Threads_C_API_test.cpp **** static uint64 fibonacci(uint64 n) {
  13:test/Threads_C_API_test.cpp ****     if (n == 0 || n == 1) { return n; }
  14:test/Threads_C_API_test.cpp ****     if (n % 10 == 0) { thread_dispatch(); }
  15:test/Threads_C_API_test.cpp ****     return fibonacci(n - 1) + fibonacci(n - 2);
  16:test/Threads_C_API_test.cpp **** }
  17:test/Threads_C_API_test.cpp **** 
  18:test/Threads_C_API_test.cpp **** void workerBodyA(void* arg) {
  23              		.loc 1 18 29
  24              		.cfi_startproc
  25              	.LVL0:
  26 0000 130101FE 		addi	sp,sp,-32
  27              		.cfi_def_cfa_offset 32
  28 0004 233C1100 		sd	ra,24(sp)
  29 0008 23388100 		sd	s0,16(sp)
  30 000c 23349100 		sd	s1,8(sp)
  31              		.cfi_offset 1, -8
  32              		.cfi_offset 8, -16
  33              		.cfi_offset 9, -24
  34 0010 13040102 		addi	s0,sp,32
  35              		.cfi_def_cfa 8, 0
GAS LISTING /tmp/ccxZaPj9.s 			page 2


  19:test/Threads_C_API_test.cpp ****     for (uint64 i = 0; i < 10; i++) {
  36              		.loc 1 19 5
  37              	.LVL1:
  38              	.LBB2:
  39              		.loc 1 19 17 is_stmt 0
  40 0014 93040000 		li	s1,0
  41 0018 6F00C002 		j	.L7
  42              	.LVL2:
  43              	.L4:
  44              	.LBB3:
  45              	.LBB4:
  20:test/Threads_C_API_test.cpp ****         printString("A: i="); printInt(i); printString("\n");
  21:test/Threads_C_API_test.cpp ****         for (uint64 j = 0; j < 1000; j++) {
  46              		.loc 1 21 9 is_stmt 1 discriminator 2
  47 001c 93861600 		addi	a3,a3,1
  48              	.LVL3:
  49              	.L6:
  50              		.loc 1 21 30 discriminator 1
  51 0020 9307703E 		li	a5,999
  52 0024 63EED700 		bgtu	a3,a5,.L3
  53              	.LBB5:
  22:test/Threads_C_API_test.cpp ****             //Riscv::printString("A j : ");
  23:test/Threads_C_API_test.cpp ****             //Riscv::printInteger(j);
  24:test/Threads_C_API_test.cpp ****             for (uint64 k = 0; k < 30000; k++) { /* busy wait */ }
  54              		.loc 1 24 25 is_stmt 0
  55 0028 13070000 		li	a4,0
  56              	.L5:
  57              	.LVL4:
  58              		.loc 1 24 34 is_stmt 1 discriminator 3
  59 002c B7770000 		li	a5,28672
  60 0030 9387F752 		addi	a5,a5,1327
  61 0034 E3E4E7FE 		bgtu	a4,a5,.L4
  62              		.loc 1 24 13 discriminator 2
  63 0038 13071700 		addi	a4,a4,1
  64              	.LVL5:
  65 003c 6FF01FFF 		j	.L5
  66              	.LVL6:
  67              	.L3:
  68              	.LBE5:
  69              	.LBE4:
  70              	.LBE3:
  19:test/Threads_C_API_test.cpp ****         printString("A: i="); printInt(i); printString("\n");
  71              		.loc 1 19 5 discriminator 2
  72 0040 93841400 		addi	s1,s1,1
  73              	.LVL7:
  74              	.L7:
  19:test/Threads_C_API_test.cpp ****         printString("A: i="); printInt(i); printString("\n");
  75              		.loc 1 19 26 discriminator 1
  76 0044 93079000 		li	a5,9
  77 0048 63E09704 		bgtu	s1,a5,.L2
  78              	.LBB7:
  20:test/Threads_C_API_test.cpp ****         printString("A: i="); printInt(i); printString("\n");
  79              		.loc 1 20 9
  20:test/Threads_C_API_test.cpp ****         printString("A: i="); printInt(i); printString("\n");
  80              		.loc 1 20 20 is_stmt 0
  81 004c 17050000 		lla	a0,.LC0
  81      13050500 
GAS LISTING /tmp/ccxZaPj9.s 			page 3


  82 0054 97000000 		call	_Z11printStringPKc@plt
  82      E7800000 
  83              	.LVL8:
  20:test/Threads_C_API_test.cpp ****         printString("A: i="); printInt(i); printString("\n");
  84              		.loc 1 20 31 is_stmt 1
  20:test/Threads_C_API_test.cpp ****         printString("A: i="); printInt(i); printString("\n");
  85              		.loc 1 20 39 is_stmt 0
  86 005c 13060000 		li	a2,0
  87 0060 9305A000 		li	a1,10
  88 0064 1B850400 		sext.w	a0,s1
  89 0068 97000000 		call	_Z8printIntiii@plt
  89      E7800000 
  90              	.LVL9:
  20:test/Threads_C_API_test.cpp ****         printString("A: i="); printInt(i); printString("\n");
  91              		.loc 1 20 44 is_stmt 1
  20:test/Threads_C_API_test.cpp ****         printString("A: i="); printInt(i); printString("\n");
  92              		.loc 1 20 55 is_stmt 0
  93 0070 17050000 		lla	a0,.LC1
  93      13050500 
  94 0078 97000000 		call	_Z11printStringPKc@plt
  94      E7800000 
  95              	.LVL10:
  21:test/Threads_C_API_test.cpp ****             //Riscv::printString("A j : ");
  96              		.loc 1 21 9 is_stmt 1
  97              	.LBB6:
  21:test/Threads_C_API_test.cpp ****             //Riscv::printString("A j : ");
  98              		.loc 1 21 21 is_stmt 0
  99 0080 93060000 		li	a3,0
 100 0084 6FF0DFF9 		j	.L6
 101              	.LVL11:
 102              	.L2:
 103              	.LBE6:
 104              	.LBE7:
 105              	.LBE2:
  25:test/Threads_C_API_test.cpp ****             //thread_dispatch();
  26:test/Threads_C_API_test.cpp ****         }
  27:test/Threads_C_API_test.cpp ****     }
  28:test/Threads_C_API_test.cpp ****     printString("A finished!\n");
 106              		.loc 1 28 5 is_stmt 1
 107              		.loc 1 28 16 is_stmt 0
 108 0088 17050000 		lla	a0,.LC2
 108      13050500 
 109 0090 97000000 		call	_Z11printStringPKc@plt
 109      E7800000 
 110              	.LVL12:
  29:test/Threads_C_API_test.cpp ****     finishedA = true;
 111              		.loc 1 29 5 is_stmt 1
 112              		.loc 1 29 15 is_stmt 0
 113 0098 93071000 		li	a5,1
 114 009c 17070000 		sb	a5,.LANCHOR0,a4
 114      2300F700 
  30:test/Threads_C_API_test.cpp **** }
 115              		.loc 1 30 1
 116 00a4 83308101 		ld	ra,24(sp)
 117              		.cfi_restore 1
 118 00a8 03340101 		ld	s0,16(sp)
 119              		.cfi_restore 8
GAS LISTING /tmp/ccxZaPj9.s 			page 4


 120              		.cfi_def_cfa 2, 32
 121 00ac 83348100 		ld	s1,8(sp)
 122              		.cfi_restore 9
 123              	.LVL13:
 124 00b0 13010102 		addi	sp,sp,32
 125              		.cfi_def_cfa_offset 0
 126 00b4 67800000 		jr	ra
 127              		.cfi_endproc
 128              	.LFE24:
 130              		.section	.rodata.str1.8
 131 001d 000000   		.align	3
 132              	.LC3:
 133 0020 423A2069 		.string	"B: i="
 133      3D00
 134 0026 0000     		.align	3
 135              	.LC4:
 136 0028 42206669 		.string	"B finished!\n"
 136      6E697368 
 136      6564210A 
 136      00
 137              		.text
 138              		.align	2
 139              		.globl	_Z11workerBodyBPv
 141              	_Z11workerBodyBPv:
 142              	.LFB25:
  31:test/Threads_C_API_test.cpp **** 
  32:test/Threads_C_API_test.cpp **** void workerBodyB(void* arg) {
 143              		.loc 1 32 29 is_stmt 1
 144              		.cfi_startproc
 145              	.LVL14:
 146 00b8 130101FE 		addi	sp,sp,-32
 147              		.cfi_def_cfa_offset 32
 148 00bc 233C1100 		sd	ra,24(sp)
 149 00c0 23388100 		sd	s0,16(sp)
 150 00c4 23349100 		sd	s1,8(sp)
 151              		.cfi_offset 1, -8
 152              		.cfi_offset 8, -16
 153              		.cfi_offset 9, -24
 154 00c8 13040102 		addi	s0,sp,32
 155              		.cfi_def_cfa 8, 0
  33:test/Threads_C_API_test.cpp ****     for (uint64 i = 0; i < 16; i++) {
 156              		.loc 1 33 5
 157              	.LVL15:
 158              	.LBB8:
 159              		.loc 1 33 17 is_stmt 0
 160 00cc 93040000 		li	s1,0
 161 00d0 6F00C002 		j	.L15
 162              	.LVL16:
 163              	.L12:
 164              	.LBB9:
 165              	.LBB10:
  34:test/Threads_C_API_test.cpp ****         printString("B: i="); printInt(i); printString("\n");
  35:test/Threads_C_API_test.cpp ****         for (uint64 j = 0; j < 1000; j++) {
 166              		.loc 1 35 9 is_stmt 1 discriminator 2
 167 00d4 93861600 		addi	a3,a3,1
 168              	.LVL17:
 169              	.L14:
GAS LISTING /tmp/ccxZaPj9.s 			page 5


 170              		.loc 1 35 30 discriminator 1
 171 00d8 9307703E 		li	a5,999
 172 00dc 63EED700 		bgtu	a3,a5,.L11
 173              	.LBB11:
  36:test/Threads_C_API_test.cpp ****             //Riscv::printString("B j : ");
  37:test/Threads_C_API_test.cpp ****             //Riscv::printInteger(j);
  38:test/Threads_C_API_test.cpp ****             for (uint64 k = 0; k < 30000; k++) { /* busy wait */ }
 174              		.loc 1 38 25 is_stmt 0
 175 00e0 13070000 		li	a4,0
 176              	.L13:
 177              	.LVL18:
 178              		.loc 1 38 34 is_stmt 1 discriminator 3
 179 00e4 B7770000 		li	a5,28672
 180 00e8 9387F752 		addi	a5,a5,1327
 181 00ec E3E4E7FE 		bgtu	a4,a5,.L12
 182              		.loc 1 38 13 discriminator 2
 183 00f0 13071700 		addi	a4,a4,1
 184              	.LVL19:
 185 00f4 6FF01FFF 		j	.L13
 186              	.LVL20:
 187              	.L11:
 188              	.LBE11:
 189              	.LBE10:
 190              	.LBE9:
  33:test/Threads_C_API_test.cpp ****         printString("B: i="); printInt(i); printString("\n");
 191              		.loc 1 33 5 discriminator 2
 192 00f8 93841400 		addi	s1,s1,1
 193              	.LVL21:
 194              	.L15:
  33:test/Threads_C_API_test.cpp ****         printString("B: i="); printInt(i); printString("\n");
 195              		.loc 1 33 26 discriminator 1
 196 00fc 9307F000 		li	a5,15
 197 0100 63E09704 		bgtu	s1,a5,.L10
 198              	.LBB13:
  34:test/Threads_C_API_test.cpp ****         printString("B: i="); printInt(i); printString("\n");
 199              		.loc 1 34 9
  34:test/Threads_C_API_test.cpp ****         printString("B: i="); printInt(i); printString("\n");
 200              		.loc 1 34 20 is_stmt 0
 201 0104 17050000 		lla	a0,.LC3
 201      13050500 
 202 010c 97000000 		call	_Z11printStringPKc@plt
 202      E7800000 
 203              	.LVL22:
  34:test/Threads_C_API_test.cpp ****         printString("B: i="); printInt(i); printString("\n");
 204              		.loc 1 34 31 is_stmt 1
  34:test/Threads_C_API_test.cpp ****         printString("B: i="); printInt(i); printString("\n");
 205              		.loc 1 34 39 is_stmt 0
 206 0114 13060000 		li	a2,0
 207 0118 9305A000 		li	a1,10
 208 011c 1B850400 		sext.w	a0,s1
 209 0120 97000000 		call	_Z8printIntiii@plt
 209      E7800000 
 210              	.LVL23:
  34:test/Threads_C_API_test.cpp ****         printString("B: i="); printInt(i); printString("\n");
 211              		.loc 1 34 44 is_stmt 1
  34:test/Threads_C_API_test.cpp ****         printString("B: i="); printInt(i); printString("\n");
 212              		.loc 1 34 55 is_stmt 0
GAS LISTING /tmp/ccxZaPj9.s 			page 6


 213 0128 17050000 		lla	a0,.LC1
 213      13050500 
 214 0130 97000000 		call	_Z11printStringPKc@plt
 214      E7800000 
 215              	.LVL24:
  35:test/Threads_C_API_test.cpp ****             //Riscv::printString("B j : ");
 216              		.loc 1 35 9 is_stmt 1
 217              	.LBB12:
  35:test/Threads_C_API_test.cpp ****             //Riscv::printString("B j : ");
 218              		.loc 1 35 21 is_stmt 0
 219 0138 93060000 		li	a3,0
 220 013c 6FF0DFF9 		j	.L14
 221              	.LVL25:
 222              	.L10:
 223              	.LBE12:
 224              	.LBE13:
 225              	.LBE8:
  39:test/Threads_C_API_test.cpp ****             //thread_dispatch();
  40:test/Threads_C_API_test.cpp ****         }
  41:test/Threads_C_API_test.cpp ****     }
  42:test/Threads_C_API_test.cpp ****     printString("B finished!\n");
 226              		.loc 1 42 5 is_stmt 1
 227              		.loc 1 42 16 is_stmt 0
 228 0140 17050000 		lla	a0,.LC4
 228      13050500 
 229 0148 97000000 		call	_Z11printStringPKc@plt
 229      E7800000 
 230              	.LVL26:
  43:test/Threads_C_API_test.cpp ****     finishedB = true;
 231              		.loc 1 43 5 is_stmt 1
 232              		.loc 1 43 15 is_stmt 0
 233 0150 93071000 		li	a5,1
 234 0154 17070000 		sb	a5,.LANCHOR0+1,a4
 234      2300F700 
  44:test/Threads_C_API_test.cpp ****     thread_dispatch();
 235              		.loc 1 44 5 is_stmt 1
 236              		.loc 1 44 20 is_stmt 0
 237 015c 97000000 		call	thread_dispatch@plt
 237      E7800000 
 238              	.LVL27:
  45:test/Threads_C_API_test.cpp **** }
 239              		.loc 1 45 1
 240 0164 83308101 		ld	ra,24(sp)
 241              		.cfi_restore 1
 242 0168 03340101 		ld	s0,16(sp)
 243              		.cfi_restore 8
 244              		.cfi_def_cfa 2, 32
 245 016c 83348100 		ld	s1,8(sp)
 246              		.cfi_restore 9
 247              	.LVL28:
 248 0170 13010102 		addi	sp,sp,32
 249              		.cfi_def_cfa_offset 0
 250 0174 67800000 		jr	ra
 251              		.cfi_endproc
 252              	.LFE25:
 254              		.align	2
 256              	_ZL9fibonaccim:
GAS LISTING /tmp/ccxZaPj9.s 			page 7


 257              	.LFB23:
  12:test/Threads_C_API_test.cpp ****     if (n == 0 || n == 1) { return n; }
 258              		.loc 1 12 35 is_stmt 1
 259              		.cfi_startproc
 260              	.LVL29:
 261 0178 130101FE 		addi	sp,sp,-32
 262              		.cfi_def_cfa_offset 32
 263 017c 233C1100 		sd	ra,24(sp)
 264 0180 23388100 		sd	s0,16(sp)
 265 0184 23349100 		sd	s1,8(sp)
 266 0188 23302101 		sd	s2,0(sp)
 267              		.cfi_offset 1, -8
 268              		.cfi_offset 8, -16
 269              		.cfi_offset 9, -24
 270              		.cfi_offset 18, -32
 271 018c 13040102 		addi	s0,sp,32
 272              		.cfi_def_cfa 8, 0
 273 0190 93040500 		mv	s1,a0
  13:test/Threads_C_API_test.cpp ****     if (n % 10 == 0) { thread_dispatch(); }
 274              		.loc 1 13 5
 275 0194 93071000 		li	a5,1
 276 0198 63F8A702 		bleu	a0,a5,.L17
  14:test/Threads_C_API_test.cpp ****     return fibonacci(n - 1) + fibonacci(n - 2);
 277              		.loc 1 14 5
  14:test/Threads_C_API_test.cpp ****     return fibonacci(n - 1) + fibonacci(n - 2);
 278              		.loc 1 14 11 is_stmt 0
 279 019c 9307A000 		li	a5,10
 280 01a0 B377F502 		remu	a5,a0,a5
  14:test/Threads_C_API_test.cpp ****     return fibonacci(n - 1) + fibonacci(n - 2);
 281              		.loc 1 14 5
 282 01a4 638E0702 		beqz	a5,.L22
 283              	.LVL30:
 284              	.L19:
  15:test/Threads_C_API_test.cpp **** }
 285              		.loc 1 15 5 is_stmt 1
  15:test/Threads_C_API_test.cpp **** }
 286              		.loc 1 15 21 is_stmt 0
 287 01a8 1385F4FF 		addi	a0,s1,-1
 288 01ac 97000000 		call	_ZL9fibonaccim
 288      E7800000 
 289              	.LVL31:
 290 01b4 13090500 		mv	s2,a0
  15:test/Threads_C_API_test.cpp **** }
 291              		.loc 1 15 40
 292 01b8 1385E4FF 		addi	a0,s1,-2
 293 01bc 97000000 		call	_ZL9fibonaccim
 293      E7800000 
 294              	.LVL32:
  15:test/Threads_C_API_test.cpp **** }
 295              		.loc 1 15 46
 296 01c4 3305A900 		add	a0,s2,a0
 297              	.L17:
  16:test/Threads_C_API_test.cpp **** 
 298              		.loc 1 16 1
 299 01c8 83308101 		ld	ra,24(sp)
 300              		.cfi_remember_state
 301              		.cfi_restore 1
GAS LISTING /tmp/ccxZaPj9.s 			page 8


 302 01cc 03340101 		ld	s0,16(sp)
 303              		.cfi_restore 8
 304              		.cfi_def_cfa 2, 32
 305 01d0 83348100 		ld	s1,8(sp)
 306              		.cfi_restore 9
 307              	.LVL33:
 308 01d4 03390100 		ld	s2,0(sp)
 309              		.cfi_restore 18
 310 01d8 13010102 		addi	sp,sp,32
 311              		.cfi_def_cfa_offset 0
 312 01dc 67800000 		jr	ra
 313              	.LVL34:
 314              	.L22:
 315              		.cfi_restore_state
  14:test/Threads_C_API_test.cpp ****     return fibonacci(n - 1) + fibonacci(n - 2);
 316              		.loc 1 14 24 is_stmt 1 discriminator 1
  14:test/Threads_C_API_test.cpp ****     return fibonacci(n - 1) + fibonacci(n - 2);
 317              		.loc 1 14 39 is_stmt 0 discriminator 1
 318 01e0 97000000 		call	thread_dispatch@plt
 318      E7800000 
 319              	.LVL35:
 320 01e8 6FF01FFC 		j	.L19
 321              		.cfi_endproc
 322              	.LFE23:
 324              		.section	.rodata.str1.8
 325 0035 000000   		.align	3
 326              	.LC5:
 327 0038 433A2069 		.string	"C: i="
 327      3D00
 328 003e 0000     		.align	3
 329              	.LC6:
 330 0040 433A2064 		.string	"C: dispatch\n"
 330      69737061 
 330      7463680A 
 330      00
 331 004d 000000   		.align	3
 332              	.LC7:
 333 0050 433A2074 		.string	"C: t1="
 333      313D00
 334 0057 00       		.align	3
 335              	.LC8:
 336 0058 433A2066 		.string	"C: fibonaci="
 336      69626F6E 
 336      6163693D 
 336      00
 337 0065 000000   		.align	3
 338              	.LC9:
 339 0068 43206669 		.string	"C finished!\n"
 339      6E697368 
 339      6564210A 
 339      00
 340              		.text
 341              		.align	2
 342              		.globl	_Z11workerBodyCPv
 344              	_Z11workerBodyCPv:
 345              	.LFB26:
  46:test/Threads_C_API_test.cpp **** 
GAS LISTING /tmp/ccxZaPj9.s 			page 9


  47:test/Threads_C_API_test.cpp **** void workerBodyC(void* arg) {
 346              		.loc 1 47 29 is_stmt 1
 347              		.cfi_startproc
 348              	.LVL36:
 349 01ec 130101FE 		addi	sp,sp,-32
 350              		.cfi_def_cfa_offset 32
 351 01f0 233C1100 		sd	ra,24(sp)
 352 01f4 23388100 		sd	s0,16(sp)
 353 01f8 23349100 		sd	s1,8(sp)
 354 01fc 23302101 		sd	s2,0(sp)
 355              		.cfi_offset 1, -8
 356              		.cfi_offset 8, -16
 357              		.cfi_offset 9, -24
 358              		.cfi_offset 18, -32
 359 0200 13040102 		addi	s0,sp,32
 360              		.cfi_def_cfa 8, 0
  48:test/Threads_C_API_test.cpp ****     uint8 i = 0;
 361              		.loc 1 48 5
 362              	.LVL37:
 363              		.loc 1 48 11 is_stmt 0
 364 0204 93040000 		li	s1,0
 365 0208 6F000004 		j	.L25
 366              	.LVL38:
 367              	.L29:
  49:test/Threads_C_API_test.cpp ****     for (; i < 3; i++) {
  50:test/Threads_C_API_test.cpp ****         printString("C: i="); printInt(i); printString("\n");
 368              		.loc 1 50 9 is_stmt 1 discriminator 1
 369              		.loc 1 50 20 is_stmt 0 discriminator 1
 370 020c 17050000 		lla	a0,.LC5
 370      13050500 
 371 0214 97000000 		call	_Z11printStringPKc@plt
 371      E7800000 
 372              	.LVL39:
 373              		.loc 1 50 31 is_stmt 1 discriminator 1
 374              		.loc 1 50 39 is_stmt 0 discriminator 1
 375 021c 13060000 		li	a2,0
 376 0220 9305A000 		li	a1,10
 377 0224 13850400 		mv	a0,s1
 378 0228 97000000 		call	_Z8printIntiii@plt
 378      E7800000 
 379              	.LVL40:
 380              		.loc 1 50 44 is_stmt 1 discriminator 1
 381              		.loc 1 50 55 is_stmt 0 discriminator 1
 382 0230 17050000 		lla	a0,.LC1
 382      13050500 
 383 0238 97000000 		call	_Z11printStringPKc@plt
 383      E7800000 
 384              	.LVL41:
  49:test/Threads_C_API_test.cpp ****     for (; i < 3; i++) {
 385              		.loc 1 49 5 is_stmt 1 discriminator 1
 386 0240 9B841400 		addiw	s1,s1,1
 387              	.LVL42:
 388 0244 93F4F40F 		andi	s1,s1,0xff
 389              	.LVL43:
 390              	.L25:
  49:test/Threads_C_API_test.cpp ****     for (; i < 3; i++) {
 391              		.loc 1 49 5 discriminator 2
GAS LISTING /tmp/ccxZaPj9.s 			page 10


  49:test/Threads_C_API_test.cpp ****     for (; i < 3; i++) {
 392              		.loc 1 49 14 discriminator 2
 393 0248 93072000 		li	a5,2
 394 024c E3F097FC 		bleu	s1,a5,.L29
  51:test/Threads_C_API_test.cpp ****     }
  52:test/Threads_C_API_test.cpp **** 
  53:test/Threads_C_API_test.cpp ****     printString("C: dispatch\n");
 395              		.loc 1 53 5
 396              		.loc 1 53 16 is_stmt 0
 397 0250 17050000 		lla	a0,.LC6
 397      13050500 
 398 0258 97000000 		call	_Z11printStringPKc@plt
 398      E7800000 
 399              	.LVL44:
  54:test/Threads_C_API_test.cpp ****     __asm__ ("li t1, 7");
 400              		.loc 1 54 5 is_stmt 1
 401              		.loc 1 54 25 is_stmt 0
 402              	#APP
 403              	# 54 "test/Threads_C_API_test.cpp" 1
  55              	    thread_dispatch();
 404              		li t1, 7
 405              	# 0 "" 2
 406              		.loc 1 55 5 is_stmt 1
 407              		.loc 1 55 20 is_stmt 0
 408              	#NO_APP
 409 0264 97000000 		call	thread_dispatch@plt
 409      E7800000 
 410              	.LVL45:
  56:test/Threads_C_API_test.cpp **** 
  57:test/Threads_C_API_test.cpp ****     uint64 t1 = 0;
 411              		.loc 1 57 5 is_stmt 1
  58:test/Threads_C_API_test.cpp ****     __asm__ ("mv %[t1], t1" : [t1] "=r"(t1));
 412              		.loc 1 58 5
 413              		.loc 1 58 45 is_stmt 0
 414              	#APP
 415              	# 58 "test/Threads_C_API_test.cpp" 1
  59              	
 416              		mv s2, t1
 417              	# 0 "" 2
 418              	.LVL46:
  60:test/Threads_C_API_test.cpp ****     printString("C: t1="); printInt(t1); printString("\n");
 419              		.loc 1 60 5 is_stmt 1
 420              		.loc 1 60 16 is_stmt 0
 421              	#NO_APP
 422 0270 17050000 		lla	a0,.LC7
 422      13050500 
 423 0278 97000000 		call	_Z11printStringPKc@plt
 423      E7800000 
 424              	.LVL47:
 425              		.loc 1 60 28 is_stmt 1
 426              		.loc 1 60 36 is_stmt 0
 427 0280 13060000 		li	a2,0
 428 0284 9305A000 		li	a1,10
 429 0288 1B050900 		sext.w	a0,s2
 430 028c 97000000 		call	_Z8printIntiii@plt
 430      E7800000 
 431              	.LVL48:
GAS LISTING /tmp/ccxZaPj9.s 			page 11


 432              		.loc 1 60 42 is_stmt 1
 433              		.loc 1 60 53 is_stmt 0
 434 0294 17050000 		lla	a0,.LC1
 434      13050500 
 435 029c 97000000 		call	_Z11printStringPKc@plt
 435      E7800000 
 436              	.LVL49:
  61:test/Threads_C_API_test.cpp **** 
  62:test/Threads_C_API_test.cpp ****     uint64 result = fibonacci(12);
 437              		.loc 1 62 5 is_stmt 1
 438              		.loc 1 62 30 is_stmt 0
 439 02a4 1305C000 		li	a0,12
 440 02a8 97000000 		call	_ZL9fibonaccim
 440      E7800000 
 441              	.LVL50:
 442 02b0 13090500 		mv	s2,a0
 443              	.LVL51:
  63:test/Threads_C_API_test.cpp ****     printString("C: fibonaci="); printInt(result); printString("\n");
 444              		.loc 1 63 5 is_stmt 1
 445              		.loc 1 63 16 is_stmt 0
 446 02b4 17050000 		lla	a0,.LC8
 446      13050500 
 447              	.LVL52:
 448 02bc 97000000 		call	_Z11printStringPKc@plt
 448      E7800000 
 449              	.LVL53:
 450              		.loc 1 63 34 is_stmt 1
 451              		.loc 1 63 42 is_stmt 0
 452 02c4 13060000 		li	a2,0
 453 02c8 9305A000 		li	a1,10
 454 02cc 1B050900 		sext.w	a0,s2
 455 02d0 97000000 		call	_Z8printIntiii@plt
 455      E7800000 
 456              	.LVL54:
 457              		.loc 1 63 52 is_stmt 1
 458              		.loc 1 63 63 is_stmt 0
 459 02d8 17050000 		lla	a0,.LC1
 459      13050500 
 460 02e0 97000000 		call	_Z11printStringPKc@plt
 460      E7800000 
 461              	.LVL55:
 462 02e8 6F000004 		j	.L27
 463              	.L30:
  64:test/Threads_C_API_test.cpp **** 
  65:test/Threads_C_API_test.cpp ****     for (; i < 6; i++) {
  66:test/Threads_C_API_test.cpp ****         printString("C: i="); printInt(i); printString("\n");
 464              		.loc 1 66 9 is_stmt 1 discriminator 1
 465              		.loc 1 66 20 is_stmt 0 discriminator 1
 466 02ec 17050000 		lla	a0,.LC5
 466      13050500 
 467 02f4 97000000 		call	_Z11printStringPKc@plt
 467      E7800000 
 468              	.LVL56:
 469              		.loc 1 66 31 is_stmt 1 discriminator 1
 470              		.loc 1 66 39 is_stmt 0 discriminator 1
 471 02fc 13060000 		li	a2,0
 472 0300 9305A000 		li	a1,10
GAS LISTING /tmp/ccxZaPj9.s 			page 12


 473 0304 13850400 		mv	a0,s1
 474 0308 97000000 		call	_Z8printIntiii@plt
 474      E7800000 
 475              	.LVL57:
 476              		.loc 1 66 44 is_stmt 1 discriminator 1
 477              		.loc 1 66 55 is_stmt 0 discriminator 1
 478 0310 17050000 		lla	a0,.LC1
 478      13050500 
 479 0318 97000000 		call	_Z11printStringPKc@plt
 479      E7800000 
 480              	.LVL58:
  65:test/Threads_C_API_test.cpp ****         printString("C: i="); printInt(i); printString("\n");
 481              		.loc 1 65 5 is_stmt 1 discriminator 1
 482 0320 9B841400 		addiw	s1,s1,1
 483              	.LVL59:
 484 0324 93F4F40F 		andi	s1,s1,0xff
 485              	.LVL60:
 486              	.L27:
  65:test/Threads_C_API_test.cpp ****         printString("C: i="); printInt(i); printString("\n");
 487              		.loc 1 65 5 discriminator 2
  65:test/Threads_C_API_test.cpp ****         printString("C: i="); printInt(i); printString("\n");
 488              		.loc 1 65 14 discriminator 2
 489 0328 93075000 		li	a5,5
 490 032c E3F097FC 		bleu	s1,a5,.L30
  67:test/Threads_C_API_test.cpp ****     }
  68:test/Threads_C_API_test.cpp **** 
  69:test/Threads_C_API_test.cpp ****     printString("C finished!\n");
 491              		.loc 1 69 5
 492              		.loc 1 69 16 is_stmt 0
 493 0330 17050000 		lla	a0,.LC9
 493      13050500 
 494 0338 97000000 		call	_Z11printStringPKc@plt
 494      E7800000 
 495              	.LVL61:
  70:test/Threads_C_API_test.cpp ****     finishedC = true;
 496              		.loc 1 70 5 is_stmt 1
 497              		.loc 1 70 15 is_stmt 0
 498 0340 93071000 		li	a5,1
 499 0344 17070000 		sb	a5,.LANCHOR0+2,a4
 499      2300F700 
  71:test/Threads_C_API_test.cpp ****     thread_dispatch();
 500              		.loc 1 71 5 is_stmt 1
 501              		.loc 1 71 20 is_stmt 0
 502 034c 97000000 		call	thread_dispatch@plt
 502      E7800000 
 503              	.LVL62:
  72:test/Threads_C_API_test.cpp **** }
 504              		.loc 1 72 1
 505 0354 83308101 		ld	ra,24(sp)
 506              		.cfi_restore 1
 507 0358 03340101 		ld	s0,16(sp)
 508              		.cfi_restore 8
 509              		.cfi_def_cfa 2, 32
 510 035c 83348100 		ld	s1,8(sp)
 511              		.cfi_restore 9
 512              	.LVL63:
 513 0360 03390100 		ld	s2,0(sp)
GAS LISTING /tmp/ccxZaPj9.s 			page 13


 514              		.cfi_restore 18
 515              	.LVL64:
 516 0364 13010102 		addi	sp,sp,32
 517              		.cfi_def_cfa_offset 0
 518 0368 67800000 		jr	ra
 519              		.cfi_endproc
 520              	.LFE26:
 522              		.section	.rodata.str1.8
 523 0075 000000   		.align	3
 524              	.LC10:
 525 0078 443A2069 		.string	"D: i="
 525      3D00
 526 007e 0000     		.align	3
 527              	.LC11:
 528 0080 443A2064 		.string	"D: dispatch\n"
 528      69737061 
 528      7463680A 
 528      00
 529 008d 000000   		.align	3
 530              	.LC12:
 531 0090 443A2066 		.string	"D: fibonaci="
 531      69626F6E 
 531      6163693D 
 531      00
 532 009d 000000   		.align	3
 533              	.LC13:
 534 00a0 44206669 		.string	"D finished!\n"
 534      6E697368 
 534      6564210A 
 534      00
 535              		.text
 536              		.align	2
 537              		.globl	_Z11workerBodyDPv
 539              	_Z11workerBodyDPv:
 540              	.LFB27:
  73:test/Threads_C_API_test.cpp **** 
  74:test/Threads_C_API_test.cpp **** void workerBodyD(void* arg) {
 541              		.loc 1 74 29 is_stmt 1
 542              		.cfi_startproc
 543              	.LVL65:
 544 036c 130101FE 		addi	sp,sp,-32
 545              		.cfi_def_cfa_offset 32
 546 0370 233C1100 		sd	ra,24(sp)
 547 0374 23388100 		sd	s0,16(sp)
 548 0378 23349100 		sd	s1,8(sp)
 549 037c 23302101 		sd	s2,0(sp)
 550              		.cfi_offset 1, -8
 551              		.cfi_offset 8, -16
 552              		.cfi_offset 9, -24
 553              		.cfi_offset 18, -32
 554 0380 13040102 		addi	s0,sp,32
 555              		.cfi_def_cfa 8, 0
  75:test/Threads_C_API_test.cpp ****     uint8 i = 10;
 556              		.loc 1 75 5
 557              	.LVL66:
 558              		.loc 1 75 11 is_stmt 0
 559 0384 9304A000 		li	s1,10
GAS LISTING /tmp/ccxZaPj9.s 			page 14


 560 0388 6F000004 		j	.L33
 561              	.LVL67:
 562              	.L37:
  76:test/Threads_C_API_test.cpp ****     for (; i < 13; i++) {
  77:test/Threads_C_API_test.cpp ****         printString("D: i="); printInt(i); printString("\n");
 563              		.loc 1 77 9 is_stmt 1 discriminator 1
 564              		.loc 1 77 20 is_stmt 0 discriminator 1
 565 038c 17050000 		lla	a0,.LC10
 565      13050500 
 566 0394 97000000 		call	_Z11printStringPKc@plt
 566      E7800000 
 567              	.LVL68:
 568              		.loc 1 77 31 is_stmt 1 discriminator 1
 569              		.loc 1 77 39 is_stmt 0 discriminator 1
 570 039c 13060000 		li	a2,0
 571 03a0 9305A000 		li	a1,10
 572 03a4 13850400 		mv	a0,s1
 573 03a8 97000000 		call	_Z8printIntiii@plt
 573      E7800000 
 574              	.LVL69:
 575              		.loc 1 77 44 is_stmt 1 discriminator 1
 576              		.loc 1 77 55 is_stmt 0 discriminator 1
 577 03b0 17050000 		lla	a0,.LC1
 577      13050500 
 578 03b8 97000000 		call	_Z11printStringPKc@plt
 578      E7800000 
 579              	.LVL70:
  76:test/Threads_C_API_test.cpp ****     for (; i < 13; i++) {
 580              		.loc 1 76 5 is_stmt 1 discriminator 1
 581 03c0 9B841400 		addiw	s1,s1,1
 582              	.LVL71:
 583 03c4 93F4F40F 		andi	s1,s1,0xff
 584              	.LVL72:
 585              	.L33:
  76:test/Threads_C_API_test.cpp ****     for (; i < 13; i++) {
 586              		.loc 1 76 5 discriminator 2
  76:test/Threads_C_API_test.cpp ****     for (; i < 13; i++) {
 587              		.loc 1 76 14 discriminator 2
 588 03c8 9307C000 		li	a5,12
 589 03cc E3F097FC 		bleu	s1,a5,.L37
  78:test/Threads_C_API_test.cpp ****     }
  79:test/Threads_C_API_test.cpp **** 
  80:test/Threads_C_API_test.cpp ****     printString("D: dispatch\n");
 590              		.loc 1 80 5
 591              		.loc 1 80 16 is_stmt 0
 592 03d0 17050000 		lla	a0,.LC11
 592      13050500 
 593 03d8 97000000 		call	_Z11printStringPKc@plt
 593      E7800000 
 594              	.LVL73:
  81:test/Threads_C_API_test.cpp ****     __asm__ ("li t1, 5");
 595              		.loc 1 81 5 is_stmt 1
 596              		.loc 1 81 25 is_stmt 0
 597              	#APP
 598              	# 81 "test/Threads_C_API_test.cpp" 1
  82              	    thread_dispatch();
 599              		li t1, 5
GAS LISTING /tmp/ccxZaPj9.s 			page 15


 600              	# 0 "" 2
 601              		.loc 1 82 5 is_stmt 1
 602              		.loc 1 82 20 is_stmt 0
 603              	#NO_APP
 604 03e4 97000000 		call	thread_dispatch@plt
 604      E7800000 
 605              	.LVL74:
  83:test/Threads_C_API_test.cpp **** 
  84:test/Threads_C_API_test.cpp ****     uint64 result = fibonacci(16);
 606              		.loc 1 84 5 is_stmt 1
 607              		.loc 1 84 30 is_stmt 0
 608 03ec 13050001 		li	a0,16
 609 03f0 97000000 		call	_ZL9fibonaccim
 609      E7800000 
 610              	.LVL75:
 611 03f8 13090500 		mv	s2,a0
 612              	.LVL76:
  85:test/Threads_C_API_test.cpp ****     printString("D: fibonaci="); printInt(result); printString("\n");
 613              		.loc 1 85 5 is_stmt 1
 614              		.loc 1 85 16 is_stmt 0
 615 03fc 17050000 		lla	a0,.LC12
 615      13050500 
 616              	.LVL77:
 617 0404 97000000 		call	_Z11printStringPKc@plt
 617      E7800000 
 618              	.LVL78:
 619              		.loc 1 85 34 is_stmt 1
 620              		.loc 1 85 42 is_stmt 0
 621 040c 13060000 		li	a2,0
 622 0410 9305A000 		li	a1,10
 623 0414 1B050900 		sext.w	a0,s2
 624 0418 97000000 		call	_Z8printIntiii@plt
 624      E7800000 
 625              	.LVL79:
 626              		.loc 1 85 52 is_stmt 1
 627              		.loc 1 85 63 is_stmt 0
 628 0420 17050000 		lla	a0,.LC1
 628      13050500 
 629 0428 97000000 		call	_Z11printStringPKc@plt
 629      E7800000 
 630              	.LVL80:
 631 0430 6F000004 		j	.L35
 632              	.L38:
  86:test/Threads_C_API_test.cpp **** 
  87:test/Threads_C_API_test.cpp ****     for (; i < 16; i++) {
  88:test/Threads_C_API_test.cpp ****         printString("D: i="); printInt(i); printString("\n");
 633              		.loc 1 88 9 is_stmt 1 discriminator 1
 634              		.loc 1 88 20 is_stmt 0 discriminator 1
 635 0434 17050000 		lla	a0,.LC10
 635      13050500 
 636 043c 97000000 		call	_Z11printStringPKc@plt
 636      E7800000 
 637              	.LVL81:
 638              		.loc 1 88 31 is_stmt 1 discriminator 1
 639              		.loc 1 88 39 is_stmt 0 discriminator 1
 640 0444 13060000 		li	a2,0
 641 0448 9305A000 		li	a1,10
GAS LISTING /tmp/ccxZaPj9.s 			page 16


 642 044c 13850400 		mv	a0,s1
 643 0450 97000000 		call	_Z8printIntiii@plt
 643      E7800000 
 644              	.LVL82:
 645              		.loc 1 88 44 is_stmt 1 discriminator 1
 646              		.loc 1 88 55 is_stmt 0 discriminator 1
 647 0458 17050000 		lla	a0,.LC1
 647      13050500 
 648 0460 97000000 		call	_Z11printStringPKc@plt
 648      E7800000 
 649              	.LVL83:
  87:test/Threads_C_API_test.cpp ****         printString("D: i="); printInt(i); printString("\n");
 650              		.loc 1 87 5 is_stmt 1 discriminator 1
 651 0468 9B841400 		addiw	s1,s1,1
 652              	.LVL84:
 653 046c 93F4F40F 		andi	s1,s1,0xff
 654              	.LVL85:
 655              	.L35:
  87:test/Threads_C_API_test.cpp ****         printString("D: i="); printInt(i); printString("\n");
 656              		.loc 1 87 5 discriminator 2
  87:test/Threads_C_API_test.cpp ****         printString("D: i="); printInt(i); printString("\n");
 657              		.loc 1 87 14 discriminator 2
 658 0470 9307F000 		li	a5,15
 659 0474 E3F097FC 		bleu	s1,a5,.L38
  89:test/Threads_C_API_test.cpp ****     }
  90:test/Threads_C_API_test.cpp **** 
  91:test/Threads_C_API_test.cpp ****     printString("D finished!\n");
 660              		.loc 1 91 5
 661              		.loc 1 91 16 is_stmt 0
 662 0478 17050000 		lla	a0,.LC13
 662      13050500 
 663 0480 97000000 		call	_Z11printStringPKc@plt
 663      E7800000 
 664              	.LVL86:
  92:test/Threads_C_API_test.cpp ****     finishedD = true;
 665              		.loc 1 92 5 is_stmt 1
 666              		.loc 1 92 15 is_stmt 0
 667 0488 93071000 		li	a5,1
 668 048c 17070000 		sb	a5,.LANCHOR0+3,a4
 668      2300F700 
  93:test/Threads_C_API_test.cpp ****     thread_dispatch();
 669              		.loc 1 93 5 is_stmt 1
 670              		.loc 1 93 20 is_stmt 0
 671 0494 97000000 		call	thread_dispatch@plt
 671      E7800000 
 672              	.LVL87:
  94:test/Threads_C_API_test.cpp **** }
 673              		.loc 1 94 1
 674 049c 83308101 		ld	ra,24(sp)
 675              		.cfi_restore 1
 676 04a0 03340101 		ld	s0,16(sp)
 677              		.cfi_restore 8
 678              		.cfi_def_cfa 2, 32
 679 04a4 83348100 		ld	s1,8(sp)
 680              		.cfi_restore 9
 681              	.LVL88:
 682 04a8 03390100 		ld	s2,0(sp)
GAS LISTING /tmp/ccxZaPj9.s 			page 17


 683              		.cfi_restore 18
 684              	.LVL89:
 685 04ac 13010102 		addi	sp,sp,32
 686              		.cfi_def_cfa_offset 0
 687 04b0 67800000 		jr	ra
 688              		.cfi_endproc
 689              	.LFE27:
 691              		.section	.rodata.str1.8
 692 00ad 000000   		.align	3
 693              	.LC14:
 694 00b0 54687265 		.string	"ThreadA created\n"
 694      61644120 
 694      63726561 
 694      7465640A 
 694      00
 695 00c1 00000000 		.align	3
 695      000000
 696              	.LC15:
 697 00c8 54687265 		.string	"ThreadB created\n"
 697      61644220 
 697      63726561 
 697      7465640A 
 697      00
 698 00d9 00000000 		.align	3
 698      000000
 699              	.LC16:
 700 00e0 54687265 		.string	"ThreadC created\n"
 700      61644320 
 700      63726561 
 700      7465640A 
 700      00
 701 00f1 00000000 		.align	3
 701      000000
 702              	.LC17:
 703 00f8 54687265 		.string	"ThreadD created\n"
 703      61644420 
 703      63726561 
 703      7465640A 
 703      00
 704 0109 00000000 		.align	3
 704      000000
 705              	.LC18:
 706 0110 4D61696E 		.string	"Main thread\n"
 706      20746872 
 706      6561640A 
 706      00
 707              		.text
 708              		.align	2
 709              		.globl	_Z18Threads_C_API_testv
 711              	_Z18Threads_C_API_testv:
 712              	.LFB28:
  95:test/Threads_C_API_test.cpp **** 
  96:test/Threads_C_API_test.cpp **** 
  97:test/Threads_C_API_test.cpp **** void Threads_C_API_test() {
 713              		.loc 1 97 27 is_stmt 1
 714              		.cfi_startproc
 715 04b4 130101FC 		addi	sp,sp,-64
GAS LISTING /tmp/ccxZaPj9.s 			page 18


 716              		.cfi_def_cfa_offset 64
 717 04b8 233C1102 		sd	ra,56(sp)
 718 04bc 23388102 		sd	s0,48(sp)
 719 04c0 23349102 		sd	s1,40(sp)
 720 04c4 23302103 		sd	s2,32(sp)
 721              		.cfi_offset 1, -8
 722              		.cfi_offset 8, -16
 723              		.cfi_offset 9, -24
 724              		.cfi_offset 18, -32
 725 04c8 13040104 		addi	s0,sp,64
 726              		.cfi_def_cfa 8, 0
  98:test/Threads_C_API_test.cpp ****     thread_t threads[4];
 727              		.loc 1 98 5
  99:test/Threads_C_API_test.cpp ****     thread_create(&threads[0], workerBodyA, nullptr);
 728              		.loc 1 99 5
 729              		.loc 1 99 18 is_stmt 0
 730 04cc 13060000 		li	a2,0
 731 04d0 97050000 		lla	a1,_Z11workerBodyAPv
 731      93850500 
 732 04d8 130504FC 		addi	a0,s0,-64
 733 04dc 97000000 		call	thread_create@plt
 733      E7800000 
 734              	.LVL90:
 100:test/Threads_C_API_test.cpp ****     printString("ThreadA created\n");
 735              		.loc 1 100 5 is_stmt 1
 736              		.loc 1 100 16 is_stmt 0
 737 04e4 17050000 		lla	a0,.LC14
 737      13050500 
 738 04ec 97000000 		call	_Z11printStringPKc@plt
 738      E7800000 
 739              	.LVL91:
 101:test/Threads_C_API_test.cpp **** 
 102:test/Threads_C_API_test.cpp ****     thread_create(&threads[1], workerBodyB, nullptr);
 740              		.loc 1 102 5 is_stmt 1
 741              		.loc 1 102 18 is_stmt 0
 742 04f4 13060000 		li	a2,0
 743 04f8 97050000 		lla	a1,_Z11workerBodyBPv
 743      93850500 
 744 0500 130584FC 		addi	a0,s0,-56
 745 0504 97000000 		call	thread_create@plt
 745      E7800000 
 746              	.LVL92:
 103:test/Threads_C_API_test.cpp ****     printString("ThreadB created\n");
 747              		.loc 1 103 5 is_stmt 1
 748              		.loc 1 103 16 is_stmt 0
 749 050c 17050000 		lla	a0,.LC15
 749      13050500 
 750 0514 97000000 		call	_Z11printStringPKc@plt
 750      E7800000 
 751              	.LVL93:
 104:test/Threads_C_API_test.cpp **** 
 105:test/Threads_C_API_test.cpp ****     thread_create(&threads[2], workerBodyC, nullptr);
 752              		.loc 1 105 5 is_stmt 1
 753              		.loc 1 105 18 is_stmt 0
 754 051c 13060000 		li	a2,0
 755 0520 97050000 		lla	a1,_Z11workerBodyCPv
 755      93850500 
GAS LISTING /tmp/ccxZaPj9.s 			page 19


 756 0528 130504FD 		addi	a0,s0,-48
 757 052c 97000000 		call	thread_create@plt
 757      E7800000 
 758              	.LVL94:
 106:test/Threads_C_API_test.cpp ****     printString("ThreadC created\n");
 759              		.loc 1 106 5 is_stmt 1
 760              		.loc 1 106 16 is_stmt 0
 761 0534 17050000 		lla	a0,.LC16
 761      13050500 
 762 053c 97000000 		call	_Z11printStringPKc@plt
 762      E7800000 
 763              	.LVL95:
 107:test/Threads_C_API_test.cpp **** 
 108:test/Threads_C_API_test.cpp ****     thread_create(&threads[3], workerBodyD, nullptr);
 764              		.loc 1 108 5 is_stmt 1
 765              		.loc 1 108 18 is_stmt 0
 766 0544 13060000 		li	a2,0
 767 0548 97050000 		lla	a1,_Z11workerBodyDPv
 767      93850500 
 768 0550 130584FD 		addi	a0,s0,-40
 769 0554 97000000 		call	thread_create@plt
 769      E7800000 
 770              	.LVL96:
 109:test/Threads_C_API_test.cpp ****     printString("ThreadD created\n");
 771              		.loc 1 109 5 is_stmt 1
 772              		.loc 1 109 16 is_stmt 0
 773 055c 17050000 		lla	a0,.LC17
 773      13050500 
 774 0564 97000000 		call	_Z11printStringPKc@plt
 774      E7800000 
 775              	.LVL97:
 776 056c 6F00C001 		j	.L42
 777              	.L40:
 110:test/Threads_C_API_test.cpp **** 
 111:test/Threads_C_API_test.cpp ****     while (!(finishedA && finishedB && finishedC && finishedD)) {
 112:test/Threads_C_API_test.cpp ****         printString("Main thread\n");
 778              		.loc 1 112 9 is_stmt 1
 779              		.loc 1 112 20 is_stmt 0
 780 0570 17050000 		lla	a0,.LC18
 780      13050500 
 781 0578 97000000 		call	_Z11printStringPKc@plt
 781      E7800000 
 782              	.LVL98:
 113:test/Threads_C_API_test.cpp ****         thread_dispatch();
 783              		.loc 1 113 9 is_stmt 1
 784              		.loc 1 113 24 is_stmt 0
 785 0580 97000000 		call	thread_dispatch@plt
 785      E7800000 
 786              	.LVL99:
 787              	.L42:
 111:test/Threads_C_API_test.cpp ****         printString("Main thread\n");
 788              		.loc 1 111 5 is_stmt 1
 111:test/Threads_C_API_test.cpp ****         printString("Main thread\n");
 789              		.loc 1 111 12
 790 0588 97070000 		lbu	a5,.LANCHOR0
 790      83C70700 
 791 0590 E38007FE 		beqz	a5,.L40
GAS LISTING /tmp/ccxZaPj9.s 			page 20


 111:test/Threads_C_API_test.cpp ****         printString("Main thread\n");
 792              		.loc 1 111 24 is_stmt 0 discriminator 1
 793 0594 97070000 		lbu	a5,.LANCHOR0+1
 793      83C70700 
 794 059c E38A07FC 		beqz	a5,.L40
 111:test/Threads_C_API_test.cpp ****         printString("Main thread\n");
 795              		.loc 1 111 37 discriminator 2
 796 05a0 97070000 		lbu	a5,.LANCHOR0+2
 796      83C70700 
 797 05a8 E38407FC 		beqz	a5,.L40
 111:test/Threads_C_API_test.cpp ****         printString("Main thread\n");
 798              		.loc 1 111 12 discriminator 3
 799 05ac 97070000 		lbu	a5,.LANCHOR0+3
 799      83C70700 
 800 05b4 E38E07FA 		beqz	a5,.L40
 801              	.LBB14:
 114:test/Threads_C_API_test.cpp ****     }
 115:test/Threads_C_API_test.cpp **** 
 116:test/Threads_C_API_test.cpp ****     for (auto &thread: threads) {
 802              		.loc 1 116 24
 803 05b8 930404FC 		addi	s1,s0,-64
 804 05bc 6F008000 		j	.L41
 805              	.LVL100:
 806              	.L44:
 807              		.loc 1 116 5 is_stmt 1 discriminator 3
 808 05c0 93848400 		addi	s1,s1,8
 809              	.LVL101:
 810              	.L41:
 811              		.loc 1 116 24 discriminator 1
 812 05c4 930704FE 		addi	a5,s0,-32
 813 05c8 6384F402 		beq	s1,a5,.L39
 814              	.LVL102:
 117:test/Threads_C_API_test.cpp ****         //todo
 118:test/Threads_C_API_test.cpp ****         //in order to syscall.c to stay .c it gotta be converted
 119:test/Threads_C_API_test.cpp ****         delete (PCB*)thread;
 815              		.loc 1 119 9 discriminator 2
 816              		.loc 1 119 16 is_stmt 0 discriminator 2
 817 05cc 03B90400 		ld	s2,0(s1)
 818              		.loc 1 119 28 discriminator 2
 819 05d0 E30809FE 		beqz	s2,.L44
 820              		.loc 1 119 22 discriminator 1
 821 05d4 13050900 		mv	a0,s2
 822 05d8 97000000 		call	_ZN3PCBD1Ev@plt
 822      E7800000 
 823              	.LVL103:
 824 05e0 13050900 		mv	a0,s2
 825 05e4 97000000 		call	_ZN3PCBdlEPv@plt
 825      E7800000 
 826              	.LVL104:
 827 05ec 6FF05FFD 		j	.L44
 828              	.LVL105:
 829              	.L39:
 830              	.LBE14:
 120:test/Threads_C_API_test.cpp ****     }
 121:test/Threads_C_API_test.cpp **** }
 831              		.loc 1 121 1
 832 05f0 83308103 		ld	ra,56(sp)
GAS LISTING /tmp/ccxZaPj9.s 			page 21


 833              		.cfi_restore 1
 834 05f4 03340103 		ld	s0,48(sp)
 835              		.cfi_restore 8
 836              		.cfi_def_cfa 2, 64
 837 05f8 83348102 		ld	s1,40(sp)
 838              		.cfi_restore 9
 839              	.LVL106:
 840 05fc 03390102 		ld	s2,32(sp)
 841              		.cfi_restore 18
 842 0600 13010104 		addi	sp,sp,64
 843              		.cfi_def_cfa_offset 0
 844 0604 67800000 		jr	ra
 845              		.cfi_endproc
 846              	.LFE28:
 848              		.bss
 849              		.set	.LANCHOR0,. + 0
 852              	_ZL9finishedA:
 853 0000 00       		.zero	1
 856              	_ZL9finishedB:
 857 0001 00       		.zero	1
 860              	_ZL9finishedC:
 861 0002 00       		.zero	1
 864              	_ZL9finishedD:
 865 0003 00       		.zero	1
 866              		.text
 867              	.Letext0:
 868              		.file 2 "test/../h/../lib/hw.h"
 869              		.file 3 "test/../h/syscall_c.h"
 870              		.file 4 "test/../h/PCB.hpp"
 871              		.file 5 "test/printing.hpp"
GAS LISTING /tmp/ccxZaPj9.s 			page 22


DEFINED SYMBOLS
                            *ABS*:0000000000000000 Threads_C_API_test.cpp
     /tmp/ccxZaPj9.s:20     .text:0000000000000000 _Z11workerBodyAPv
     /tmp/ccxZaPj9.s:24     .text:0000000000000000 .L0 
     /tmp/ccxZaPj9.s:26     .text:0000000000000000 .L0 
     /tmp/ccxZaPj9.s:27     .text:0000000000000004 .L0 
     /tmp/ccxZaPj9.s:31     .text:0000000000000010 .L0 
     /tmp/ccxZaPj9.s:32     .text:0000000000000010 .L0 
     /tmp/ccxZaPj9.s:33     .text:0000000000000010 .L0 
     /tmp/ccxZaPj9.s:35     .text:0000000000000014 .L0 
     /tmp/ccxZaPj9.s:39     .text:0000000000000014 .L0 
     /tmp/ccxZaPj9.s:40     .text:0000000000000014 .L0 
     /tmp/ccxZaPj9.s:47     .text:000000000000001c .L0 
     /tmp/ccxZaPj9.s:51     .text:0000000000000020 .L0 
     /tmp/ccxZaPj9.s:55     .text:0000000000000028 .L0 
     /tmp/ccxZaPj9.s:59     .text:000000000000002c .L0 
     /tmp/ccxZaPj9.s:63     .text:0000000000000038 .L0 
     /tmp/ccxZaPj9.s:72     .text:0000000000000040 .L0 
     /tmp/ccxZaPj9.s:76     .text:0000000000000044 .L0 
     /tmp/ccxZaPj9.s:80     .text:000000000000004c .L0 
     /tmp/ccxZaPj9.s:81     .text:000000000000004c .L0 
     /tmp/ccxZaPj9.s:85     .text:000000000000005c .L0 
     /tmp/ccxZaPj9.s:86     .text:000000000000005c .L0 
     /tmp/ccxZaPj9.s:92     .text:0000000000000070 .L0 
     /tmp/ccxZaPj9.s:93     .text:0000000000000070 .L0 
     /tmp/ccxZaPj9.s:98     .text:0000000000000080 .L0 
     /tmp/ccxZaPj9.s:99     .text:0000000000000080 .L0 
     /tmp/ccxZaPj9.s:107    .text:0000000000000088 .L0 
     /tmp/ccxZaPj9.s:108    .text:0000000000000088 .L0 
     /tmp/ccxZaPj9.s:112    .text:0000000000000098 .L0 
     /tmp/ccxZaPj9.s:113    .text:0000000000000098 .L0 
     /tmp/ccxZaPj9.s:116    .text:00000000000000a4 .L0 
     /tmp/ccxZaPj9.s:117    .text:00000000000000a8 .L0 
     /tmp/ccxZaPj9.s:119    .text:00000000000000ac .L0 
     /tmp/ccxZaPj9.s:120    .text:00000000000000ac .L0 
     /tmp/ccxZaPj9.s:122    .text:00000000000000b0 .L0 
     /tmp/ccxZaPj9.s:125    .text:00000000000000b4 .L0 
     /tmp/ccxZaPj9.s:127    .text:00000000000000b8 .L0 
     /tmp/ccxZaPj9.s:141    .text:00000000000000b8 _Z11workerBodyBPv
     /tmp/ccxZaPj9.s:144    .text:00000000000000b8 .L0 
     /tmp/ccxZaPj9.s:146    .text:00000000000000b8 .L0 
     /tmp/ccxZaPj9.s:147    .text:00000000000000bc .L0 
     /tmp/ccxZaPj9.s:151    .text:00000000000000c8 .L0 
     /tmp/ccxZaPj9.s:152    .text:00000000000000c8 .L0 
     /tmp/ccxZaPj9.s:153    .text:00000000000000c8 .L0 
     /tmp/ccxZaPj9.s:155    .text:00000000000000cc .L0 
     /tmp/ccxZaPj9.s:159    .text:00000000000000cc .L0 
     /tmp/ccxZaPj9.s:160    .text:00000000000000cc .L0 
     /tmp/ccxZaPj9.s:167    .text:00000000000000d4 .L0 
     /tmp/ccxZaPj9.s:171    .text:00000000000000d8 .L0 
     /tmp/ccxZaPj9.s:175    .text:00000000000000e0 .L0 
     /tmp/ccxZaPj9.s:179    .text:00000000000000e4 .L0 
     /tmp/ccxZaPj9.s:183    .text:00000000000000f0 .L0 
     /tmp/ccxZaPj9.s:192    .text:00000000000000f8 .L0 
     /tmp/ccxZaPj9.s:196    .text:00000000000000fc .L0 
     /tmp/ccxZaPj9.s:200    .text:0000000000000104 .L0 
     /tmp/ccxZaPj9.s:201    .text:0000000000000104 .L0 
GAS LISTING /tmp/ccxZaPj9.s 			page 23


     /tmp/ccxZaPj9.s:205    .text:0000000000000114 .L0 
     /tmp/ccxZaPj9.s:206    .text:0000000000000114 .L0 
     /tmp/ccxZaPj9.s:212    .text:0000000000000128 .L0 
     /tmp/ccxZaPj9.s:213    .text:0000000000000128 .L0 
     /tmp/ccxZaPj9.s:218    .text:0000000000000138 .L0 
     /tmp/ccxZaPj9.s:219    .text:0000000000000138 .L0 
     /tmp/ccxZaPj9.s:227    .text:0000000000000140 .L0 
     /tmp/ccxZaPj9.s:228    .text:0000000000000140 .L0 
     /tmp/ccxZaPj9.s:232    .text:0000000000000150 .L0 
     /tmp/ccxZaPj9.s:233    .text:0000000000000150 .L0 
     /tmp/ccxZaPj9.s:236    .text:000000000000015c .L0 
     /tmp/ccxZaPj9.s:237    .text:000000000000015c .L0 
     /tmp/ccxZaPj9.s:240    .text:0000000000000164 .L0 
     /tmp/ccxZaPj9.s:241    .text:0000000000000168 .L0 
     /tmp/ccxZaPj9.s:243    .text:000000000000016c .L0 
     /tmp/ccxZaPj9.s:244    .text:000000000000016c .L0 
     /tmp/ccxZaPj9.s:246    .text:0000000000000170 .L0 
     /tmp/ccxZaPj9.s:249    .text:0000000000000174 .L0 
     /tmp/ccxZaPj9.s:251    .text:0000000000000178 .L0 
     /tmp/ccxZaPj9.s:256    .text:0000000000000178 _ZL9fibonaccim
     /tmp/ccxZaPj9.s:259    .text:0000000000000178 .L0 
     /tmp/ccxZaPj9.s:261    .text:0000000000000178 .L0 
     /tmp/ccxZaPj9.s:262    .text:000000000000017c .L0 
     /tmp/ccxZaPj9.s:267    .text:000000000000018c .L0 
     /tmp/ccxZaPj9.s:268    .text:000000000000018c .L0 
     /tmp/ccxZaPj9.s:269    .text:000000000000018c .L0 
     /tmp/ccxZaPj9.s:270    .text:000000000000018c .L0 
     /tmp/ccxZaPj9.s:272    .text:0000000000000190 .L0 
     /tmp/ccxZaPj9.s:275    .text:0000000000000194 .L0 
     /tmp/ccxZaPj9.s:278    .text:000000000000019c .L0 
     /tmp/ccxZaPj9.s:279    .text:000000000000019c .L0 
     /tmp/ccxZaPj9.s:282    .text:00000000000001a4 .L0 
     /tmp/ccxZaPj9.s:286    .text:00000000000001a8 .L0 
     /tmp/ccxZaPj9.s:287    .text:00000000000001a8 .L0 
     /tmp/ccxZaPj9.s:292    .text:00000000000001b8 .L0 
     /tmp/ccxZaPj9.s:296    .text:00000000000001c4 .L0 
     /tmp/ccxZaPj9.s:299    .text:00000000000001c8 .L0 
     /tmp/ccxZaPj9.s:300    .text:00000000000001cc .L0 
     /tmp/ccxZaPj9.s:301    .text:00000000000001cc .L0 
     /tmp/ccxZaPj9.s:303    .text:00000000000001d0 .L0 
     /tmp/ccxZaPj9.s:304    .text:00000000000001d0 .L0 
     /tmp/ccxZaPj9.s:306    .text:00000000000001d4 .L0 
     /tmp/ccxZaPj9.s:309    .text:00000000000001d8 .L0 
     /tmp/ccxZaPj9.s:311    .text:00000000000001dc .L0 
     /tmp/ccxZaPj9.s:315    .text:00000000000001e0 .L0 
     /tmp/ccxZaPj9.s:317    .text:00000000000001e0 .L0 
     /tmp/ccxZaPj9.s:318    .text:00000000000001e0 .L0 
     /tmp/ccxZaPj9.s:321    .text:00000000000001ec .L0 
     /tmp/ccxZaPj9.s:344    .text:00000000000001ec _Z11workerBodyCPv
     /tmp/ccxZaPj9.s:347    .text:00000000000001ec .L0 
     /tmp/ccxZaPj9.s:349    .text:00000000000001ec .L0 
     /tmp/ccxZaPj9.s:350    .text:00000000000001f0 .L0 
     /tmp/ccxZaPj9.s:355    .text:0000000000000200 .L0 
     /tmp/ccxZaPj9.s:356    .text:0000000000000200 .L0 
     /tmp/ccxZaPj9.s:357    .text:0000000000000200 .L0 
     /tmp/ccxZaPj9.s:358    .text:0000000000000200 .L0 
     /tmp/ccxZaPj9.s:360    .text:0000000000000204 .L0 
GAS LISTING /tmp/ccxZaPj9.s 			page 24


     /tmp/ccxZaPj9.s:363    .text:0000000000000204 .L0 
     /tmp/ccxZaPj9.s:364    .text:0000000000000204 .L0 
     /tmp/ccxZaPj9.s:369    .text:000000000000020c .L0 
     /tmp/ccxZaPj9.s:370    .text:000000000000020c .L0 
     /tmp/ccxZaPj9.s:374    .text:000000000000021c .L0 
     /tmp/ccxZaPj9.s:375    .text:000000000000021c .L0 
     /tmp/ccxZaPj9.s:381    .text:0000000000000230 .L0 
     /tmp/ccxZaPj9.s:382    .text:0000000000000230 .L0 
     /tmp/ccxZaPj9.s:386    .text:0000000000000240 .L0 
     /tmp/ccxZaPj9.s:392    .text:0000000000000248 .L0 
     /tmp/ccxZaPj9.s:393    .text:0000000000000248 .L0 
     /tmp/ccxZaPj9.s:396    .text:0000000000000250 .L0 
     /tmp/ccxZaPj9.s:397    .text:0000000000000250 .L0 
     /tmp/ccxZaPj9.s:401    .text:0000000000000260 .L0 
test/Threads_C_API_test.cpp:54     .text:0000000000000260 .L0 
     /tmp/ccxZaPj9.s:407    .text:0000000000000264 .L0 
     /tmp/ccxZaPj9.s:409    .text:0000000000000264 .L0 
     /tmp/ccxZaPj9.s:412    .text:000000000000026c .L0 
     /tmp/ccxZaPj9.s:413    .text:000000000000026c .L0 
test/Threads_C_API_test.cpp:58     .text:000000000000026c .L0 
     /tmp/ccxZaPj9.s:420    .text:0000000000000270 .L0 
     /tmp/ccxZaPj9.s:422    .text:0000000000000270 .L0 
     /tmp/ccxZaPj9.s:426    .text:0000000000000280 .L0 
     /tmp/ccxZaPj9.s:427    .text:0000000000000280 .L0 
     /tmp/ccxZaPj9.s:433    .text:0000000000000294 .L0 
     /tmp/ccxZaPj9.s:434    .text:0000000000000294 .L0 
     /tmp/ccxZaPj9.s:438    .text:00000000000002a4 .L0 
     /tmp/ccxZaPj9.s:439    .text:00000000000002a4 .L0 
     /tmp/ccxZaPj9.s:445    .text:00000000000002b4 .L0 
     /tmp/ccxZaPj9.s:446    .text:00000000000002b4 .L0 
     /tmp/ccxZaPj9.s:451    .text:00000000000002c4 .L0 
     /tmp/ccxZaPj9.s:452    .text:00000000000002c4 .L0 
     /tmp/ccxZaPj9.s:458    .text:00000000000002d8 .L0 
     /tmp/ccxZaPj9.s:459    .text:00000000000002d8 .L0 
     /tmp/ccxZaPj9.s:465    .text:00000000000002ec .L0 
     /tmp/ccxZaPj9.s:466    .text:00000000000002ec .L0 
     /tmp/ccxZaPj9.s:470    .text:00000000000002fc .L0 
     /tmp/ccxZaPj9.s:471    .text:00000000000002fc .L0 
     /tmp/ccxZaPj9.s:477    .text:0000000000000310 .L0 
     /tmp/ccxZaPj9.s:478    .text:0000000000000310 .L0 
     /tmp/ccxZaPj9.s:482    .text:0000000000000320 .L0 
     /tmp/ccxZaPj9.s:488    .text:0000000000000328 .L0 
     /tmp/ccxZaPj9.s:489    .text:0000000000000328 .L0 
     /tmp/ccxZaPj9.s:492    .text:0000000000000330 .L0 
     /tmp/ccxZaPj9.s:493    .text:0000000000000330 .L0 
     /tmp/ccxZaPj9.s:497    .text:0000000000000340 .L0 
     /tmp/ccxZaPj9.s:498    .text:0000000000000340 .L0 
     /tmp/ccxZaPj9.s:501    .text:000000000000034c .L0 
     /tmp/ccxZaPj9.s:502    .text:000000000000034c .L0 
     /tmp/ccxZaPj9.s:505    .text:0000000000000354 .L0 
     /tmp/ccxZaPj9.s:506    .text:0000000000000358 .L0 
     /tmp/ccxZaPj9.s:508    .text:000000000000035c .L0 
     /tmp/ccxZaPj9.s:509    .text:000000000000035c .L0 
     /tmp/ccxZaPj9.s:511    .text:0000000000000360 .L0 
     /tmp/ccxZaPj9.s:514    .text:0000000000000364 .L0 
     /tmp/ccxZaPj9.s:517    .text:0000000000000368 .L0 
     /tmp/ccxZaPj9.s:519    .text:000000000000036c .L0 
GAS LISTING /tmp/ccxZaPj9.s 			page 25


     /tmp/ccxZaPj9.s:539    .text:000000000000036c _Z11workerBodyDPv
     /tmp/ccxZaPj9.s:542    .text:000000000000036c .L0 
     /tmp/ccxZaPj9.s:544    .text:000000000000036c .L0 
     /tmp/ccxZaPj9.s:545    .text:0000000000000370 .L0 
     /tmp/ccxZaPj9.s:550    .text:0000000000000380 .L0 
     /tmp/ccxZaPj9.s:551    .text:0000000000000380 .L0 
     /tmp/ccxZaPj9.s:552    .text:0000000000000380 .L0 
     /tmp/ccxZaPj9.s:553    .text:0000000000000380 .L0 
     /tmp/ccxZaPj9.s:555    .text:0000000000000384 .L0 
     /tmp/ccxZaPj9.s:558    .text:0000000000000384 .L0 
     /tmp/ccxZaPj9.s:559    .text:0000000000000384 .L0 
     /tmp/ccxZaPj9.s:564    .text:000000000000038c .L0 
     /tmp/ccxZaPj9.s:565    .text:000000000000038c .L0 
     /tmp/ccxZaPj9.s:569    .text:000000000000039c .L0 
     /tmp/ccxZaPj9.s:570    .text:000000000000039c .L0 
     /tmp/ccxZaPj9.s:576    .text:00000000000003b0 .L0 
     /tmp/ccxZaPj9.s:577    .text:00000000000003b0 .L0 
     /tmp/ccxZaPj9.s:581    .text:00000000000003c0 .L0 
     /tmp/ccxZaPj9.s:587    .text:00000000000003c8 .L0 
     /tmp/ccxZaPj9.s:588    .text:00000000000003c8 .L0 
     /tmp/ccxZaPj9.s:591    .text:00000000000003d0 .L0 
     /tmp/ccxZaPj9.s:592    .text:00000000000003d0 .L0 
     /tmp/ccxZaPj9.s:596    .text:00000000000003e0 .L0 
test/Threads_C_API_test.cpp:81     .text:00000000000003e0 .L0 
     /tmp/ccxZaPj9.s:602    .text:00000000000003e4 .L0 
     /tmp/ccxZaPj9.s:604    .text:00000000000003e4 .L0 
     /tmp/ccxZaPj9.s:607    .text:00000000000003ec .L0 
     /tmp/ccxZaPj9.s:608    .text:00000000000003ec .L0 
     /tmp/ccxZaPj9.s:614    .text:00000000000003fc .L0 
     /tmp/ccxZaPj9.s:615    .text:00000000000003fc .L0 
     /tmp/ccxZaPj9.s:620    .text:000000000000040c .L0 
     /tmp/ccxZaPj9.s:621    .text:000000000000040c .L0 
     /tmp/ccxZaPj9.s:627    .text:0000000000000420 .L0 
     /tmp/ccxZaPj9.s:628    .text:0000000000000420 .L0 
     /tmp/ccxZaPj9.s:634    .text:0000000000000434 .L0 
     /tmp/ccxZaPj9.s:635    .text:0000000000000434 .L0 
     /tmp/ccxZaPj9.s:639    .text:0000000000000444 .L0 
     /tmp/ccxZaPj9.s:640    .text:0000000000000444 .L0 
     /tmp/ccxZaPj9.s:646    .text:0000000000000458 .L0 
     /tmp/ccxZaPj9.s:647    .text:0000000000000458 .L0 
     /tmp/ccxZaPj9.s:651    .text:0000000000000468 .L0 
     /tmp/ccxZaPj9.s:657    .text:0000000000000470 .L0 
     /tmp/ccxZaPj9.s:658    .text:0000000000000470 .L0 
     /tmp/ccxZaPj9.s:661    .text:0000000000000478 .L0 
     /tmp/ccxZaPj9.s:662    .text:0000000000000478 .L0 
     /tmp/ccxZaPj9.s:666    .text:0000000000000488 .L0 
     /tmp/ccxZaPj9.s:667    .text:0000000000000488 .L0 
     /tmp/ccxZaPj9.s:670    .text:0000000000000494 .L0 
     /tmp/ccxZaPj9.s:671    .text:0000000000000494 .L0 
     /tmp/ccxZaPj9.s:674    .text:000000000000049c .L0 
     /tmp/ccxZaPj9.s:675    .text:00000000000004a0 .L0 
     /tmp/ccxZaPj9.s:677    .text:00000000000004a4 .L0 
     /tmp/ccxZaPj9.s:678    .text:00000000000004a4 .L0 
     /tmp/ccxZaPj9.s:680    .text:00000000000004a8 .L0 
     /tmp/ccxZaPj9.s:683    .text:00000000000004ac .L0 
     /tmp/ccxZaPj9.s:686    .text:00000000000004b0 .L0 
     /tmp/ccxZaPj9.s:688    .text:00000000000004b4 .L0 
GAS LISTING /tmp/ccxZaPj9.s 			page 26


     /tmp/ccxZaPj9.s:711    .text:00000000000004b4 _Z18Threads_C_API_testv
     /tmp/ccxZaPj9.s:714    .text:00000000000004b4 .L0 
     /tmp/ccxZaPj9.s:715    .text:00000000000004b4 .L0 
     /tmp/ccxZaPj9.s:716    .text:00000000000004b8 .L0 
     /tmp/ccxZaPj9.s:721    .text:00000000000004c8 .L0 
     /tmp/ccxZaPj9.s:722    .text:00000000000004c8 .L0 
     /tmp/ccxZaPj9.s:723    .text:00000000000004c8 .L0 
     /tmp/ccxZaPj9.s:724    .text:00000000000004c8 .L0 
     /tmp/ccxZaPj9.s:726    .text:00000000000004cc .L0 
     /tmp/ccxZaPj9.s:728    .text:00000000000004cc .L0 
     /tmp/ccxZaPj9.s:729    .text:00000000000004cc .L0 
     /tmp/ccxZaPj9.s:730    .text:00000000000004cc .L0 
     /tmp/ccxZaPj9.s:736    .text:00000000000004e4 .L0 
     /tmp/ccxZaPj9.s:737    .text:00000000000004e4 .L0 
     /tmp/ccxZaPj9.s:741    .text:00000000000004f4 .L0 
     /tmp/ccxZaPj9.s:742    .text:00000000000004f4 .L0 
     /tmp/ccxZaPj9.s:748    .text:000000000000050c .L0 
     /tmp/ccxZaPj9.s:749    .text:000000000000050c .L0 
     /tmp/ccxZaPj9.s:753    .text:000000000000051c .L0 
     /tmp/ccxZaPj9.s:754    .text:000000000000051c .L0 
     /tmp/ccxZaPj9.s:760    .text:0000000000000534 .L0 
     /tmp/ccxZaPj9.s:761    .text:0000000000000534 .L0 
     /tmp/ccxZaPj9.s:765    .text:0000000000000544 .L0 
     /tmp/ccxZaPj9.s:766    .text:0000000000000544 .L0 
     /tmp/ccxZaPj9.s:772    .text:000000000000055c .L0 
     /tmp/ccxZaPj9.s:773    .text:000000000000055c .L0 
     /tmp/ccxZaPj9.s:779    .text:0000000000000570 .L0 
     /tmp/ccxZaPj9.s:780    .text:0000000000000570 .L0 
     /tmp/ccxZaPj9.s:784    .text:0000000000000580 .L0 
     /tmp/ccxZaPj9.s:785    .text:0000000000000580 .L0 
     /tmp/ccxZaPj9.s:789    .text:0000000000000588 .L0 
     /tmp/ccxZaPj9.s:790    .text:0000000000000588 .L0 
     /tmp/ccxZaPj9.s:793    .text:0000000000000594 .L0 
     /tmp/ccxZaPj9.s:796    .text:00000000000005a0 .L0 
     /tmp/ccxZaPj9.s:799    .text:00000000000005ac .L0 
     /tmp/ccxZaPj9.s:803    .text:00000000000005b8 .L0 
     /tmp/ccxZaPj9.s:808    .text:00000000000005c0 .L0 
     /tmp/ccxZaPj9.s:812    .text:00000000000005c4 .L0 
     /tmp/ccxZaPj9.s:816    .text:00000000000005cc .L0 
     /tmp/ccxZaPj9.s:817    .text:00000000000005cc .L0 
     /tmp/ccxZaPj9.s:819    .text:00000000000005d0 .L0 
     /tmp/ccxZaPj9.s:821    .text:00000000000005d4 .L0 
     /tmp/ccxZaPj9.s:832    .text:00000000000005f0 .L0 
     /tmp/ccxZaPj9.s:833    .text:00000000000005f4 .L0 
     /tmp/ccxZaPj9.s:835    .text:00000000000005f8 .L0 
     /tmp/ccxZaPj9.s:836    .text:00000000000005f8 .L0 
     /tmp/ccxZaPj9.s:838    .text:00000000000005fc .L0 
     /tmp/ccxZaPj9.s:841    .text:0000000000000600 .L0 
     /tmp/ccxZaPj9.s:843    .text:0000000000000604 .L0 
     /tmp/ccxZaPj9.s:845    .text:0000000000000608 .L0 
     /tmp/ccxZaPj9.s:849    .bss:0000000000000000 .LANCHOR0
     /tmp/ccxZaPj9.s:852    .bss:0000000000000000 _ZL9finishedA
     /tmp/ccxZaPj9.s:856    .bss:0000000000000001 _ZL9finishedB
     /tmp/ccxZaPj9.s:860    .bss:0000000000000002 _ZL9finishedC
     /tmp/ccxZaPj9.s:864    .bss:0000000000000003 _ZL9finishedD
     /tmp/ccxZaPj9.s:872    .text:0000000000000608 .L0 
     /tmp/ccxZaPj9.s:8      .rodata.str1.8:0000000000000000 .LC0
GAS LISTING /tmp/ccxZaPj9.s 			page 27


     /tmp/ccxZaPj9.s:81     .text:000000000000004c .L0 
     /tmp/ccxZaPj9.s:11     .rodata.str1.8:0000000000000008 .LC1
     /tmp/ccxZaPj9.s:93     .text:0000000000000070 .L0 
     /tmp/ccxZaPj9.s:14     .rodata.str1.8:0000000000000010 .LC2
     /tmp/ccxZaPj9.s:108    .text:0000000000000088 .L0 
     /tmp/ccxZaPj9.s:114    .text:000000000000009c .L0 
     /tmp/ccxZaPj9.s:132    .rodata.str1.8:0000000000000020 .LC3
     /tmp/ccxZaPj9.s:201    .text:0000000000000104 .L0 
     /tmp/ccxZaPj9.s:213    .text:0000000000000128 .L0 
     /tmp/ccxZaPj9.s:135    .rodata.str1.8:0000000000000028 .LC4
     /tmp/ccxZaPj9.s:228    .text:0000000000000140 .L0 
     /tmp/ccxZaPj9.s:234    .text:0000000000000154 .L0 
     /tmp/ccxZaPj9.s:326    .rodata.str1.8:0000000000000038 .LC5
     /tmp/ccxZaPj9.s:370    .text:000000000000020c .L0 
     /tmp/ccxZaPj9.s:382    .text:0000000000000230 .L0 
     /tmp/ccxZaPj9.s:329    .rodata.str1.8:0000000000000040 .LC6
     /tmp/ccxZaPj9.s:397    .text:0000000000000250 .L0 
     /tmp/ccxZaPj9.s:332    .rodata.str1.8:0000000000000050 .LC7
     /tmp/ccxZaPj9.s:422    .text:0000000000000270 .L0 
     /tmp/ccxZaPj9.s:434    .text:0000000000000294 .L0 
     /tmp/ccxZaPj9.s:335    .rodata.str1.8:0000000000000058 .LC8
     /tmp/ccxZaPj9.s:446    .text:00000000000002b4 .L0 
     /tmp/ccxZaPj9.s:459    .text:00000000000002d8 .L0 
     /tmp/ccxZaPj9.s:466    .text:00000000000002ec .L0 
     /tmp/ccxZaPj9.s:478    .text:0000000000000310 .L0 
     /tmp/ccxZaPj9.s:338    .rodata.str1.8:0000000000000068 .LC9
     /tmp/ccxZaPj9.s:493    .text:0000000000000330 .L0 
     /tmp/ccxZaPj9.s:499    .text:0000000000000344 .L0 
     /tmp/ccxZaPj9.s:524    .rodata.str1.8:0000000000000078 .LC10
     /tmp/ccxZaPj9.s:565    .text:000000000000038c .L0 
     /tmp/ccxZaPj9.s:577    .text:00000000000003b0 .L0 
     /tmp/ccxZaPj9.s:527    .rodata.str1.8:0000000000000080 .LC11
     /tmp/ccxZaPj9.s:592    .text:00000000000003d0 .L0 
     /tmp/ccxZaPj9.s:530    .rodata.str1.8:0000000000000090 .LC12
     /tmp/ccxZaPj9.s:615    .text:00000000000003fc .L0 
     /tmp/ccxZaPj9.s:628    .text:0000000000000420 .L0 
     /tmp/ccxZaPj9.s:635    .text:0000000000000434 .L0 
     /tmp/ccxZaPj9.s:647    .text:0000000000000458 .L0 
     /tmp/ccxZaPj9.s:533    .rodata.str1.8:00000000000000a0 .LC13
     /tmp/ccxZaPj9.s:662    .text:0000000000000478 .L0 
     /tmp/ccxZaPj9.s:668    .text:000000000000048c .L0 
     /tmp/ccxZaPj9.s:731    .text:00000000000004d0 .L0 
     /tmp/ccxZaPj9.s:693    .rodata.str1.8:00000000000000b0 .LC14
     /tmp/ccxZaPj9.s:737    .text:00000000000004e4 .L0 
     /tmp/ccxZaPj9.s:743    .text:00000000000004f8 .L0 
     /tmp/ccxZaPj9.s:696    .rodata.str1.8:00000000000000c8 .LC15
     /tmp/ccxZaPj9.s:749    .text:000000000000050c .L0 
     /tmp/ccxZaPj9.s:755    .text:0000000000000520 .L0 
     /tmp/ccxZaPj9.s:699    .rodata.str1.8:00000000000000e0 .LC16
     /tmp/ccxZaPj9.s:761    .text:0000000000000534 .L0 
     /tmp/ccxZaPj9.s:767    .text:0000000000000548 .L0 
     /tmp/ccxZaPj9.s:702    .rodata.str1.8:00000000000000f8 .LC17
     /tmp/ccxZaPj9.s:773    .text:000000000000055c .L0 
     /tmp/ccxZaPj9.s:705    .rodata.str1.8:0000000000000110 .LC18
     /tmp/ccxZaPj9.s:780    .text:0000000000000570 .L0 
     /tmp/ccxZaPj9.s:790    .text:0000000000000588 .L0 
     /tmp/ccxZaPj9.s:793    .text:0000000000000594 .L0 
GAS LISTING /tmp/ccxZaPj9.s 			page 28


     /tmp/ccxZaPj9.s:796    .text:00000000000005a0 .L0 
     /tmp/ccxZaPj9.s:799    .text:00000000000005ac .L0 
     /tmp/ccxZaPj9.s:74     .text:0000000000000044 .L7
     /tmp/ccxZaPj9.s:67     .text:0000000000000040 .L3
     /tmp/ccxZaPj9.s:43     .text:000000000000001c .L4
     /tmp/ccxZaPj9.s:56     .text:000000000000002c .L5
     /tmp/ccxZaPj9.s:102    .text:0000000000000088 .L2
     /tmp/ccxZaPj9.s:49     .text:0000000000000020 .L6
     /tmp/ccxZaPj9.s:194    .text:00000000000000fc .L15
     /tmp/ccxZaPj9.s:187    .text:00000000000000f8 .L11
     /tmp/ccxZaPj9.s:163    .text:00000000000000d4 .L12
     /tmp/ccxZaPj9.s:176    .text:00000000000000e4 .L13
     /tmp/ccxZaPj9.s:222    .text:0000000000000140 .L10
     /tmp/ccxZaPj9.s:169    .text:00000000000000d8 .L14
     /tmp/ccxZaPj9.s:297    .text:00000000000001c8 .L17
     /tmp/ccxZaPj9.s:314    .text:00000000000001e0 .L22
     /tmp/ccxZaPj9.s:284    .text:00000000000001a8 .L19
     /tmp/ccxZaPj9.s:390    .text:0000000000000248 .L25
     /tmp/ccxZaPj9.s:367    .text:000000000000020c .L29
     /tmp/ccxZaPj9.s:486    .text:0000000000000328 .L27
     /tmp/ccxZaPj9.s:463    .text:00000000000002ec .L30
     /tmp/ccxZaPj9.s:585    .text:00000000000003c8 .L33
     /tmp/ccxZaPj9.s:562    .text:000000000000038c .L37
     /tmp/ccxZaPj9.s:655    .text:0000000000000470 .L35
     /tmp/ccxZaPj9.s:632    .text:0000000000000434 .L38
     /tmp/ccxZaPj9.s:787    .text:0000000000000588 .L42
     /tmp/ccxZaPj9.s:777    .text:0000000000000570 .L40
     /tmp/ccxZaPj9.s:810    .text:00000000000005c4 .L41
     /tmp/ccxZaPj9.s:829    .text:00000000000005f0 .L39
     /tmp/ccxZaPj9.s:806    .text:00000000000005c0 .L44
     /tmp/ccxZaPj9.s:2414   .debug_abbrev:0000000000000000 .Ldebug_abbrev0
     /tmp/ccxZaPj9.s:3491   .debug_str:0000000000000084 .LASF98
     /tmp/ccxZaPj9.s:3493   .debug_str:0000000000000130 .LASF99
     /tmp/ccxZaPj9.s:3663   .debug_str:00000000000005a5 .LASF100
     /tmp/ccxZaPj9.s:5      .text:0000000000000000 .Ltext0
     /tmp/ccxZaPj9.s:867    .text:0000000000000608 .Letext0
     /tmp/ccxZaPj9.s:3473   .debug_line:0000000000000000 .Ldebug_line0
     /tmp/ccxZaPj9.s:3543   .debug_str:00000000000002b7 .LASF0
     /tmp/ccxZaPj9.s:3557   .debug_str:000000000000031d .LASF1
     /tmp/ccxZaPj9.s:3609   .debug_str:0000000000000469 .LASF2
     /tmp/ccxZaPj9.s:3527   .debug_str:0000000000000241 .LASF3
     /tmp/ccxZaPj9.s:3615   .debug_str:000000000000048a .LASF4
     /tmp/ccxZaPj9.s:3549   .debug_str:00000000000002e6 .LASF5
     /tmp/ccxZaPj9.s:3483   .debug_str:0000000000000039 .LASF6
     /tmp/ccxZaPj9.s:3601   .debug_str:000000000000043f .LASF7
     /tmp/ccxZaPj9.s:3587   .debug_str:00000000000003eb .LASF8
     /tmp/ccxZaPj9.s:3553   .debug_str:0000000000000305 .LASF9
     /tmp/ccxZaPj9.s:3533   .debug_str:0000000000000269 .LASF10
     /tmp/ccxZaPj9.s:3535   .debug_str:0000000000000279 .LASF11
     /tmp/ccxZaPj9.s:3505   .debug_str:00000000000001b1 .LASF12
     /tmp/ccxZaPj9.s:3529   .debug_str:0000000000000247 .LASF13
     /tmp/ccxZaPj9.s:3513   .debug_str:00000000000001e2 .LASF14
     /tmp/ccxZaPj9.s:3503   .debug_str:00000000000001a1 .LASF15
     /tmp/ccxZaPj9.s:3645   .debug_str:000000000000054f .LASF16
     /tmp/ccxZaPj9.s:3523   .debug_str:000000000000021f .LASF17
     /tmp/ccxZaPj9.s:3635   .debug_str:00000000000004f0 .LASF18
     /tmp/ccxZaPj9.s:3657   .debug_str:0000000000000582 .LASF19
GAS LISTING /tmp/ccxZaPj9.s 			page 29


     /tmp/ccxZaPj9.s:3653   .debug_str:0000000000000574 .LASF101
     /tmp/ccxZaPj9.s:3499   .debug_str:0000000000000189 .LASF20
     /tmp/ccxZaPj9.s:3629   .debug_str:00000000000004cf .LASF21
     /tmp/ccxZaPj9.s:3509   .debug_str:00000000000001c9 .LASF22
     /tmp/ccxZaPj9.s:3489   .debug_str:000000000000007b .LASF23
     /tmp/ccxZaPj9.s:3591   .debug_str:0000000000000407 .LASF24
     /tmp/ccxZaPj9.s:3507   .debug_str:00000000000001c0 .LASF25
     /tmp/ccxZaPj9.s:3647   .debug_str:000000000000055b .LASF69
     /tmp/ccxZaPj9.s:3541   .debug_str:00000000000002b1 .LASF26
     /tmp/ccxZaPj9.s:3667   .debug_str:00000000000005d0 .LASF102
     /tmp/ccxZaPj9.s:3579   .debug_str:00000000000003b0 .LASF103
     /tmp/ccxZaPj9.s:3555   .debug_str:0000000000000318 .LASF27
     /tmp/ccxZaPj9.s:3685   .debug_str:0000000000000648 .LASF29
     /tmp/ccxZaPj9.s:3681   .debug_str:000000000000062c .LASF28
     /tmp/ccxZaPj9.s:3659   .debug_str:000000000000058b .LASF30
     /tmp/ccxZaPj9.s:3519   .debug_str:0000000000000210 .LASF53
     /tmp/ccxZaPj9.s:3485   .debug_str:0000000000000040 .LASF55
     /tmp/ccxZaPj9.s:3559   .debug_str:0000000000000330 .LASF35
     /tmp/ccxZaPj9.s:3581   .debug_str:00000000000003b5 .LASF37
     /tmp/ccxZaPj9.s:3655   .debug_str:000000000000057a .LASF31
     /tmp/ccxZaPj9.s:3625   .debug_str:00000000000004b5 .LASF32
     /tmp/ccxZaPj9.s:3561   .debug_str:0000000000000336 .LASF39
     /tmp/ccxZaPj9.s:3563   .debug_str:0000000000000343 .LASF41
     /tmp/ccxZaPj9.s:3687   .debug_str:0000000000000654 .LASF33
     /tmp/ccxZaPj9.s:3525   .debug_str:0000000000000235 .LASF34
     /tmp/ccxZaPj9.s:3481   .debug_str:0000000000000029 .LASF36
     /tmp/ccxZaPj9.s:3547   .debug_str:00000000000002d9 .LASF38
     /tmp/ccxZaPj9.s:3627   .debug_str:00000000000004c6 .LASF40
     /tmp/ccxZaPj9.s:3573   .debug_str:0000000000000384 .LASF42
     /tmp/ccxZaPj9.s:3611   .debug_str:0000000000000477 .LASF43
     /tmp/ccxZaPj9.s:3639   .debug_str:0000000000000512 .LASF44
     /tmp/ccxZaPj9.s:3575   .debug_str:0000000000000397 .LASF45
     /tmp/ccxZaPj9.s:3477   .debug_str:000000000000000a .LASF46
     /tmp/ccxZaPj9.s:3675   .debug_str:0000000000000606 .LASF47
     /tmp/ccxZaPj9.s:3585   .debug_str:00000000000003d1 .LASF48
     /tmp/ccxZaPj9.s:3633   .debug_str:00000000000004e2 .LASF49
     /tmp/ccxZaPj9.s:3603   .debug_str:0000000000000446 .LASF50
     /tmp/ccxZaPj9.s:3517   .debug_str:0000000000000200 .LASF51
     /tmp/ccxZaPj9.s:3679   .debug_str:0000000000000621 .LASF52
     /tmp/ccxZaPj9.s:3551   .debug_str:00000000000002f8 .LASF57
     /tmp/ccxZaPj9.s:3631   .debug_str:00000000000004d7 .LASF54
     /tmp/ccxZaPj9.s:3683   .debug_str:0000000000000632 .LASF56
     /tmp/ccxZaPj9.s:3621   .debug_str:00000000000004a5 .LASF58
     /tmp/ccxZaPj9.s:3661   .debug_str:000000000000059b .LASF59
     /tmp/ccxZaPj9.s:3583   .debug_str:00000000000003c5 .LASF60
     /tmp/ccxZaPj9.s:3515   .debug_str:00000000000001f2 .LASF61
     /tmp/ccxZaPj9.s:3487   .debug_str:0000000000000053 .LASF63
     /tmp/ccxZaPj9.s:3545   .debug_str:00000000000002c4 .LASF62
     /tmp/ccxZaPj9.s:3497   .debug_str:000000000000015d .LASF64
     /tmp/ccxZaPj9.s:3671   .debug_str:00000000000005ed .LASF104
     /tmp/ccxZaPj9.s:3495   .debug_str:000000000000014c .LASF105
     /tmp/ccxZaPj9.s:3479   .debug_str:0000000000000024 .LASF65
     /tmp/ccxZaPj9.s:3669   .debug_str:00000000000005e8 .LASF66
     /tmp/ccxZaPj9.s:3565   .debug_str:000000000000035b .LASF67
     /tmp/ccxZaPj9.s:3521   .debug_str:0000000000000219 .LASF68
     /tmp/ccxZaPj9.s:3665   .debug_str:00000000000005c8 .LASF70
     /tmp/ccxZaPj9.s:3649   .debug_str:0000000000000563 .LASF71
GAS LISTING /tmp/ccxZaPj9.s 			page 30


     /tmp/ccxZaPj9.s:3567   .debug_str:0000000000000363 .LASF72
     /tmp/ccxZaPj9.s:3613   .debug_str:0000000000000480 .LASF73
     /tmp/ccxZaPj9.s:3577   .debug_str:00000000000003a6 .LASF74
     /tmp/ccxZaPj9.s:3617   .debug_str:0000000000000491 .LASF75
     /tmp/ccxZaPj9.s:3619   .debug_str:000000000000049b .LASF76
     /tmp/ccxZaPj9.s:3531   .debug_str:0000000000000256 .LASF77
     /tmp/ccxZaPj9.s:3539   .debug_str:0000000000000299 .LASF78
     /tmp/ccxZaPj9.s:712    .text:00000000000004b4 .LFB28
     /tmp/ccxZaPj9.s:846    .text:0000000000000608 .LFE28
     /tmp/ccxZaPj9.s:3623   .debug_str:00000000000004ad .LASF79
     /tmp/ccxZaPj9.s:801    .text:00000000000005b8 .LBB14
     /tmp/ccxZaPj9.s:830    .text:00000000000005f0 .LBE14
     /tmp/ccxZaPj9.s:3607   .debug_str:0000000000000462 .LASF80
     /tmp/ccxZaPj9.s:3210   .debug_loc:0000000000000000 .LLST16
     /tmp/ccxZaPj9.s:3637   .debug_str:0000000000000506 .LASF81
     /tmp/ccxZaPj9.s:3651   .debug_str:0000000000000568 .LASF106
     /tmp/ccxZaPj9.s:3221   .debug_loc:0000000000000036 .LLST17
     /tmp/ccxZaPj9.s:3475   .debug_str:0000000000000000 .LASF82
     /tmp/ccxZaPj9.s:823    .text:00000000000005e0 .LVL103
     /tmp/ccxZaPj9.s:826    .text:00000000000005ec .LVL104
     /tmp/ccxZaPj9.s:734    .text:00000000000004e4 .LVL90
     /tmp/ccxZaPj9.s:739    .text:00000000000004f4 .LVL91
     /tmp/ccxZaPj9.s:746    .text:000000000000050c .LVL92
     /tmp/ccxZaPj9.s:751    .text:000000000000051c .LVL93
     /tmp/ccxZaPj9.s:758    .text:0000000000000534 .LVL94
     /tmp/ccxZaPj9.s:763    .text:0000000000000544 .LVL95
     /tmp/ccxZaPj9.s:770    .text:000000000000055c .LVL96
     /tmp/ccxZaPj9.s:775    .text:000000000000056c .LVL97
     /tmp/ccxZaPj9.s:782    .text:0000000000000580 .LVL98
     /tmp/ccxZaPj9.s:786    .text:0000000000000588 .LVL99
     /tmp/ccxZaPj9.s:3599   .debug_str:0000000000000433 .LASF83
     /tmp/ccxZaPj9.s:3673   .debug_str:00000000000005f4 .LASF84
     /tmp/ccxZaPj9.s:540    .text:000000000000036c .LFB27
     /tmp/ccxZaPj9.s:689    .text:00000000000004b4 .LFE27
     /tmp/ccxZaPj9.s:3228   .debug_loc:0000000000000059 .LLST13
     /tmp/ccxZaPj9.s:3242   .debug_loc:0000000000000092 .LLST14
     /tmp/ccxZaPj9.s:3689   .debug_str:0000000000000661 .LASF85
     /tmp/ccxZaPj9.s:3262   .debug_loc:00000000000000ef .LLST15
     /tmp/ccxZaPj9.s:567    .text:000000000000039c .LVL68
     /tmp/ccxZaPj9.s:574    .text:00000000000003b0 .LVL69
     /tmp/ccxZaPj9.s:579    .text:00000000000003c0 .LVL70
     /tmp/ccxZaPj9.s:594    .text:00000000000003e0 .LVL73
     /tmp/ccxZaPj9.s:605    .text:00000000000003ec .LVL74
     /tmp/ccxZaPj9.s:610    .text:00000000000003f8 .LVL75
     /tmp/ccxZaPj9.s:618    .text:000000000000040c .LVL78
     /tmp/ccxZaPj9.s:625    .text:0000000000000420 .LVL79
     /tmp/ccxZaPj9.s:630    .text:0000000000000430 .LVL80
     /tmp/ccxZaPj9.s:637    .text:0000000000000444 .LVL81
     /tmp/ccxZaPj9.s:644    .text:0000000000000458 .LVL82
     /tmp/ccxZaPj9.s:649    .text:0000000000000468 .LVL83
     /tmp/ccxZaPj9.s:664    .text:0000000000000488 .LVL86
     /tmp/ccxZaPj9.s:672    .text:000000000000049c .LVL87
     /tmp/ccxZaPj9.s:3597   .debug_str:0000000000000427 .LASF86
     /tmp/ccxZaPj9.s:3501   .debug_str:000000000000018f .LASF87
     /tmp/ccxZaPj9.s:345    .text:00000000000001ec .LFB26
     /tmp/ccxZaPj9.s:520    .text:000000000000036c .LFE26
     /tmp/ccxZaPj9.s:3273   .debug_loc:0000000000000125 .LLST9
GAS LISTING /tmp/ccxZaPj9.s 			page 31


     /tmp/ccxZaPj9.s:3287   .debug_loc:000000000000015e .LLST10
     /tmp/ccxZaPj9.s:3307   .debug_loc:00000000000001bb .LLST11
     /tmp/ccxZaPj9.s:3315   .debug_loc:00000000000001df .LLST12
     /tmp/ccxZaPj9.s:372    .text:000000000000021c .LVL39
     /tmp/ccxZaPj9.s:379    .text:0000000000000230 .LVL40
     /tmp/ccxZaPj9.s:384    .text:0000000000000240 .LVL41
     /tmp/ccxZaPj9.s:399    .text:0000000000000260 .LVL44
     /tmp/ccxZaPj9.s:410    .text:000000000000026c .LVL45
     /tmp/ccxZaPj9.s:424    .text:0000000000000280 .LVL47
     /tmp/ccxZaPj9.s:431    .text:0000000000000294 .LVL48
     /tmp/ccxZaPj9.s:436    .text:00000000000002a4 .LVL49
     /tmp/ccxZaPj9.s:441    .text:00000000000002b0 .LVL50
     /tmp/ccxZaPj9.s:449    .text:00000000000002c4 .LVL53
     /tmp/ccxZaPj9.s:456    .text:00000000000002d8 .LVL54
     /tmp/ccxZaPj9.s:461    .text:00000000000002e8 .LVL55
     /tmp/ccxZaPj9.s:468    .text:00000000000002fc .LVL56
     /tmp/ccxZaPj9.s:475    .text:0000000000000310 .LVL57
     /tmp/ccxZaPj9.s:480    .text:0000000000000320 .LVL58
     /tmp/ccxZaPj9.s:495    .text:0000000000000340 .LVL61
     /tmp/ccxZaPj9.s:503    .text:0000000000000354 .LVL62
     /tmp/ccxZaPj9.s:3595   .debug_str:000000000000041b .LASF88
     /tmp/ccxZaPj9.s:3537   .debug_str:0000000000000287 .LASF89
     /tmp/ccxZaPj9.s:142    .text:00000000000000b8 .LFB25
     /tmp/ccxZaPj9.s:252    .text:0000000000000178 .LFE25
     /tmp/ccxZaPj9.s:3326   .debug_loc:0000000000000215 .LLST4
     /tmp/ccxZaPj9.s:158    .text:00000000000000cc .LBB8
     /tmp/ccxZaPj9.s:225    .text:0000000000000140 .LBE8
     /tmp/ccxZaPj9.s:3340   .debug_loc:000000000000024e .LLST5
     /tmp/ccxZaPj9.s:3459   .debug_ranges:0000000000000000 .Ldebug_ranges0
     /tmp/ccxZaPj9.s:3352   .debug_loc:0000000000000285 .LLST6
     /tmp/ccxZaPj9.s:173    .text:00000000000000e0 .LBB11
     /tmp/ccxZaPj9.s:188    .text:00000000000000f8 .LBE11
     /tmp/ccxZaPj9.s:3364   .debug_loc:00000000000002bc .LLST7
     /tmp/ccxZaPj9.s:203    .text:0000000000000114 .LVL22
     /tmp/ccxZaPj9.s:210    .text:0000000000000128 .LVL23
     /tmp/ccxZaPj9.s:215    .text:0000000000000138 .LVL24
     /tmp/ccxZaPj9.s:230    .text:0000000000000150 .LVL26
     /tmp/ccxZaPj9.s:238    .text:0000000000000164 .LVL27
     /tmp/ccxZaPj9.s:3593   .debug_str:000000000000040f .LASF90
     /tmp/ccxZaPj9.s:3571   .debug_str:0000000000000372 .LASF91
     /tmp/ccxZaPj9.s:21     .text:0000000000000000 .LFB24
     /tmp/ccxZaPj9.s:128    .text:00000000000000b8 .LFE24
     /tmp/ccxZaPj9.s:3375   .debug_loc:00000000000002f2 .LLST0
     /tmp/ccxZaPj9.s:38     .text:0000000000000014 .LBB2
     /tmp/ccxZaPj9.s:105    .text:0000000000000088 .LBE2
     /tmp/ccxZaPj9.s:3389   .debug_loc:000000000000032b .LLST1
     /tmp/ccxZaPj9.s:3401   .debug_loc:0000000000000362 .LLST2
     /tmp/ccxZaPj9.s:53     .text:0000000000000028 .LBB5
     /tmp/ccxZaPj9.s:68     .text:0000000000000040 .LBE5
     /tmp/ccxZaPj9.s:3413   .debug_loc:0000000000000399 .LLST3
     /tmp/ccxZaPj9.s:83     .text:000000000000005c .LVL8
     /tmp/ccxZaPj9.s:90     .text:0000000000000070 .LVL9
     /tmp/ccxZaPj9.s:95     .text:0000000000000080 .LVL10
     /tmp/ccxZaPj9.s:110    .text:0000000000000098 .LVL12
     /tmp/ccxZaPj9.s:3569   .debug_str:0000000000000368 .LASF107
     /tmp/ccxZaPj9.s:257    .text:0000000000000178 .LFB23
     /tmp/ccxZaPj9.s:322    .text:00000000000001ec .LFE23
GAS LISTING /tmp/ccxZaPj9.s 			page 32


     /tmp/ccxZaPj9.s:3424   .debug_loc:00000000000003cf .LLST8
     /tmp/ccxZaPj9.s:289    .text:00000000000001b4 .LVL31
     /tmp/ccxZaPj9.s:294    .text:00000000000001c4 .LVL32
     /tmp/ccxZaPj9.s:319    .text:00000000000001e8 .LVL35
     /tmp/ccxZaPj9.s:3643   .debug_str:0000000000000541 .LASF92
     /tmp/ccxZaPj9.s:3641   .debug_str:000000000000052e .LASF93
     /tmp/ccxZaPj9.s:3677   .debug_str:0000000000000615 .LASF94
     /tmp/ccxZaPj9.s:3605   .debug_str:0000000000000452 .LASF95
     /tmp/ccxZaPj9.s:3511   .debug_str:00000000000001d3 .LASF96
     /tmp/ccxZaPj9.s:3589   .debug_str:00000000000003fe .LASF97
     /tmp/ccxZaPj9.s:805    .text:00000000000005c0 .LVL100
     /tmp/ccxZaPj9.s:809    .text:00000000000005c4 .LVL101
     /tmp/ccxZaPj9.s:814    .text:00000000000005cc .LVL102
     /tmp/ccxZaPj9.s:828    .text:00000000000005f0 .LVL105
     /tmp/ccxZaPj9.s:839    .text:00000000000005fc .LVL106
     /tmp/ccxZaPj9.s:543    .text:000000000000036c .LVL65
     /tmp/ccxZaPj9.s:561    .text:000000000000038c .LVL67
     /tmp/ccxZaPj9.s:557    .text:0000000000000384 .LVL66
     /tmp/ccxZaPj9.s:582    .text:00000000000003c4 .LVL71
     /tmp/ccxZaPj9.s:584    .text:00000000000003c8 .LVL72
     /tmp/ccxZaPj9.s:652    .text:000000000000046c .LVL84
     /tmp/ccxZaPj9.s:654    .text:0000000000000470 .LVL85
     /tmp/ccxZaPj9.s:681    .text:00000000000004a8 .LVL88
     /tmp/ccxZaPj9.s:612    .text:00000000000003fc .LVL76
     /tmp/ccxZaPj9.s:616    .text:0000000000000404 .LVL77
     /tmp/ccxZaPj9.s:684    .text:00000000000004ac .LVL89
     /tmp/ccxZaPj9.s:348    .text:00000000000001ec .LVL36
     /tmp/ccxZaPj9.s:366    .text:000000000000020c .LVL38
     /tmp/ccxZaPj9.s:362    .text:0000000000000204 .LVL37
     /tmp/ccxZaPj9.s:387    .text:0000000000000244 .LVL42
     /tmp/ccxZaPj9.s:389    .text:0000000000000248 .LVL43
     /tmp/ccxZaPj9.s:483    .text:0000000000000324 .LVL59
     /tmp/ccxZaPj9.s:485    .text:0000000000000328 .LVL60
     /tmp/ccxZaPj9.s:512    .text:0000000000000360 .LVL63
     /tmp/ccxZaPj9.s:418    .text:0000000000000270 .LVL46
     /tmp/ccxZaPj9.s:443    .text:00000000000002b4 .LVL51
     /tmp/ccxZaPj9.s:447    .text:00000000000002bc .LVL52
     /tmp/ccxZaPj9.s:515    .text:0000000000000364 .LVL64
     /tmp/ccxZaPj9.s:145    .text:00000000000000b8 .LVL14
     /tmp/ccxZaPj9.s:162    .text:00000000000000d4 .LVL16
     /tmp/ccxZaPj9.s:157    .text:00000000000000cc .LVL15
     /tmp/ccxZaPj9.s:247    .text:0000000000000170 .LVL28
     /tmp/ccxZaPj9.s:193    .text:00000000000000fc .LVL21
     /tmp/ccxZaPj9.s:221    .text:0000000000000140 .LVL25
     /tmp/ccxZaPj9.s:168    .text:00000000000000d8 .LVL17
     /tmp/ccxZaPj9.s:177    .text:00000000000000e4 .LVL18
     /tmp/ccxZaPj9.s:186    .text:00000000000000f8 .LVL20
     /tmp/ccxZaPj9.s:25     .text:0000000000000000 .LVL0
     /tmp/ccxZaPj9.s:42     .text:000000000000001c .LVL2
     /tmp/ccxZaPj9.s:37     .text:0000000000000014 .LVL1
     /tmp/ccxZaPj9.s:123    .text:00000000000000b0 .LVL13
     /tmp/ccxZaPj9.s:73     .text:0000000000000044 .LVL7
     /tmp/ccxZaPj9.s:101    .text:0000000000000088 .LVL11
     /tmp/ccxZaPj9.s:48     .text:0000000000000020 .LVL3
     /tmp/ccxZaPj9.s:57     .text:000000000000002c .LVL4
     /tmp/ccxZaPj9.s:66     .text:0000000000000040 .LVL6
     /tmp/ccxZaPj9.s:260    .text:0000000000000178 .LVL29
GAS LISTING /tmp/ccxZaPj9.s 			page 33


     /tmp/ccxZaPj9.s:283    .text:00000000000001a8 .LVL30
     /tmp/ccxZaPj9.s:307    .text:00000000000001d4 .LVL33
     /tmp/ccxZaPj9.s:313    .text:00000000000001e0 .LVL34
     /tmp/ccxZaPj9.s:873    .debug_info:0000000000000000 .Ldebug_info0
     /tmp/ccxZaPj9.s:45     .text:000000000000001c .LBB4
     /tmp/ccxZaPj9.s:69     .text:0000000000000040 .LBE4
     /tmp/ccxZaPj9.s:97     .text:0000000000000080 .LBB6
     /tmp/ccxZaPj9.s:103    .text:0000000000000088 .LBE6
     /tmp/ccxZaPj9.s:165    .text:00000000000000d4 .LBB10
     /tmp/ccxZaPj9.s:189    .text:00000000000000f8 .LBE10
     /tmp/ccxZaPj9.s:217    .text:0000000000000138 .LBB12
     /tmp/ccxZaPj9.s:223    .text:0000000000000140 .LBE12

UNDEFINED SYMBOLS
_Z11printStringPKc
_Z8printIntiii
thread_dispatch
thread_create
_ZN3PCBD1Ev
_ZN3PCBdlEPv
