GAS LISTING /tmp/ccwRxAWu.s 			page 1


   1              		.file	"Threads_C_API_test.cpp"
   2              		.option pic
   3              		.option norelax
   4              		.text
   5              	.Ltext0:
   6              		.align	2
   8              	_ZL9fibonaccim:
   9              	.LFB24:
  10              		.file 1 "test/Threads_C_API_test.cpp"
   1:test/Threads_C_API_test.cpp **** //
   2:test/Threads_C_API_test.cpp **** // Created by os on 5/16/22.
   3:test/Threads_C_API_test.cpp **** //
   4:test/Threads_C_API_test.cpp **** 
   5:test/Threads_C_API_test.cpp **** #include "Threads_C_API_test.hpp"
   6:test/Threads_C_API_test.cpp **** #include "../h/Scheduler.hpp"
   7:test/Threads_C_API_test.cpp **** 
   8:test/Threads_C_API_test.cpp **** static bool finishedA = false;
   9:test/Threads_C_API_test.cpp **** static bool finishedB = false;
  10:test/Threads_C_API_test.cpp **** static bool finishedC = false;
  11:test/Threads_C_API_test.cpp **** static bool finishedD = false;
  12:test/Threads_C_API_test.cpp **** 
  13:test/Threads_C_API_test.cpp **** static uint64 fibonacci(uint64 n)
  14:test/Threads_C_API_test.cpp **** {
  11              		.loc 1 14 1
  12              		.cfi_startproc
  13              	.LVL0:
  14 0000 130101FE 		addi	sp,sp,-32
  15              		.cfi_def_cfa_offset 32
  16 0004 233C1100 		sd	ra,24(sp)
  17 0008 23388100 		sd	s0,16(sp)
  18 000c 23349100 		sd	s1,8(sp)
  19 0010 23302101 		sd	s2,0(sp)
  20              		.cfi_offset 1, -8
  21              		.cfi_offset 8, -16
  22              		.cfi_offset 9, -24
  23              		.cfi_offset 18, -32
  24 0014 13040102 		addi	s0,sp,32
  25              		.cfi_def_cfa 8, 0
  26 0018 93040500 		mv	s1,a0
  15:test/Threads_C_API_test.cpp ****     if (n == 0 || n == 1) {return n; }
  27              		.loc 1 15 5
  28 001c 93071000 		li	a5,1
  29 0020 63F8A702 		bleu	a0,a5,.L1
  16:test/Threads_C_API_test.cpp ****     if (n % 10 == 0) { thread_dispatch(); }
  30              		.loc 1 16 5
  31              		.loc 1 16 11 is_stmt 0
  32 0024 9307A000 		li	a5,10
  33 0028 B377F502 		remu	a5,a0,a5
  34              		.loc 1 16 5
  35 002c 638E0702 		beqz	a5,.L6
  36              	.LVL1:
  37              	.L3:
  17:test/Threads_C_API_test.cpp ****     return fibonacci(n - 1) + fibonacci(n - 2);
  38              		.loc 1 17 5 is_stmt 1
  39              		.loc 1 17 21 is_stmt 0
  40 0030 1385F4FF 		addi	a0,s1,-1
  41 0034 97000000 		call	_ZL9fibonaccim
GAS LISTING /tmp/ccwRxAWu.s 			page 2


  41      E7800000 
  42              	.LVL2:
  43 003c 13090500 		mv	s2,a0
  44              		.loc 1 17 40
  45 0040 1385E4FF 		addi	a0,s1,-2
  46 0044 97000000 		call	_ZL9fibonaccim
  46      E7800000 
  47              	.LVL3:
  48              		.loc 1 17 46
  49 004c 3305A900 		add	a0,s2,a0
  50              	.L1:
  18:test/Threads_C_API_test.cpp **** }
  51              		.loc 1 18 1
  52 0050 83308101 		ld	ra,24(sp)
  53              		.cfi_remember_state
  54              		.cfi_restore 1
  55 0054 03340101 		ld	s0,16(sp)
  56              		.cfi_restore 8
  57              		.cfi_def_cfa 2, 32
  58 0058 83348100 		ld	s1,8(sp)
  59              		.cfi_restore 9
  60              	.LVL4:
  61 005c 03390100 		ld	s2,0(sp)
  62              		.cfi_restore 18
  63 0060 13010102 		addi	sp,sp,32
  64              		.cfi_def_cfa_offset 0
  65 0064 67800000 		jr	ra
  66              	.LVL5:
  67              	.L6:
  68              		.cfi_restore_state
  16:test/Threads_C_API_test.cpp ****     if (n % 10 == 0) { thread_dispatch(); }
  69              		.loc 1 16 24 is_stmt 1 discriminator 1
  16:test/Threads_C_API_test.cpp ****     if (n % 10 == 0) { thread_dispatch(); }
  70              		.loc 1 16 39 is_stmt 0 discriminator 1
  71 0068 97000000 		call	thread_dispatch@plt
  71      E7800000 
  72              	.LVL6:
  73 0070 6FF01FFC 		j	.L3
  74              		.cfi_endproc
  75              	.LFE24:
  77              		.section	.rodata.str1.8,"aMS",@progbits,1
  78              		.align	3
  79              	.LC0:
  80 0000 433A2069 		.string	"C: i="
  80      3D00
  81 0006 0000     		.align	3
  82              	.LC1:
  83 0008 0A00     		.string	"\n"
  84 000a 00000000 		.align	3
  84      0000
  85              	.LC2:
  86 0010 433A2064 		.string	"C: dispatch\n"
  86      69737061 
  86      7463680A 
  86      00
  87 001d 000000   		.align	3
  88              	.LC3:
GAS LISTING /tmp/ccwRxAWu.s 			page 3


  89 0020 433A2072 		.string	"C: returned\n"
  89      65747572 
  89      6E65640A 
  89      00
  90 002d 000000   		.align	3
  91              	.LC4:
  92 0030 433A2074 		.string	"C: t1="
  92      313D00
  93 0037 00       		.align	3
  94              	.LC5:
  95 0038 433A2066 		.string	"C: fibonaci="
  95      69626F6E 
  95      6163693D 
  95      00
  96 0045 000000   		.align	3
  97              	.LC6:
  98 0048 43206669 		.string	"C finished!\n"
  98      6E697368 
  98      6564210A 
  98      00
  99              		.text
 100              		.align	2
 101              		.globl	_Z11workerBodyCPv
 103              	_Z11workerBodyCPv:
 104              	.LFB27:
  19:test/Threads_C_API_test.cpp **** 
  20:test/Threads_C_API_test.cpp **** void workerBodyA(void* arg)
  21:test/Threads_C_API_test.cpp **** {
  22:test/Threads_C_API_test.cpp ****     for (uint64 i = 0; i < 10; i++)
  23:test/Threads_C_API_test.cpp ****     {
  24:test/Threads_C_API_test.cpp ****         printString("A: i="); printInt(i); printString("\n");
  25:test/Threads_C_API_test.cpp ****         for (uint64 j = 0; j < 10000; j++)
  26:test/Threads_C_API_test.cpp ****         {
  27:test/Threads_C_API_test.cpp ****             for (uint64 k = 0; k < 30000; k++) { /* busy wait */ }
  28:test/Threads_C_API_test.cpp ****             thread_dispatch();
  29:test/Threads_C_API_test.cpp ****         }
  30:test/Threads_C_API_test.cpp ****     }
  31:test/Threads_C_API_test.cpp ****     Riscv::printString("A finished!\n");
  32:test/Threads_C_API_test.cpp ****     finishedA = true;
  33:test/Threads_C_API_test.cpp **** }
  34:test/Threads_C_API_test.cpp **** 
  35:test/Threads_C_API_test.cpp **** void workerBodyB(void* arg)
  36:test/Threads_C_API_test.cpp **** {
  37:test/Threads_C_API_test.cpp ****     for (uint64 i = 0; i < 16; i++) {
  38:test/Threads_C_API_test.cpp ****         printString("B: i="); printInt(i); printString("\n");
  39:test/Threads_C_API_test.cpp ****         for (uint64 j = 0; j < 10; j++)
  40:test/Threads_C_API_test.cpp ****         {
  41:test/Threads_C_API_test.cpp ****             for (uint64 k = 0; k < 30000; k++) { /* busy wait */ }
  42:test/Threads_C_API_test.cpp ****             thread_dispatch();
  43:test/Threads_C_API_test.cpp ****         }
  44:test/Threads_C_API_test.cpp ****     }
  45:test/Threads_C_API_test.cpp ****     thread_dispatch();
  46:test/Threads_C_API_test.cpp ****     Riscv::printString("B finished!\n");
  47:test/Threads_C_API_test.cpp ****     finishedB = true;
  48:test/Threads_C_API_test.cpp **** }
  49:test/Threads_C_API_test.cpp **** 
  50:test/Threads_C_API_test.cpp **** void workerBodyC(void* arg)
GAS LISTING /tmp/ccwRxAWu.s 			page 4


  51:test/Threads_C_API_test.cpp **** {
 105              		.loc 1 51 1 is_stmt 1
 106              		.cfi_startproc
 107              	.LVL7:
 108 0074 130101FE 		addi	sp,sp,-32
 109              		.cfi_def_cfa_offset 32
 110 0078 233C1100 		sd	ra,24(sp)
 111 007c 23388100 		sd	s0,16(sp)
 112 0080 23349100 		sd	s1,8(sp)
 113 0084 23302101 		sd	s2,0(sp)
 114              		.cfi_offset 1, -8
 115              		.cfi_offset 8, -16
 116              		.cfi_offset 9, -24
 117              		.cfi_offset 18, -32
 118 0088 13040102 		addi	s0,sp,32
 119              		.cfi_def_cfa 8, 0
  52:test/Threads_C_API_test.cpp ****     uint8 i = 0;
 120              		.loc 1 52 5
 121              	.LVL8:
 122              		.loc 1 52 11 is_stmt 0
 123 008c 93040000 		li	s1,0
 124 0090 6F000004 		j	.L9
 125              	.LVL9:
 126              	.L13:
  53:test/Threads_C_API_test.cpp ****     for (; i < 3; i++)
  54:test/Threads_C_API_test.cpp ****     {
  55:test/Threads_C_API_test.cpp ****         printString("C: i="); printInt(i); printString("\n");
 127              		.loc 1 55 9 is_stmt 1 discriminator 1
 128              		.loc 1 55 20 is_stmt 0 discriminator 1
 129 0094 17050000 		lla	a0,.LC0
 129      13050500 
 130 009c 97000000 		call	_Z11printStringPKc@plt
 130      E7800000 
 131              	.LVL10:
 132              		.loc 1 55 31 is_stmt 1 discriminator 1
 133              		.loc 1 55 39 is_stmt 0 discriminator 1
 134 00a4 13060000 		li	a2,0
 135 00a8 9305A000 		li	a1,10
 136 00ac 13850400 		mv	a0,s1
 137 00b0 97000000 		call	_Z8printIntiii@plt
 137      E7800000 
 138              	.LVL11:
 139              		.loc 1 55 44 is_stmt 1 discriminator 1
 140              		.loc 1 55 55 is_stmt 0 discriminator 1
 141 00b8 17050000 		lla	a0,.LC1
 141      13050500 
 142 00c0 97000000 		call	_Z11printStringPKc@plt
 142      E7800000 
 143              	.LVL12:
  53:test/Threads_C_API_test.cpp ****     for (; i < 3; i++)
 144              		.loc 1 53 5 is_stmt 1 discriminator 1
 145 00c8 9B841400 		addiw	s1,s1,1
 146              	.LVL13:
 147 00cc 93F4F40F 		andi	s1,s1,0xff
 148              	.LVL14:
 149              	.L9:
  53:test/Threads_C_API_test.cpp ****     for (; i < 3; i++)
GAS LISTING /tmp/ccwRxAWu.s 			page 5


 150              		.loc 1 53 5 discriminator 2
  53:test/Threads_C_API_test.cpp ****     for (; i < 3; i++)
 151              		.loc 1 53 14 discriminator 2
 152 00d0 93072000 		li	a5,2
 153 00d4 E3F097FC 		bleu	s1,a5,.L13
  56:test/Threads_C_API_test.cpp ****     }
  57:test/Threads_C_API_test.cpp **** 
  58:test/Threads_C_API_test.cpp ****     printString("C: dispatch\n");
 154              		.loc 1 58 5
 155              		.loc 1 58 16 is_stmt 0
 156 00d8 17050000 		lla	a0,.LC2
 156      13050500 
 157 00e0 97000000 		call	_Z11printStringPKc@plt
 157      E7800000 
 158              	.LVL15:
  59:test/Threads_C_API_test.cpp ****     __asm__ ("li t1, 7");
 159              		.loc 1 59 5 is_stmt 1
 160              		.loc 1 59 25 is_stmt 0
 161              	#APP
 162              	# 59 "test/Threads_C_API_test.cpp" 1
  60              	    thread_dispatch();
 163              		li t1, 7
 164              	# 0 "" 2
 165              		.loc 1 60 5 is_stmt 1
 166              		.loc 1 60 20 is_stmt 0
 167              	#NO_APP
 168 00ec 97000000 		call	thread_dispatch@plt
 168      E7800000 
 169              	.LVL16:
  61:test/Threads_C_API_test.cpp ****     printString("C: returned\n");
 170              		.loc 1 61 5 is_stmt 1
 171              		.loc 1 61 16 is_stmt 0
 172 00f4 17050000 		lla	a0,.LC3
 172      13050500 
 173 00fc 97000000 		call	_Z11printStringPKc@plt
 173      E7800000 
 174              	.LVL17:
  62:test/Threads_C_API_test.cpp ****     uint64 t1 = 0;
 175              		.loc 1 62 5 is_stmt 1
  63:test/Threads_C_API_test.cpp ****     __asm__ ("mv %[t1], t1" : [t1] "=r"(t1));
 176              		.loc 1 63 5
 177              		.loc 1 63 45 is_stmt 0
 178              	#APP
 179              	# 63 "test/Threads_C_API_test.cpp" 1
  64              	
 180              		mv s2, t1
 181              	# 0 "" 2
 182              	.LVL18:
  65:test/Threads_C_API_test.cpp ****     printString("C: t1="); printInt(t1); printString("\n");
 183              		.loc 1 65 5 is_stmt 1
 184              		.loc 1 65 16 is_stmt 0
 185              	#NO_APP
 186 0108 17050000 		lla	a0,.LC4
 186      13050500 
 187 0110 97000000 		call	_Z11printStringPKc@plt
 187      E7800000 
 188              	.LVL19:
GAS LISTING /tmp/ccwRxAWu.s 			page 6


 189              		.loc 1 65 28 is_stmt 1
 190              		.loc 1 65 36 is_stmt 0
 191 0118 13060000 		li	a2,0
 192 011c 9305A000 		li	a1,10
 193 0120 1B050900 		sext.w	a0,s2
 194 0124 97000000 		call	_Z8printIntiii@plt
 194      E7800000 
 195              	.LVL20:
 196              		.loc 1 65 42 is_stmt 1
 197              		.loc 1 65 53 is_stmt 0
 198 012c 17050000 		lla	a0,.LC1
 198      13050500 
 199 0134 97000000 		call	_Z11printStringPKc@plt
 199      E7800000 
 200              	.LVL21:
  66:test/Threads_C_API_test.cpp **** 
  67:test/Threads_C_API_test.cpp ****     uint64 result = fibonacci(12);
 201              		.loc 1 67 5 is_stmt 1
 202              		.loc 1 67 30 is_stmt 0
 203 013c 1305C000 		li	a0,12
 204 0140 97000000 		call	_ZL9fibonaccim
 204      E7800000 
 205              	.LVL22:
 206 0148 13090500 		mv	s2,a0
 207              	.LVL23:
  68:test/Threads_C_API_test.cpp ****     printString("C: fibonaci="); printInt(result); printString("\n");
 208              		.loc 1 68 5 is_stmt 1
 209              		.loc 1 68 16 is_stmt 0
 210 014c 17050000 		lla	a0,.LC5
 210      13050500 
 211              	.LVL24:
 212 0154 97000000 		call	_Z11printStringPKc@plt
 212      E7800000 
 213              	.LVL25:
 214              		.loc 1 68 34 is_stmt 1
 215              		.loc 1 68 42 is_stmt 0
 216 015c 13060000 		li	a2,0
 217 0160 9305A000 		li	a1,10
 218 0164 1B050900 		sext.w	a0,s2
 219 0168 97000000 		call	_Z8printIntiii@plt
 219      E7800000 
 220              	.LVL26:
 221              		.loc 1 68 52 is_stmt 1
 222              		.loc 1 68 63 is_stmt 0
 223 0170 17050000 		lla	a0,.LC1
 223      13050500 
 224 0178 97000000 		call	_Z11printStringPKc@plt
 224      E7800000 
 225              	.LVL27:
 226 0180 6F000004 		j	.L11
 227              	.L14:
  69:test/Threads_C_API_test.cpp **** 
  70:test/Threads_C_API_test.cpp ****     for (; i < 6; i++) {
  71:test/Threads_C_API_test.cpp ****         printString("C: i="); printInt(i); printString("\n");
 228              		.loc 1 71 9 is_stmt 1 discriminator 1
 229              		.loc 1 71 20 is_stmt 0 discriminator 1
 230 0184 17050000 		lla	a0,.LC0
GAS LISTING /tmp/ccwRxAWu.s 			page 7


 230      13050500 
 231 018c 97000000 		call	_Z11printStringPKc@plt
 231      E7800000 
 232              	.LVL28:
 233              		.loc 1 71 31 is_stmt 1 discriminator 1
 234              		.loc 1 71 39 is_stmt 0 discriminator 1
 235 0194 13060000 		li	a2,0
 236 0198 9305A000 		li	a1,10
 237 019c 13850400 		mv	a0,s1
 238 01a0 97000000 		call	_Z8printIntiii@plt
 238      E7800000 
 239              	.LVL29:
 240              		.loc 1 71 44 is_stmt 1 discriminator 1
 241              		.loc 1 71 55 is_stmt 0 discriminator 1
 242 01a8 17050000 		lla	a0,.LC1
 242      13050500 
 243 01b0 97000000 		call	_Z11printStringPKc@plt
 243      E7800000 
 244              	.LVL30:
  70:test/Threads_C_API_test.cpp ****         printString("C: i="); printInt(i); printString("\n");
 245              		.loc 1 70 5 is_stmt 1 discriminator 1
 246 01b8 9B841400 		addiw	s1,s1,1
 247              	.LVL31:
 248 01bc 93F4F40F 		andi	s1,s1,0xff
 249              	.LVL32:
 250              	.L11:
  70:test/Threads_C_API_test.cpp ****         printString("C: i="); printInt(i); printString("\n");
 251              		.loc 1 70 5 discriminator 2
  70:test/Threads_C_API_test.cpp ****         printString("C: i="); printInt(i); printString("\n");
 252              		.loc 1 70 14 discriminator 2
 253 01c0 93075000 		li	a5,5
 254 01c4 E3F097FC 		bleu	s1,a5,.L14
  72:test/Threads_C_API_test.cpp ****     }
  73:test/Threads_C_API_test.cpp **** 
  74:test/Threads_C_API_test.cpp ****     thread_dispatch();
 255              		.loc 1 74 5
 256              		.loc 1 74 20 is_stmt 0
 257 01c8 97000000 		call	thread_dispatch@plt
 257      E7800000 
 258              	.LVL33:
  75:test/Threads_C_API_test.cpp ****     printString("C finished!\n");
 259              		.loc 1 75 5 is_stmt 1
 260              		.loc 1 75 16 is_stmt 0
 261 01d0 17050000 		lla	a0,.LC6
 261      13050500 
 262 01d8 97000000 		call	_Z11printStringPKc@plt
 262      E7800000 
 263              	.LVL34:
  76:test/Threads_C_API_test.cpp ****     finishedC = true;
 264              		.loc 1 76 5 is_stmt 1
 265              		.loc 1 76 15 is_stmt 0
 266 01e0 93071000 		li	a5,1
 267 01e4 17070000 		sb	a5,.LANCHOR0,a4
 267      2300F700 
  77:test/Threads_C_API_test.cpp **** }
 268              		.loc 1 77 1
 269 01ec 83308101 		ld	ra,24(sp)
GAS LISTING /tmp/ccwRxAWu.s 			page 8


 270              		.cfi_restore 1
 271 01f0 03340101 		ld	s0,16(sp)
 272              		.cfi_restore 8
 273              		.cfi_def_cfa 2, 32
 274 01f4 83348100 		ld	s1,8(sp)
 275              		.cfi_restore 9
 276              	.LVL35:
 277 01f8 03390100 		ld	s2,0(sp)
 278              		.cfi_restore 18
 279              	.LVL36:
 280 01fc 13010102 		addi	sp,sp,32
 281              		.cfi_def_cfa_offset 0
 282 0200 67800000 		jr	ra
 283              		.cfi_endproc
 284              	.LFE27:
 286              		.section	.rodata.str1.8
 287 0055 000000   		.align	3
 288              	.LC7:
 289 0058 443A2069 		.string	"D: i="
 289      3D00
 290 005e 0000     		.align	3
 291              	.LC8:
 292 0060 443A2064 		.string	"D: dispatch\n"
 292      69737061 
 292      7463680A 
 292      00
 293 006d 000000   		.align	3
 294              	.LC9:
 295 0070 443A2072 		.string	"D: returned\n"
 295      65747572 
 295      6E65640A 
 295      00
 296 007d 000000   		.align	3
 297              	.LC10:
 298 0080 443A2066 		.string	"D: fibonaci="
 298      69626F6E 
 298      6163693D 
 298      00
 299 008d 000000   		.align	3
 300              	.LC11:
 301 0090 44206669 		.string	"D finished!\n"
 301      6E697368 
 301      6564210A 
 301      00
 302              		.text
 303              		.align	2
 304              		.globl	_Z11workerBodyDPv
 306              	_Z11workerBodyDPv:
 307              	.LFB28:
  78:test/Threads_C_API_test.cpp **** 
  79:test/Threads_C_API_test.cpp **** void workerBodyD(void* arg)
  80:test/Threads_C_API_test.cpp **** {
 308              		.loc 1 80 1 is_stmt 1
 309              		.cfi_startproc
 310              	.LVL37:
 311 0204 130101FE 		addi	sp,sp,-32
 312              		.cfi_def_cfa_offset 32
GAS LISTING /tmp/ccwRxAWu.s 			page 9


 313 0208 233C1100 		sd	ra,24(sp)
 314 020c 23388100 		sd	s0,16(sp)
 315 0210 23349100 		sd	s1,8(sp)
 316 0214 23302101 		sd	s2,0(sp)
 317              		.cfi_offset 1, -8
 318              		.cfi_offset 8, -16
 319              		.cfi_offset 9, -24
 320              		.cfi_offset 18, -32
 321 0218 13040102 		addi	s0,sp,32
 322              		.cfi_def_cfa 8, 0
  81:test/Threads_C_API_test.cpp ****     uint8 i = 10;
 323              		.loc 1 81 5
 324              	.LVL38:
 325              		.loc 1 81 11 is_stmt 0
 326 021c 9304A000 		li	s1,10
 327 0220 6F000004 		j	.L17
 328              	.LVL39:
 329              	.L21:
  82:test/Threads_C_API_test.cpp ****     for (; i < 13; i++) {
  83:test/Threads_C_API_test.cpp ****         printString("D: i="); printInt(i); printString("\n");
 330              		.loc 1 83 9 is_stmt 1 discriminator 1
 331              		.loc 1 83 20 is_stmt 0 discriminator 1
 332 0224 17050000 		lla	a0,.LC7
 332      13050500 
 333 022c 97000000 		call	_Z11printStringPKc@plt
 333      E7800000 
 334              	.LVL40:
 335              		.loc 1 83 31 is_stmt 1 discriminator 1
 336              		.loc 1 83 39 is_stmt 0 discriminator 1
 337 0234 13060000 		li	a2,0
 338 0238 9305A000 		li	a1,10
 339 023c 13850400 		mv	a0,s1
 340 0240 97000000 		call	_Z8printIntiii@plt
 340      E7800000 
 341              	.LVL41:
 342              		.loc 1 83 44 is_stmt 1 discriminator 1
 343              		.loc 1 83 55 is_stmt 0 discriminator 1
 344 0248 17050000 		lla	a0,.LC1
 344      13050500 
 345 0250 97000000 		call	_Z11printStringPKc@plt
 345      E7800000 
 346              	.LVL42:
  82:test/Threads_C_API_test.cpp ****     for (; i < 13; i++) {
 347              		.loc 1 82 5 is_stmt 1 discriminator 1
 348 0258 9B841400 		addiw	s1,s1,1
 349              	.LVL43:
 350 025c 93F4F40F 		andi	s1,s1,0xff
 351              	.LVL44:
 352              	.L17:
  82:test/Threads_C_API_test.cpp ****     for (; i < 13; i++) {
 353              		.loc 1 82 5 discriminator 2
  82:test/Threads_C_API_test.cpp ****     for (; i < 13; i++) {
 354              		.loc 1 82 14 discriminator 2
 355 0260 9307C000 		li	a5,12
 356 0264 E3F097FC 		bleu	s1,a5,.L21
  84:test/Threads_C_API_test.cpp ****     }
  85:test/Threads_C_API_test.cpp **** 
GAS LISTING /tmp/ccwRxAWu.s 			page 10


  86:test/Threads_C_API_test.cpp ****     printString("D: dispatch\n");
 357              		.loc 1 86 5
 358              		.loc 1 86 16 is_stmt 0
 359 0268 17050000 		lla	a0,.LC8
 359      13050500 
 360 0270 97000000 		call	_Z11printStringPKc@plt
 360      E7800000 
 361              	.LVL45:
  87:test/Threads_C_API_test.cpp ****     __asm__ ("li t1, 5");
 362              		.loc 1 87 5 is_stmt 1
 363              		.loc 1 87 25 is_stmt 0
 364              	#APP
 365              	# 87 "test/Threads_C_API_test.cpp" 1
  88              	    thread_dispatch();
 366              		li t1, 5
 367              	# 0 "" 2
 368              		.loc 1 88 5 is_stmt 1
 369              		.loc 1 88 20 is_stmt 0
 370              	#NO_APP
 371 027c 97000000 		call	thread_dispatch@plt
 371      E7800000 
 372              	.LVL46:
  89:test/Threads_C_API_test.cpp ****     printString("D: returned\n");
 373              		.loc 1 89 5 is_stmt 1
 374              		.loc 1 89 16 is_stmt 0
 375 0284 17050000 		lla	a0,.LC9
 375      13050500 
 376 028c 97000000 		call	_Z11printStringPKc@plt
 376      E7800000 
 377              	.LVL47:
  90:test/Threads_C_API_test.cpp ****     uint64 result = fibonacci(16);
 378              		.loc 1 90 5 is_stmt 1
 379              		.loc 1 90 30 is_stmt 0
 380 0294 13050001 		li	a0,16
 381 0298 97000000 		call	_ZL9fibonaccim
 381      E7800000 
 382              	.LVL48:
 383 02a0 13090500 		mv	s2,a0
 384              	.LVL49:
  91:test/Threads_C_API_test.cpp ****     printString("D: fibonaci="); printInt(result); printString("\n");
 385              		.loc 1 91 5 is_stmt 1
 386              		.loc 1 91 16 is_stmt 0
 387 02a4 17050000 		lla	a0,.LC10
 387      13050500 
 388              	.LVL50:
 389 02ac 97000000 		call	_Z11printStringPKc@plt
 389      E7800000 
 390              	.LVL51:
 391              		.loc 1 91 34 is_stmt 1
 392              		.loc 1 91 42 is_stmt 0
 393 02b4 13060000 		li	a2,0
 394 02b8 9305A000 		li	a1,10
 395 02bc 1B050900 		sext.w	a0,s2
 396 02c0 97000000 		call	_Z8printIntiii@plt
 396      E7800000 
 397              	.LVL52:
 398              		.loc 1 91 52 is_stmt 1
GAS LISTING /tmp/ccwRxAWu.s 			page 11


 399              		.loc 1 91 63 is_stmt 0
 400 02c8 17050000 		lla	a0,.LC1
 400      13050500 
 401 02d0 97000000 		call	_Z11printStringPKc@plt
 401      E7800000 
 402              	.LVL53:
 403 02d8 6F000004 		j	.L19
 404              	.L22:
  92:test/Threads_C_API_test.cpp **** 
  93:test/Threads_C_API_test.cpp ****     for (; i < 16; i++) {
  94:test/Threads_C_API_test.cpp ****         printString("D: i="); printInt(i); printString("\n");
 405              		.loc 1 94 9 is_stmt 1 discriminator 1
 406              		.loc 1 94 20 is_stmt 0 discriminator 1
 407 02dc 17050000 		lla	a0,.LC7
 407      13050500 
 408 02e4 97000000 		call	_Z11printStringPKc@plt
 408      E7800000 
 409              	.LVL54:
 410              		.loc 1 94 31 is_stmt 1 discriminator 1
 411              		.loc 1 94 39 is_stmt 0 discriminator 1
 412 02ec 13060000 		li	a2,0
 413 02f0 9305A000 		li	a1,10
 414 02f4 13850400 		mv	a0,s1
 415 02f8 97000000 		call	_Z8printIntiii@plt
 415      E7800000 
 416              	.LVL55:
 417              		.loc 1 94 44 is_stmt 1 discriminator 1
 418              		.loc 1 94 55 is_stmt 0 discriminator 1
 419 0300 17050000 		lla	a0,.LC1
 419      13050500 
 420 0308 97000000 		call	_Z11printStringPKc@plt
 420      E7800000 
 421              	.LVL56:
  93:test/Threads_C_API_test.cpp ****         printString("D: i="); printInt(i); printString("\n");
 422              		.loc 1 93 5 is_stmt 1 discriminator 1
 423 0310 9B841400 		addiw	s1,s1,1
 424              	.LVL57:
 425 0314 93F4F40F 		andi	s1,s1,0xff
 426              	.LVL58:
 427              	.L19:
  93:test/Threads_C_API_test.cpp ****         printString("D: i="); printInt(i); printString("\n");
 428              		.loc 1 93 5 discriminator 2
  93:test/Threads_C_API_test.cpp ****         printString("D: i="); printInt(i); printString("\n");
 429              		.loc 1 93 14 discriminator 2
 430 0318 9307F000 		li	a5,15
 431 031c E3F097FC 		bleu	s1,a5,.L22
  95:test/Threads_C_API_test.cpp ****     }
  96:test/Threads_C_API_test.cpp **** 
  97:test/Threads_C_API_test.cpp ****     thread_dispatch();
 432              		.loc 1 97 5
 433              		.loc 1 97 20 is_stmt 0
 434 0320 97000000 		call	thread_dispatch@plt
 434      E7800000 
 435              	.LVL59:
  98:test/Threads_C_API_test.cpp ****     printString("D finished!\n");
 436              		.loc 1 98 5 is_stmt 1
 437              		.loc 1 98 16 is_stmt 0
GAS LISTING /tmp/ccwRxAWu.s 			page 12


 438 0328 17050000 		lla	a0,.LC11
 438      13050500 
 439 0330 97000000 		call	_Z11printStringPKc@plt
 439      E7800000 
 440              	.LVL60:
  99:test/Threads_C_API_test.cpp ****     finishedD = true;
 441              		.loc 1 99 5 is_stmt 1
 442              		.loc 1 99 15 is_stmt 0
 443 0338 93071000 		li	a5,1
 444 033c 17070000 		sb	a5,.LANCHOR0+1,a4
 444      2300F700 
 100:test/Threads_C_API_test.cpp **** }
 445              		.loc 1 100 1
 446 0344 83308101 		ld	ra,24(sp)
 447              		.cfi_restore 1
 448 0348 03340101 		ld	s0,16(sp)
 449              		.cfi_restore 8
 450              		.cfi_def_cfa 2, 32
 451 034c 83348100 		ld	s1,8(sp)
 452              		.cfi_restore 9
 453              	.LVL61:
 454 0350 03390100 		ld	s2,0(sp)
 455              		.cfi_restore 18
 456              	.LVL62:
 457 0354 13010102 		addi	sp,sp,32
 458              		.cfi_def_cfa_offset 0
 459 0358 67800000 		jr	ra
 460              		.cfi_endproc
 461              	.LFE28:
 463              		.section	.rodata.str1.8
 464 009d 000000   		.align	3
 465              	.LC12:
 466 00a0 413A2069 		.string	"A: i="
 466      3D00
 467 00a6 0000     		.align	3
 468              	.LC13:
 469 00a8 41206669 		.string	"A finished!\n"
 469      6E697368 
 469      6564210A 
 469      00
 470              		.text
 471              		.align	2
 472              		.globl	_Z11workerBodyAPv
 474              	_Z11workerBodyAPv:
 475              	.LFB25:
  21:test/Threads_C_API_test.cpp ****     for (uint64 i = 0; i < 10; i++)
 476              		.loc 1 21 1 is_stmt 1
 477              		.cfi_startproc
 478              	.LVL63:
 479 035c 130101FE 		addi	sp,sp,-32
 480              		.cfi_def_cfa_offset 32
 481 0360 233C1100 		sd	ra,24(sp)
 482 0364 23388100 		sd	s0,16(sp)
 483 0368 23349100 		sd	s1,8(sp)
 484 036c 23302101 		sd	s2,0(sp)
 485              		.cfi_offset 1, -8
 486              		.cfi_offset 8, -16
GAS LISTING /tmp/ccwRxAWu.s 			page 13


 487              		.cfi_offset 9, -24
 488              		.cfi_offset 18, -32
 489 0370 13040102 		addi	s0,sp,32
 490              		.cfi_def_cfa 8, 0
  22:test/Threads_C_API_test.cpp ****     {
 491              		.loc 1 22 5
 492              	.LVL64:
 493              	.LBB2:
  22:test/Threads_C_API_test.cpp ****     {
 494              		.loc 1 22 17 is_stmt 0
 495 0374 13090000 		li	s2,0
 496 0378 6F008003 		j	.L29
 497              	.LVL65:
 498              	.L26:
 499              	.LBB3:
 500              	.LBB4:
 501              	.LBB5:
  28:test/Threads_C_API_test.cpp ****         }
 502              		.loc 1 28 13 is_stmt 1 discriminator 2
  28:test/Threads_C_API_test.cpp ****         }
 503              		.loc 1 28 28 is_stmt 0 discriminator 2
 504 037c 97000000 		call	thread_dispatch@plt
 504      E7800000 
 505              	.LVL66:
 506              	.LBE5:
  25:test/Threads_C_API_test.cpp ****         {
 507              		.loc 1 25 9 is_stmt 1 discriminator 2
 508 0384 93841400 		addi	s1,s1,1
 509              	.LVL67:
 510              	.L28:
  25:test/Threads_C_API_test.cpp ****         {
 511              		.loc 1 25 30 discriminator 1
 512 0388 B7270000 		li	a5,8192
 513 038c 9387F770 		addi	a5,a5,1807
 514 0390 63EE9700 		bgtu	s1,a5,.L25
 515              	.LBB7:
 516              	.LBB6:
  27:test/Threads_C_API_test.cpp ****             thread_dispatch();
 517              		.loc 1 27 25 is_stmt 0
 518 0394 13070000 		li	a4,0
 519              	.L27:
 520              	.LVL68:
  27:test/Threads_C_API_test.cpp ****             thread_dispatch();
 521              		.loc 1 27 34 is_stmt 1 discriminator 3
 522 0398 B7770000 		li	a5,28672
 523 039c 9387F752 		addi	a5,a5,1327
 524 03a0 E3EEE7FC 		bgtu	a4,a5,.L26
  27:test/Threads_C_API_test.cpp ****             thread_dispatch();
 525              		.loc 1 27 13 discriminator 2
 526 03a4 13071700 		addi	a4,a4,1
 527              	.LVL69:
 528 03a8 6FF01FFF 		j	.L27
 529              	.LVL70:
 530              	.L25:
 531              	.LBE6:
 532              	.LBE7:
 533              	.LBE4:
GAS LISTING /tmp/ccwRxAWu.s 			page 14


 534              	.LBE3:
  22:test/Threads_C_API_test.cpp ****     {
 535              		.loc 1 22 5 discriminator 2
 536 03ac 13091900 		addi	s2,s2,1
 537              	.LVL71:
 538              	.L29:
  22:test/Threads_C_API_test.cpp ****     {
 539              		.loc 1 22 26 discriminator 1
 540 03b0 93079000 		li	a5,9
 541 03b4 63E02705 		bgtu	s2,a5,.L24
 542              	.LBB9:
  24:test/Threads_C_API_test.cpp ****         for (uint64 j = 0; j < 10000; j++)
 543              		.loc 1 24 9
  24:test/Threads_C_API_test.cpp ****         for (uint64 j = 0; j < 10000; j++)
 544              		.loc 1 24 20 is_stmt 0
 545 03b8 17050000 		lla	a0,.LC12
 545      13050500 
 546 03c0 97000000 		call	_Z11printStringPKc@plt
 546      E7800000 
 547              	.LVL72:
  24:test/Threads_C_API_test.cpp ****         for (uint64 j = 0; j < 10000; j++)
 548              		.loc 1 24 31 is_stmt 1
  24:test/Threads_C_API_test.cpp ****         for (uint64 j = 0; j < 10000; j++)
 549              		.loc 1 24 39 is_stmt 0
 550 03c8 13060000 		li	a2,0
 551 03cc 9305A000 		li	a1,10
 552 03d0 1B050900 		sext.w	a0,s2
 553 03d4 97000000 		call	_Z8printIntiii@plt
 553      E7800000 
 554              	.LVL73:
  24:test/Threads_C_API_test.cpp ****         for (uint64 j = 0; j < 10000; j++)
 555              		.loc 1 24 44 is_stmt 1
  24:test/Threads_C_API_test.cpp ****         for (uint64 j = 0; j < 10000; j++)
 556              		.loc 1 24 55 is_stmt 0
 557 03dc 17050000 		lla	a0,.LC1
 557      13050500 
 558 03e4 97000000 		call	_Z11printStringPKc@plt
 558      E7800000 
 559              	.LVL74:
  25:test/Threads_C_API_test.cpp ****         {
 560              		.loc 1 25 9 is_stmt 1
 561              	.LBB8:
  25:test/Threads_C_API_test.cpp ****         {
 562              		.loc 1 25 21 is_stmt 0
 563 03ec 93040000 		li	s1,0
 564 03f0 6FF09FF9 		j	.L28
 565              	.LVL75:
 566              	.L24:
 567              	.LBE8:
 568              	.LBE9:
 569              	.LBE2:
  31:test/Threads_C_API_test.cpp ****     finishedA = true;
 570              		.loc 1 31 5 is_stmt 1
  31:test/Threads_C_API_test.cpp ****     finishedA = true;
 571              		.loc 1 31 23 is_stmt 0
 572 03f4 17050000 		lla	a0,.LC13
 572      13050500 
GAS LISTING /tmp/ccwRxAWu.s 			page 15


 573 03fc 97000000 		call	_ZN5Riscv11printStringEPKc@plt
 573      E7800000 
 574              	.LVL76:
  32:test/Threads_C_API_test.cpp **** }
 575              		.loc 1 32 5 is_stmt 1
  32:test/Threads_C_API_test.cpp **** }
 576              		.loc 1 32 15 is_stmt 0
 577 0404 93071000 		li	a5,1
 578 0408 17070000 		sb	a5,.LANCHOR0+2,a4
 578      2300F700 
  33:test/Threads_C_API_test.cpp **** 
 579              		.loc 1 33 1
 580 0410 83308101 		ld	ra,24(sp)
 581              		.cfi_restore 1
 582 0414 03340101 		ld	s0,16(sp)
 583              		.cfi_restore 8
 584              		.cfi_def_cfa 2, 32
 585 0418 83348100 		ld	s1,8(sp)
 586              		.cfi_restore 9
 587 041c 03390100 		ld	s2,0(sp)
 588              		.cfi_restore 18
 589              	.LVL77:
 590 0420 13010102 		addi	sp,sp,32
 591              		.cfi_def_cfa_offset 0
 592 0424 67800000 		jr	ra
 593              		.cfi_endproc
 594              	.LFE25:
 596              		.section	.rodata.str1.8
 597 00b5 000000   		.align	3
 598              	.LC14:
 599 00b8 423A2069 		.string	"B: i="
 599      3D00
 600 00be 0000     		.align	3
 601              	.LC15:
 602 00c0 42206669 		.string	"B finished!\n"
 602      6E697368 
 602      6564210A 
 602      00
 603              		.text
 604              		.align	2
 605              		.globl	_Z11workerBodyBPv
 607              	_Z11workerBodyBPv:
 608              	.LFB26:
  36:test/Threads_C_API_test.cpp ****     for (uint64 i = 0; i < 16; i++) {
 609              		.loc 1 36 1 is_stmt 1
 610              		.cfi_startproc
 611              	.LVL78:
 612 0428 130101FE 		addi	sp,sp,-32
 613              		.cfi_def_cfa_offset 32
 614 042c 233C1100 		sd	ra,24(sp)
 615 0430 23388100 		sd	s0,16(sp)
 616 0434 23349100 		sd	s1,8(sp)
 617 0438 23302101 		sd	s2,0(sp)
 618              		.cfi_offset 1, -8
 619              		.cfi_offset 8, -16
 620              		.cfi_offset 9, -24
 621              		.cfi_offset 18, -32
GAS LISTING /tmp/ccwRxAWu.s 			page 16


 622 043c 13040102 		addi	s0,sp,32
 623              		.cfi_def_cfa 8, 0
  37:test/Threads_C_API_test.cpp ****         printString("B: i="); printInt(i); printString("\n");
 624              		.loc 1 37 5
 625              	.LVL79:
 626              	.LBB10:
  37:test/Threads_C_API_test.cpp ****         printString("B: i="); printInt(i); printString("\n");
 627              		.loc 1 37 17 is_stmt 0
 628 0440 13090000 		li	s2,0
 629 0444 6F004003 		j	.L37
 630              	.LVL80:
 631              	.L34:
 632              	.LBB11:
 633              	.LBB12:
 634              	.LBB13:
  42:test/Threads_C_API_test.cpp ****         }
 635              		.loc 1 42 13 is_stmt 1 discriminator 2
  42:test/Threads_C_API_test.cpp ****         }
 636              		.loc 1 42 28 is_stmt 0 discriminator 2
 637 0448 97000000 		call	thread_dispatch@plt
 637      E7800000 
 638              	.LVL81:
 639              	.LBE13:
  39:test/Threads_C_API_test.cpp ****         {
 640              		.loc 1 39 9 is_stmt 1 discriminator 2
 641 0450 93841400 		addi	s1,s1,1
 642              	.LVL82:
 643              	.L36:
  39:test/Threads_C_API_test.cpp ****         {
 644              		.loc 1 39 30 discriminator 1
 645 0454 93079000 		li	a5,9
 646 0458 63EE9700 		bgtu	s1,a5,.L33
 647              	.LBB15:
 648              	.LBB14:
  41:test/Threads_C_API_test.cpp ****             thread_dispatch();
 649              		.loc 1 41 25 is_stmt 0
 650 045c 13070000 		li	a4,0
 651              	.L35:
 652              	.LVL83:
  41:test/Threads_C_API_test.cpp ****             thread_dispatch();
 653              		.loc 1 41 34 is_stmt 1 discriminator 3
 654 0460 B7770000 		li	a5,28672
 655 0464 9387F752 		addi	a5,a5,1327
 656 0468 E3E0E7FE 		bgtu	a4,a5,.L34
  41:test/Threads_C_API_test.cpp ****             thread_dispatch();
 657              		.loc 1 41 13 discriminator 2
 658 046c 13071700 		addi	a4,a4,1
 659              	.LVL84:
 660 0470 6FF01FFF 		j	.L35
 661              	.LVL85:
 662              	.L33:
 663              	.LBE14:
 664              	.LBE15:
 665              	.LBE12:
 666              	.LBE11:
  37:test/Threads_C_API_test.cpp ****         printString("B: i="); printInt(i); printString("\n");
 667              		.loc 1 37 5 discriminator 2
GAS LISTING /tmp/ccwRxAWu.s 			page 17


 668 0474 13091900 		addi	s2,s2,1
 669              	.LVL86:
 670              	.L37:
  37:test/Threads_C_API_test.cpp ****         printString("B: i="); printInt(i); printString("\n");
 671              		.loc 1 37 26 discriminator 1
 672 0478 9307F000 		li	a5,15
 673 047c 63E02705 		bgtu	s2,a5,.L32
 674              	.LBB17:
  38:test/Threads_C_API_test.cpp ****         for (uint64 j = 0; j < 10; j++)
 675              		.loc 1 38 9
  38:test/Threads_C_API_test.cpp ****         for (uint64 j = 0; j < 10; j++)
 676              		.loc 1 38 20 is_stmt 0
 677 0480 17050000 		lla	a0,.LC14
 677      13050500 
 678 0488 97000000 		call	_Z11printStringPKc@plt
 678      E7800000 
 679              	.LVL87:
  38:test/Threads_C_API_test.cpp ****         for (uint64 j = 0; j < 10; j++)
 680              		.loc 1 38 31 is_stmt 1
  38:test/Threads_C_API_test.cpp ****         for (uint64 j = 0; j < 10; j++)
 681              		.loc 1 38 39 is_stmt 0
 682 0490 13060000 		li	a2,0
 683 0494 9305A000 		li	a1,10
 684 0498 1B050900 		sext.w	a0,s2
 685 049c 97000000 		call	_Z8printIntiii@plt
 685      E7800000 
 686              	.LVL88:
  38:test/Threads_C_API_test.cpp ****         for (uint64 j = 0; j < 10; j++)
 687              		.loc 1 38 44 is_stmt 1
  38:test/Threads_C_API_test.cpp ****         for (uint64 j = 0; j < 10; j++)
 688              		.loc 1 38 55 is_stmt 0
 689 04a4 17050000 		lla	a0,.LC1
 689      13050500 
 690 04ac 97000000 		call	_Z11printStringPKc@plt
 690      E7800000 
 691              	.LVL89:
  39:test/Threads_C_API_test.cpp ****         {
 692              		.loc 1 39 9 is_stmt 1
 693              	.LBB16:
  39:test/Threads_C_API_test.cpp ****         {
 694              		.loc 1 39 21 is_stmt 0
 695 04b4 93040000 		li	s1,0
 696 04b8 6FF0DFF9 		j	.L36
 697              	.LVL90:
 698              	.L32:
 699              	.LBE16:
 700              	.LBE17:
 701              	.LBE10:
  45:test/Threads_C_API_test.cpp ****     Riscv::printString("B finished!\n");
 702              		.loc 1 45 5 is_stmt 1
  45:test/Threads_C_API_test.cpp ****     Riscv::printString("B finished!\n");
 703              		.loc 1 45 20 is_stmt 0
 704 04bc 97000000 		call	thread_dispatch@plt
 704      E7800000 
 705              	.LVL91:
  46:test/Threads_C_API_test.cpp ****     finishedB = true;
 706              		.loc 1 46 5 is_stmt 1
GAS LISTING /tmp/ccwRxAWu.s 			page 18


  46:test/Threads_C_API_test.cpp ****     finishedB = true;
 707              		.loc 1 46 23 is_stmt 0
 708 04c4 17050000 		lla	a0,.LC15
 708      13050500 
 709 04cc 97000000 		call	_ZN5Riscv11printStringEPKc@plt
 709      E7800000 
 710              	.LVL92:
  47:test/Threads_C_API_test.cpp **** }
 711              		.loc 1 47 5 is_stmt 1
  47:test/Threads_C_API_test.cpp **** }
 712              		.loc 1 47 15 is_stmt 0
 713 04d4 93071000 		li	a5,1
 714 04d8 17070000 		sb	a5,.LANCHOR0+3,a4
 714      2300F700 
  48:test/Threads_C_API_test.cpp **** 
 715              		.loc 1 48 1
 716 04e0 83308101 		ld	ra,24(sp)
 717              		.cfi_restore 1
 718 04e4 03340101 		ld	s0,16(sp)
 719              		.cfi_restore 8
 720              		.cfi_def_cfa 2, 32
 721 04e8 83348100 		ld	s1,8(sp)
 722              		.cfi_restore 9
 723 04ec 03390100 		ld	s2,0(sp)
 724              		.cfi_restore 18
 725              	.LVL93:
 726 04f0 13010102 		addi	sp,sp,32
 727              		.cfi_def_cfa_offset 0
 728 04f4 67800000 		jr	ra
 729              		.cfi_endproc
 730              	.LFE26:
 732              		.section	.rodata.str1.8
 733 00cd 000000   		.align	3
 734              	.LC16:
 735 00d0 54687265 		.string	"ThreadA created\n"
 735      61644120 
 735      63726561 
 735      7465640A 
 735      00
 736 00e1 00000000 		.align	3
 736      000000
 737              	.LC17:
 738 00e8 54687265 		.string	"ThreadB created\n"
 738      61644220 
 738      63726561 
 738      7465640A 
 738      00
 739 00f9 00000000 		.align	3
 739      000000
 740              	.LC18:
 741 0100 54687265 		.string	"ThreadC created\n"
 741      61644320 
 741      63726561 
 741      7465640A 
 741      00
 742 0111 00000000 		.align	3
 742      000000
GAS LISTING /tmp/ccwRxAWu.s 			page 19


 743              	.LC19:
 744 0118 54687265 		.string	"ThreadD created\n"
 744      61644420 
 744      63726561 
 744      7465640A 
 744      00
 745              		.text
 746              		.align	2
 747              		.globl	_Z18Threads_C_API_testv
 749              	_Z18Threads_C_API_testv:
 750              	.LFB29:
 101:test/Threads_C_API_test.cpp **** 
 102:test/Threads_C_API_test.cpp **** 
 103:test/Threads_C_API_test.cpp **** void Threads_C_API_test()
 104:test/Threads_C_API_test.cpp **** {
 751              		.loc 1 104 1 is_stmt 1
 752              		.cfi_startproc
 753 04f8 130101FC 		addi	sp,sp,-64
 754              		.cfi_def_cfa_offset 64
 755 04fc 233C1102 		sd	ra,56(sp)
 756 0500 23388102 		sd	s0,48(sp)
 757 0504 23349102 		sd	s1,40(sp)
 758              		.cfi_offset 1, -8
 759              		.cfi_offset 8, -16
 760              		.cfi_offset 9, -24
 761 0508 13040104 		addi	s0,sp,64
 762              		.cfi_def_cfa 8, 0
 105:test/Threads_C_API_test.cpp ****     thread_t threads[4];
 763              		.loc 1 105 5
 106:test/Threads_C_API_test.cpp ****     thread_create(&threads[0], workerBodyA, nullptr);
 764              		.loc 1 106 5
 765              		.loc 1 106 18 is_stmt 0
 766 050c 13060000 		li	a2,0
 767 0510 97050000 		lla	a1,_Z11workerBodyAPv
 767      93850500 
 768 0518 130504FC 		addi	a0,s0,-64
 769 051c 97000000 		call	thread_create@plt
 769      E7800000 
 770              	.LVL94:
 107:test/Threads_C_API_test.cpp ****     printString("ThreadA created\n");
 771              		.loc 1 107 5 is_stmt 1
 772              		.loc 1 107 16 is_stmt 0
 773 0524 17050000 		lla	a0,.LC16
 773      13050500 
 774 052c 97000000 		call	_Z11printStringPKc@plt
 774      E7800000 
 775              	.LVL95:
 108:test/Threads_C_API_test.cpp **** 
 109:test/Threads_C_API_test.cpp ****     thread_create(&threads[1], workerBodyB, nullptr);
 776              		.loc 1 109 5 is_stmt 1
 777              		.loc 1 109 18 is_stmt 0
 778 0534 13060000 		li	a2,0
 779 0538 97050000 		lla	a1,_Z11workerBodyBPv
 779      93850500 
 780 0540 130584FC 		addi	a0,s0,-56
 781 0544 97000000 		call	thread_create@plt
 781      E7800000 
GAS LISTING /tmp/ccwRxAWu.s 			page 20


 782              	.LVL96:
 110:test/Threads_C_API_test.cpp ****     printString("ThreadB created\n");
 783              		.loc 1 110 5 is_stmt 1
 784              		.loc 1 110 16 is_stmt 0
 785 054c 17050000 		lla	a0,.LC17
 785      13050500 
 786 0554 97000000 		call	_Z11printStringPKc@plt
 786      E7800000 
 787              	.LVL97:
 111:test/Threads_C_API_test.cpp **** 
 112:test/Threads_C_API_test.cpp ****     thread_create(&threads[2], workerBodyC, nullptr);
 788              		.loc 1 112 5 is_stmt 1
 789              		.loc 1 112 18 is_stmt 0
 790 055c 13060000 		li	a2,0
 791 0560 97050000 		lla	a1,_Z11workerBodyCPv
 791      93850500 
 792 0568 130504FD 		addi	a0,s0,-48
 793 056c 97000000 		call	thread_create@plt
 793      E7800000 
 794              	.LVL98:
 113:test/Threads_C_API_test.cpp ****     printString("ThreadC created\n");
 795              		.loc 1 113 5 is_stmt 1
 796              		.loc 1 113 16 is_stmt 0
 797 0574 17050000 		lla	a0,.LC18
 797      13050500 
 798 057c 97000000 		call	_Z11printStringPKc@plt
 798      E7800000 
 799              	.LVL99:
 114:test/Threads_C_API_test.cpp **** 
 115:test/Threads_C_API_test.cpp ****     thread_create(&threads[3], workerBodyD, nullptr);
 800              		.loc 1 115 5 is_stmt 1
 801              		.loc 1 115 18 is_stmt 0
 802 0584 13060000 		li	a2,0
 803 0588 97050000 		lla	a1,_Z11workerBodyDPv
 803      93850500 
 804 0590 130584FD 		addi	a0,s0,-40
 805 0594 97000000 		call	thread_create@plt
 805      E7800000 
 806              	.LVL100:
 116:test/Threads_C_API_test.cpp ****     printString("ThreadD created\n");
 807              		.loc 1 116 5 is_stmt 1
 808              		.loc 1 116 16 is_stmt 0
 809 059c 17050000 		lla	a0,.LC19
 809      13050500 
 810 05a4 97000000 		call	_Z11printStringPKc@plt
 810      E7800000 
 811              	.LVL101:
 812 05ac 6F00C000 		j	.L42
 813              	.L40:
 117:test/Threads_C_API_test.cpp **** 
 118:test/Threads_C_API_test.cpp ****     while (!finishedA || !finishedB || !finishedC || !finishedD)
 119:test/Threads_C_API_test.cpp ****     {
 120:test/Threads_C_API_test.cpp ****         //printString("Main thread\n");
 121:test/Threads_C_API_test.cpp ****         thread_dispatch();
 814              		.loc 1 121 9 is_stmt 1
 815              		.loc 1 121 24 is_stmt 0
 816 05b0 97000000 		call	thread_dispatch@plt
GAS LISTING /tmp/ccwRxAWu.s 			page 21


 816      E7800000 
 817              	.LVL102:
 818              	.L42:
 118:test/Threads_C_API_test.cpp ****     {
 819              		.loc 1 118 5 is_stmt 1
 118:test/Threads_C_API_test.cpp ****     {
 820              		.loc 1 118 51
 821 05b8 97070000 		lbu	a5,.LANCHOR0+2
 821      83C70700 
 822 05c0 E38807FE 		beqz	a5,.L40
 118:test/Threads_C_API_test.cpp ****     {
 823              		.loc 1 118 23 is_stmt 0 discriminator 1
 824 05c4 97070000 		lbu	a5,.LANCHOR0+3
 824      83C70700 
 825 05cc E38207FE 		beqz	a5,.L40
 118:test/Threads_C_API_test.cpp ****     {
 826              		.loc 1 118 37 discriminator 2
 827 05d0 97070000 		lbu	a5,.LANCHOR0
 827      83C70700 
 828 05d8 E38C07FC 		beqz	a5,.L40
 118:test/Threads_C_API_test.cpp ****     {
 829              		.loc 1 118 51 discriminator 3
 830 05dc 97070000 		lbu	a5,.LANCHOR0+1
 830      83C70700 
 831 05e4 E38607FC 		beqz	a5,.L40
 832              	.LBB18:
 122:test/Threads_C_API_test.cpp ****     }
 123:test/Threads_C_API_test.cpp ****     for (auto &thread: threads)
 833              		.loc 1 123 24
 834 05e8 930404FC 		addi	s1,s0,-64
 835 05ec 6F008000 		j	.L41
 836              	.LVL103:
 837              	.L44:
 838              		.loc 1 123 5 is_stmt 1 discriminator 3
 839 05f0 93848400 		addi	s1,s1,8
 840              	.LVL104:
 841              	.L41:
 842              		.loc 1 123 24 discriminator 1
 843 05f4 930704FE 		addi	a5,s0,-32
 844 05f8 638CF400 		beq	s1,a5,.L39
 845              	.LVL105:
 124:test/Threads_C_API_test.cpp ****     {
 125:test/Threads_C_API_test.cpp ****         //todo
 126:test/Threads_C_API_test.cpp ****         //in order to syscall.c to stay .c it gotta be converted
 127:test/Threads_C_API_test.cpp ****         delete (uint64*)thread;
 846              		.loc 1 127 9 discriminator 2
 847              		.loc 1 127 16 is_stmt 0 discriminator 2
 848 05fc 03B50400 		ld	a0,0(s1)
 849              		.loc 1 127 31 discriminator 2
 850 0600 E30805FE 		beqz	a0,.L44
 851              		.loc 1 127 25 discriminator 1
 852 0604 97000000 		call	_ZdlPv@plt
 852      E7800000 
 853              	.LVL106:
 854 060c 6FF05FFE 		j	.L44
 855              	.LVL107:
 856              	.L39:
GAS LISTING /tmp/ccwRxAWu.s 			page 22


 857              	.LBE18:
 128:test/Threads_C_API_test.cpp ****     }
 129:test/Threads_C_API_test.cpp **** }
 858              		.loc 1 129 1
 859 0610 83308103 		ld	ra,56(sp)
 860              		.cfi_restore 1
 861 0614 03340103 		ld	s0,48(sp)
 862              		.cfi_restore 8
 863              		.cfi_def_cfa 2, 64
 864 0618 83348102 		ld	s1,40(sp)
 865              		.cfi_restore 9
 866              	.LVL108:
 867 061c 13010104 		addi	sp,sp,64
 868              		.cfi_def_cfa_offset 0
 869 0620 67800000 		jr	ra
 870              		.cfi_endproc
 871              	.LFE29:
 873              		.bss
 874              		.set	.LANCHOR0,. + 0
 877              	_ZL9finishedC:
 878 0000 00       		.zero	1
 881              	_ZL9finishedD:
 882 0001 00       		.zero	1
 885              	_ZL9finishedA:
 886 0002 00       		.zero	1
 889              	_ZL9finishedB:
 890 0003 00       		.zero	1
 891              		.text
 892              	.Letext0:
 893              		.file 2 "test/../h/../lib/hw.h"
 894              		.file 3 "test/../h/syscall_c.h"
 895              		.file 4 "test/../h/Riscv.hpp"
 896              		.file 5 "test/printing.hpp"
GAS LISTING /tmp/ccwRxAWu.s 			page 23


DEFINED SYMBOLS
                            *ABS*:0000000000000000 Threads_C_API_test.cpp
     /tmp/ccwRxAWu.s:8      .text:0000000000000000 _ZL9fibonaccim
     /tmp/ccwRxAWu.s:12     .text:0000000000000000 .L0 
     /tmp/ccwRxAWu.s:14     .text:0000000000000000 .L0 
     /tmp/ccwRxAWu.s:15     .text:0000000000000004 .L0 
     /tmp/ccwRxAWu.s:20     .text:0000000000000014 .L0 
     /tmp/ccwRxAWu.s:21     .text:0000000000000014 .L0 
     /tmp/ccwRxAWu.s:22     .text:0000000000000014 .L0 
     /tmp/ccwRxAWu.s:23     .text:0000000000000014 .L0 
     /tmp/ccwRxAWu.s:25     .text:0000000000000018 .L0 
     /tmp/ccwRxAWu.s:28     .text:000000000000001c .L0 
     /tmp/ccwRxAWu.s:31     .text:0000000000000024 .L0 
     /tmp/ccwRxAWu.s:32     .text:0000000000000024 .L0 
     /tmp/ccwRxAWu.s:35     .text:000000000000002c .L0 
     /tmp/ccwRxAWu.s:39     .text:0000000000000030 .L0 
     /tmp/ccwRxAWu.s:40     .text:0000000000000030 .L0 
     /tmp/ccwRxAWu.s:45     .text:0000000000000040 .L0 
     /tmp/ccwRxAWu.s:49     .text:000000000000004c .L0 
     /tmp/ccwRxAWu.s:52     .text:0000000000000050 .L0 
     /tmp/ccwRxAWu.s:53     .text:0000000000000054 .L0 
     /tmp/ccwRxAWu.s:54     .text:0000000000000054 .L0 
     /tmp/ccwRxAWu.s:56     .text:0000000000000058 .L0 
     /tmp/ccwRxAWu.s:57     .text:0000000000000058 .L0 
     /tmp/ccwRxAWu.s:59     .text:000000000000005c .L0 
     /tmp/ccwRxAWu.s:62     .text:0000000000000060 .L0 
     /tmp/ccwRxAWu.s:64     .text:0000000000000064 .L0 
     /tmp/ccwRxAWu.s:68     .text:0000000000000068 .L0 
     /tmp/ccwRxAWu.s:70     .text:0000000000000068 .L0 
     /tmp/ccwRxAWu.s:71     .text:0000000000000068 .L0 
     /tmp/ccwRxAWu.s:74     .text:0000000000000074 .L0 
     /tmp/ccwRxAWu.s:103    .text:0000000000000074 _Z11workerBodyCPv
     /tmp/ccwRxAWu.s:106    .text:0000000000000074 .L0 
     /tmp/ccwRxAWu.s:108    .text:0000000000000074 .L0 
     /tmp/ccwRxAWu.s:109    .text:0000000000000078 .L0 
     /tmp/ccwRxAWu.s:114    .text:0000000000000088 .L0 
     /tmp/ccwRxAWu.s:115    .text:0000000000000088 .L0 
     /tmp/ccwRxAWu.s:116    .text:0000000000000088 .L0 
     /tmp/ccwRxAWu.s:117    .text:0000000000000088 .L0 
     /tmp/ccwRxAWu.s:119    .text:000000000000008c .L0 
     /tmp/ccwRxAWu.s:122    .text:000000000000008c .L0 
     /tmp/ccwRxAWu.s:123    .text:000000000000008c .L0 
     /tmp/ccwRxAWu.s:128    .text:0000000000000094 .L0 
     /tmp/ccwRxAWu.s:129    .text:0000000000000094 .L0 
     /tmp/ccwRxAWu.s:133    .text:00000000000000a4 .L0 
     /tmp/ccwRxAWu.s:134    .text:00000000000000a4 .L0 
     /tmp/ccwRxAWu.s:140    .text:00000000000000b8 .L0 
     /tmp/ccwRxAWu.s:141    .text:00000000000000b8 .L0 
     /tmp/ccwRxAWu.s:145    .text:00000000000000c8 .L0 
     /tmp/ccwRxAWu.s:151    .text:00000000000000d0 .L0 
     /tmp/ccwRxAWu.s:152    .text:00000000000000d0 .L0 
     /tmp/ccwRxAWu.s:155    .text:00000000000000d8 .L0 
     /tmp/ccwRxAWu.s:156    .text:00000000000000d8 .L0 
     /tmp/ccwRxAWu.s:160    .text:00000000000000e8 .L0 
test/Threads_C_API_test.cpp:59     .text:00000000000000e8 .L0 
     /tmp/ccwRxAWu.s:166    .text:00000000000000ec .L0 
     /tmp/ccwRxAWu.s:168    .text:00000000000000ec .L0 
GAS LISTING /tmp/ccwRxAWu.s 			page 24


     /tmp/ccwRxAWu.s:171    .text:00000000000000f4 .L0 
     /tmp/ccwRxAWu.s:172    .text:00000000000000f4 .L0 
     /tmp/ccwRxAWu.s:176    .text:0000000000000104 .L0 
     /tmp/ccwRxAWu.s:177    .text:0000000000000104 .L0 
test/Threads_C_API_test.cpp:63     .text:0000000000000104 .L0 
     /tmp/ccwRxAWu.s:184    .text:0000000000000108 .L0 
     /tmp/ccwRxAWu.s:186    .text:0000000000000108 .L0 
     /tmp/ccwRxAWu.s:190    .text:0000000000000118 .L0 
     /tmp/ccwRxAWu.s:191    .text:0000000000000118 .L0 
     /tmp/ccwRxAWu.s:197    .text:000000000000012c .L0 
     /tmp/ccwRxAWu.s:198    .text:000000000000012c .L0 
     /tmp/ccwRxAWu.s:202    .text:000000000000013c .L0 
     /tmp/ccwRxAWu.s:203    .text:000000000000013c .L0 
     /tmp/ccwRxAWu.s:209    .text:000000000000014c .L0 
     /tmp/ccwRxAWu.s:210    .text:000000000000014c .L0 
     /tmp/ccwRxAWu.s:215    .text:000000000000015c .L0 
     /tmp/ccwRxAWu.s:216    .text:000000000000015c .L0 
     /tmp/ccwRxAWu.s:222    .text:0000000000000170 .L0 
     /tmp/ccwRxAWu.s:223    .text:0000000000000170 .L0 
     /tmp/ccwRxAWu.s:229    .text:0000000000000184 .L0 
     /tmp/ccwRxAWu.s:230    .text:0000000000000184 .L0 
     /tmp/ccwRxAWu.s:234    .text:0000000000000194 .L0 
     /tmp/ccwRxAWu.s:235    .text:0000000000000194 .L0 
     /tmp/ccwRxAWu.s:241    .text:00000000000001a8 .L0 
     /tmp/ccwRxAWu.s:242    .text:00000000000001a8 .L0 
     /tmp/ccwRxAWu.s:246    .text:00000000000001b8 .L0 
     /tmp/ccwRxAWu.s:252    .text:00000000000001c0 .L0 
     /tmp/ccwRxAWu.s:253    .text:00000000000001c0 .L0 
     /tmp/ccwRxAWu.s:256    .text:00000000000001c8 .L0 
     /tmp/ccwRxAWu.s:257    .text:00000000000001c8 .L0 
     /tmp/ccwRxAWu.s:260    .text:00000000000001d0 .L0 
     /tmp/ccwRxAWu.s:261    .text:00000000000001d0 .L0 
     /tmp/ccwRxAWu.s:265    .text:00000000000001e0 .L0 
     /tmp/ccwRxAWu.s:266    .text:00000000000001e0 .L0 
     /tmp/ccwRxAWu.s:269    .text:00000000000001ec .L0 
     /tmp/ccwRxAWu.s:270    .text:00000000000001f0 .L0 
     /tmp/ccwRxAWu.s:272    .text:00000000000001f4 .L0 
     /tmp/ccwRxAWu.s:273    .text:00000000000001f4 .L0 
     /tmp/ccwRxAWu.s:275    .text:00000000000001f8 .L0 
     /tmp/ccwRxAWu.s:278    .text:00000000000001fc .L0 
     /tmp/ccwRxAWu.s:281    .text:0000000000000200 .L0 
     /tmp/ccwRxAWu.s:283    .text:0000000000000204 .L0 
     /tmp/ccwRxAWu.s:306    .text:0000000000000204 _Z11workerBodyDPv
     /tmp/ccwRxAWu.s:309    .text:0000000000000204 .L0 
     /tmp/ccwRxAWu.s:311    .text:0000000000000204 .L0 
     /tmp/ccwRxAWu.s:312    .text:0000000000000208 .L0 
     /tmp/ccwRxAWu.s:317    .text:0000000000000218 .L0 
     /tmp/ccwRxAWu.s:318    .text:0000000000000218 .L0 
     /tmp/ccwRxAWu.s:319    .text:0000000000000218 .L0 
     /tmp/ccwRxAWu.s:320    .text:0000000000000218 .L0 
     /tmp/ccwRxAWu.s:322    .text:000000000000021c .L0 
     /tmp/ccwRxAWu.s:325    .text:000000000000021c .L0 
     /tmp/ccwRxAWu.s:326    .text:000000000000021c .L0 
     /tmp/ccwRxAWu.s:331    .text:0000000000000224 .L0 
     /tmp/ccwRxAWu.s:332    .text:0000000000000224 .L0 
     /tmp/ccwRxAWu.s:336    .text:0000000000000234 .L0 
     /tmp/ccwRxAWu.s:337    .text:0000000000000234 .L0 
GAS LISTING /tmp/ccwRxAWu.s 			page 25


     /tmp/ccwRxAWu.s:343    .text:0000000000000248 .L0 
     /tmp/ccwRxAWu.s:344    .text:0000000000000248 .L0 
     /tmp/ccwRxAWu.s:348    .text:0000000000000258 .L0 
     /tmp/ccwRxAWu.s:354    .text:0000000000000260 .L0 
     /tmp/ccwRxAWu.s:355    .text:0000000000000260 .L0 
     /tmp/ccwRxAWu.s:358    .text:0000000000000268 .L0 
     /tmp/ccwRxAWu.s:359    .text:0000000000000268 .L0 
     /tmp/ccwRxAWu.s:363    .text:0000000000000278 .L0 
test/Threads_C_API_test.cpp:87     .text:0000000000000278 .L0 
     /tmp/ccwRxAWu.s:369    .text:000000000000027c .L0 
     /tmp/ccwRxAWu.s:371    .text:000000000000027c .L0 
     /tmp/ccwRxAWu.s:374    .text:0000000000000284 .L0 
     /tmp/ccwRxAWu.s:375    .text:0000000000000284 .L0 
     /tmp/ccwRxAWu.s:379    .text:0000000000000294 .L0 
     /tmp/ccwRxAWu.s:380    .text:0000000000000294 .L0 
     /tmp/ccwRxAWu.s:386    .text:00000000000002a4 .L0 
     /tmp/ccwRxAWu.s:387    .text:00000000000002a4 .L0 
     /tmp/ccwRxAWu.s:392    .text:00000000000002b4 .L0 
     /tmp/ccwRxAWu.s:393    .text:00000000000002b4 .L0 
     /tmp/ccwRxAWu.s:399    .text:00000000000002c8 .L0 
     /tmp/ccwRxAWu.s:400    .text:00000000000002c8 .L0 
     /tmp/ccwRxAWu.s:406    .text:00000000000002dc .L0 
     /tmp/ccwRxAWu.s:407    .text:00000000000002dc .L0 
     /tmp/ccwRxAWu.s:411    .text:00000000000002ec .L0 
     /tmp/ccwRxAWu.s:412    .text:00000000000002ec .L0 
     /tmp/ccwRxAWu.s:418    .text:0000000000000300 .L0 
     /tmp/ccwRxAWu.s:419    .text:0000000000000300 .L0 
     /tmp/ccwRxAWu.s:423    .text:0000000000000310 .L0 
     /tmp/ccwRxAWu.s:429    .text:0000000000000318 .L0 
     /tmp/ccwRxAWu.s:430    .text:0000000000000318 .L0 
     /tmp/ccwRxAWu.s:433    .text:0000000000000320 .L0 
     /tmp/ccwRxAWu.s:434    .text:0000000000000320 .L0 
     /tmp/ccwRxAWu.s:437    .text:0000000000000328 .L0 
     /tmp/ccwRxAWu.s:438    .text:0000000000000328 .L0 
     /tmp/ccwRxAWu.s:442    .text:0000000000000338 .L0 
     /tmp/ccwRxAWu.s:443    .text:0000000000000338 .L0 
     /tmp/ccwRxAWu.s:446    .text:0000000000000344 .L0 
     /tmp/ccwRxAWu.s:447    .text:0000000000000348 .L0 
     /tmp/ccwRxAWu.s:449    .text:000000000000034c .L0 
     /tmp/ccwRxAWu.s:450    .text:000000000000034c .L0 
     /tmp/ccwRxAWu.s:452    .text:0000000000000350 .L0 
     /tmp/ccwRxAWu.s:455    .text:0000000000000354 .L0 
     /tmp/ccwRxAWu.s:458    .text:0000000000000358 .L0 
     /tmp/ccwRxAWu.s:460    .text:000000000000035c .L0 
     /tmp/ccwRxAWu.s:474    .text:000000000000035c _Z11workerBodyAPv
     /tmp/ccwRxAWu.s:477    .text:000000000000035c .L0 
     /tmp/ccwRxAWu.s:479    .text:000000000000035c .L0 
     /tmp/ccwRxAWu.s:480    .text:0000000000000360 .L0 
     /tmp/ccwRxAWu.s:485    .text:0000000000000370 .L0 
     /tmp/ccwRxAWu.s:486    .text:0000000000000370 .L0 
     /tmp/ccwRxAWu.s:487    .text:0000000000000370 .L0 
     /tmp/ccwRxAWu.s:488    .text:0000000000000370 .L0 
     /tmp/ccwRxAWu.s:490    .text:0000000000000374 .L0 
     /tmp/ccwRxAWu.s:494    .text:0000000000000374 .L0 
     /tmp/ccwRxAWu.s:495    .text:0000000000000374 .L0 
     /tmp/ccwRxAWu.s:503    .text:000000000000037c .L0 
     /tmp/ccwRxAWu.s:504    .text:000000000000037c .L0 
GAS LISTING /tmp/ccwRxAWu.s 			page 26


     /tmp/ccwRxAWu.s:508    .text:0000000000000384 .L0 
     /tmp/ccwRxAWu.s:512    .text:0000000000000388 .L0 
     /tmp/ccwRxAWu.s:518    .text:0000000000000394 .L0 
     /tmp/ccwRxAWu.s:522    .text:0000000000000398 .L0 
     /tmp/ccwRxAWu.s:526    .text:00000000000003a4 .L0 
     /tmp/ccwRxAWu.s:536    .text:00000000000003ac .L0 
     /tmp/ccwRxAWu.s:540    .text:00000000000003b0 .L0 
     /tmp/ccwRxAWu.s:544    .text:00000000000003b8 .L0 
     /tmp/ccwRxAWu.s:545    .text:00000000000003b8 .L0 
     /tmp/ccwRxAWu.s:549    .text:00000000000003c8 .L0 
     /tmp/ccwRxAWu.s:550    .text:00000000000003c8 .L0 
     /tmp/ccwRxAWu.s:556    .text:00000000000003dc .L0 
     /tmp/ccwRxAWu.s:557    .text:00000000000003dc .L0 
     /tmp/ccwRxAWu.s:562    .text:00000000000003ec .L0 
     /tmp/ccwRxAWu.s:563    .text:00000000000003ec .L0 
     /tmp/ccwRxAWu.s:571    .text:00000000000003f4 .L0 
     /tmp/ccwRxAWu.s:572    .text:00000000000003f4 .L0 
     /tmp/ccwRxAWu.s:576    .text:0000000000000404 .L0 
     /tmp/ccwRxAWu.s:577    .text:0000000000000404 .L0 
     /tmp/ccwRxAWu.s:580    .text:0000000000000410 .L0 
     /tmp/ccwRxAWu.s:581    .text:0000000000000414 .L0 
     /tmp/ccwRxAWu.s:583    .text:0000000000000418 .L0 
     /tmp/ccwRxAWu.s:584    .text:0000000000000418 .L0 
     /tmp/ccwRxAWu.s:586    .text:000000000000041c .L0 
     /tmp/ccwRxAWu.s:588    .text:0000000000000420 .L0 
     /tmp/ccwRxAWu.s:591    .text:0000000000000424 .L0 
     /tmp/ccwRxAWu.s:593    .text:0000000000000428 .L0 
     /tmp/ccwRxAWu.s:607    .text:0000000000000428 _Z11workerBodyBPv
     /tmp/ccwRxAWu.s:610    .text:0000000000000428 .L0 
     /tmp/ccwRxAWu.s:612    .text:0000000000000428 .L0 
     /tmp/ccwRxAWu.s:613    .text:000000000000042c .L0 
     /tmp/ccwRxAWu.s:618    .text:000000000000043c .L0 
     /tmp/ccwRxAWu.s:619    .text:000000000000043c .L0 
     /tmp/ccwRxAWu.s:620    .text:000000000000043c .L0 
     /tmp/ccwRxAWu.s:621    .text:000000000000043c .L0 
     /tmp/ccwRxAWu.s:623    .text:0000000000000440 .L0 
     /tmp/ccwRxAWu.s:627    .text:0000000000000440 .L0 
     /tmp/ccwRxAWu.s:628    .text:0000000000000440 .L0 
     /tmp/ccwRxAWu.s:636    .text:0000000000000448 .L0 
     /tmp/ccwRxAWu.s:637    .text:0000000000000448 .L0 
     /tmp/ccwRxAWu.s:641    .text:0000000000000450 .L0 
     /tmp/ccwRxAWu.s:645    .text:0000000000000454 .L0 
     /tmp/ccwRxAWu.s:650    .text:000000000000045c .L0 
     /tmp/ccwRxAWu.s:654    .text:0000000000000460 .L0 
     /tmp/ccwRxAWu.s:658    .text:000000000000046c .L0 
     /tmp/ccwRxAWu.s:668    .text:0000000000000474 .L0 
     /tmp/ccwRxAWu.s:672    .text:0000000000000478 .L0 
     /tmp/ccwRxAWu.s:676    .text:0000000000000480 .L0 
     /tmp/ccwRxAWu.s:677    .text:0000000000000480 .L0 
     /tmp/ccwRxAWu.s:681    .text:0000000000000490 .L0 
     /tmp/ccwRxAWu.s:682    .text:0000000000000490 .L0 
     /tmp/ccwRxAWu.s:688    .text:00000000000004a4 .L0 
     /tmp/ccwRxAWu.s:689    .text:00000000000004a4 .L0 
     /tmp/ccwRxAWu.s:694    .text:00000000000004b4 .L0 
     /tmp/ccwRxAWu.s:695    .text:00000000000004b4 .L0 
     /tmp/ccwRxAWu.s:703    .text:00000000000004bc .L0 
     /tmp/ccwRxAWu.s:704    .text:00000000000004bc .L0 
GAS LISTING /tmp/ccwRxAWu.s 			page 27


     /tmp/ccwRxAWu.s:707    .text:00000000000004c4 .L0 
     /tmp/ccwRxAWu.s:708    .text:00000000000004c4 .L0 
     /tmp/ccwRxAWu.s:712    .text:00000000000004d4 .L0 
     /tmp/ccwRxAWu.s:713    .text:00000000000004d4 .L0 
     /tmp/ccwRxAWu.s:716    .text:00000000000004e0 .L0 
     /tmp/ccwRxAWu.s:717    .text:00000000000004e4 .L0 
     /tmp/ccwRxAWu.s:719    .text:00000000000004e8 .L0 
     /tmp/ccwRxAWu.s:720    .text:00000000000004e8 .L0 
     /tmp/ccwRxAWu.s:722    .text:00000000000004ec .L0 
     /tmp/ccwRxAWu.s:724    .text:00000000000004f0 .L0 
     /tmp/ccwRxAWu.s:727    .text:00000000000004f4 .L0 
     /tmp/ccwRxAWu.s:729    .text:00000000000004f8 .L0 
     /tmp/ccwRxAWu.s:749    .text:00000000000004f8 _Z18Threads_C_API_testv
     /tmp/ccwRxAWu.s:752    .text:00000000000004f8 .L0 
     /tmp/ccwRxAWu.s:753    .text:00000000000004f8 .L0 
     /tmp/ccwRxAWu.s:754    .text:00000000000004fc .L0 
     /tmp/ccwRxAWu.s:758    .text:0000000000000508 .L0 
     /tmp/ccwRxAWu.s:759    .text:0000000000000508 .L0 
     /tmp/ccwRxAWu.s:760    .text:0000000000000508 .L0 
     /tmp/ccwRxAWu.s:762    .text:000000000000050c .L0 
     /tmp/ccwRxAWu.s:764    .text:000000000000050c .L0 
     /tmp/ccwRxAWu.s:765    .text:000000000000050c .L0 
     /tmp/ccwRxAWu.s:766    .text:000000000000050c .L0 
     /tmp/ccwRxAWu.s:772    .text:0000000000000524 .L0 
     /tmp/ccwRxAWu.s:773    .text:0000000000000524 .L0 
     /tmp/ccwRxAWu.s:777    .text:0000000000000534 .L0 
     /tmp/ccwRxAWu.s:778    .text:0000000000000534 .L0 
     /tmp/ccwRxAWu.s:784    .text:000000000000054c .L0 
     /tmp/ccwRxAWu.s:785    .text:000000000000054c .L0 
     /tmp/ccwRxAWu.s:789    .text:000000000000055c .L0 
     /tmp/ccwRxAWu.s:790    .text:000000000000055c .L0 
     /tmp/ccwRxAWu.s:796    .text:0000000000000574 .L0 
     /tmp/ccwRxAWu.s:797    .text:0000000000000574 .L0 
     /tmp/ccwRxAWu.s:801    .text:0000000000000584 .L0 
     /tmp/ccwRxAWu.s:802    .text:0000000000000584 .L0 
     /tmp/ccwRxAWu.s:808    .text:000000000000059c .L0 
     /tmp/ccwRxAWu.s:809    .text:000000000000059c .L0 
     /tmp/ccwRxAWu.s:815    .text:00000000000005b0 .L0 
     /tmp/ccwRxAWu.s:816    .text:00000000000005b0 .L0 
     /tmp/ccwRxAWu.s:820    .text:00000000000005b8 .L0 
     /tmp/ccwRxAWu.s:821    .text:00000000000005b8 .L0 
     /tmp/ccwRxAWu.s:824    .text:00000000000005c4 .L0 
     /tmp/ccwRxAWu.s:827    .text:00000000000005d0 .L0 
     /tmp/ccwRxAWu.s:830    .text:00000000000005dc .L0 
     /tmp/ccwRxAWu.s:834    .text:00000000000005e8 .L0 
     /tmp/ccwRxAWu.s:839    .text:00000000000005f0 .L0 
     /tmp/ccwRxAWu.s:843    .text:00000000000005f4 .L0 
     /tmp/ccwRxAWu.s:847    .text:00000000000005fc .L0 
     /tmp/ccwRxAWu.s:848    .text:00000000000005fc .L0 
     /tmp/ccwRxAWu.s:850    .text:0000000000000600 .L0 
     /tmp/ccwRxAWu.s:852    .text:0000000000000604 .L0 
     /tmp/ccwRxAWu.s:859    .text:0000000000000610 .L0 
     /tmp/ccwRxAWu.s:860    .text:0000000000000614 .L0 
     /tmp/ccwRxAWu.s:862    .text:0000000000000618 .L0 
     /tmp/ccwRxAWu.s:863    .text:0000000000000618 .L0 
     /tmp/ccwRxAWu.s:865    .text:000000000000061c .L0 
     /tmp/ccwRxAWu.s:868    .text:0000000000000620 .L0 
GAS LISTING /tmp/ccwRxAWu.s 			page 28


     /tmp/ccwRxAWu.s:870    .text:0000000000000624 .L0 
     /tmp/ccwRxAWu.s:874    .bss:0000000000000000 .LANCHOR0
     /tmp/ccwRxAWu.s:877    .bss:0000000000000000 _ZL9finishedC
     /tmp/ccwRxAWu.s:881    .bss:0000000000000001 _ZL9finishedD
     /tmp/ccwRxAWu.s:885    .bss:0000000000000002 _ZL9finishedA
     /tmp/ccwRxAWu.s:889    .bss:0000000000000003 _ZL9finishedB
     /tmp/ccwRxAWu.s:897    .text:0000000000000624 .L0 
     /tmp/ccwRxAWu.s:79     .rodata.str1.8:0000000000000000 .LC0
     /tmp/ccwRxAWu.s:129    .text:0000000000000094 .L0 
     /tmp/ccwRxAWu.s:82     .rodata.str1.8:0000000000000008 .LC1
     /tmp/ccwRxAWu.s:141    .text:00000000000000b8 .L0 
     /tmp/ccwRxAWu.s:85     .rodata.str1.8:0000000000000010 .LC2
     /tmp/ccwRxAWu.s:156    .text:00000000000000d8 .L0 
     /tmp/ccwRxAWu.s:88     .rodata.str1.8:0000000000000020 .LC3
     /tmp/ccwRxAWu.s:172    .text:00000000000000f4 .L0 
     /tmp/ccwRxAWu.s:91     .rodata.str1.8:0000000000000030 .LC4
     /tmp/ccwRxAWu.s:186    .text:0000000000000108 .L0 
     /tmp/ccwRxAWu.s:198    .text:000000000000012c .L0 
     /tmp/ccwRxAWu.s:94     .rodata.str1.8:0000000000000038 .LC5
     /tmp/ccwRxAWu.s:210    .text:000000000000014c .L0 
     /tmp/ccwRxAWu.s:223    .text:0000000000000170 .L0 
     /tmp/ccwRxAWu.s:230    .text:0000000000000184 .L0 
     /tmp/ccwRxAWu.s:242    .text:00000000000001a8 .L0 
     /tmp/ccwRxAWu.s:97     .rodata.str1.8:0000000000000048 .LC6
     /tmp/ccwRxAWu.s:261    .text:00000000000001d0 .L0 
     /tmp/ccwRxAWu.s:267    .text:00000000000001e4 .L0 
     /tmp/ccwRxAWu.s:288    .rodata.str1.8:0000000000000058 .LC7
     /tmp/ccwRxAWu.s:332    .text:0000000000000224 .L0 
     /tmp/ccwRxAWu.s:344    .text:0000000000000248 .L0 
     /tmp/ccwRxAWu.s:291    .rodata.str1.8:0000000000000060 .LC8
     /tmp/ccwRxAWu.s:359    .text:0000000000000268 .L0 
     /tmp/ccwRxAWu.s:294    .rodata.str1.8:0000000000000070 .LC9
     /tmp/ccwRxAWu.s:375    .text:0000000000000284 .L0 
     /tmp/ccwRxAWu.s:297    .rodata.str1.8:0000000000000080 .LC10
     /tmp/ccwRxAWu.s:387    .text:00000000000002a4 .L0 
     /tmp/ccwRxAWu.s:400    .text:00000000000002c8 .L0 
     /tmp/ccwRxAWu.s:407    .text:00000000000002dc .L0 
     /tmp/ccwRxAWu.s:419    .text:0000000000000300 .L0 
     /tmp/ccwRxAWu.s:300    .rodata.str1.8:0000000000000090 .LC11
     /tmp/ccwRxAWu.s:438    .text:0000000000000328 .L0 
     /tmp/ccwRxAWu.s:444    .text:000000000000033c .L0 
     /tmp/ccwRxAWu.s:465    .rodata.str1.8:00000000000000a0 .LC12
     /tmp/ccwRxAWu.s:545    .text:00000000000003b8 .L0 
     /tmp/ccwRxAWu.s:557    .text:00000000000003dc .L0 
     /tmp/ccwRxAWu.s:468    .rodata.str1.8:00000000000000a8 .LC13
     /tmp/ccwRxAWu.s:572    .text:00000000000003f4 .L0 
     /tmp/ccwRxAWu.s:578    .text:0000000000000408 .L0 
     /tmp/ccwRxAWu.s:598    .rodata.str1.8:00000000000000b8 .LC14
     /tmp/ccwRxAWu.s:677    .text:0000000000000480 .L0 
     /tmp/ccwRxAWu.s:689    .text:00000000000004a4 .L0 
     /tmp/ccwRxAWu.s:601    .rodata.str1.8:00000000000000c0 .LC15
     /tmp/ccwRxAWu.s:708    .text:00000000000004c4 .L0 
     /tmp/ccwRxAWu.s:714    .text:00000000000004d8 .L0 
     /tmp/ccwRxAWu.s:767    .text:0000000000000510 .L0 
     /tmp/ccwRxAWu.s:734    .rodata.str1.8:00000000000000d0 .LC16
     /tmp/ccwRxAWu.s:773    .text:0000000000000524 .L0 
     /tmp/ccwRxAWu.s:779    .text:0000000000000538 .L0 
GAS LISTING /tmp/ccwRxAWu.s 			page 29


     /tmp/ccwRxAWu.s:737    .rodata.str1.8:00000000000000e8 .LC17
     /tmp/ccwRxAWu.s:785    .text:000000000000054c .L0 
     /tmp/ccwRxAWu.s:791    .text:0000000000000560 .L0 
     /tmp/ccwRxAWu.s:740    .rodata.str1.8:0000000000000100 .LC18
     /tmp/ccwRxAWu.s:797    .text:0000000000000574 .L0 
     /tmp/ccwRxAWu.s:803    .text:0000000000000588 .L0 
     /tmp/ccwRxAWu.s:743    .rodata.str1.8:0000000000000118 .LC19
     /tmp/ccwRxAWu.s:809    .text:000000000000059c .L0 
     /tmp/ccwRxAWu.s:821    .text:00000000000005b8 .L0 
     /tmp/ccwRxAWu.s:824    .text:00000000000005c4 .L0 
     /tmp/ccwRxAWu.s:827    .text:00000000000005d0 .L0 
     /tmp/ccwRxAWu.s:830    .text:00000000000005dc .L0 
     /tmp/ccwRxAWu.s:50     .text:0000000000000050 .L1
     /tmp/ccwRxAWu.s:67     .text:0000000000000068 .L6
     /tmp/ccwRxAWu.s:37     .text:0000000000000030 .L3
     /tmp/ccwRxAWu.s:149    .text:00000000000000d0 .L9
     /tmp/ccwRxAWu.s:126    .text:0000000000000094 .L13
     /tmp/ccwRxAWu.s:250    .text:00000000000001c0 .L11
     /tmp/ccwRxAWu.s:227    .text:0000000000000184 .L14
     /tmp/ccwRxAWu.s:352    .text:0000000000000260 .L17
     /tmp/ccwRxAWu.s:329    .text:0000000000000224 .L21
     /tmp/ccwRxAWu.s:427    .text:0000000000000318 .L19
     /tmp/ccwRxAWu.s:404    .text:00000000000002dc .L22
     /tmp/ccwRxAWu.s:538    .text:00000000000003b0 .L29
     /tmp/ccwRxAWu.s:530    .text:00000000000003ac .L25
     /tmp/ccwRxAWu.s:498    .text:000000000000037c .L26
     /tmp/ccwRxAWu.s:519    .text:0000000000000398 .L27
     /tmp/ccwRxAWu.s:566    .text:00000000000003f4 .L24
     /tmp/ccwRxAWu.s:510    .text:0000000000000388 .L28
     /tmp/ccwRxAWu.s:670    .text:0000000000000478 .L37
     /tmp/ccwRxAWu.s:662    .text:0000000000000474 .L33
     /tmp/ccwRxAWu.s:631    .text:0000000000000448 .L34
     /tmp/ccwRxAWu.s:651    .text:0000000000000460 .L35
     /tmp/ccwRxAWu.s:698    .text:00000000000004bc .L32
     /tmp/ccwRxAWu.s:643    .text:0000000000000454 .L36
     /tmp/ccwRxAWu.s:818    .text:00000000000005b8 .L42
     /tmp/ccwRxAWu.s:813    .text:00000000000005b0 .L40
     /tmp/ccwRxAWu.s:841    .text:00000000000005f4 .L41
     /tmp/ccwRxAWu.s:856    .text:0000000000000610 .L39
     /tmp/ccwRxAWu.s:837    .text:00000000000005f0 .L44
     /tmp/ccwRxAWu.s:2454   .debug_abbrev:0000000000000000 .Ldebug_abbrev0
     /tmp/ccwRxAWu.s:3282   .debug_str:00000000000000bc .LASF124
     /tmp/ccwRxAWu.s:3284   .debug_str:0000000000000168 .LASF125
     /tmp/ccwRxAWu.s:3484   .debug_str:000000000000078d .LASF126
     /tmp/ccwRxAWu.s:5      .text:0000000000000000 .Ltext0
     /tmp/ccwRxAWu.s:892    .text:0000000000000624 .Letext0
     /tmp/ccwRxAWu.s:3256   .debug_line:0000000000000000 .Ldebug_line0
     /tmp/ccwRxAWu.s:3350   .debug_str:00000000000003bd .LASF0
     /tmp/ccwRxAWu.s:3374   .debug_str:0000000000000492 .LASF1
     /tmp/ccwRxAWu.s:3442   .debug_str:0000000000000677 .LASF2
     /tmp/ccwRxAWu.s:3320   .debug_str:00000000000002c1 .LASF3
     /tmp/ccwRxAWu.s:3450   .debug_str:00000000000006ae .LASF4
     /tmp/ccwRxAWu.s:3364   .debug_str:0000000000000426 .LASF5
     /tmp/ccwRxAWu.s:3264   .debug_str:0000000000000028 .LASF6
     /tmp/ccwRxAWu.s:3412   .debug_str:00000000000005b5 .LASF7
     /tmp/ccwRxAWu.s:3368   .debug_str:000000000000045a .LASF8
     /tmp/ccwRxAWu.s:3326   .debug_str:00000000000002e9 .LASF9
GAS LISTING /tmp/ccwRxAWu.s 			page 30


     /tmp/ccwRxAWu.s:3332   .debug_str:000000000000032c .LASF10
     /tmp/ccwRxAWu.s:3292   .debug_str:00000000000001bb .LASF11
     /tmp/ccwRxAWu.s:3322   .debug_str:00000000000002c7 .LASF12
     /tmp/ccwRxAWu.s:3298   .debug_str:00000000000001fd .LASF13
     /tmp/ccwRxAWu.s:3290   .debug_str:00000000000001ab .LASF14
     /tmp/ccwRxAWu.s:3474   .debug_str:0000000000000753 .LASF15
     /tmp/ccwRxAWu.s:3316   .debug_str:0000000000000290 .LASF16
     /tmp/ccwRxAWu.s:3462   .debug_str:00000000000006f1 .LASF17
     /tmp/ccwRxAWu.s:3480   .debug_str:0000000000000770 .LASF18
     /tmp/ccwRxAWu.s:3502   .debug_str:000000000000082e .LASF127
     /tmp/ccwRxAWu.s:3346   .debug_str:000000000000039a .LASF19
     /tmp/ccwRxAWu.s:3466   .debug_str:0000000000000713 .LASF21
     /tmp/ccwRxAWu.s:3398   .debug_str:0000000000000561 .LASF20
     /tmp/ccwRxAWu.s:3384   .debug_str:00000000000004ed .LASF22
     /tmp/ccwRxAWu.s:3314   .debug_str:0000000000000286 .LASF23
     /tmp/ccwRxAWu.s:3260   .debug_str:000000000000000a .LASF24
     /tmp/ccwRxAWu.s:3388   .debug_str:000000000000050f .LASF31
     /tmp/ccwRxAWu.s:3498   .debug_str:0000000000000806 .LASF33
     /tmp/ccwRxAWu.s:3496   .debug_str:00000000000007f5 .LASF25
     /tmp/ccwRxAWu.s:3376   .debug_str:00000000000004a5 .LASF26
     /tmp/ccwRxAWu.s:3310   .debug_str:000000000000025c .LASF27
     /tmp/ccwRxAWu.s:3294   .debug_str:00000000000001ca .LASF28
     /tmp/ccwRxAWu.s:3360   .debug_str:0000000000000401 .LASF29
     /tmp/ccwRxAWu.s:3300   .debug_str:000000000000020d .LASF30
     /tmp/ccwRxAWu.s:3514   .debug_str:0000000000000888 .LASF32
     /tmp/ccwRxAWu.s:3270   .debug_str:000000000000004c .LASF34
     /tmp/ccwRxAWu.s:3420   .debug_str:00000000000005f2 .LASF35
     /tmp/ccwRxAWu.s:3272   .debug_str:0000000000000067 .LASF36
     /tmp/ccwRxAWu.s:3276   .debug_str:0000000000000090 .LASF37
     /tmp/ccwRxAWu.s:3328   .debug_str:00000000000002f9 .LASF38
     /tmp/ccwRxAWu.s:3460   .debug_str:00000000000006e3 .LASF39
     /tmp/ccwRxAWu.s:3318   .debug_str:00000000000002a6 .LASF40
     /tmp/ccwRxAWu.s:3354   .debug_str:00000000000003da .LASF41
     /tmp/ccwRxAWu.s:3506   .debug_str:000000000000083e .LASF42
     /tmp/ccwRxAWu.s:3494   .debug_str:00000000000007ec .LASF45
     /tmp/ccwRxAWu.s:3486   .debug_str:00000000000007b0 .LASF47
     /tmp/ccwRxAWu.s:3438   .debug_str:0000000000000663 .LASF43
     /tmp/ccwRxAWu.s:3408   .debug_str:0000000000000599 .LASF44
     /tmp/ccwRxAWu.s:3426   .debug_str:0000000000000617 .LASF46
     /tmp/ccwRxAWu.s:3428   .debug_str:000000000000061e .LASF48
     /tmp/ccwRxAWu.s:3404   .debug_str:000000000000057e .LASF49
     /tmp/ccwRxAWu.s:3370   .debug_str:000000000000046d .LASF50
     /tmp/ccwRxAWu.s:3508   .debug_str:0000000000000858 .LASF51
     /tmp/ccwRxAWu.s:3482   .debug_str:0000000000000779 .LASF52
     /tmp/ccwRxAWu.s:3402   .debug_str:0000000000000576 .LASF53
     /tmp/ccwRxAWu.s:3406   .debug_str:0000000000000585 .LASF54
     /tmp/ccwRxAWu.s:3392   .debug_str:0000000000000535 .LASF55
     /tmp/ccwRxAWu.s:3430   .debug_str:0000000000000631 .LASF56
     /tmp/ccwRxAWu.s:3520   .debug_str:00000000000008b3 .LASF57
     /tmp/ccwRxAWu.s:3358   .debug_str:00000000000003ed .LASF58
     /tmp/ccwRxAWu.s:3470   .debug_str:000000000000073e .LASF59
     /tmp/ccwRxAWu.s:3456   .debug_str:00000000000006c9 .LASF60
     /tmp/ccwRxAWu.s:3458   .debug_str:00000000000006dc .LASF61
     /tmp/ccwRxAWu.s:3312   .debug_str:0000000000000273 .LASF62
     /tmp/ccwRxAWu.s:3308   .debug_str:0000000000000256 .LASF63
     /tmp/ccwRxAWu.s:3268   .debug_str:000000000000003a .LASF64
     /tmp/ccwRxAWu.s:3356   .debug_str:00000000000003e7 .LASF65
GAS LISTING /tmp/ccwRxAWu.s 			page 31


     /tmp/ccwRxAWu.s:3306   .debug_str:0000000000000244 .LASF66
     /tmp/ccwRxAWu.s:3266   .debug_str:000000000000002f .LASF67
     /tmp/ccwRxAWu.s:3446   .debug_str:000000000000068c .LASF68
     /tmp/ccwRxAWu.s:3440   .debug_str:000000000000066c .LASF69
     /tmp/ccwRxAWu.s:3516   .debug_str:0000000000000894 .LASF70
     /tmp/ccwRxAWu.s:3444   .debug_str:0000000000000685 .LASF71
     /tmp/ccwRxAWu.s:3288   .debug_str:0000000000000198 .LASF72
     /tmp/ccwRxAWu.s:3504   .debug_str:0000000000000834 .LASF73
     /tmp/ccwRxAWu.s:3512   .debug_str:0000000000000872 .LASF74
     /tmp/ccwRxAWu.s:3500   .debug_str:0000000000000824 .LASF75
     /tmp/ccwRxAWu.s:3390   .debug_str:000000000000051f .LASF76
     /tmp/ccwRxAWu.s:3304   .debug_str:000000000000023e .LASF77
     /tmp/ccwRxAWu.s:3340   .debug_str:0000000000000377 .LASF78
     /tmp/ccwRxAWu.s:3344   .debug_str:0000000000000394 .LASF79
     /tmp/ccwRxAWu.s:3302   .debug_str:000000000000022c .LASF80
     /tmp/ccwRxAWu.s:3342   .debug_str:0000000000000389 .LASF81
     /tmp/ccwRxAWu.s:3348   .debug_str:00000000000003a5 .LASF82
     /tmp/ccwRxAWu.s:3492   .debug_str:00000000000007dd .LASF83
     /tmp/ccwRxAWu.s:3330   .debug_str:0000000000000310 .LASF84
     /tmp/ccwRxAWu.s:3416   .debug_str:00000000000005d1 .LASF85
     /tmp/ccwRxAWu.s:3366   .debug_str:0000000000000438 .LASF86
     /tmp/ccwRxAWu.s:3274   .debug_str:0000000000000081 .LASF87
     /tmp/ccwRxAWu.s:3382   .debug_str:00000000000004d0 .LASF88
     /tmp/ccwRxAWu.s:3434   .debug_str:0000000000000655 .LASF89
     /tmp/ccwRxAWu.s:3262   .debug_str:0000000000000020 .LASF90
     /tmp/ccwRxAWu.s:3278   .debug_str:000000000000009a .LASF91
     /tmp/ccwRxAWu.s:3490   .debug_str:00000000000007d1 .LASF92
     /tmp/ccwRxAWu.s:3280   .debug_str:00000000000000a9 .LASF93
     /tmp/ccwRxAWu.s:3396   .debug_str:000000000000054f .LASF94
     /tmp/ccwRxAWu.s:3334   .debug_str:000000000000033a .LASF95
     /tmp/ccwRxAWu.s:3362   .debug_str:0000000000000413 .LASF96
     /tmp/ccwRxAWu.s:3286   .debug_str:0000000000000184 .LASF97
     /tmp/ccwRxAWu.s:3476   .debug_str:000000000000075f .LASF98
     /tmp/ccwRxAWu.s:3380   .debug_str:00000000000004cb .LASF99
     /tmp/ccwRxAWu.s:3448   .debug_str:00000000000006a4 .LASF100
     /tmp/ccwRxAWu.s:3400   .debug_str:000000000000056c .LASF101
     /tmp/ccwRxAWu.s:3452   .debug_str:00000000000006b5 .LASF102
     /tmp/ccwRxAWu.s:3454   .debug_str:00000000000006bf .LASF103
     /tmp/ccwRxAWu.s:3324   .debug_str:00000000000002d6 .LASF108
     /tmp/ccwRxAWu.s:3338   .debug_str:000000000000035f .LASF110
     /tmp/ccwRxAWu.s:750    .text:00000000000004f8 .LFB29
     /tmp/ccwRxAWu.s:871    .text:0000000000000624 .LFE29
     /tmp/ccwRxAWu.s:3378   .debug_str:00000000000004c3 .LASF104
     /tmp/ccwRxAWu.s:832    .text:00000000000005e8 .LBB18
     /tmp/ccwRxAWu.s:857    .text:0000000000000610 .LBE18
     /tmp/ccwRxAWu.s:3436   .debug_str:000000000000065c .LASF105
     /tmp/ccwRxAWu.s:2993   .debug_loc:0000000000000000 .LLST16
     /tmp/ccwRxAWu.s:3464   .debug_str:0000000000000707 .LASF106
     /tmp/ccwRxAWu.s:3478   .debug_str:0000000000000764 .LASF128
     /tmp/ccwRxAWu.s:3004   .debug_loc:0000000000000036 .LLST17
     /tmp/ccwRxAWu.s:3258   .debug_str:0000000000000000 .LASF107
     /tmp/ccwRxAWu.s:853    .text:000000000000060c .LVL106
     /tmp/ccwRxAWu.s:770    .text:0000000000000524 .LVL94
     /tmp/ccwRxAWu.s:775    .text:0000000000000534 .LVL95
     /tmp/ccwRxAWu.s:782    .text:000000000000054c .LVL96
     /tmp/ccwRxAWu.s:787    .text:000000000000055c .LVL97
     /tmp/ccwRxAWu.s:794    .text:0000000000000574 .LVL98
GAS LISTING /tmp/ccwRxAWu.s 			page 32


     /tmp/ccwRxAWu.s:799    .text:0000000000000584 .LVL99
     /tmp/ccwRxAWu.s:806    .text:000000000000059c .LVL100
     /tmp/ccwRxAWu.s:811    .text:00000000000005ac .LVL101
     /tmp/ccwRxAWu.s:817    .text:00000000000005b8 .LVL102
     /tmp/ccwRxAWu.s:3424   .debug_str:000000000000060b .LASF109
     /tmp/ccwRxAWu.s:3510   .debug_str:0000000000000860 .LASF111
     /tmp/ccwRxAWu.s:307    .text:0000000000000204 .LFB28
     /tmp/ccwRxAWu.s:461    .text:000000000000035c .LFE28
     /tmp/ccwRxAWu.s:3011   .debug_loc:0000000000000059 .LLST5
     /tmp/ccwRxAWu.s:3025   .debug_loc:0000000000000092 .LLST6
     /tmp/ccwRxAWu.s:3518   .debug_str:00000000000008ac .LASF112
     /tmp/ccwRxAWu.s:3045   .debug_loc:00000000000000ef .LLST7
     /tmp/ccwRxAWu.s:334    .text:0000000000000234 .LVL40
     /tmp/ccwRxAWu.s:341    .text:0000000000000248 .LVL41
     /tmp/ccwRxAWu.s:346    .text:0000000000000258 .LVL42
     /tmp/ccwRxAWu.s:361    .text:0000000000000278 .LVL45
     /tmp/ccwRxAWu.s:372    .text:0000000000000284 .LVL46
     /tmp/ccwRxAWu.s:377    .text:0000000000000294 .LVL47
     /tmp/ccwRxAWu.s:382    .text:00000000000002a0 .LVL48
     /tmp/ccwRxAWu.s:390    .text:00000000000002b4 .LVL51
     /tmp/ccwRxAWu.s:397    .text:00000000000002c8 .LVL52
     /tmp/ccwRxAWu.s:402    .text:00000000000002d8 .LVL53
     /tmp/ccwRxAWu.s:409    .text:00000000000002ec .LVL54
     /tmp/ccwRxAWu.s:416    .text:0000000000000300 .LVL55
     /tmp/ccwRxAWu.s:421    .text:0000000000000310 .LVL56
     /tmp/ccwRxAWu.s:435    .text:0000000000000328 .LVL59
     /tmp/ccwRxAWu.s:440    .text:0000000000000338 .LVL60
     /tmp/ccwRxAWu.s:3422   .debug_str:00000000000005ff .LASF113
     /tmp/ccwRxAWu.s:3372   .debug_str:0000000000000480 .LASF114
     /tmp/ccwRxAWu.s:104    .text:0000000000000074 .LFB27
     /tmp/ccwRxAWu.s:284    .text:0000000000000204 .LFE27
     /tmp/ccwRxAWu.s:3056   .debug_loc:0000000000000125 .LLST1
     /tmp/ccwRxAWu.s:3070   .debug_loc:000000000000015e .LLST2
     /tmp/ccwRxAWu.s:3090   .debug_loc:00000000000001bb .LLST3
     /tmp/ccwRxAWu.s:3098   .debug_loc:00000000000001df .LLST4
     /tmp/ccwRxAWu.s:131    .text:00000000000000a4 .LVL10
     /tmp/ccwRxAWu.s:138    .text:00000000000000b8 .LVL11
     /tmp/ccwRxAWu.s:143    .text:00000000000000c8 .LVL12
     /tmp/ccwRxAWu.s:158    .text:00000000000000e8 .LVL15
     /tmp/ccwRxAWu.s:169    .text:00000000000000f4 .LVL16
     /tmp/ccwRxAWu.s:174    .text:0000000000000104 .LVL17
     /tmp/ccwRxAWu.s:188    .text:0000000000000118 .LVL19
     /tmp/ccwRxAWu.s:195    .text:000000000000012c .LVL20
     /tmp/ccwRxAWu.s:200    .text:000000000000013c .LVL21
     /tmp/ccwRxAWu.s:205    .text:0000000000000148 .LVL22
     /tmp/ccwRxAWu.s:213    .text:000000000000015c .LVL25
     /tmp/ccwRxAWu.s:220    .text:0000000000000170 .LVL26
     /tmp/ccwRxAWu.s:225    .text:0000000000000180 .LVL27
     /tmp/ccwRxAWu.s:232    .text:0000000000000194 .LVL28
     /tmp/ccwRxAWu.s:239    .text:00000000000001a8 .LVL29
     /tmp/ccwRxAWu.s:244    .text:00000000000001b8 .LVL30
     /tmp/ccwRxAWu.s:258    .text:00000000000001d0 .LVL33
     /tmp/ccwRxAWu.s:263    .text:00000000000001e0 .LVL34
     /tmp/ccwRxAWu.s:3488   .debug_str:00000000000007c5 .LASF115
     /tmp/ccwRxAWu.s:3336   .debug_str:000000000000034d .LASF116
     /tmp/ccwRxAWu.s:608    .text:0000000000000428 .LFB26
     /tmp/ccwRxAWu.s:730    .text:00000000000004f8 .LFE26
GAS LISTING /tmp/ccwRxAWu.s 			page 33


     /tmp/ccwRxAWu.s:3109   .debug_loc:0000000000000215 .LLST12
     /tmp/ccwRxAWu.s:626    .text:0000000000000440 .LBB10
     /tmp/ccwRxAWu.s:701    .text:00000000000004bc .LBE10
     /tmp/ccwRxAWu.s:3123   .debug_loc:000000000000024e .LLST13
     /tmp/ccwRxAWu.s:3242   .debug_ranges:0000000000000000 .Ldebug_ranges0
     /tmp/ccwRxAWu.s:3135   .debug_loc:0000000000000285 .LLST14
     /tmp/ccwRxAWu.s:648    .text:000000000000045c .LBB14
     /tmp/ccwRxAWu.s:663    .text:0000000000000474 .LBE14
     /tmp/ccwRxAWu.s:3147   .debug_loc:00000000000002bc .LLST15
     /tmp/ccwRxAWu.s:638    .text:0000000000000450 .LVL81
     /tmp/ccwRxAWu.s:679    .text:0000000000000490 .LVL87
     /tmp/ccwRxAWu.s:686    .text:00000000000004a4 .LVL88
     /tmp/ccwRxAWu.s:691    .text:00000000000004b4 .LVL89
     /tmp/ccwRxAWu.s:705    .text:00000000000004c4 .LVL91
     /tmp/ccwRxAWu.s:710    .text:00000000000004d4 .LVL92
     /tmp/ccwRxAWu.s:3418   .debug_str:00000000000005e6 .LASF117
     /tmp/ccwRxAWu.s:3394   .debug_str:000000000000053d .LASF118
     /tmp/ccwRxAWu.s:475    .text:000000000000035c .LFB25
     /tmp/ccwRxAWu.s:594    .text:0000000000000428 .LFE25
     /tmp/ccwRxAWu.s:3158   .debug_loc:00000000000002f2 .LLST8
     /tmp/ccwRxAWu.s:493    .text:0000000000000374 .LBB2
     /tmp/ccwRxAWu.s:569    .text:00000000000003f4 .LBE2
     /tmp/ccwRxAWu.s:3172   .debug_loc:000000000000032b .LLST9
     /tmp/ccwRxAWu.s:3184   .debug_loc:0000000000000362 .LLST10
     /tmp/ccwRxAWu.s:516    .text:0000000000000394 .LBB6
     /tmp/ccwRxAWu.s:531    .text:00000000000003ac .LBE6
     /tmp/ccwRxAWu.s:3196   .debug_loc:0000000000000399 .LLST11
     /tmp/ccwRxAWu.s:505    .text:0000000000000384 .LVL66
     /tmp/ccwRxAWu.s:547    .text:00000000000003c8 .LVL72
     /tmp/ccwRxAWu.s:554    .text:00000000000003dc .LVL73
     /tmp/ccwRxAWu.s:559    .text:00000000000003ec .LVL74
     /tmp/ccwRxAWu.s:574    .text:0000000000000404 .LVL76
     /tmp/ccwRxAWu.s:3386   .debug_str:0000000000000505 .LASF129
     /tmp/ccwRxAWu.s:9      .text:0000000000000000 .LFB24
     /tmp/ccwRxAWu.s:75     .text:0000000000000074 .LFE24
     /tmp/ccwRxAWu.s:3207   .debug_loc:00000000000003cf .LLST0
     /tmp/ccwRxAWu.s:42     .text:000000000000003c .LVL2
     /tmp/ccwRxAWu.s:47     .text:000000000000004c .LVL3
     /tmp/ccwRxAWu.s:72     .text:0000000000000070 .LVL6
     /tmp/ccwRxAWu.s:3410   .debug_str:00000000000005ae .LASF130
     /tmp/ccwRxAWu.s:3352   .debug_str:00000000000003ca .LASF131
     /tmp/ccwRxAWu.s:3472   .debug_str:0000000000000745 .LASF119
     /tmp/ccwRxAWu.s:3468   .debug_str:000000000000072b .LASF120
     /tmp/ccwRxAWu.s:3432   .debug_str:0000000000000645 .LASF121
     /tmp/ccwRxAWu.s:3296   .debug_str:00000000000001ee .LASF122
     /tmp/ccwRxAWu.s:3414   .debug_str:00000000000005c8 .LASF123
     /tmp/ccwRxAWu.s:836    .text:00000000000005f0 .LVL103
     /tmp/ccwRxAWu.s:840    .text:00000000000005f4 .LVL104
     /tmp/ccwRxAWu.s:845    .text:00000000000005fc .LVL105
     /tmp/ccwRxAWu.s:855    .text:0000000000000610 .LVL107
     /tmp/ccwRxAWu.s:866    .text:000000000000061c .LVL108
     /tmp/ccwRxAWu.s:310    .text:0000000000000204 .LVL37
     /tmp/ccwRxAWu.s:328    .text:0000000000000224 .LVL39
     /tmp/ccwRxAWu.s:324    .text:000000000000021c .LVL38
     /tmp/ccwRxAWu.s:349    .text:000000000000025c .LVL43
     /tmp/ccwRxAWu.s:351    .text:0000000000000260 .LVL44
     /tmp/ccwRxAWu.s:424    .text:0000000000000314 .LVL57
GAS LISTING /tmp/ccwRxAWu.s 			page 34


     /tmp/ccwRxAWu.s:426    .text:0000000000000318 .LVL58
     /tmp/ccwRxAWu.s:453    .text:0000000000000350 .LVL61
     /tmp/ccwRxAWu.s:384    .text:00000000000002a4 .LVL49
     /tmp/ccwRxAWu.s:388    .text:00000000000002ac .LVL50
     /tmp/ccwRxAWu.s:456    .text:0000000000000354 .LVL62
     /tmp/ccwRxAWu.s:107    .text:0000000000000074 .LVL7
     /tmp/ccwRxAWu.s:125    .text:0000000000000094 .LVL9
     /tmp/ccwRxAWu.s:121    .text:000000000000008c .LVL8
     /tmp/ccwRxAWu.s:146    .text:00000000000000cc .LVL13
     /tmp/ccwRxAWu.s:148    .text:00000000000000d0 .LVL14
     /tmp/ccwRxAWu.s:247    .text:00000000000001bc .LVL31
     /tmp/ccwRxAWu.s:249    .text:00000000000001c0 .LVL32
     /tmp/ccwRxAWu.s:276    .text:00000000000001f8 .LVL35
     /tmp/ccwRxAWu.s:182    .text:0000000000000108 .LVL18
     /tmp/ccwRxAWu.s:207    .text:000000000000014c .LVL23
     /tmp/ccwRxAWu.s:211    .text:0000000000000154 .LVL24
     /tmp/ccwRxAWu.s:279    .text:00000000000001fc .LVL36
     /tmp/ccwRxAWu.s:611    .text:0000000000000428 .LVL78
     /tmp/ccwRxAWu.s:630    .text:0000000000000448 .LVL80
     /tmp/ccwRxAWu.s:625    .text:0000000000000440 .LVL79
     /tmp/ccwRxAWu.s:725    .text:00000000000004f0 .LVL93
     /tmp/ccwRxAWu.s:669    .text:0000000000000478 .LVL86
     /tmp/ccwRxAWu.s:697    .text:00000000000004bc .LVL90
     /tmp/ccwRxAWu.s:652    .text:0000000000000460 .LVL83
     /tmp/ccwRxAWu.s:661    .text:0000000000000474 .LVL85
     /tmp/ccwRxAWu.s:478    .text:000000000000035c .LVL63
     /tmp/ccwRxAWu.s:497    .text:000000000000037c .LVL65
     /tmp/ccwRxAWu.s:492    .text:0000000000000374 .LVL64
     /tmp/ccwRxAWu.s:589    .text:0000000000000420 .LVL77
     /tmp/ccwRxAWu.s:537    .text:00000000000003b0 .LVL71
     /tmp/ccwRxAWu.s:565    .text:00000000000003f4 .LVL75
     /tmp/ccwRxAWu.s:520    .text:0000000000000398 .LVL68
     /tmp/ccwRxAWu.s:529    .text:00000000000003ac .LVL70
     /tmp/ccwRxAWu.s:13     .text:0000000000000000 .LVL0
     /tmp/ccwRxAWu.s:36     .text:0000000000000030 .LVL1
     /tmp/ccwRxAWu.s:60     .text:000000000000005c .LVL4
     /tmp/ccwRxAWu.s:66     .text:0000000000000068 .LVL5
     /tmp/ccwRxAWu.s:898    .debug_info:0000000000000000 .Ldebug_info0
     /tmp/ccwRxAWu.s:500    .text:000000000000037c .LBB4
     /tmp/ccwRxAWu.s:533    .text:00000000000003ac .LBE4
     /tmp/ccwRxAWu.s:561    .text:00000000000003ec .LBB8
     /tmp/ccwRxAWu.s:567    .text:00000000000003f4 .LBE8
     /tmp/ccwRxAWu.s:633    .text:0000000000000448 .LBB12
     /tmp/ccwRxAWu.s:665    .text:0000000000000474 .LBE12
     /tmp/ccwRxAWu.s:693    .text:00000000000004b4 .LBB16
     /tmp/ccwRxAWu.s:699    .text:00000000000004bc .LBE16

UNDEFINED SYMBOLS
thread_dispatch
_Z11printStringPKc
_Z8printIntiii
_ZN5Riscv11printStringEPKc
thread_create
_ZdlPv
