GAS LISTING /tmp/ccQ7I3Tg.s 			page 1


   1              		.file	"Threads_C_API_test.cpp"
   2              		.option pic
   3              		.option norelax
   4              		.text
   5              	.Ltext0:
   6              		.align	2
   8              	_ZL9fibonaccim:
   9              	.LFB24:
  10              		.file 1 "test/Threads_C_API_test.cpp"
   1:test/Threads_C_API_test.cpp **** //
   2:test/Threads_C_API_test.cpp **** // Created by os on 5/16/22.
   3:test/Threads_C_API_test.cpp **** //
   4:test/Threads_C_API_test.cpp **** 
   5:test/Threads_C_API_test.cpp **** #include "Threads_C_API_test.hpp"
   6:test/Threads_C_API_test.cpp **** #include "../h/Scheduler.hpp"
   7:test/Threads_C_API_test.cpp **** 
   8:test/Threads_C_API_test.cpp **** static bool finishedA = false;
   9:test/Threads_C_API_test.cpp **** static bool finishedB = false;
  10:test/Threads_C_API_test.cpp **** static bool finishedC = false;
  11:test/Threads_C_API_test.cpp **** static bool finishedD = false;
  12:test/Threads_C_API_test.cpp **** 
  13:test/Threads_C_API_test.cpp **** static uint64 fibonacci(uint64 n) {
  11              		.loc 1 13 35
  12              		.cfi_startproc
  13              	.LVL0:
  14 0000 130101FE 		addi	sp,sp,-32
  15              		.cfi_def_cfa_offset 32
  16 0004 233C1100 		sd	ra,24(sp)
  17 0008 23388100 		sd	s0,16(sp)
  18 000c 23349100 		sd	s1,8(sp)
  19 0010 23302101 		sd	s2,0(sp)
  20              		.cfi_offset 1, -8
  21              		.cfi_offset 8, -16
  22              		.cfi_offset 9, -24
  23              		.cfi_offset 18, -32
  24 0014 13040102 		addi	s0,sp,32
  25              		.cfi_def_cfa 8, 0
  26 0018 93040500 		mv	s1,a0
  14:test/Threads_C_API_test.cpp ****     if (n == 0 || n == 1) {return n; }
  27              		.loc 1 14 5
  28 001c 93071000 		li	a5,1
  29 0020 63F8A702 		bleu	a0,a5,.L1
  15:test/Threads_C_API_test.cpp ****     if (n % 10 == 0) { thread_dispatch(); }
  30              		.loc 1 15 5
  31              		.loc 1 15 11 is_stmt 0
  32 0024 9307A000 		li	a5,10
  33 0028 B377F502 		remu	a5,a0,a5
  34              		.loc 1 15 5
  35 002c 638E0702 		beqz	a5,.L6
  36              	.LVL1:
  37              	.L3:
  16:test/Threads_C_API_test.cpp ****     return fibonacci(n - 1) + fibonacci(n - 2);
  38              		.loc 1 16 5 is_stmt 1
  39              		.loc 1 16 21 is_stmt 0
  40 0030 1385F4FF 		addi	a0,s1,-1
  41 0034 97000000 		call	_ZL9fibonaccim
  41      E7800000 
GAS LISTING /tmp/ccQ7I3Tg.s 			page 2


  42              	.LVL2:
  43 003c 13090500 		mv	s2,a0
  44              		.loc 1 16 40
  45 0040 1385E4FF 		addi	a0,s1,-2
  46 0044 97000000 		call	_ZL9fibonaccim
  46      E7800000 
  47              	.LVL3:
  48              		.loc 1 16 46
  49 004c 3305A900 		add	a0,s2,a0
  50              	.L1:
  17:test/Threads_C_API_test.cpp **** }
  51              		.loc 1 17 1
  52 0050 83308101 		ld	ra,24(sp)
  53              		.cfi_remember_state
  54              		.cfi_restore 1
  55 0054 03340101 		ld	s0,16(sp)
  56              		.cfi_restore 8
  57              		.cfi_def_cfa 2, 32
  58 0058 83348100 		ld	s1,8(sp)
  59              		.cfi_restore 9
  60              	.LVL4:
  61 005c 03390100 		ld	s2,0(sp)
  62              		.cfi_restore 18
  63 0060 13010102 		addi	sp,sp,32
  64              		.cfi_def_cfa_offset 0
  65 0064 67800000 		jr	ra
  66              	.LVL5:
  67              	.L6:
  68              		.cfi_restore_state
  15:test/Threads_C_API_test.cpp ****     if (n % 10 == 0) { thread_dispatch(); }
  69              		.loc 1 15 24 is_stmt 1 discriminator 1
  15:test/Threads_C_API_test.cpp ****     if (n % 10 == 0) { thread_dispatch(); }
  70              		.loc 1 15 39 is_stmt 0 discriminator 1
  71 0068 97000000 		call	thread_dispatch@plt
  71      E7800000 
  72              	.LVL6:
  73 0070 6FF01FFC 		j	.L3
  74              		.cfi_endproc
  75              	.LFE24:
  77              		.section	.rodata.str1.8,"aMS",@progbits,1
  78              		.align	3
  79              	.LC0:
  80 0000 413A2069 		.string	"A: i="
  80      3D00
  81 0006 0000     		.align	3
  82              	.LC1:
  83 0008 0A00     		.string	"\n"
  84 000a 00000000 		.align	3
  84      0000
  85              	.LC2:
  86 0010 41206669 		.string	"A finished!\n"
  86      6E697368 
  86      6564210A 
  86      00
  87              		.text
  88              		.align	2
  89              		.globl	_Z11workerBodyAPv
GAS LISTING /tmp/ccQ7I3Tg.s 			page 3


  91              	_Z11workerBodyAPv:
  92              	.LFB25:
  18:test/Threads_C_API_test.cpp **** 
  19:test/Threads_C_API_test.cpp **** void workerBodyA(void* arg) {
  93              		.loc 1 19 29 is_stmt 1
  94              		.cfi_startproc
  95              	.LVL7:
  96 0074 130101FE 		addi	sp,sp,-32
  97              		.cfi_def_cfa_offset 32
  98 0078 233C1100 		sd	ra,24(sp)
  99 007c 23388100 		sd	s0,16(sp)
 100 0080 23349100 		sd	s1,8(sp)
 101 0084 23302101 		sd	s2,0(sp)
 102              		.cfi_offset 1, -8
 103              		.cfi_offset 8, -16
 104              		.cfi_offset 9, -24
 105              		.cfi_offset 18, -32
 106 0088 13040102 		addi	s0,sp,32
 107              		.cfi_def_cfa 8, 0
  20:test/Threads_C_API_test.cpp ****     for (uint64 i = 0; i < 10; i++) {
 108              		.loc 1 20 5
 109              	.LVL8:
 110              	.LBB2:
 111              		.loc 1 20 17 is_stmt 0
 112 008c 13090000 		li	s2,0
 113 0090 6F008003 		j	.L13
 114              	.LVL9:
 115              	.L10:
 116              	.LBB3:
 117              	.LBB4:
 118              	.LBB5:
  21:test/Threads_C_API_test.cpp ****         printString("A: i="); printInt(i); printString("\n");
  22:test/Threads_C_API_test.cpp ****         for (uint64 j = 0; j < 10000; j++) {
  23:test/Threads_C_API_test.cpp ****             //Riscv::printString("A j : ");
  24:test/Threads_C_API_test.cpp ****             //Riscv::printInteger(j);
  25:test/Threads_C_API_test.cpp ****             for (uint64 k = 0; k < 30000; k++) { /* busy wait */ }
  26:test/Threads_C_API_test.cpp ****             thread_dispatch();
 119              		.loc 1 26 13 is_stmt 1 discriminator 2
 120              		.loc 1 26 28 is_stmt 0 discriminator 2
 121 0094 97000000 		call	thread_dispatch@plt
 121      E7800000 
 122              	.LVL10:
 123              	.LBE5:
  22:test/Threads_C_API_test.cpp ****             //Riscv::printString("A j : ");
 124              		.loc 1 22 9 is_stmt 1 discriminator 2
 125 009c 93841400 		addi	s1,s1,1
 126              	.LVL11:
 127              	.L12:
  22:test/Threads_C_API_test.cpp ****             //Riscv::printString("A j : ");
 128              		.loc 1 22 30 discriminator 1
 129 00a0 B7270000 		li	a5,8192
 130 00a4 9387F770 		addi	a5,a5,1807
 131 00a8 63EE9700 		bgtu	s1,a5,.L9
 132              	.LBB7:
 133              	.LBB6:
  25:test/Threads_C_API_test.cpp ****             thread_dispatch();
 134              		.loc 1 25 25 is_stmt 0
GAS LISTING /tmp/ccQ7I3Tg.s 			page 4


 135 00ac 13070000 		li	a4,0
 136              	.L11:
 137              	.LVL12:
  25:test/Threads_C_API_test.cpp ****             thread_dispatch();
 138              		.loc 1 25 34 is_stmt 1 discriminator 3
 139 00b0 B7770000 		li	a5,28672
 140 00b4 9387F752 		addi	a5,a5,1327
 141 00b8 E3EEE7FC 		bgtu	a4,a5,.L10
  25:test/Threads_C_API_test.cpp ****             thread_dispatch();
 142              		.loc 1 25 13 discriminator 2
 143 00bc 13071700 		addi	a4,a4,1
 144              	.LVL13:
 145 00c0 6FF01FFF 		j	.L11
 146              	.LVL14:
 147              	.L9:
 148              	.LBE6:
 149              	.LBE7:
 150              	.LBE4:
 151              	.LBE3:
  20:test/Threads_C_API_test.cpp ****         printString("A: i="); printInt(i); printString("\n");
 152              		.loc 1 20 5 discriminator 2
 153 00c4 13091900 		addi	s2,s2,1
 154              	.LVL15:
 155              	.L13:
  20:test/Threads_C_API_test.cpp ****         printString("A: i="); printInt(i); printString("\n");
 156              		.loc 1 20 26 discriminator 1
 157 00c8 93079000 		li	a5,9
 158 00cc 63E02705 		bgtu	s2,a5,.L8
 159              	.LBB9:
  21:test/Threads_C_API_test.cpp ****         for (uint64 j = 0; j < 10000; j++) {
 160              		.loc 1 21 9
  21:test/Threads_C_API_test.cpp ****         for (uint64 j = 0; j < 10000; j++) {
 161              		.loc 1 21 20 is_stmt 0
 162 00d0 17050000 		lla	a0,.LC0
 162      13050500 
 163 00d8 97000000 		call	_Z11printStringPKc@plt
 163      E7800000 
 164              	.LVL16:
  21:test/Threads_C_API_test.cpp ****         for (uint64 j = 0; j < 10000; j++) {
 165              		.loc 1 21 31 is_stmt 1
  21:test/Threads_C_API_test.cpp ****         for (uint64 j = 0; j < 10000; j++) {
 166              		.loc 1 21 39 is_stmt 0
 167 00e0 13060000 		li	a2,0
 168 00e4 9305A000 		li	a1,10
 169 00e8 1B050900 		sext.w	a0,s2
 170 00ec 97000000 		call	_Z8printIntiii@plt
 170      E7800000 
 171              	.LVL17:
  21:test/Threads_C_API_test.cpp ****         for (uint64 j = 0; j < 10000; j++) {
 172              		.loc 1 21 44 is_stmt 1
  21:test/Threads_C_API_test.cpp ****         for (uint64 j = 0; j < 10000; j++) {
 173              		.loc 1 21 55 is_stmt 0
 174 00f4 17050000 		lla	a0,.LC1
 174      13050500 
 175 00fc 97000000 		call	_Z11printStringPKc@plt
 175      E7800000 
 176              	.LVL18:
GAS LISTING /tmp/ccQ7I3Tg.s 			page 5


  22:test/Threads_C_API_test.cpp ****             //Riscv::printString("A j : ");
 177              		.loc 1 22 9 is_stmt 1
 178              	.LBB8:
  22:test/Threads_C_API_test.cpp ****             //Riscv::printString("A j : ");
 179              		.loc 1 22 21 is_stmt 0
 180 0104 93040000 		li	s1,0
 181 0108 6FF09FF9 		j	.L12
 182              	.LVL19:
 183              	.L8:
 184              	.LBE8:
 185              	.LBE9:
 186              	.LBE2:
  27:test/Threads_C_API_test.cpp ****         }
  28:test/Threads_C_API_test.cpp ****     }
  29:test/Threads_C_API_test.cpp ****     Riscv::printString("A finished!\n");
 187              		.loc 1 29 5 is_stmt 1
 188              		.loc 1 29 23 is_stmt 0
 189 010c 17050000 		lla	a0,.LC2
 189      13050500 
 190 0114 97000000 		call	_ZN5Riscv11printStringEPKc@plt
 190      E7800000 
 191              	.LVL20:
  30:test/Threads_C_API_test.cpp ****     finishedA = true;
 192              		.loc 1 30 5 is_stmt 1
 193              		.loc 1 30 15 is_stmt 0
 194 011c 93071000 		li	a5,1
 195 0120 17070000 		sb	a5,.LANCHOR0,a4
 195      2300F700 
  31:test/Threads_C_API_test.cpp **** }
 196              		.loc 1 31 1
 197 0128 83308101 		ld	ra,24(sp)
 198              		.cfi_restore 1
 199 012c 03340101 		ld	s0,16(sp)
 200              		.cfi_restore 8
 201              		.cfi_def_cfa 2, 32
 202 0130 83348100 		ld	s1,8(sp)
 203              		.cfi_restore 9
 204 0134 03390100 		ld	s2,0(sp)
 205              		.cfi_restore 18
 206              	.LVL21:
 207 0138 13010102 		addi	sp,sp,32
 208              		.cfi_def_cfa_offset 0
 209 013c 67800000 		jr	ra
 210              		.cfi_endproc
 211              	.LFE25:
 213              		.section	.rodata.str1.8
 214 001d 000000   		.align	3
 215              	.LC3:
 216 0020 423A2069 		.string	"B: i="
 216      3D00
 217 0026 0000     		.align	3
 218              	.LC4:
 219 0028 42206669 		.string	"B finished!\n"
 219      6E697368 
 219      6564210A 
 219      00
 220              		.text
GAS LISTING /tmp/ccQ7I3Tg.s 			page 6


 221              		.align	2
 222              		.globl	_Z11workerBodyBPv
 224              	_Z11workerBodyBPv:
 225              	.LFB26:
  32:test/Threads_C_API_test.cpp **** 
  33:test/Threads_C_API_test.cpp **** void workerBodyB(void* arg)
  34:test/Threads_C_API_test.cpp **** {
 226              		.loc 1 34 1 is_stmt 1
 227              		.cfi_startproc
 228              	.LVL22:
 229 0140 130101FE 		addi	sp,sp,-32
 230              		.cfi_def_cfa_offset 32
 231 0144 233C1100 		sd	ra,24(sp)
 232 0148 23388100 		sd	s0,16(sp)
 233 014c 23349100 		sd	s1,8(sp)
 234 0150 23302101 		sd	s2,0(sp)
 235              		.cfi_offset 1, -8
 236              		.cfi_offset 8, -16
 237              		.cfi_offset 9, -24
 238              		.cfi_offset 18, -32
 239 0154 13040102 		addi	s0,sp,32
 240              		.cfi_def_cfa 8, 0
  35:test/Threads_C_API_test.cpp ****     for (uint64 i = 0; i < 16; i++) {
 241              		.loc 1 35 5
 242              	.LVL23:
 243              	.LBB10:
 244              		.loc 1 35 17 is_stmt 0
 245 0158 13090000 		li	s2,0
 246 015c 6F004003 		j	.L21
 247              	.LVL24:
 248              	.L18:
 249              	.LBB11:
 250              	.LBB12:
 251              	.LBB13:
  36:test/Threads_C_API_test.cpp ****         printString("B: i="); printInt(i); printString("\n");
  37:test/Threads_C_API_test.cpp ****         for (uint64 j = 0; j < 10; j++) {
  38:test/Threads_C_API_test.cpp ****             //Riscv::printString("B j : ");
  39:test/Threads_C_API_test.cpp ****             //Riscv::printInteger(j);
  40:test/Threads_C_API_test.cpp ****             for (uint64 k = 0; k < 30000; k++) { /* busy wait */ }
  41:test/Threads_C_API_test.cpp ****             thread_dispatch();
 252              		.loc 1 41 13 is_stmt 1 discriminator 2
 253              		.loc 1 41 28 is_stmt 0 discriminator 2
 254 0160 97000000 		call	thread_dispatch@plt
 254      E7800000 
 255              	.LVL25:
 256              	.LBE13:
  37:test/Threads_C_API_test.cpp ****             //Riscv::printString("B j : ");
 257              		.loc 1 37 9 is_stmt 1 discriminator 2
 258 0168 93841400 		addi	s1,s1,1
 259              	.LVL26:
 260              	.L20:
  37:test/Threads_C_API_test.cpp ****             //Riscv::printString("B j : ");
 261              		.loc 1 37 30 discriminator 1
 262 016c 93079000 		li	a5,9
 263 0170 63EE9700 		bgtu	s1,a5,.L17
 264              	.LBB15:
 265              	.LBB14:
GAS LISTING /tmp/ccQ7I3Tg.s 			page 7


  40:test/Threads_C_API_test.cpp ****             thread_dispatch();
 266              		.loc 1 40 25 is_stmt 0
 267 0174 13070000 		li	a4,0
 268              	.L19:
 269              	.LVL27:
  40:test/Threads_C_API_test.cpp ****             thread_dispatch();
 270              		.loc 1 40 34 is_stmt 1 discriminator 3
 271 0178 B7770000 		li	a5,28672
 272 017c 9387F752 		addi	a5,a5,1327
 273 0180 E3E0E7FE 		bgtu	a4,a5,.L18
  40:test/Threads_C_API_test.cpp ****             thread_dispatch();
 274              		.loc 1 40 13 discriminator 2
 275 0184 13071700 		addi	a4,a4,1
 276              	.LVL28:
 277 0188 6FF01FFF 		j	.L19
 278              	.LVL29:
 279              	.L17:
 280              	.LBE14:
 281              	.LBE15:
 282              	.LBE12:
 283              	.LBE11:
  35:test/Threads_C_API_test.cpp ****         printString("B: i="); printInt(i); printString("\n");
 284              		.loc 1 35 5 discriminator 2
 285 018c 13091900 		addi	s2,s2,1
 286              	.LVL30:
 287              	.L21:
  35:test/Threads_C_API_test.cpp ****         printString("B: i="); printInt(i); printString("\n");
 288              		.loc 1 35 26 discriminator 1
 289 0190 9307F000 		li	a5,15
 290 0194 63E02705 		bgtu	s2,a5,.L16
 291              	.LBB17:
  36:test/Threads_C_API_test.cpp ****         for (uint64 j = 0; j < 10; j++) {
 292              		.loc 1 36 9
  36:test/Threads_C_API_test.cpp ****         for (uint64 j = 0; j < 10; j++) {
 293              		.loc 1 36 20 is_stmt 0
 294 0198 17050000 		lla	a0,.LC3
 294      13050500 
 295 01a0 97000000 		call	_Z11printStringPKc@plt
 295      E7800000 
 296              	.LVL31:
  36:test/Threads_C_API_test.cpp ****         for (uint64 j = 0; j < 10; j++) {
 297              		.loc 1 36 31 is_stmt 1
  36:test/Threads_C_API_test.cpp ****         for (uint64 j = 0; j < 10; j++) {
 298              		.loc 1 36 39 is_stmt 0
 299 01a8 13060000 		li	a2,0
 300 01ac 9305A000 		li	a1,10
 301 01b0 1B050900 		sext.w	a0,s2
 302 01b4 97000000 		call	_Z8printIntiii@plt
 302      E7800000 
 303              	.LVL32:
  36:test/Threads_C_API_test.cpp ****         for (uint64 j = 0; j < 10; j++) {
 304              		.loc 1 36 44 is_stmt 1
  36:test/Threads_C_API_test.cpp ****         for (uint64 j = 0; j < 10; j++) {
 305              		.loc 1 36 55 is_stmt 0
 306 01bc 17050000 		lla	a0,.LC1
 306      13050500 
 307 01c4 97000000 		call	_Z11printStringPKc@plt
GAS LISTING /tmp/ccQ7I3Tg.s 			page 8


 307      E7800000 
 308              	.LVL33:
  37:test/Threads_C_API_test.cpp ****             //Riscv::printString("B j : ");
 309              		.loc 1 37 9 is_stmt 1
 310              	.LBB16:
  37:test/Threads_C_API_test.cpp ****             //Riscv::printString("B j : ");
 311              		.loc 1 37 21 is_stmt 0
 312 01cc 93040000 		li	s1,0
 313 01d0 6FF0DFF9 		j	.L20
 314              	.LVL34:
 315              	.L16:
 316              	.LBE16:
 317              	.LBE17:
 318              	.LBE10:
  42:test/Threads_C_API_test.cpp ****         }
  43:test/Threads_C_API_test.cpp ****     }
  44:test/Threads_C_API_test.cpp ****     thread_dispatch();
 319              		.loc 1 44 5 is_stmt 1
 320              		.loc 1 44 20 is_stmt 0
 321 01d4 97000000 		call	thread_dispatch@plt
 321      E7800000 
 322              	.LVL35:
  45:test/Threads_C_API_test.cpp ****     Riscv::printString("B finished!\n");
 323              		.loc 1 45 5 is_stmt 1
 324              		.loc 1 45 23 is_stmt 0
 325 01dc 17050000 		lla	a0,.LC4
 325      13050500 
 326 01e4 97000000 		call	_ZN5Riscv11printStringEPKc@plt
 326      E7800000 
 327              	.LVL36:
  46:test/Threads_C_API_test.cpp ****     finishedB = true;
 328              		.loc 1 46 5 is_stmt 1
  47:test/Threads_C_API_test.cpp **** }
 329              		.loc 1 47 1 is_stmt 0
 330 01ec 83308101 		ld	ra,24(sp)
 331              		.cfi_restore 1
 332 01f0 03340101 		ld	s0,16(sp)
 333              		.cfi_restore 8
 334              		.cfi_def_cfa 2, 32
 335 01f4 83348100 		ld	s1,8(sp)
 336              		.cfi_restore 9
 337 01f8 03390100 		ld	s2,0(sp)
 338              		.cfi_restore 18
 339              	.LVL37:
 340 01fc 13010102 		addi	sp,sp,32
 341              		.cfi_def_cfa_offset 0
 342 0200 67800000 		jr	ra
 343              		.cfi_endproc
 344              	.LFE26:
 346              		.section	.rodata.str1.8
 347 0035 000000   		.align	3
 348              	.LC5:
 349 0038 433A2069 		.string	"C: i="
 349      3D00
 350 003e 0000     		.align	3
 351              	.LC6:
 352 0040 433A2064 		.string	"C: dispatch\n"
GAS LISTING /tmp/ccQ7I3Tg.s 			page 9


 352      69737061 
 352      7463680A 
 352      00
 353 004d 000000   		.align	3
 354              	.LC7:
 355 0050 433A2072 		.string	"C: returned\n"
 355      65747572 
 355      6E65640A 
 355      00
 356 005d 000000   		.align	3
 357              	.LC8:
 358 0060 433A2074 		.string	"C: t1="
 358      313D00
 359 0067 00       		.align	3
 360              	.LC9:
 361 0068 433A2066 		.string	"C: fibonaci="
 361      69626F6E 
 361      6163693D 
 361      00
 362 0075 000000   		.align	3
 363              	.LC10:
 364 0078 43206669 		.string	"C finished!\n"
 364      6E697368 
 364      6564210A 
 364      00
 365              		.text
 366              		.align	2
 367              		.globl	_Z11workerBodyCPv
 369              	_Z11workerBodyCPv:
 370              	.LFB27:
  48:test/Threads_C_API_test.cpp **** 
  49:test/Threads_C_API_test.cpp **** void workerBodyC(void* arg) {
 371              		.loc 1 49 29 is_stmt 1
 372              		.cfi_startproc
 373              	.LVL38:
 374 0204 130101FE 		addi	sp,sp,-32
 375              		.cfi_def_cfa_offset 32
 376 0208 233C1100 		sd	ra,24(sp)
 377 020c 23388100 		sd	s0,16(sp)
 378 0210 23349100 		sd	s1,8(sp)
 379 0214 23302101 		sd	s2,0(sp)
 380              		.cfi_offset 1, -8
 381              		.cfi_offset 8, -16
 382              		.cfi_offset 9, -24
 383              		.cfi_offset 18, -32
 384 0218 13040102 		addi	s0,sp,32
 385              		.cfi_def_cfa 8, 0
  50:test/Threads_C_API_test.cpp ****     uint8 i = 0;
 386              		.loc 1 50 5
 387              	.LVL39:
 388              		.loc 1 50 11 is_stmt 0
 389 021c 93040000 		li	s1,0
 390 0220 6F000004 		j	.L25
 391              	.LVL40:
 392              	.L29:
  51:test/Threads_C_API_test.cpp ****     for (; i < 3; i++) {
  52:test/Threads_C_API_test.cpp ****         printString("C: i="); printInt(i); printString("\n");
GAS LISTING /tmp/ccQ7I3Tg.s 			page 10


 393              		.loc 1 52 9 is_stmt 1 discriminator 1
 394              		.loc 1 52 20 is_stmt 0 discriminator 1
 395 0224 17050000 		lla	a0,.LC5
 395      13050500 
 396 022c 97000000 		call	_Z11printStringPKc@plt
 396      E7800000 
 397              	.LVL41:
 398              		.loc 1 52 31 is_stmt 1 discriminator 1
 399              		.loc 1 52 39 is_stmt 0 discriminator 1
 400 0234 13060000 		li	a2,0
 401 0238 9305A000 		li	a1,10
 402 023c 13850400 		mv	a0,s1
 403 0240 97000000 		call	_Z8printIntiii@plt
 403      E7800000 
 404              	.LVL42:
 405              		.loc 1 52 44 is_stmt 1 discriminator 1
 406              		.loc 1 52 55 is_stmt 0 discriminator 1
 407 0248 17050000 		lla	a0,.LC1
 407      13050500 
 408 0250 97000000 		call	_Z11printStringPKc@plt
 408      E7800000 
 409              	.LVL43:
  51:test/Threads_C_API_test.cpp ****     for (; i < 3; i++) {
 410              		.loc 1 51 5 is_stmt 1 discriminator 1
 411 0258 9B841400 		addiw	s1,s1,1
 412              	.LVL44:
 413 025c 93F4F40F 		andi	s1,s1,0xff
 414              	.LVL45:
 415              	.L25:
  51:test/Threads_C_API_test.cpp ****     for (; i < 3; i++) {
 416              		.loc 1 51 5 discriminator 2
  51:test/Threads_C_API_test.cpp ****     for (; i < 3; i++) {
 417              		.loc 1 51 14 discriminator 2
 418 0260 93072000 		li	a5,2
 419 0264 E3F097FC 		bleu	s1,a5,.L29
  53:test/Threads_C_API_test.cpp ****     }
  54:test/Threads_C_API_test.cpp **** 
  55:test/Threads_C_API_test.cpp ****     printString("C: dispatch\n");
 420              		.loc 1 55 5
 421              		.loc 1 55 16 is_stmt 0
 422 0268 17050000 		lla	a0,.LC6
 422      13050500 
 423 0270 97000000 		call	_Z11printStringPKc@plt
 423      E7800000 
 424              	.LVL46:
  56:test/Threads_C_API_test.cpp ****     __asm__ ("li t1, 7");
 425              		.loc 1 56 5 is_stmt 1
 426              		.loc 1 56 25 is_stmt 0
 427              	#APP
 428              	# 56 "test/Threads_C_API_test.cpp" 1
  57              	    thread_dispatch();
 429              		li t1, 7
 430              	# 0 "" 2
 431              		.loc 1 57 5 is_stmt 1
 432              		.loc 1 57 20 is_stmt 0
 433              	#NO_APP
 434 027c 97000000 		call	thread_dispatch@plt
GAS LISTING /tmp/ccQ7I3Tg.s 			page 11


 434      E7800000 
 435              	.LVL47:
  58:test/Threads_C_API_test.cpp ****     printString("C: returned\n");
 436              		.loc 1 58 5 is_stmt 1
 437              		.loc 1 58 16 is_stmt 0
 438 0284 17050000 		lla	a0,.LC7
 438      13050500 
 439 028c 97000000 		call	_Z11printStringPKc@plt
 439      E7800000 
 440              	.LVL48:
  59:test/Threads_C_API_test.cpp ****     uint64 t1 = 0;
 441              		.loc 1 59 5 is_stmt 1
  60:test/Threads_C_API_test.cpp ****     __asm__ ("mv %[t1], t1" : [t1] "=r"(t1));
 442              		.loc 1 60 5
 443              		.loc 1 60 45 is_stmt 0
 444              	#APP
 445              	# 60 "test/Threads_C_API_test.cpp" 1
  61              	
 446              		mv s2, t1
 447              	# 0 "" 2
 448              	.LVL49:
  62:test/Threads_C_API_test.cpp ****     printString("C: t1="); printInt(t1); printString("\n");
 449              		.loc 1 62 5 is_stmt 1
 450              		.loc 1 62 16 is_stmt 0
 451              	#NO_APP
 452 0298 17050000 		lla	a0,.LC8
 452      13050500 
 453 02a0 97000000 		call	_Z11printStringPKc@plt
 453      E7800000 
 454              	.LVL50:
 455              		.loc 1 62 28 is_stmt 1
 456              		.loc 1 62 36 is_stmt 0
 457 02a8 13060000 		li	a2,0
 458 02ac 9305A000 		li	a1,10
 459 02b0 1B050900 		sext.w	a0,s2
 460 02b4 97000000 		call	_Z8printIntiii@plt
 460      E7800000 
 461              	.LVL51:
 462              		.loc 1 62 42 is_stmt 1
 463              		.loc 1 62 53 is_stmt 0
 464 02bc 17050000 		lla	a0,.LC1
 464      13050500 
 465 02c4 97000000 		call	_Z11printStringPKc@plt
 465      E7800000 
 466              	.LVL52:
  63:test/Threads_C_API_test.cpp **** 
  64:test/Threads_C_API_test.cpp ****     uint64 result = fibonacci(12);
 467              		.loc 1 64 5 is_stmt 1
 468              		.loc 1 64 30 is_stmt 0
 469 02cc 1305C000 		li	a0,12
 470 02d0 97000000 		call	_ZL9fibonaccim
 470      E7800000 
 471              	.LVL53:
 472 02d8 13090500 		mv	s2,a0
 473              	.LVL54:
  65:test/Threads_C_API_test.cpp ****     printString("C: fibonaci="); printInt(result); printString("\n");
 474              		.loc 1 65 5 is_stmt 1
GAS LISTING /tmp/ccQ7I3Tg.s 			page 12


 475              		.loc 1 65 16 is_stmt 0
 476 02dc 17050000 		lla	a0,.LC9
 476      13050500 
 477              	.LVL55:
 478 02e4 97000000 		call	_Z11printStringPKc@plt
 478      E7800000 
 479              	.LVL56:
 480              		.loc 1 65 34 is_stmt 1
 481              		.loc 1 65 42 is_stmt 0
 482 02ec 13060000 		li	a2,0
 483 02f0 9305A000 		li	a1,10
 484 02f4 1B050900 		sext.w	a0,s2
 485 02f8 97000000 		call	_Z8printIntiii@plt
 485      E7800000 
 486              	.LVL57:
 487              		.loc 1 65 52 is_stmt 1
 488              		.loc 1 65 63 is_stmt 0
 489 0300 17050000 		lla	a0,.LC1
 489      13050500 
 490 0308 97000000 		call	_Z11printStringPKc@plt
 490      E7800000 
 491              	.LVL58:
 492 0310 6F000004 		j	.L27
 493              	.L30:
  66:test/Threads_C_API_test.cpp **** 
  67:test/Threads_C_API_test.cpp ****     for (; i < 6; i++) {
  68:test/Threads_C_API_test.cpp ****         printString("C: i="); printInt(i); printString("\n");
 494              		.loc 1 68 9 is_stmt 1 discriminator 1
 495              		.loc 1 68 20 is_stmt 0 discriminator 1
 496 0314 17050000 		lla	a0,.LC5
 496      13050500 
 497 031c 97000000 		call	_Z11printStringPKc@plt
 497      E7800000 
 498              	.LVL59:
 499              		.loc 1 68 31 is_stmt 1 discriminator 1
 500              		.loc 1 68 39 is_stmt 0 discriminator 1
 501 0324 13060000 		li	a2,0
 502 0328 9305A000 		li	a1,10
 503 032c 13850400 		mv	a0,s1
 504 0330 97000000 		call	_Z8printIntiii@plt
 504      E7800000 
 505              	.LVL60:
 506              		.loc 1 68 44 is_stmt 1 discriminator 1
 507              		.loc 1 68 55 is_stmt 0 discriminator 1
 508 0338 17050000 		lla	a0,.LC1
 508      13050500 
 509 0340 97000000 		call	_Z11printStringPKc@plt
 509      E7800000 
 510              	.LVL61:
  67:test/Threads_C_API_test.cpp ****         printString("C: i="); printInt(i); printString("\n");
 511              		.loc 1 67 5 is_stmt 1 discriminator 1
 512 0348 9B841400 		addiw	s1,s1,1
 513              	.LVL62:
 514 034c 93F4F40F 		andi	s1,s1,0xff
 515              	.LVL63:
 516              	.L27:
  67:test/Threads_C_API_test.cpp ****         printString("C: i="); printInt(i); printString("\n");
GAS LISTING /tmp/ccQ7I3Tg.s 			page 13


 517              		.loc 1 67 5 discriminator 2
  67:test/Threads_C_API_test.cpp ****         printString("C: i="); printInt(i); printString("\n");
 518              		.loc 1 67 14 discriminator 2
 519 0350 93075000 		li	a5,5
 520 0354 E3F097FC 		bleu	s1,a5,.L30
  69:test/Threads_C_API_test.cpp ****     }
  70:test/Threads_C_API_test.cpp **** 
  71:test/Threads_C_API_test.cpp ****     thread_dispatch();
 521              		.loc 1 71 5
 522              		.loc 1 71 20 is_stmt 0
 523 0358 97000000 		call	thread_dispatch@plt
 523      E7800000 
 524              	.LVL64:
  72:test/Threads_C_API_test.cpp ****     printString("C finished!\n");
 525              		.loc 1 72 5 is_stmt 1
 526              		.loc 1 72 16 is_stmt 0
 527 0360 17050000 		lla	a0,.LC10
 527      13050500 
 528 0368 97000000 		call	_Z11printStringPKc@plt
 528      E7800000 
 529              	.LVL65:
  73:test/Threads_C_API_test.cpp ****     finishedC = true;
 530              		.loc 1 73 5 is_stmt 1
  74:test/Threads_C_API_test.cpp **** }
 531              		.loc 1 74 1 is_stmt 0
 532 0370 83308101 		ld	ra,24(sp)
 533              		.cfi_restore 1
 534 0374 03340101 		ld	s0,16(sp)
 535              		.cfi_restore 8
 536              		.cfi_def_cfa 2, 32
 537 0378 83348100 		ld	s1,8(sp)
 538              		.cfi_restore 9
 539              	.LVL66:
 540 037c 03390100 		ld	s2,0(sp)
 541              		.cfi_restore 18
 542              	.LVL67:
 543 0380 13010102 		addi	sp,sp,32
 544              		.cfi_def_cfa_offset 0
 545 0384 67800000 		jr	ra
 546              		.cfi_endproc
 547              	.LFE27:
 549              		.section	.rodata.str1.8
 550 0085 000000   		.align	3
 551              	.LC11:
 552 0088 443A2069 		.string	"D: i="
 552      3D00
 553 008e 0000     		.align	3
 554              	.LC12:
 555 0090 443A2064 		.string	"D: dispatch\n"
 555      69737061 
 555      7463680A 
 555      00
 556 009d 000000   		.align	3
 557              	.LC13:
 558 00a0 443A2072 		.string	"D: returned\n"
 558      65747572 
 558      6E65640A 
GAS LISTING /tmp/ccQ7I3Tg.s 			page 14


 558      00
 559 00ad 000000   		.align	3
 560              	.LC14:
 561 00b0 443A2066 		.string	"D: fibonaci="
 561      69626F6E 
 561      6163693D 
 561      00
 562 00bd 000000   		.align	3
 563              	.LC15:
 564 00c0 44206669 		.string	"D finished!\n"
 564      6E697368 
 564      6564210A 
 564      00
 565              		.text
 566              		.align	2
 567              		.globl	_Z11workerBodyDPv
 569              	_Z11workerBodyDPv:
 570              	.LFB28:
  75:test/Threads_C_API_test.cpp **** 
  76:test/Threads_C_API_test.cpp **** void workerBodyD(void* arg) {
 571              		.loc 1 76 29 is_stmt 1
 572              		.cfi_startproc
 573              	.LVL68:
 574 0388 130101FE 		addi	sp,sp,-32
 575              		.cfi_def_cfa_offset 32
 576 038c 233C1100 		sd	ra,24(sp)
 577 0390 23388100 		sd	s0,16(sp)
 578 0394 23349100 		sd	s1,8(sp)
 579 0398 23302101 		sd	s2,0(sp)
 580              		.cfi_offset 1, -8
 581              		.cfi_offset 8, -16
 582              		.cfi_offset 9, -24
 583              		.cfi_offset 18, -32
 584 039c 13040102 		addi	s0,sp,32
 585              		.cfi_def_cfa 8, 0
  77:test/Threads_C_API_test.cpp ****     uint8 i = 10;
 586              		.loc 1 77 5
 587              	.LVL69:
 588              		.loc 1 77 11 is_stmt 0
 589 03a0 9304A000 		li	s1,10
 590 03a4 6F000004 		j	.L33
 591              	.LVL70:
 592              	.L37:
  78:test/Threads_C_API_test.cpp ****     for (; i < 13; i++) {
  79:test/Threads_C_API_test.cpp ****         printString("D: i="); printInt(i); printString("\n");
 593              		.loc 1 79 9 is_stmt 1 discriminator 1
 594              		.loc 1 79 20 is_stmt 0 discriminator 1
 595 03a8 17050000 		lla	a0,.LC11
 595      13050500 
 596 03b0 97000000 		call	_Z11printStringPKc@plt
 596      E7800000 
 597              	.LVL71:
 598              		.loc 1 79 31 is_stmt 1 discriminator 1
 599              		.loc 1 79 39 is_stmt 0 discriminator 1
 600 03b8 13060000 		li	a2,0
 601 03bc 9305A000 		li	a1,10
 602 03c0 13850400 		mv	a0,s1
GAS LISTING /tmp/ccQ7I3Tg.s 			page 15


 603 03c4 97000000 		call	_Z8printIntiii@plt
 603      E7800000 
 604              	.LVL72:
 605              		.loc 1 79 44 is_stmt 1 discriminator 1
 606              		.loc 1 79 55 is_stmt 0 discriminator 1
 607 03cc 17050000 		lla	a0,.LC1
 607      13050500 
 608 03d4 97000000 		call	_Z11printStringPKc@plt
 608      E7800000 
 609              	.LVL73:
  78:test/Threads_C_API_test.cpp ****     for (; i < 13; i++) {
 610              		.loc 1 78 5 is_stmt 1 discriminator 1
 611 03dc 9B841400 		addiw	s1,s1,1
 612              	.LVL74:
 613 03e0 93F4F40F 		andi	s1,s1,0xff
 614              	.LVL75:
 615              	.L33:
  78:test/Threads_C_API_test.cpp ****     for (; i < 13; i++) {
 616              		.loc 1 78 5 discriminator 2
  78:test/Threads_C_API_test.cpp ****     for (; i < 13; i++) {
 617              		.loc 1 78 14 discriminator 2
 618 03e4 9307C000 		li	a5,12
 619 03e8 E3F097FC 		bleu	s1,a5,.L37
  80:test/Threads_C_API_test.cpp ****     }
  81:test/Threads_C_API_test.cpp **** 
  82:test/Threads_C_API_test.cpp ****     printString("D: dispatch\n");
 620              		.loc 1 82 5
 621              		.loc 1 82 16 is_stmt 0
 622 03ec 17050000 		lla	a0,.LC12
 622      13050500 
 623 03f4 97000000 		call	_Z11printStringPKc@plt
 623      E7800000 
 624              	.LVL76:
  83:test/Threads_C_API_test.cpp ****     __asm__ ("li t1, 5");
 625              		.loc 1 83 5 is_stmt 1
 626              		.loc 1 83 25 is_stmt 0
 627              	#APP
 628              	# 83 "test/Threads_C_API_test.cpp" 1
  84              	    thread_dispatch();
 629              		li t1, 5
 630              	# 0 "" 2
 631              		.loc 1 84 5 is_stmt 1
 632              		.loc 1 84 20 is_stmt 0
 633              	#NO_APP
 634 0400 97000000 		call	thread_dispatch@plt
 634      E7800000 
 635              	.LVL77:
  85:test/Threads_C_API_test.cpp ****     printString("D: returned\n");
 636              		.loc 1 85 5 is_stmt 1
 637              		.loc 1 85 16 is_stmt 0
 638 0408 17050000 		lla	a0,.LC13
 638      13050500 
 639 0410 97000000 		call	_Z11printStringPKc@plt
 639      E7800000 
 640              	.LVL78:
  86:test/Threads_C_API_test.cpp ****     uint64 result = fibonacci(16);
 641              		.loc 1 86 5 is_stmt 1
GAS LISTING /tmp/ccQ7I3Tg.s 			page 16


 642              		.loc 1 86 30 is_stmt 0
 643 0418 13050001 		li	a0,16
 644 041c 97000000 		call	_ZL9fibonaccim
 644      E7800000 
 645              	.LVL79:
 646 0424 13090500 		mv	s2,a0
 647              	.LVL80:
  87:test/Threads_C_API_test.cpp ****     printString("D: fibonaci="); printInt(result); printString("\n");
 648              		.loc 1 87 5 is_stmt 1
 649              		.loc 1 87 16 is_stmt 0
 650 0428 17050000 		lla	a0,.LC14
 650      13050500 
 651              	.LVL81:
 652 0430 97000000 		call	_Z11printStringPKc@plt
 652      E7800000 
 653              	.LVL82:
 654              		.loc 1 87 34 is_stmt 1
 655              		.loc 1 87 42 is_stmt 0
 656 0438 13060000 		li	a2,0
 657 043c 9305A000 		li	a1,10
 658 0440 1B050900 		sext.w	a0,s2
 659 0444 97000000 		call	_Z8printIntiii@plt
 659      E7800000 
 660              	.LVL83:
 661              		.loc 1 87 52 is_stmt 1
 662              		.loc 1 87 63 is_stmt 0
 663 044c 17050000 		lla	a0,.LC1
 663      13050500 
 664 0454 97000000 		call	_Z11printStringPKc@plt
 664      E7800000 
 665              	.LVL84:
 666 045c 6F000004 		j	.L35
 667              	.L38:
  88:test/Threads_C_API_test.cpp **** 
  89:test/Threads_C_API_test.cpp ****     for (; i < 16; i++) {
  90:test/Threads_C_API_test.cpp ****         printString("D: i="); printInt(i); printString("\n");
 668              		.loc 1 90 9 is_stmt 1 discriminator 1
 669              		.loc 1 90 20 is_stmt 0 discriminator 1
 670 0460 17050000 		lla	a0,.LC11
 670      13050500 
 671 0468 97000000 		call	_Z11printStringPKc@plt
 671      E7800000 
 672              	.LVL85:
 673              		.loc 1 90 31 is_stmt 1 discriminator 1
 674              		.loc 1 90 39 is_stmt 0 discriminator 1
 675 0470 13060000 		li	a2,0
 676 0474 9305A000 		li	a1,10
 677 0478 13850400 		mv	a0,s1
 678 047c 97000000 		call	_Z8printIntiii@plt
 678      E7800000 
 679              	.LVL86:
 680              		.loc 1 90 44 is_stmt 1 discriminator 1
 681              		.loc 1 90 55 is_stmt 0 discriminator 1
 682 0484 17050000 		lla	a0,.LC1
 682      13050500 
 683 048c 97000000 		call	_Z11printStringPKc@plt
 683      E7800000 
GAS LISTING /tmp/ccQ7I3Tg.s 			page 17


 684              	.LVL87:
  89:test/Threads_C_API_test.cpp ****         printString("D: i="); printInt(i); printString("\n");
 685              		.loc 1 89 5 is_stmt 1 discriminator 1
 686 0494 9B841400 		addiw	s1,s1,1
 687              	.LVL88:
 688 0498 93F4F40F 		andi	s1,s1,0xff
 689              	.LVL89:
 690              	.L35:
  89:test/Threads_C_API_test.cpp ****         printString("D: i="); printInt(i); printString("\n");
 691              		.loc 1 89 5 discriminator 2
  89:test/Threads_C_API_test.cpp ****         printString("D: i="); printInt(i); printString("\n");
 692              		.loc 1 89 14 discriminator 2
 693 049c 9307F000 		li	a5,15
 694 04a0 E3F097FC 		bleu	s1,a5,.L38
  91:test/Threads_C_API_test.cpp ****     }
  92:test/Threads_C_API_test.cpp **** 
  93:test/Threads_C_API_test.cpp ****     thread_dispatch();
 695              		.loc 1 93 5
 696              		.loc 1 93 20 is_stmt 0
 697 04a4 97000000 		call	thread_dispatch@plt
 697      E7800000 
 698              	.LVL90:
  94:test/Threads_C_API_test.cpp ****     printString("D finished!\n");
 699              		.loc 1 94 5 is_stmt 1
 700              		.loc 1 94 16 is_stmt 0
 701 04ac 17050000 		lla	a0,.LC15
 701      13050500 
 702 04b4 97000000 		call	_Z11printStringPKc@plt
 702      E7800000 
 703              	.LVL91:
  95:test/Threads_C_API_test.cpp ****     finishedD = true;
 704              		.loc 1 95 5 is_stmt 1
  96:test/Threads_C_API_test.cpp **** }
 705              		.loc 1 96 1 is_stmt 0
 706 04bc 83308101 		ld	ra,24(sp)
 707              		.cfi_restore 1
 708 04c0 03340101 		ld	s0,16(sp)
 709              		.cfi_restore 8
 710              		.cfi_def_cfa 2, 32
 711 04c4 83348100 		ld	s1,8(sp)
 712              		.cfi_restore 9
 713              	.LVL92:
 714 04c8 03390100 		ld	s2,0(sp)
 715              		.cfi_restore 18
 716              	.LVL93:
 717 04cc 13010102 		addi	sp,sp,32
 718              		.cfi_def_cfa_offset 0
 719 04d0 67800000 		jr	ra
 720              		.cfi_endproc
 721              	.LFE28:
 723              		.section	.rodata.str1.8
 724 00cd 000000   		.align	3
 725              	.LC16:
 726 00d0 54687265 		.string	"ThreadA created\n"
 726      61644120 
 726      63726561 
 726      7465640A 
GAS LISTING /tmp/ccQ7I3Tg.s 			page 18


 726      00
 727 00e1 00000000 		.align	3
 727      000000
 728              	.LC17:
 729 00e8 54687265 		.string	"ThreadB created\n"
 729      61644220 
 729      63726561 
 729      7465640A 
 729      00
 730 00f9 00000000 		.align	3
 730      000000
 731              	.LC18:
 732 0100 54687265 		.string	"ThreadC created\n"
 732      61644320 
 732      63726561 
 732      7465640A 
 732      00
 733 0111 00000000 		.align	3
 733      000000
 734              	.LC19:
 735 0118 54687265 		.string	"ThreadD created\n"
 735      61644420 
 735      63726561 
 735      7465640A 
 735      00
 736              		.text
 737              		.align	2
 738              		.globl	_Z18Threads_C_API_testv
 740              	_Z18Threads_C_API_testv:
 741              	.LFB29:
  97:test/Threads_C_API_test.cpp **** 
  98:test/Threads_C_API_test.cpp **** 
  99:test/Threads_C_API_test.cpp **** void Threads_C_API_test()
 100:test/Threads_C_API_test.cpp **** {
 742              		.loc 1 100 1 is_stmt 1
 743              		.cfi_startproc
 744 04d4 130101FC 		addi	sp,sp,-64
 745              		.cfi_def_cfa_offset 64
 746 04d8 233C1102 		sd	ra,56(sp)
 747 04dc 23388102 		sd	s0,48(sp)
 748 04e0 23349102 		sd	s1,40(sp)
 749              		.cfi_offset 1, -8
 750              		.cfi_offset 8, -16
 751              		.cfi_offset 9, -24
 752 04e4 13040104 		addi	s0,sp,64
 753              		.cfi_def_cfa 8, 0
 101:test/Threads_C_API_test.cpp ****     thread_t threads[4];
 754              		.loc 1 101 5
 102:test/Threads_C_API_test.cpp ****     thread_create(&threads[0], workerBodyA, nullptr);
 755              		.loc 1 102 5
 756              		.loc 1 102 18 is_stmt 0
 757 04e8 13060000 		li	a2,0
 758 04ec 97050000 		lla	a1,_Z11workerBodyAPv
 758      93850500 
 759 04f4 130504FC 		addi	a0,s0,-64
 760 04f8 97000000 		call	thread_create@plt
 760      E7800000 
GAS LISTING /tmp/ccQ7I3Tg.s 			page 19


 761              	.LVL94:
 103:test/Threads_C_API_test.cpp ****     printString("ThreadA created\n");
 762              		.loc 1 103 5 is_stmt 1
 763              		.loc 1 103 16 is_stmt 0
 764 0500 17050000 		lla	a0,.LC16
 764      13050500 
 765 0508 97000000 		call	_Z11printStringPKc@plt
 765      E7800000 
 766              	.LVL95:
 104:test/Threads_C_API_test.cpp **** 
 105:test/Threads_C_API_test.cpp ****     //thread_create(&threads[1], workerBodyB, nullptr);
 106:test/Threads_C_API_test.cpp ****     printString("ThreadB created\n");
 767              		.loc 1 106 5 is_stmt 1
 768              		.loc 1 106 16 is_stmt 0
 769 0510 17050000 		lla	a0,.LC17
 769      13050500 
 770 0518 97000000 		call	_Z11printStringPKc@plt
 770      E7800000 
 771              	.LVL96:
 107:test/Threads_C_API_test.cpp **** 
 108:test/Threads_C_API_test.cpp ****     //thread_create(&threads[2], workerBodyC, nullptr);
 109:test/Threads_C_API_test.cpp ****     printString("ThreadC created\n");
 772              		.loc 1 109 5 is_stmt 1
 773              		.loc 1 109 16 is_stmt 0
 774 0520 17050000 		lla	a0,.LC18
 774      13050500 
 775 0528 97000000 		call	_Z11printStringPKc@plt
 775      E7800000 
 776              	.LVL97:
 110:test/Threads_C_API_test.cpp **** 
 111:test/Threads_C_API_test.cpp ****     //thread_create(&threads[3], workerBodyD, nullptr);
 112:test/Threads_C_API_test.cpp ****     printString("ThreadD created\n");
 777              		.loc 1 112 5 is_stmt 1
 778              		.loc 1 112 16 is_stmt 0
 779 0530 17050000 		lla	a0,.LC19
 779      13050500 
 780 0538 97000000 		call	_Z11printStringPKc@plt
 780      E7800000 
 781              	.LVL98:
 782              	.L41:
 113:test/Threads_C_API_test.cpp **** 
 114:test/Threads_C_API_test.cpp ****     while (!finishedA) {
 783              		.loc 1 114 5 is_stmt 1
 784              		.loc 1 114 12
 785 0540 97070000 		lbu	a5,.LANCHOR0
 785      83C70700 
 786 0548 63980700 		bnez	a5,.L44
 115:test/Threads_C_API_test.cpp ****         //printString("Main thread\n");
 116:test/Threads_C_API_test.cpp ****         thread_dispatch();
 787              		.loc 1 116 9
 788              		.loc 1 116 24 is_stmt 0
 789 054c 97000000 		call	thread_dispatch@plt
 789      E7800000 
 790              	.LVL99:
 791 0554 6FF0DFFE 		j	.L41
 792              	.L44:
 793              	.LBB18:
GAS LISTING /tmp/ccQ7I3Tg.s 			page 20


 117:test/Threads_C_API_test.cpp ****     }
 118:test/Threads_C_API_test.cpp ****     for (auto &thread: threads)
 794              		.loc 1 118 24
 795 0558 930404FC 		addi	s1,s0,-64
 796 055c 6F008000 		j	.L40
 797              	.LVL100:
 798              	.L43:
 799              		.loc 1 118 5 is_stmt 1 discriminator 3
 800 0560 93848400 		addi	s1,s1,8
 801              	.LVL101:
 802              	.L40:
 803              		.loc 1 118 24 discriminator 1
 804 0564 930704FE 		addi	a5,s0,-32
 805 0568 638CF400 		beq	s1,a5,.L39
 806              	.LVL102:
 119:test/Threads_C_API_test.cpp ****     {
 120:test/Threads_C_API_test.cpp ****         //todo
 121:test/Threads_C_API_test.cpp ****         //in order to syscall.c to stay .c it gotta be converted
 122:test/Threads_C_API_test.cpp ****         delete (uint64*)thread;
 807              		.loc 1 122 9 discriminator 2
 808              		.loc 1 122 16 is_stmt 0 discriminator 2
 809 056c 03B50400 		ld	a0,0(s1)
 810              		.loc 1 122 31 discriminator 2
 811 0570 E30805FE 		beqz	a0,.L43
 812              		.loc 1 122 25 discriminator 1
 813 0574 97000000 		call	_ZdlPv@plt
 813      E7800000 
 814              	.LVL103:
 815 057c 6FF05FFE 		j	.L43
 816              	.LVL104:
 817              	.L39:
 818              	.LBE18:
 123:test/Threads_C_API_test.cpp ****     }
 124:test/Threads_C_API_test.cpp **** }
 819              		.loc 1 124 1
 820 0580 83308103 		ld	ra,56(sp)
 821              		.cfi_restore 1
 822 0584 03340103 		ld	s0,48(sp)
 823              		.cfi_restore 8
 824              		.cfi_def_cfa 2, 64
 825 0588 83348102 		ld	s1,40(sp)
 826              		.cfi_restore 9
 827              	.LVL105:
 828 058c 13010104 		addi	sp,sp,64
 829              		.cfi_def_cfa_offset 0
 830 0590 67800000 		jr	ra
 831              		.cfi_endproc
 832              	.LFE29:
 834              		.bss
 835              		.set	.LANCHOR0,. + 0
 838              	_ZL9finishedA:
 839 0000 00       		.zero	1
 840              		.text
 841              	.Letext0:
 842              		.file 2 "test/../h/../lib/hw.h"
 843              		.file 3 "test/../h/syscall_c.h"
 844              		.file 4 "test/../h/Riscv.hpp"
GAS LISTING /tmp/ccQ7I3Tg.s 			page 21


 845              		.file 5 "test/printing.hpp"
GAS LISTING /tmp/ccQ7I3Tg.s 			page 22


DEFINED SYMBOLS
                            *ABS*:0000000000000000 Threads_C_API_test.cpp
     /tmp/ccQ7I3Tg.s:8      .text:0000000000000000 _ZL9fibonaccim
     /tmp/ccQ7I3Tg.s:12     .text:0000000000000000 .L0 
     /tmp/ccQ7I3Tg.s:14     .text:0000000000000000 .L0 
     /tmp/ccQ7I3Tg.s:15     .text:0000000000000004 .L0 
     /tmp/ccQ7I3Tg.s:20     .text:0000000000000014 .L0 
     /tmp/ccQ7I3Tg.s:21     .text:0000000000000014 .L0 
     /tmp/ccQ7I3Tg.s:22     .text:0000000000000014 .L0 
     /tmp/ccQ7I3Tg.s:23     .text:0000000000000014 .L0 
     /tmp/ccQ7I3Tg.s:25     .text:0000000000000018 .L0 
     /tmp/ccQ7I3Tg.s:28     .text:000000000000001c .L0 
     /tmp/ccQ7I3Tg.s:31     .text:0000000000000024 .L0 
     /tmp/ccQ7I3Tg.s:32     .text:0000000000000024 .L0 
     /tmp/ccQ7I3Tg.s:35     .text:000000000000002c .L0 
     /tmp/ccQ7I3Tg.s:39     .text:0000000000000030 .L0 
     /tmp/ccQ7I3Tg.s:40     .text:0000000000000030 .L0 
     /tmp/ccQ7I3Tg.s:45     .text:0000000000000040 .L0 
     /tmp/ccQ7I3Tg.s:49     .text:000000000000004c .L0 
     /tmp/ccQ7I3Tg.s:52     .text:0000000000000050 .L0 
     /tmp/ccQ7I3Tg.s:53     .text:0000000000000054 .L0 
     /tmp/ccQ7I3Tg.s:54     .text:0000000000000054 .L0 
     /tmp/ccQ7I3Tg.s:56     .text:0000000000000058 .L0 
     /tmp/ccQ7I3Tg.s:57     .text:0000000000000058 .L0 
     /tmp/ccQ7I3Tg.s:59     .text:000000000000005c .L0 
     /tmp/ccQ7I3Tg.s:62     .text:0000000000000060 .L0 
     /tmp/ccQ7I3Tg.s:64     .text:0000000000000064 .L0 
     /tmp/ccQ7I3Tg.s:68     .text:0000000000000068 .L0 
     /tmp/ccQ7I3Tg.s:70     .text:0000000000000068 .L0 
     /tmp/ccQ7I3Tg.s:71     .text:0000000000000068 .L0 
     /tmp/ccQ7I3Tg.s:74     .text:0000000000000074 .L0 
     /tmp/ccQ7I3Tg.s:91     .text:0000000000000074 _Z11workerBodyAPv
     /tmp/ccQ7I3Tg.s:94     .text:0000000000000074 .L0 
     /tmp/ccQ7I3Tg.s:96     .text:0000000000000074 .L0 
     /tmp/ccQ7I3Tg.s:97     .text:0000000000000078 .L0 
     /tmp/ccQ7I3Tg.s:102    .text:0000000000000088 .L0 
     /tmp/ccQ7I3Tg.s:103    .text:0000000000000088 .L0 
     /tmp/ccQ7I3Tg.s:104    .text:0000000000000088 .L0 
     /tmp/ccQ7I3Tg.s:105    .text:0000000000000088 .L0 
     /tmp/ccQ7I3Tg.s:107    .text:000000000000008c .L0 
     /tmp/ccQ7I3Tg.s:111    .text:000000000000008c .L0 
     /tmp/ccQ7I3Tg.s:112    .text:000000000000008c .L0 
     /tmp/ccQ7I3Tg.s:120    .text:0000000000000094 .L0 
     /tmp/ccQ7I3Tg.s:121    .text:0000000000000094 .L0 
     /tmp/ccQ7I3Tg.s:125    .text:000000000000009c .L0 
     /tmp/ccQ7I3Tg.s:129    .text:00000000000000a0 .L0 
     /tmp/ccQ7I3Tg.s:135    .text:00000000000000ac .L0 
     /tmp/ccQ7I3Tg.s:139    .text:00000000000000b0 .L0 
     /tmp/ccQ7I3Tg.s:143    .text:00000000000000bc .L0 
     /tmp/ccQ7I3Tg.s:153    .text:00000000000000c4 .L0 
     /tmp/ccQ7I3Tg.s:157    .text:00000000000000c8 .L0 
     /tmp/ccQ7I3Tg.s:161    .text:00000000000000d0 .L0 
     /tmp/ccQ7I3Tg.s:162    .text:00000000000000d0 .L0 
     /tmp/ccQ7I3Tg.s:166    .text:00000000000000e0 .L0 
     /tmp/ccQ7I3Tg.s:167    .text:00000000000000e0 .L0 
     /tmp/ccQ7I3Tg.s:173    .text:00000000000000f4 .L0 
     /tmp/ccQ7I3Tg.s:174    .text:00000000000000f4 .L0 
GAS LISTING /tmp/ccQ7I3Tg.s 			page 23


     /tmp/ccQ7I3Tg.s:179    .text:0000000000000104 .L0 
     /tmp/ccQ7I3Tg.s:180    .text:0000000000000104 .L0 
     /tmp/ccQ7I3Tg.s:188    .text:000000000000010c .L0 
     /tmp/ccQ7I3Tg.s:189    .text:000000000000010c .L0 
     /tmp/ccQ7I3Tg.s:193    .text:000000000000011c .L0 
     /tmp/ccQ7I3Tg.s:194    .text:000000000000011c .L0 
     /tmp/ccQ7I3Tg.s:197    .text:0000000000000128 .L0 
     /tmp/ccQ7I3Tg.s:198    .text:000000000000012c .L0 
     /tmp/ccQ7I3Tg.s:200    .text:0000000000000130 .L0 
     /tmp/ccQ7I3Tg.s:201    .text:0000000000000130 .L0 
     /tmp/ccQ7I3Tg.s:203    .text:0000000000000134 .L0 
     /tmp/ccQ7I3Tg.s:205    .text:0000000000000138 .L0 
     /tmp/ccQ7I3Tg.s:208    .text:000000000000013c .L0 
     /tmp/ccQ7I3Tg.s:210    .text:0000000000000140 .L0 
     /tmp/ccQ7I3Tg.s:224    .text:0000000000000140 _Z11workerBodyBPv
     /tmp/ccQ7I3Tg.s:227    .text:0000000000000140 .L0 
     /tmp/ccQ7I3Tg.s:229    .text:0000000000000140 .L0 
     /tmp/ccQ7I3Tg.s:230    .text:0000000000000144 .L0 
     /tmp/ccQ7I3Tg.s:235    .text:0000000000000154 .L0 
     /tmp/ccQ7I3Tg.s:236    .text:0000000000000154 .L0 
     /tmp/ccQ7I3Tg.s:237    .text:0000000000000154 .L0 
     /tmp/ccQ7I3Tg.s:238    .text:0000000000000154 .L0 
     /tmp/ccQ7I3Tg.s:240    .text:0000000000000158 .L0 
     /tmp/ccQ7I3Tg.s:244    .text:0000000000000158 .L0 
     /tmp/ccQ7I3Tg.s:245    .text:0000000000000158 .L0 
     /tmp/ccQ7I3Tg.s:253    .text:0000000000000160 .L0 
     /tmp/ccQ7I3Tg.s:254    .text:0000000000000160 .L0 
     /tmp/ccQ7I3Tg.s:258    .text:0000000000000168 .L0 
     /tmp/ccQ7I3Tg.s:262    .text:000000000000016c .L0 
     /tmp/ccQ7I3Tg.s:267    .text:0000000000000174 .L0 
     /tmp/ccQ7I3Tg.s:271    .text:0000000000000178 .L0 
     /tmp/ccQ7I3Tg.s:275    .text:0000000000000184 .L0 
     /tmp/ccQ7I3Tg.s:285    .text:000000000000018c .L0 
     /tmp/ccQ7I3Tg.s:289    .text:0000000000000190 .L0 
     /tmp/ccQ7I3Tg.s:293    .text:0000000000000198 .L0 
     /tmp/ccQ7I3Tg.s:294    .text:0000000000000198 .L0 
     /tmp/ccQ7I3Tg.s:298    .text:00000000000001a8 .L0 
     /tmp/ccQ7I3Tg.s:299    .text:00000000000001a8 .L0 
     /tmp/ccQ7I3Tg.s:305    .text:00000000000001bc .L0 
     /tmp/ccQ7I3Tg.s:306    .text:00000000000001bc .L0 
     /tmp/ccQ7I3Tg.s:311    .text:00000000000001cc .L0 
     /tmp/ccQ7I3Tg.s:312    .text:00000000000001cc .L0 
     /tmp/ccQ7I3Tg.s:320    .text:00000000000001d4 .L0 
     /tmp/ccQ7I3Tg.s:321    .text:00000000000001d4 .L0 
     /tmp/ccQ7I3Tg.s:324    .text:00000000000001dc .L0 
     /tmp/ccQ7I3Tg.s:325    .text:00000000000001dc .L0 
     /tmp/ccQ7I3Tg.s:329    .text:00000000000001ec .L0 
     /tmp/ccQ7I3Tg.s:330    .text:00000000000001ec .L0 
     /tmp/ccQ7I3Tg.s:331    .text:00000000000001f0 .L0 
     /tmp/ccQ7I3Tg.s:333    .text:00000000000001f4 .L0 
     /tmp/ccQ7I3Tg.s:334    .text:00000000000001f4 .L0 
     /tmp/ccQ7I3Tg.s:336    .text:00000000000001f8 .L0 
     /tmp/ccQ7I3Tg.s:338    .text:00000000000001fc .L0 
     /tmp/ccQ7I3Tg.s:341    .text:0000000000000200 .L0 
     /tmp/ccQ7I3Tg.s:343    .text:0000000000000204 .L0 
     /tmp/ccQ7I3Tg.s:369    .text:0000000000000204 _Z11workerBodyCPv
     /tmp/ccQ7I3Tg.s:372    .text:0000000000000204 .L0 
GAS LISTING /tmp/ccQ7I3Tg.s 			page 24


     /tmp/ccQ7I3Tg.s:374    .text:0000000000000204 .L0 
     /tmp/ccQ7I3Tg.s:375    .text:0000000000000208 .L0 
     /tmp/ccQ7I3Tg.s:380    .text:0000000000000218 .L0 
     /tmp/ccQ7I3Tg.s:381    .text:0000000000000218 .L0 
     /tmp/ccQ7I3Tg.s:382    .text:0000000000000218 .L0 
     /tmp/ccQ7I3Tg.s:383    .text:0000000000000218 .L0 
     /tmp/ccQ7I3Tg.s:385    .text:000000000000021c .L0 
     /tmp/ccQ7I3Tg.s:388    .text:000000000000021c .L0 
     /tmp/ccQ7I3Tg.s:389    .text:000000000000021c .L0 
     /tmp/ccQ7I3Tg.s:394    .text:0000000000000224 .L0 
     /tmp/ccQ7I3Tg.s:395    .text:0000000000000224 .L0 
     /tmp/ccQ7I3Tg.s:399    .text:0000000000000234 .L0 
     /tmp/ccQ7I3Tg.s:400    .text:0000000000000234 .L0 
     /tmp/ccQ7I3Tg.s:406    .text:0000000000000248 .L0 
     /tmp/ccQ7I3Tg.s:407    .text:0000000000000248 .L0 
     /tmp/ccQ7I3Tg.s:411    .text:0000000000000258 .L0 
     /tmp/ccQ7I3Tg.s:417    .text:0000000000000260 .L0 
     /tmp/ccQ7I3Tg.s:418    .text:0000000000000260 .L0 
     /tmp/ccQ7I3Tg.s:421    .text:0000000000000268 .L0 
     /tmp/ccQ7I3Tg.s:422    .text:0000000000000268 .L0 
     /tmp/ccQ7I3Tg.s:426    .text:0000000000000278 .L0 
test/Threads_C_API_test.cpp:56     .text:0000000000000278 .L0 
     /tmp/ccQ7I3Tg.s:432    .text:000000000000027c .L0 
     /tmp/ccQ7I3Tg.s:434    .text:000000000000027c .L0 
     /tmp/ccQ7I3Tg.s:437    .text:0000000000000284 .L0 
     /tmp/ccQ7I3Tg.s:438    .text:0000000000000284 .L0 
     /tmp/ccQ7I3Tg.s:442    .text:0000000000000294 .L0 
     /tmp/ccQ7I3Tg.s:443    .text:0000000000000294 .L0 
test/Threads_C_API_test.cpp:60     .text:0000000000000294 .L0 
     /tmp/ccQ7I3Tg.s:450    .text:0000000000000298 .L0 
     /tmp/ccQ7I3Tg.s:452    .text:0000000000000298 .L0 
     /tmp/ccQ7I3Tg.s:456    .text:00000000000002a8 .L0 
     /tmp/ccQ7I3Tg.s:457    .text:00000000000002a8 .L0 
     /tmp/ccQ7I3Tg.s:463    .text:00000000000002bc .L0 
     /tmp/ccQ7I3Tg.s:464    .text:00000000000002bc .L0 
     /tmp/ccQ7I3Tg.s:468    .text:00000000000002cc .L0 
     /tmp/ccQ7I3Tg.s:469    .text:00000000000002cc .L0 
     /tmp/ccQ7I3Tg.s:475    .text:00000000000002dc .L0 
     /tmp/ccQ7I3Tg.s:476    .text:00000000000002dc .L0 
     /tmp/ccQ7I3Tg.s:481    .text:00000000000002ec .L0 
     /tmp/ccQ7I3Tg.s:482    .text:00000000000002ec .L0 
     /tmp/ccQ7I3Tg.s:488    .text:0000000000000300 .L0 
     /tmp/ccQ7I3Tg.s:489    .text:0000000000000300 .L0 
     /tmp/ccQ7I3Tg.s:495    .text:0000000000000314 .L0 
     /tmp/ccQ7I3Tg.s:496    .text:0000000000000314 .L0 
     /tmp/ccQ7I3Tg.s:500    .text:0000000000000324 .L0 
     /tmp/ccQ7I3Tg.s:501    .text:0000000000000324 .L0 
     /tmp/ccQ7I3Tg.s:507    .text:0000000000000338 .L0 
     /tmp/ccQ7I3Tg.s:508    .text:0000000000000338 .L0 
     /tmp/ccQ7I3Tg.s:512    .text:0000000000000348 .L0 
     /tmp/ccQ7I3Tg.s:518    .text:0000000000000350 .L0 
     /tmp/ccQ7I3Tg.s:519    .text:0000000000000350 .L0 
     /tmp/ccQ7I3Tg.s:522    .text:0000000000000358 .L0 
     /tmp/ccQ7I3Tg.s:523    .text:0000000000000358 .L0 
     /tmp/ccQ7I3Tg.s:526    .text:0000000000000360 .L0 
     /tmp/ccQ7I3Tg.s:527    .text:0000000000000360 .L0 
     /tmp/ccQ7I3Tg.s:531    .text:0000000000000370 .L0 
GAS LISTING /tmp/ccQ7I3Tg.s 			page 25


     /tmp/ccQ7I3Tg.s:532    .text:0000000000000370 .L0 
     /tmp/ccQ7I3Tg.s:533    .text:0000000000000374 .L0 
     /tmp/ccQ7I3Tg.s:535    .text:0000000000000378 .L0 
     /tmp/ccQ7I3Tg.s:536    .text:0000000000000378 .L0 
     /tmp/ccQ7I3Tg.s:538    .text:000000000000037c .L0 
     /tmp/ccQ7I3Tg.s:541    .text:0000000000000380 .L0 
     /tmp/ccQ7I3Tg.s:544    .text:0000000000000384 .L0 
     /tmp/ccQ7I3Tg.s:546    .text:0000000000000388 .L0 
     /tmp/ccQ7I3Tg.s:569    .text:0000000000000388 _Z11workerBodyDPv
     /tmp/ccQ7I3Tg.s:572    .text:0000000000000388 .L0 
     /tmp/ccQ7I3Tg.s:574    .text:0000000000000388 .L0 
     /tmp/ccQ7I3Tg.s:575    .text:000000000000038c .L0 
     /tmp/ccQ7I3Tg.s:580    .text:000000000000039c .L0 
     /tmp/ccQ7I3Tg.s:581    .text:000000000000039c .L0 
     /tmp/ccQ7I3Tg.s:582    .text:000000000000039c .L0 
     /tmp/ccQ7I3Tg.s:583    .text:000000000000039c .L0 
     /tmp/ccQ7I3Tg.s:585    .text:00000000000003a0 .L0 
     /tmp/ccQ7I3Tg.s:588    .text:00000000000003a0 .L0 
     /tmp/ccQ7I3Tg.s:589    .text:00000000000003a0 .L0 
     /tmp/ccQ7I3Tg.s:594    .text:00000000000003a8 .L0 
     /tmp/ccQ7I3Tg.s:595    .text:00000000000003a8 .L0 
     /tmp/ccQ7I3Tg.s:599    .text:00000000000003b8 .L0 
     /tmp/ccQ7I3Tg.s:600    .text:00000000000003b8 .L0 
     /tmp/ccQ7I3Tg.s:606    .text:00000000000003cc .L0 
     /tmp/ccQ7I3Tg.s:607    .text:00000000000003cc .L0 
     /tmp/ccQ7I3Tg.s:611    .text:00000000000003dc .L0 
     /tmp/ccQ7I3Tg.s:617    .text:00000000000003e4 .L0 
     /tmp/ccQ7I3Tg.s:618    .text:00000000000003e4 .L0 
     /tmp/ccQ7I3Tg.s:621    .text:00000000000003ec .L0 
     /tmp/ccQ7I3Tg.s:622    .text:00000000000003ec .L0 
     /tmp/ccQ7I3Tg.s:626    .text:00000000000003fc .L0 
test/Threads_C_API_test.cpp:83     .text:00000000000003fc .L0 
     /tmp/ccQ7I3Tg.s:632    .text:0000000000000400 .L0 
     /tmp/ccQ7I3Tg.s:634    .text:0000000000000400 .L0 
     /tmp/ccQ7I3Tg.s:637    .text:0000000000000408 .L0 
     /tmp/ccQ7I3Tg.s:638    .text:0000000000000408 .L0 
     /tmp/ccQ7I3Tg.s:642    .text:0000000000000418 .L0 
     /tmp/ccQ7I3Tg.s:643    .text:0000000000000418 .L0 
     /tmp/ccQ7I3Tg.s:649    .text:0000000000000428 .L0 
     /tmp/ccQ7I3Tg.s:650    .text:0000000000000428 .L0 
     /tmp/ccQ7I3Tg.s:655    .text:0000000000000438 .L0 
     /tmp/ccQ7I3Tg.s:656    .text:0000000000000438 .L0 
     /tmp/ccQ7I3Tg.s:662    .text:000000000000044c .L0 
     /tmp/ccQ7I3Tg.s:663    .text:000000000000044c .L0 
     /tmp/ccQ7I3Tg.s:669    .text:0000000000000460 .L0 
     /tmp/ccQ7I3Tg.s:670    .text:0000000000000460 .L0 
     /tmp/ccQ7I3Tg.s:674    .text:0000000000000470 .L0 
     /tmp/ccQ7I3Tg.s:675    .text:0000000000000470 .L0 
     /tmp/ccQ7I3Tg.s:681    .text:0000000000000484 .L0 
     /tmp/ccQ7I3Tg.s:682    .text:0000000000000484 .L0 
     /tmp/ccQ7I3Tg.s:686    .text:0000000000000494 .L0 
     /tmp/ccQ7I3Tg.s:692    .text:000000000000049c .L0 
     /tmp/ccQ7I3Tg.s:693    .text:000000000000049c .L0 
     /tmp/ccQ7I3Tg.s:696    .text:00000000000004a4 .L0 
     /tmp/ccQ7I3Tg.s:697    .text:00000000000004a4 .L0 
     /tmp/ccQ7I3Tg.s:700    .text:00000000000004ac .L0 
     /tmp/ccQ7I3Tg.s:701    .text:00000000000004ac .L0 
GAS LISTING /tmp/ccQ7I3Tg.s 			page 26


     /tmp/ccQ7I3Tg.s:705    .text:00000000000004bc .L0 
     /tmp/ccQ7I3Tg.s:706    .text:00000000000004bc .L0 
     /tmp/ccQ7I3Tg.s:707    .text:00000000000004c0 .L0 
     /tmp/ccQ7I3Tg.s:709    .text:00000000000004c4 .L0 
     /tmp/ccQ7I3Tg.s:710    .text:00000000000004c4 .L0 
     /tmp/ccQ7I3Tg.s:712    .text:00000000000004c8 .L0 
     /tmp/ccQ7I3Tg.s:715    .text:00000000000004cc .L0 
     /tmp/ccQ7I3Tg.s:718    .text:00000000000004d0 .L0 
     /tmp/ccQ7I3Tg.s:720    .text:00000000000004d4 .L0 
     /tmp/ccQ7I3Tg.s:740    .text:00000000000004d4 _Z18Threads_C_API_testv
     /tmp/ccQ7I3Tg.s:743    .text:00000000000004d4 .L0 
     /tmp/ccQ7I3Tg.s:744    .text:00000000000004d4 .L0 
     /tmp/ccQ7I3Tg.s:745    .text:00000000000004d8 .L0 
     /tmp/ccQ7I3Tg.s:749    .text:00000000000004e4 .L0 
     /tmp/ccQ7I3Tg.s:750    .text:00000000000004e4 .L0 
     /tmp/ccQ7I3Tg.s:751    .text:00000000000004e4 .L0 
     /tmp/ccQ7I3Tg.s:753    .text:00000000000004e8 .L0 
     /tmp/ccQ7I3Tg.s:755    .text:00000000000004e8 .L0 
     /tmp/ccQ7I3Tg.s:756    .text:00000000000004e8 .L0 
     /tmp/ccQ7I3Tg.s:757    .text:00000000000004e8 .L0 
     /tmp/ccQ7I3Tg.s:763    .text:0000000000000500 .L0 
     /tmp/ccQ7I3Tg.s:764    .text:0000000000000500 .L0 
     /tmp/ccQ7I3Tg.s:768    .text:0000000000000510 .L0 
     /tmp/ccQ7I3Tg.s:769    .text:0000000000000510 .L0 
     /tmp/ccQ7I3Tg.s:773    .text:0000000000000520 .L0 
     /tmp/ccQ7I3Tg.s:774    .text:0000000000000520 .L0 
     /tmp/ccQ7I3Tg.s:778    .text:0000000000000530 .L0 
     /tmp/ccQ7I3Tg.s:779    .text:0000000000000530 .L0 
     /tmp/ccQ7I3Tg.s:784    .text:0000000000000540 .L0 
     /tmp/ccQ7I3Tg.s:785    .text:0000000000000540 .L0 
     /tmp/ccQ7I3Tg.s:788    .text:000000000000054c .L0 
     /tmp/ccQ7I3Tg.s:789    .text:000000000000054c .L0 
     /tmp/ccQ7I3Tg.s:795    .text:0000000000000558 .L0 
     /tmp/ccQ7I3Tg.s:800    .text:0000000000000560 .L0 
     /tmp/ccQ7I3Tg.s:804    .text:0000000000000564 .L0 
     /tmp/ccQ7I3Tg.s:808    .text:000000000000056c .L0 
     /tmp/ccQ7I3Tg.s:809    .text:000000000000056c .L0 
     /tmp/ccQ7I3Tg.s:811    .text:0000000000000570 .L0 
     /tmp/ccQ7I3Tg.s:813    .text:0000000000000574 .L0 
     /tmp/ccQ7I3Tg.s:820    .text:0000000000000580 .L0 
     /tmp/ccQ7I3Tg.s:821    .text:0000000000000584 .L0 
     /tmp/ccQ7I3Tg.s:823    .text:0000000000000588 .L0 
     /tmp/ccQ7I3Tg.s:824    .text:0000000000000588 .L0 
     /tmp/ccQ7I3Tg.s:826    .text:000000000000058c .L0 
     /tmp/ccQ7I3Tg.s:829    .text:0000000000000590 .L0 
     /tmp/ccQ7I3Tg.s:831    .text:0000000000000594 .L0 
     /tmp/ccQ7I3Tg.s:835    .bss:0000000000000000 .LANCHOR0
     /tmp/ccQ7I3Tg.s:838    .bss:0000000000000000 _ZL9finishedA
     /tmp/ccQ7I3Tg.s:846    .text:0000000000000594 .L0 
     /tmp/ccQ7I3Tg.s:79     .rodata.str1.8:0000000000000000 .LC0
     /tmp/ccQ7I3Tg.s:162    .text:00000000000000d0 .L0 
     /tmp/ccQ7I3Tg.s:82     .rodata.str1.8:0000000000000008 .LC1
     /tmp/ccQ7I3Tg.s:174    .text:00000000000000f4 .L0 
     /tmp/ccQ7I3Tg.s:85     .rodata.str1.8:0000000000000010 .LC2
     /tmp/ccQ7I3Tg.s:189    .text:000000000000010c .L0 
     /tmp/ccQ7I3Tg.s:195    .text:0000000000000120 .L0 
     /tmp/ccQ7I3Tg.s:215    .rodata.str1.8:0000000000000020 .LC3
GAS LISTING /tmp/ccQ7I3Tg.s 			page 27


     /tmp/ccQ7I3Tg.s:294    .text:0000000000000198 .L0 
     /tmp/ccQ7I3Tg.s:306    .text:00000000000001bc .L0 
     /tmp/ccQ7I3Tg.s:218    .rodata.str1.8:0000000000000028 .LC4
     /tmp/ccQ7I3Tg.s:325    .text:00000000000001dc .L0 
     /tmp/ccQ7I3Tg.s:348    .rodata.str1.8:0000000000000038 .LC5
     /tmp/ccQ7I3Tg.s:395    .text:0000000000000224 .L0 
     /tmp/ccQ7I3Tg.s:407    .text:0000000000000248 .L0 
     /tmp/ccQ7I3Tg.s:351    .rodata.str1.8:0000000000000040 .LC6
     /tmp/ccQ7I3Tg.s:422    .text:0000000000000268 .L0 
     /tmp/ccQ7I3Tg.s:354    .rodata.str1.8:0000000000000050 .LC7
     /tmp/ccQ7I3Tg.s:438    .text:0000000000000284 .L0 
     /tmp/ccQ7I3Tg.s:357    .rodata.str1.8:0000000000000060 .LC8
     /tmp/ccQ7I3Tg.s:452    .text:0000000000000298 .L0 
     /tmp/ccQ7I3Tg.s:464    .text:00000000000002bc .L0 
     /tmp/ccQ7I3Tg.s:360    .rodata.str1.8:0000000000000068 .LC9
     /tmp/ccQ7I3Tg.s:476    .text:00000000000002dc .L0 
     /tmp/ccQ7I3Tg.s:489    .text:0000000000000300 .L0 
     /tmp/ccQ7I3Tg.s:496    .text:0000000000000314 .L0 
     /tmp/ccQ7I3Tg.s:508    .text:0000000000000338 .L0 
     /tmp/ccQ7I3Tg.s:363    .rodata.str1.8:0000000000000078 .LC10
     /tmp/ccQ7I3Tg.s:527    .text:0000000000000360 .L0 
     /tmp/ccQ7I3Tg.s:551    .rodata.str1.8:0000000000000088 .LC11
     /tmp/ccQ7I3Tg.s:595    .text:00000000000003a8 .L0 
     /tmp/ccQ7I3Tg.s:607    .text:00000000000003cc .L0 
     /tmp/ccQ7I3Tg.s:554    .rodata.str1.8:0000000000000090 .LC12
     /tmp/ccQ7I3Tg.s:622    .text:00000000000003ec .L0 
     /tmp/ccQ7I3Tg.s:557    .rodata.str1.8:00000000000000a0 .LC13
     /tmp/ccQ7I3Tg.s:638    .text:0000000000000408 .L0 
     /tmp/ccQ7I3Tg.s:560    .rodata.str1.8:00000000000000b0 .LC14
     /tmp/ccQ7I3Tg.s:650    .text:0000000000000428 .L0 
     /tmp/ccQ7I3Tg.s:663    .text:000000000000044c .L0 
     /tmp/ccQ7I3Tg.s:670    .text:0000000000000460 .L0 
     /tmp/ccQ7I3Tg.s:682    .text:0000000000000484 .L0 
     /tmp/ccQ7I3Tg.s:563    .rodata.str1.8:00000000000000c0 .LC15
     /tmp/ccQ7I3Tg.s:701    .text:00000000000004ac .L0 
     /tmp/ccQ7I3Tg.s:758    .text:00000000000004ec .L0 
     /tmp/ccQ7I3Tg.s:725    .rodata.str1.8:00000000000000d0 .LC16
     /tmp/ccQ7I3Tg.s:764    .text:0000000000000500 .L0 
     /tmp/ccQ7I3Tg.s:728    .rodata.str1.8:00000000000000e8 .LC17
     /tmp/ccQ7I3Tg.s:769    .text:0000000000000510 .L0 
     /tmp/ccQ7I3Tg.s:731    .rodata.str1.8:0000000000000100 .LC18
     /tmp/ccQ7I3Tg.s:774    .text:0000000000000520 .L0 
     /tmp/ccQ7I3Tg.s:734    .rodata.str1.8:0000000000000118 .LC19
     /tmp/ccQ7I3Tg.s:779    .text:0000000000000530 .L0 
     /tmp/ccQ7I3Tg.s:785    .text:0000000000000540 .L0 
     /tmp/ccQ7I3Tg.s:50     .text:0000000000000050 .L1
     /tmp/ccQ7I3Tg.s:67     .text:0000000000000068 .L6
     /tmp/ccQ7I3Tg.s:37     .text:0000000000000030 .L3
     /tmp/ccQ7I3Tg.s:155    .text:00000000000000c8 .L13
     /tmp/ccQ7I3Tg.s:147    .text:00000000000000c4 .L9
     /tmp/ccQ7I3Tg.s:115    .text:0000000000000094 .L10
     /tmp/ccQ7I3Tg.s:136    .text:00000000000000b0 .L11
     /tmp/ccQ7I3Tg.s:183    .text:000000000000010c .L8
     /tmp/ccQ7I3Tg.s:127    .text:00000000000000a0 .L12
     /tmp/ccQ7I3Tg.s:287    .text:0000000000000190 .L21
     /tmp/ccQ7I3Tg.s:279    .text:000000000000018c .L17
     /tmp/ccQ7I3Tg.s:248    .text:0000000000000160 .L18
GAS LISTING /tmp/ccQ7I3Tg.s 			page 28


     /tmp/ccQ7I3Tg.s:268    .text:0000000000000178 .L19
     /tmp/ccQ7I3Tg.s:315    .text:00000000000001d4 .L16
     /tmp/ccQ7I3Tg.s:260    .text:000000000000016c .L20
     /tmp/ccQ7I3Tg.s:415    .text:0000000000000260 .L25
     /tmp/ccQ7I3Tg.s:392    .text:0000000000000224 .L29
     /tmp/ccQ7I3Tg.s:516    .text:0000000000000350 .L27
     /tmp/ccQ7I3Tg.s:493    .text:0000000000000314 .L30
     /tmp/ccQ7I3Tg.s:615    .text:00000000000003e4 .L33
     /tmp/ccQ7I3Tg.s:592    .text:00000000000003a8 .L37
     /tmp/ccQ7I3Tg.s:690    .text:000000000000049c .L35
     /tmp/ccQ7I3Tg.s:667    .text:0000000000000460 .L38
     /tmp/ccQ7I3Tg.s:792    .text:0000000000000558 .L44
     /tmp/ccQ7I3Tg.s:782    .text:0000000000000540 .L41
     /tmp/ccQ7I3Tg.s:802    .text:0000000000000564 .L40
     /tmp/ccQ7I3Tg.s:817    .text:0000000000000580 .L39
     /tmp/ccQ7I3Tg.s:798    .text:0000000000000560 .L43
     /tmp/ccQ7I3Tg.s:2306   .debug_abbrev:0000000000000000 .Ldebug_abbrev0
     /tmp/ccQ7I3Tg.s:3145   .debug_str:00000000000000a3 .LASF120
     /tmp/ccQ7I3Tg.s:3147   .debug_str:000000000000014f .LASF121
     /tmp/ccQ7I3Tg.s:3343   .debug_str:0000000000000740 .LASF122
     /tmp/ccQ7I3Tg.s:5      .text:0000000000000000 .Ltext0
     /tmp/ccQ7I3Tg.s:841    .text:0000000000000594 .Letext0
     /tmp/ccQ7I3Tg.s:3123   .debug_line:0000000000000000 .Ldebug_line0
     /tmp/ccQ7I3Tg.s:3211   .debug_str:000000000000038d .LASF0
     /tmp/ccQ7I3Tg.s:3235   .debug_str:0000000000000462 .LASF1
     /tmp/ccQ7I3Tg.s:3301   .debug_str:000000000000062a .LASF2
     /tmp/ccQ7I3Tg.s:3183   .debug_str:00000000000002a8 .LASF3
     /tmp/ccQ7I3Tg.s:3309   .debug_str:0000000000000661 .LASF4
     /tmp/ccQ7I3Tg.s:3225   .debug_str:00000000000003f6 .LASF5
     /tmp/ccQ7I3Tg.s:3131   .debug_str:0000000000000028 .LASF6
     /tmp/ccQ7I3Tg.s:3271   .debug_str:0000000000000568 .LASF7
     /tmp/ccQ7I3Tg.s:3229   .debug_str:000000000000042a .LASF8
     /tmp/ccQ7I3Tg.s:3189   .debug_str:00000000000002d0 .LASF9
     /tmp/ccQ7I3Tg.s:3193   .debug_str:00000000000002fc .LASF10
     /tmp/ccQ7I3Tg.s:3155   .debug_str:00000000000001a2 .LASF11
     /tmp/ccQ7I3Tg.s:3185   .debug_str:00000000000002ae .LASF12
     /tmp/ccQ7I3Tg.s:3161   .debug_str:00000000000001e4 .LASF13
     /tmp/ccQ7I3Tg.s:3153   .debug_str:0000000000000192 .LASF14
     /tmp/ccQ7I3Tg.s:3333   .debug_str:0000000000000706 .LASF15
     /tmp/ccQ7I3Tg.s:3179   .debug_str:0000000000000277 .LASF16
     /tmp/ccQ7I3Tg.s:3321   .debug_str:00000000000006a4 .LASF17
     /tmp/ccQ7I3Tg.s:3339   .debug_str:0000000000000723 .LASF18
     /tmp/ccQ7I3Tg.s:3361   .debug_str:00000000000007e1 .LASF123
     /tmp/ccQ7I3Tg.s:3207   .debug_str:000000000000036a .LASF19
     /tmp/ccQ7I3Tg.s:3325   .debug_str:00000000000006c6 .LASF21
     /tmp/ccQ7I3Tg.s:3257   .debug_str:0000000000000514 .LASF20
     /tmp/ccQ7I3Tg.s:3243   .debug_str:00000000000004a0 .LASF22
     /tmp/ccQ7I3Tg.s:3177   .debug_str:000000000000026d .LASF23
     /tmp/ccQ7I3Tg.s:3127   .debug_str:000000000000000a .LASF24
     /tmp/ccQ7I3Tg.s:3247   .debug_str:00000000000004c2 .LASF31
     /tmp/ccQ7I3Tg.s:3357   .debug_str:00000000000007b9 .LASF33
     /tmp/ccQ7I3Tg.s:3355   .debug_str:00000000000007a8 .LASF25
     /tmp/ccQ7I3Tg.s:3237   .debug_str:0000000000000475 .LASF26
     /tmp/ccQ7I3Tg.s:3173   .debug_str:0000000000000243 .LASF27
     /tmp/ccQ7I3Tg.s:3157   .debug_str:00000000000001b1 .LASF28
     /tmp/ccQ7I3Tg.s:3221   .debug_str:00000000000003d1 .LASF29
     /tmp/ccQ7I3Tg.s:3163   .debug_str:00000000000001f4 .LASF30
GAS LISTING /tmp/ccQ7I3Tg.s 			page 29


     /tmp/ccQ7I3Tg.s:3373   .debug_str:000000000000083b .LASF32
     /tmp/ccQ7I3Tg.s:3137   .debug_str:000000000000004c .LASF34
     /tmp/ccQ7I3Tg.s:3279   .debug_str:00000000000005a5 .LASF35
     /tmp/ccQ7I3Tg.s:3139   .debug_str:0000000000000067 .LASF36
     /tmp/ccQ7I3Tg.s:3319   .debug_str:0000000000000696 .LASF37
     /tmp/ccQ7I3Tg.s:3181   .debug_str:000000000000028d .LASF38
     /tmp/ccQ7I3Tg.s:3215   .debug_str:00000000000003aa .LASF39
     /tmp/ccQ7I3Tg.s:3365   .debug_str:00000000000007f1 .LASF40
     /tmp/ccQ7I3Tg.s:3353   .debug_str:000000000000079f .LASF43
     /tmp/ccQ7I3Tg.s:3345   .debug_str:0000000000000763 .LASF45
     /tmp/ccQ7I3Tg.s:3297   .debug_str:0000000000000616 .LASF41
     /tmp/ccQ7I3Tg.s:3267   .debug_str:000000000000054c .LASF42
     /tmp/ccQ7I3Tg.s:3285   .debug_str:00000000000005ca .LASF44
     /tmp/ccQ7I3Tg.s:3287   .debug_str:00000000000005d1 .LASF46
     /tmp/ccQ7I3Tg.s:3263   .debug_str:0000000000000531 .LASF47
     /tmp/ccQ7I3Tg.s:3231   .debug_str:000000000000043d .LASF48
     /tmp/ccQ7I3Tg.s:3367   .debug_str:000000000000080b .LASF49
     /tmp/ccQ7I3Tg.s:3341   .debug_str:000000000000072c .LASF50
     /tmp/ccQ7I3Tg.s:3261   .debug_str:0000000000000529 .LASF51
     /tmp/ccQ7I3Tg.s:3265   .debug_str:0000000000000538 .LASF52
     /tmp/ccQ7I3Tg.s:3251   .debug_str:00000000000004e8 .LASF53
     /tmp/ccQ7I3Tg.s:3289   .debug_str:00000000000005e4 .LASF54
     /tmp/ccQ7I3Tg.s:3379   .debug_str:0000000000000866 .LASF55
     /tmp/ccQ7I3Tg.s:3219   .debug_str:00000000000003bd .LASF56
     /tmp/ccQ7I3Tg.s:3329   .debug_str:00000000000006f1 .LASF57
     /tmp/ccQ7I3Tg.s:3315   .debug_str:000000000000067c .LASF58
     /tmp/ccQ7I3Tg.s:3317   .debug_str:000000000000068f .LASF59
     /tmp/ccQ7I3Tg.s:3175   .debug_str:000000000000025a .LASF60
     /tmp/ccQ7I3Tg.s:3171   .debug_str:000000000000023d .LASF61
     /tmp/ccQ7I3Tg.s:3135   .debug_str:000000000000003a .LASF62
     /tmp/ccQ7I3Tg.s:3217   .debug_str:00000000000003b7 .LASF63
     /tmp/ccQ7I3Tg.s:3169   .debug_str:000000000000022b .LASF64
     /tmp/ccQ7I3Tg.s:3133   .debug_str:000000000000002f .LASF65
     /tmp/ccQ7I3Tg.s:3305   .debug_str:000000000000063f .LASF66
     /tmp/ccQ7I3Tg.s:3299   .debug_str:000000000000061f .LASF67
     /tmp/ccQ7I3Tg.s:3375   .debug_str:0000000000000847 .LASF68
     /tmp/ccQ7I3Tg.s:3303   .debug_str:0000000000000638 .LASF69
     /tmp/ccQ7I3Tg.s:3151   .debug_str:000000000000017f .LASF70
     /tmp/ccQ7I3Tg.s:3363   .debug_str:00000000000007e7 .LASF71
     /tmp/ccQ7I3Tg.s:3371   .debug_str:0000000000000825 .LASF72
     /tmp/ccQ7I3Tg.s:3359   .debug_str:00000000000007d7 .LASF73
     /tmp/ccQ7I3Tg.s:3249   .debug_str:00000000000004d2 .LASF74
     /tmp/ccQ7I3Tg.s:3167   .debug_str:0000000000000225 .LASF75
     /tmp/ccQ7I3Tg.s:3201   .debug_str:0000000000000347 .LASF76
     /tmp/ccQ7I3Tg.s:3205   .debug_str:0000000000000364 .LASF77
     /tmp/ccQ7I3Tg.s:3165   .debug_str:0000000000000213 .LASF78
     /tmp/ccQ7I3Tg.s:3203   .debug_str:0000000000000359 .LASF79
     /tmp/ccQ7I3Tg.s:3209   .debug_str:0000000000000375 .LASF80
     /tmp/ccQ7I3Tg.s:3351   .debug_str:0000000000000790 .LASF81
     /tmp/ccQ7I3Tg.s:3191   .debug_str:00000000000002e0 .LASF82
     /tmp/ccQ7I3Tg.s:3275   .debug_str:0000000000000584 .LASF83
     /tmp/ccQ7I3Tg.s:3227   .debug_str:0000000000000408 .LASF84
     /tmp/ccQ7I3Tg.s:3293   .debug_str:0000000000000608 .LASF85
     /tmp/ccQ7I3Tg.s:3129   .debug_str:0000000000000020 .LASF86
     /tmp/ccQ7I3Tg.s:3141   .debug_str:0000000000000081 .LASF87
     /tmp/ccQ7I3Tg.s:3349   .debug_str:0000000000000784 .LASF88
     /tmp/ccQ7I3Tg.s:3143   .debug_str:0000000000000090 .LASF89
GAS LISTING /tmp/ccQ7I3Tg.s 			page 30


     /tmp/ccQ7I3Tg.s:3255   .debug_str:0000000000000502 .LASF90
     /tmp/ccQ7I3Tg.s:3195   .debug_str:000000000000030a .LASF91
     /tmp/ccQ7I3Tg.s:3223   .debug_str:00000000000003e3 .LASF92
     /tmp/ccQ7I3Tg.s:3149   .debug_str:000000000000016b .LASF93
     /tmp/ccQ7I3Tg.s:3335   .debug_str:0000000000000712 .LASF94
     /tmp/ccQ7I3Tg.s:3241   .debug_str:000000000000049b .LASF95
     /tmp/ccQ7I3Tg.s:3307   .debug_str:0000000000000657 .LASF96
     /tmp/ccQ7I3Tg.s:3259   .debug_str:000000000000051f .LASF97
     /tmp/ccQ7I3Tg.s:3311   .debug_str:0000000000000668 .LASF98
     /tmp/ccQ7I3Tg.s:3313   .debug_str:0000000000000672 .LASF99
     /tmp/ccQ7I3Tg.s:3187   .debug_str:00000000000002bd .LASF104
     /tmp/ccQ7I3Tg.s:3199   .debug_str:000000000000032f .LASF106
     /tmp/ccQ7I3Tg.s:741    .text:00000000000004d4 .LFB29
     /tmp/ccQ7I3Tg.s:832    .text:0000000000000594 .LFE29
     /tmp/ccQ7I3Tg.s:3239   .debug_str:0000000000000493 .LASF100
     /tmp/ccQ7I3Tg.s:793    .text:0000000000000558 .LBB18
     /tmp/ccQ7I3Tg.s:818    .text:0000000000000580 .LBE18
     /tmp/ccQ7I3Tg.s:3295   .debug_str:000000000000060f .LASF101
     /tmp/ccQ7I3Tg.s:2860   .debug_loc:0000000000000000 .LLST16
     /tmp/ccQ7I3Tg.s:3323   .debug_str:00000000000006ba .LASF102
     /tmp/ccQ7I3Tg.s:3337   .debug_str:0000000000000717 .LASF124
     /tmp/ccQ7I3Tg.s:2871   .debug_loc:0000000000000036 .LLST17
     /tmp/ccQ7I3Tg.s:3125   .debug_str:0000000000000000 .LASF103
     /tmp/ccQ7I3Tg.s:814    .text:000000000000057c .LVL103
     /tmp/ccQ7I3Tg.s:761    .text:0000000000000500 .LVL94
     /tmp/ccQ7I3Tg.s:766    .text:0000000000000510 .LVL95
     /tmp/ccQ7I3Tg.s:771    .text:0000000000000520 .LVL96
     /tmp/ccQ7I3Tg.s:776    .text:0000000000000530 .LVL97
     /tmp/ccQ7I3Tg.s:781    .text:0000000000000540 .LVL98
     /tmp/ccQ7I3Tg.s:790    .text:0000000000000554 .LVL99
     /tmp/ccQ7I3Tg.s:3283   .debug_str:00000000000005be .LASF105
     /tmp/ccQ7I3Tg.s:3369   .debug_str:0000000000000813 .LASF107
     /tmp/ccQ7I3Tg.s:570    .text:0000000000000388 .LFB28
     /tmp/ccQ7I3Tg.s:721    .text:00000000000004d4 .LFE28
     /tmp/ccQ7I3Tg.s:2878   .debug_loc:0000000000000059 .LLST13
     /tmp/ccQ7I3Tg.s:2892   .debug_loc:0000000000000092 .LLST14
     /tmp/ccQ7I3Tg.s:3377   .debug_str:000000000000085f .LASF108
     /tmp/ccQ7I3Tg.s:2912   .debug_loc:00000000000000ef .LLST15
     /tmp/ccQ7I3Tg.s:597    .text:00000000000003b8 .LVL71
     /tmp/ccQ7I3Tg.s:604    .text:00000000000003cc .LVL72
     /tmp/ccQ7I3Tg.s:609    .text:00000000000003dc .LVL73
     /tmp/ccQ7I3Tg.s:624    .text:00000000000003fc .LVL76
     /tmp/ccQ7I3Tg.s:635    .text:0000000000000408 .LVL77
     /tmp/ccQ7I3Tg.s:640    .text:0000000000000418 .LVL78
     /tmp/ccQ7I3Tg.s:645    .text:0000000000000424 .LVL79
     /tmp/ccQ7I3Tg.s:653    .text:0000000000000438 .LVL82
     /tmp/ccQ7I3Tg.s:660    .text:000000000000044c .LVL83
     /tmp/ccQ7I3Tg.s:665    .text:000000000000045c .LVL84
     /tmp/ccQ7I3Tg.s:672    .text:0000000000000470 .LVL85
     /tmp/ccQ7I3Tg.s:679    .text:0000000000000484 .LVL86
     /tmp/ccQ7I3Tg.s:684    .text:0000000000000494 .LVL87
     /tmp/ccQ7I3Tg.s:698    .text:00000000000004ac .LVL90
     /tmp/ccQ7I3Tg.s:703    .text:00000000000004bc .LVL91
     /tmp/ccQ7I3Tg.s:3281   .debug_str:00000000000005b2 .LASF109
     /tmp/ccQ7I3Tg.s:3233   .debug_str:0000000000000450 .LASF110
     /tmp/ccQ7I3Tg.s:370    .text:0000000000000204 .LFB27
     /tmp/ccQ7I3Tg.s:547    .text:0000000000000388 .LFE27
GAS LISTING /tmp/ccQ7I3Tg.s 			page 31


     /tmp/ccQ7I3Tg.s:2923   .debug_loc:0000000000000125 .LLST9
     /tmp/ccQ7I3Tg.s:2937   .debug_loc:000000000000015e .LLST10
     /tmp/ccQ7I3Tg.s:2957   .debug_loc:00000000000001bb .LLST11
     /tmp/ccQ7I3Tg.s:2965   .debug_loc:00000000000001df .LLST12
     /tmp/ccQ7I3Tg.s:397    .text:0000000000000234 .LVL41
     /tmp/ccQ7I3Tg.s:404    .text:0000000000000248 .LVL42
     /tmp/ccQ7I3Tg.s:409    .text:0000000000000258 .LVL43
     /tmp/ccQ7I3Tg.s:424    .text:0000000000000278 .LVL46
     /tmp/ccQ7I3Tg.s:435    .text:0000000000000284 .LVL47
     /tmp/ccQ7I3Tg.s:440    .text:0000000000000294 .LVL48
     /tmp/ccQ7I3Tg.s:454    .text:00000000000002a8 .LVL50
     /tmp/ccQ7I3Tg.s:461    .text:00000000000002bc .LVL51
     /tmp/ccQ7I3Tg.s:466    .text:00000000000002cc .LVL52
     /tmp/ccQ7I3Tg.s:471    .text:00000000000002d8 .LVL53
     /tmp/ccQ7I3Tg.s:479    .text:00000000000002ec .LVL56
     /tmp/ccQ7I3Tg.s:486    .text:0000000000000300 .LVL57
     /tmp/ccQ7I3Tg.s:491    .text:0000000000000310 .LVL58
     /tmp/ccQ7I3Tg.s:498    .text:0000000000000324 .LVL59
     /tmp/ccQ7I3Tg.s:505    .text:0000000000000338 .LVL60
     /tmp/ccQ7I3Tg.s:510    .text:0000000000000348 .LVL61
     /tmp/ccQ7I3Tg.s:524    .text:0000000000000360 .LVL64
     /tmp/ccQ7I3Tg.s:529    .text:0000000000000370 .LVL65
     /tmp/ccQ7I3Tg.s:3347   .debug_str:0000000000000778 .LASF111
     /tmp/ccQ7I3Tg.s:3197   .debug_str:000000000000031d .LASF112
     /tmp/ccQ7I3Tg.s:225    .text:0000000000000140 .LFB26
     /tmp/ccQ7I3Tg.s:344    .text:0000000000000204 .LFE26
     /tmp/ccQ7I3Tg.s:2976   .debug_loc:0000000000000215 .LLST5
     /tmp/ccQ7I3Tg.s:243    .text:0000000000000158 .LBB10
     /tmp/ccQ7I3Tg.s:318    .text:00000000000001d4 .LBE10
     /tmp/ccQ7I3Tg.s:2990   .debug_loc:000000000000024e .LLST6
     /tmp/ccQ7I3Tg.s:3109   .debug_ranges:0000000000000000 .Ldebug_ranges0
     /tmp/ccQ7I3Tg.s:3002   .debug_loc:0000000000000285 .LLST7
     /tmp/ccQ7I3Tg.s:265    .text:0000000000000174 .LBB14
     /tmp/ccQ7I3Tg.s:280    .text:000000000000018c .LBE14
     /tmp/ccQ7I3Tg.s:3014   .debug_loc:00000000000002bc .LLST8
     /tmp/ccQ7I3Tg.s:255    .text:0000000000000168 .LVL25
     /tmp/ccQ7I3Tg.s:296    .text:00000000000001a8 .LVL31
     /tmp/ccQ7I3Tg.s:303    .text:00000000000001bc .LVL32
     /tmp/ccQ7I3Tg.s:308    .text:00000000000001cc .LVL33
     /tmp/ccQ7I3Tg.s:322    .text:00000000000001dc .LVL35
     /tmp/ccQ7I3Tg.s:327    .text:00000000000001ec .LVL36
     /tmp/ccQ7I3Tg.s:3277   .debug_str:0000000000000599 .LASF113
     /tmp/ccQ7I3Tg.s:3253   .debug_str:00000000000004f0 .LASF114
     /tmp/ccQ7I3Tg.s:92     .text:0000000000000074 .LFB25
     /tmp/ccQ7I3Tg.s:211    .text:0000000000000140 .LFE25
     /tmp/ccQ7I3Tg.s:3025   .debug_loc:00000000000002f2 .LLST1
     /tmp/ccQ7I3Tg.s:110    .text:000000000000008c .LBB2
     /tmp/ccQ7I3Tg.s:186    .text:000000000000010c .LBE2
     /tmp/ccQ7I3Tg.s:3039   .debug_loc:000000000000032b .LLST2
     /tmp/ccQ7I3Tg.s:3051   .debug_loc:0000000000000362 .LLST3
     /tmp/ccQ7I3Tg.s:133    .text:00000000000000ac .LBB6
     /tmp/ccQ7I3Tg.s:148    .text:00000000000000c4 .LBE6
     /tmp/ccQ7I3Tg.s:3063   .debug_loc:0000000000000399 .LLST4
     /tmp/ccQ7I3Tg.s:122    .text:000000000000009c .LVL10
     /tmp/ccQ7I3Tg.s:164    .text:00000000000000e0 .LVL16
     /tmp/ccQ7I3Tg.s:171    .text:00000000000000f4 .LVL17
     /tmp/ccQ7I3Tg.s:176    .text:0000000000000104 .LVL18
GAS LISTING /tmp/ccQ7I3Tg.s 			page 32


     /tmp/ccQ7I3Tg.s:191    .text:000000000000011c .LVL20
     /tmp/ccQ7I3Tg.s:3245   .debug_str:00000000000004b8 .LASF125
     /tmp/ccQ7I3Tg.s:9      .text:0000000000000000 .LFB24
     /tmp/ccQ7I3Tg.s:75     .text:0000000000000074 .LFE24
     /tmp/ccQ7I3Tg.s:3074   .debug_loc:00000000000003cf .LLST0
     /tmp/ccQ7I3Tg.s:42     .text:000000000000003c .LVL2
     /tmp/ccQ7I3Tg.s:47     .text:000000000000004c .LVL3
     /tmp/ccQ7I3Tg.s:72     .text:0000000000000070 .LVL6
     /tmp/ccQ7I3Tg.s:3269   .debug_str:0000000000000561 .LASF126
     /tmp/ccQ7I3Tg.s:3213   .debug_str:000000000000039a .LASF127
     /tmp/ccQ7I3Tg.s:3331   .debug_str:00000000000006f8 .LASF115
     /tmp/ccQ7I3Tg.s:3327   .debug_str:00000000000006de .LASF116
     /tmp/ccQ7I3Tg.s:3291   .debug_str:00000000000005f8 .LASF117
     /tmp/ccQ7I3Tg.s:3159   .debug_str:00000000000001d5 .LASF118
     /tmp/ccQ7I3Tg.s:3273   .debug_str:000000000000057b .LASF119
     /tmp/ccQ7I3Tg.s:797    .text:0000000000000560 .LVL100
     /tmp/ccQ7I3Tg.s:801    .text:0000000000000564 .LVL101
     /tmp/ccQ7I3Tg.s:806    .text:000000000000056c .LVL102
     /tmp/ccQ7I3Tg.s:816    .text:0000000000000580 .LVL104
     /tmp/ccQ7I3Tg.s:827    .text:000000000000058c .LVL105
     /tmp/ccQ7I3Tg.s:573    .text:0000000000000388 .LVL68
     /tmp/ccQ7I3Tg.s:591    .text:00000000000003a8 .LVL70
     /tmp/ccQ7I3Tg.s:587    .text:00000000000003a0 .LVL69
     /tmp/ccQ7I3Tg.s:612    .text:00000000000003e0 .LVL74
     /tmp/ccQ7I3Tg.s:614    .text:00000000000003e4 .LVL75
     /tmp/ccQ7I3Tg.s:687    .text:0000000000000498 .LVL88
     /tmp/ccQ7I3Tg.s:689    .text:000000000000049c .LVL89
     /tmp/ccQ7I3Tg.s:713    .text:00000000000004c8 .LVL92
     /tmp/ccQ7I3Tg.s:647    .text:0000000000000428 .LVL80
     /tmp/ccQ7I3Tg.s:651    .text:0000000000000430 .LVL81
     /tmp/ccQ7I3Tg.s:716    .text:00000000000004cc .LVL93
     /tmp/ccQ7I3Tg.s:373    .text:0000000000000204 .LVL38
     /tmp/ccQ7I3Tg.s:391    .text:0000000000000224 .LVL40
     /tmp/ccQ7I3Tg.s:387    .text:000000000000021c .LVL39
     /tmp/ccQ7I3Tg.s:412    .text:000000000000025c .LVL44
     /tmp/ccQ7I3Tg.s:414    .text:0000000000000260 .LVL45
     /tmp/ccQ7I3Tg.s:513    .text:000000000000034c .LVL62
     /tmp/ccQ7I3Tg.s:515    .text:0000000000000350 .LVL63
     /tmp/ccQ7I3Tg.s:539    .text:000000000000037c .LVL66
     /tmp/ccQ7I3Tg.s:448    .text:0000000000000298 .LVL49
     /tmp/ccQ7I3Tg.s:473    .text:00000000000002dc .LVL54
     /tmp/ccQ7I3Tg.s:477    .text:00000000000002e4 .LVL55
     /tmp/ccQ7I3Tg.s:542    .text:0000000000000380 .LVL67
     /tmp/ccQ7I3Tg.s:228    .text:0000000000000140 .LVL22
     /tmp/ccQ7I3Tg.s:247    .text:0000000000000160 .LVL24
     /tmp/ccQ7I3Tg.s:242    .text:0000000000000158 .LVL23
     /tmp/ccQ7I3Tg.s:339    .text:00000000000001fc .LVL37
     /tmp/ccQ7I3Tg.s:286    .text:0000000000000190 .LVL30
     /tmp/ccQ7I3Tg.s:314    .text:00000000000001d4 .LVL34
     /tmp/ccQ7I3Tg.s:269    .text:0000000000000178 .LVL27
     /tmp/ccQ7I3Tg.s:278    .text:000000000000018c .LVL29
     /tmp/ccQ7I3Tg.s:95     .text:0000000000000074 .LVL7
     /tmp/ccQ7I3Tg.s:114    .text:0000000000000094 .LVL9
     /tmp/ccQ7I3Tg.s:109    .text:000000000000008c .LVL8
     /tmp/ccQ7I3Tg.s:206    .text:0000000000000138 .LVL21
     /tmp/ccQ7I3Tg.s:154    .text:00000000000000c8 .LVL15
     /tmp/ccQ7I3Tg.s:182    .text:000000000000010c .LVL19
GAS LISTING /tmp/ccQ7I3Tg.s 			page 33


     /tmp/ccQ7I3Tg.s:137    .text:00000000000000b0 .LVL12
     /tmp/ccQ7I3Tg.s:146    .text:00000000000000c4 .LVL14
     /tmp/ccQ7I3Tg.s:13     .text:0000000000000000 .LVL0
     /tmp/ccQ7I3Tg.s:36     .text:0000000000000030 .LVL1
     /tmp/ccQ7I3Tg.s:60     .text:000000000000005c .LVL4
     /tmp/ccQ7I3Tg.s:66     .text:0000000000000068 .LVL5
     /tmp/ccQ7I3Tg.s:847    .debug_info:0000000000000000 .Ldebug_info0
     /tmp/ccQ7I3Tg.s:117    .text:0000000000000094 .LBB4
     /tmp/ccQ7I3Tg.s:150    .text:00000000000000c4 .LBE4
     /tmp/ccQ7I3Tg.s:178    .text:0000000000000104 .LBB8
     /tmp/ccQ7I3Tg.s:184    .text:000000000000010c .LBE8
     /tmp/ccQ7I3Tg.s:250    .text:0000000000000160 .LBB12
     /tmp/ccQ7I3Tg.s:282    .text:000000000000018c .LBE12
     /tmp/ccQ7I3Tg.s:310    .text:00000000000001cc .LBB16
     /tmp/ccQ7I3Tg.s:316    .text:00000000000001d4 .LBE16

UNDEFINED SYMBOLS
thread_dispatch
_Z11printStringPKc
_Z8printIntiii
_ZN5Riscv11printStringEPKc
thread_create
_ZdlPv
