GAS LISTING /tmp/ccDFjEtA.s 			page 1


   1              		.file	"Threads_C_API_test.cpp"
   2              		.option pic
   3              		.option norelax
   4              		.text
   5              	.Ltext0:
   6              		.align	2
   8              	_ZL9fibonaccim:
   9              	.LFB23:
  10              		.file 1 "test/Threads_C_API_test.cpp"
   1:test/Threads_C_API_test.cpp **** //
   2:test/Threads_C_API_test.cpp **** // Created by os on 5/16/22.
   3:test/Threads_C_API_test.cpp **** //
   4:test/Threads_C_API_test.cpp **** 
   5:test/Threads_C_API_test.cpp **** #include "Threads_C_API_test.hpp"
   6:test/Threads_C_API_test.cpp **** 
   7:test/Threads_C_API_test.cpp **** static bool finishedA = false;
   8:test/Threads_C_API_test.cpp **** static bool finishedB = false;
   9:test/Threads_C_API_test.cpp **** static bool finishedC = false;
  10:test/Threads_C_API_test.cpp **** static bool finishedD = false;
  11:test/Threads_C_API_test.cpp **** 
  12:test/Threads_C_API_test.cpp **** static uint64 fibonacci(uint64 n) {
  11              		.loc 1 12 35
  12              		.cfi_startproc
  13              	.LVL0:
  14 0000 130101FE 		addi	sp,sp,-32
  15              		.cfi_def_cfa_offset 32
  16 0004 233C1100 		sd	ra,24(sp)
  17 0008 23388100 		sd	s0,16(sp)
  18 000c 23349100 		sd	s1,8(sp)
  19 0010 23302101 		sd	s2,0(sp)
  20              		.cfi_offset 1, -8
  21              		.cfi_offset 8, -16
  22              		.cfi_offset 9, -24
  23              		.cfi_offset 18, -32
  24 0014 13040102 		addi	s0,sp,32
  25              		.cfi_def_cfa 8, 0
  26 0018 93040500 		mv	s1,a0
  13:test/Threads_C_API_test.cpp ****     if (n == 0 || n == 1) {return n; }
  27              		.loc 1 13 5
  28 001c 93071000 		li	a5,1
  29 0020 63F8A702 		bleu	a0,a5,.L1
  14:test/Threads_C_API_test.cpp ****     if (n % 10 == 0) { thread_dispatch(); }
  30              		.loc 1 14 5
  31              		.loc 1 14 11 is_stmt 0
  32 0024 9307A000 		li	a5,10
  33 0028 B377F502 		remu	a5,a0,a5
  34              		.loc 1 14 5
  35 002c 638E0702 		beqz	a5,.L6
  36              	.LVL1:
  37              	.L3:
  15:test/Threads_C_API_test.cpp ****     return fibonacci(n - 1) + fibonacci(n - 2);
  38              		.loc 1 15 5 is_stmt 1
  39              		.loc 1 15 21 is_stmt 0
  40 0030 1385F4FF 		addi	a0,s1,-1
  41 0034 97000000 		call	_ZL9fibonaccim
  41      E7800000 
  42              	.LVL2:
GAS LISTING /tmp/ccDFjEtA.s 			page 2


  43 003c 13090500 		mv	s2,a0
  44              		.loc 1 15 40
  45 0040 1385E4FF 		addi	a0,s1,-2
  46 0044 97000000 		call	_ZL9fibonaccim
  46      E7800000 
  47              	.LVL3:
  48              		.loc 1 15 46
  49 004c 3305A900 		add	a0,s2,a0
  50              	.L1:
  16:test/Threads_C_API_test.cpp **** }
  51              		.loc 1 16 1
  52 0050 83308101 		ld	ra,24(sp)
  53              		.cfi_remember_state
  54              		.cfi_restore 1
  55 0054 03340101 		ld	s0,16(sp)
  56              		.cfi_restore 8
  57              		.cfi_def_cfa 2, 32
  58 0058 83348100 		ld	s1,8(sp)
  59              		.cfi_restore 9
  60              	.LVL4:
  61 005c 03390100 		ld	s2,0(sp)
  62              		.cfi_restore 18
  63 0060 13010102 		addi	sp,sp,32
  64              		.cfi_def_cfa_offset 0
  65 0064 67800000 		jr	ra
  66              	.LVL5:
  67              	.L6:
  68              		.cfi_restore_state
  14:test/Threads_C_API_test.cpp ****     if (n % 10 == 0) { thread_dispatch(); }
  69              		.loc 1 14 24 is_stmt 1 discriminator 1
  14:test/Threads_C_API_test.cpp ****     if (n % 10 == 0) { thread_dispatch(); }
  70              		.loc 1 14 39 is_stmt 0 discriminator 1
  71 0068 97000000 		call	thread_dispatch@plt
  71      E7800000 
  72              	.LVL6:
  73 0070 6FF01FFC 		j	.L3
  74              		.cfi_endproc
  75              	.LFE23:
  77              		.section	.rodata.str1.8,"aMS",@progbits,1
  78              		.align	3
  79              	.LC0:
  80 0000 433A2069 		.string	"C: i="
  80      3D00
  81 0006 0000     		.align	3
  82              	.LC1:
  83 0008 0A00     		.string	"\n"
  84 000a 00000000 		.align	3
  84      0000
  85              	.LC2:
  86 0010 433A2064 		.string	"C: dispatch\n"
  86      69737061 
  86      7463680A 
  86      00
  87 001d 000000   		.align	3
  88              	.LC3:
  89 0020 433A2072 		.string	"C: returned\n"
  89      65747572 
GAS LISTING /tmp/ccDFjEtA.s 			page 3


  89      6E65640A 
  89      00
  90 002d 000000   		.align	3
  91              	.LC4:
  92 0030 433A2074 		.string	"C: t1="
  92      313D00
  93 0037 00       		.align	3
  94              	.LC5:
  95 0038 433A2066 		.string	"C: fibonaci="
  95      69626F6E 
  95      6163693D 
  95      00
  96 0045 000000   		.align	3
  97              	.LC6:
  98 0048 43206669 		.string	"C finished!\n"
  98      6E697368 
  98      6564210A 
  98      00
  99              		.text
 100              		.align	2
 101              		.globl	_Z11workerBodyCPv
 103              	_Z11workerBodyCPv:
 104              	.LFB26:
  17:test/Threads_C_API_test.cpp **** 
  18:test/Threads_C_API_test.cpp **** void workerBodyA(void* arg) {
  19:test/Threads_C_API_test.cpp ****     for (uint64 i = 0; i < 10; i++) {
  20:test/Threads_C_API_test.cpp ****         printString("A: i="); printInt(i); printString("\n");
  21:test/Threads_C_API_test.cpp ****         for (uint64 j = 0; j < 10000; j++) {
  22:test/Threads_C_API_test.cpp ****             //Riscv::printString("A j : ");
  23:test/Threads_C_API_test.cpp ****             //Riscv::printInteger(j);
  24:test/Threads_C_API_test.cpp ****             for (uint64 k = 0; k < 30000; k++) { /* busy wait */ }
  25:test/Threads_C_API_test.cpp ****             thread_dispatch();
  26:test/Threads_C_API_test.cpp ****         }
  27:test/Threads_C_API_test.cpp ****     }
  28:test/Threads_C_API_test.cpp ****     Riscv::printString("A finished!\n");
  29:test/Threads_C_API_test.cpp ****     finishedA = true;
  30:test/Threads_C_API_test.cpp **** }
  31:test/Threads_C_API_test.cpp **** 
  32:test/Threads_C_API_test.cpp **** void workerBodyB(void* arg)
  33:test/Threads_C_API_test.cpp **** {
  34:test/Threads_C_API_test.cpp ****     for (uint64 i = 0; i < 16; i++) {
  35:test/Threads_C_API_test.cpp ****         printString("B: i="); printInt(i); printString("\n");
  36:test/Threads_C_API_test.cpp ****         for (uint64 j = 0; j < 10000; j++) {
  37:test/Threads_C_API_test.cpp ****             //Riscv::printString("B j : ");
  38:test/Threads_C_API_test.cpp ****             //Riscv::printInteger(j);
  39:test/Threads_C_API_test.cpp ****             for (uint64 k = 0; k < 30000; k++) { /* busy wait */ }
  40:test/Threads_C_API_test.cpp ****             thread_dispatch();
  41:test/Threads_C_API_test.cpp ****         }
  42:test/Threads_C_API_test.cpp ****     }
  43:test/Threads_C_API_test.cpp ****     Riscv::printString("B finished!\n");
  44:test/Threads_C_API_test.cpp ****     thread_dispatch();
  45:test/Threads_C_API_test.cpp ****     finishedB = true;
  46:test/Threads_C_API_test.cpp **** }
  47:test/Threads_C_API_test.cpp **** 
  48:test/Threads_C_API_test.cpp **** void workerBodyC(void* arg) {
 105              		.loc 1 48 29 is_stmt 1
 106              		.cfi_startproc
GAS LISTING /tmp/ccDFjEtA.s 			page 4


 107              	.LVL7:
 108 0074 130101FE 		addi	sp,sp,-32
 109              		.cfi_def_cfa_offset 32
 110 0078 233C1100 		sd	ra,24(sp)
 111 007c 23388100 		sd	s0,16(sp)
 112 0080 23349100 		sd	s1,8(sp)
 113 0084 23302101 		sd	s2,0(sp)
 114              		.cfi_offset 1, -8
 115              		.cfi_offset 8, -16
 116              		.cfi_offset 9, -24
 117              		.cfi_offset 18, -32
 118 0088 13040102 		addi	s0,sp,32
 119              		.cfi_def_cfa 8, 0
  49:test/Threads_C_API_test.cpp ****     uint8 i = 0;
 120              		.loc 1 49 5
 121              	.LVL8:
 122              		.loc 1 49 11 is_stmt 0
 123 008c 93040000 		li	s1,0
 124 0090 6F000004 		j	.L9
 125              	.LVL9:
 126              	.L13:
  50:test/Threads_C_API_test.cpp ****     for (; i < 3; i++) {
  51:test/Threads_C_API_test.cpp ****         printString("C: i="); printInt(i); printString("\n");
 127              		.loc 1 51 9 is_stmt 1 discriminator 1
 128              		.loc 1 51 20 is_stmt 0 discriminator 1
 129 0094 17050000 		lla	a0,.LC0
 129      13050500 
 130 009c 97000000 		call	_Z11printStringPKc@plt
 130      E7800000 
 131              	.LVL10:
 132              		.loc 1 51 31 is_stmt 1 discriminator 1
 133              		.loc 1 51 39 is_stmt 0 discriminator 1
 134 00a4 13060000 		li	a2,0
 135 00a8 9305A000 		li	a1,10
 136 00ac 13850400 		mv	a0,s1
 137 00b0 97000000 		call	_Z8printIntiii@plt
 137      E7800000 
 138              	.LVL11:
 139              		.loc 1 51 44 is_stmt 1 discriminator 1
 140              		.loc 1 51 55 is_stmt 0 discriminator 1
 141 00b8 17050000 		lla	a0,.LC1
 141      13050500 
 142 00c0 97000000 		call	_Z11printStringPKc@plt
 142      E7800000 
 143              	.LVL12:
  50:test/Threads_C_API_test.cpp ****     for (; i < 3; i++) {
 144              		.loc 1 50 5 is_stmt 1 discriminator 1
 145 00c8 9B841400 		addiw	s1,s1,1
 146              	.LVL13:
 147 00cc 93F4F40F 		andi	s1,s1,0xff
 148              	.LVL14:
 149              	.L9:
  50:test/Threads_C_API_test.cpp ****     for (; i < 3; i++) {
 150              		.loc 1 50 5 discriminator 2
  50:test/Threads_C_API_test.cpp ****     for (; i < 3; i++) {
 151              		.loc 1 50 14 discriminator 2
 152 00d0 93072000 		li	a5,2
GAS LISTING /tmp/ccDFjEtA.s 			page 5


 153 00d4 E3F097FC 		bleu	s1,a5,.L13
  52:test/Threads_C_API_test.cpp ****     }
  53:test/Threads_C_API_test.cpp **** 
  54:test/Threads_C_API_test.cpp ****     printString("C: dispatch\n");
 154              		.loc 1 54 5
 155              		.loc 1 54 16 is_stmt 0
 156 00d8 17050000 		lla	a0,.LC2
 156      13050500 
 157 00e0 97000000 		call	_Z11printStringPKc@plt
 157      E7800000 
 158              	.LVL15:
  55:test/Threads_C_API_test.cpp ****     __asm__ ("li t1, 7");
 159              		.loc 1 55 5 is_stmt 1
 160              		.loc 1 55 25 is_stmt 0
 161              	#APP
 162              	# 55 "test/Threads_C_API_test.cpp" 1
  56              	    thread_dispatch();
 163              		li t1, 7
 164              	# 0 "" 2
 165              		.loc 1 56 5 is_stmt 1
 166              		.loc 1 56 20 is_stmt 0
 167              	#NO_APP
 168 00ec 97000000 		call	thread_dispatch@plt
 168      E7800000 
 169              	.LVL16:
  57:test/Threads_C_API_test.cpp ****     printString("C: returned\n");
 170              		.loc 1 57 5 is_stmt 1
 171              		.loc 1 57 16 is_stmt 0
 172 00f4 17050000 		lla	a0,.LC3
 172      13050500 
 173 00fc 97000000 		call	_Z11printStringPKc@plt
 173      E7800000 
 174              	.LVL17:
  58:test/Threads_C_API_test.cpp ****     uint64 t1 = 0;
 175              		.loc 1 58 5 is_stmt 1
  59:test/Threads_C_API_test.cpp ****     __asm__ ("mv %[t1], t1" : [t1] "=r"(t1));
 176              		.loc 1 59 5
 177              		.loc 1 59 45 is_stmt 0
 178              	#APP
 179              	# 59 "test/Threads_C_API_test.cpp" 1
  60              	
 180              		mv s2, t1
 181              	# 0 "" 2
 182              	.LVL18:
  61:test/Threads_C_API_test.cpp ****     printString("C: t1="); printInt(t1); printString("\n");
 183              		.loc 1 61 5 is_stmt 1
 184              		.loc 1 61 16 is_stmt 0
 185              	#NO_APP
 186 0108 17050000 		lla	a0,.LC4
 186      13050500 
 187 0110 97000000 		call	_Z11printStringPKc@plt
 187      E7800000 
 188              	.LVL19:
 189              		.loc 1 61 28 is_stmt 1
 190              		.loc 1 61 36 is_stmt 0
 191 0118 13060000 		li	a2,0
 192 011c 9305A000 		li	a1,10
GAS LISTING /tmp/ccDFjEtA.s 			page 6


 193 0120 1B050900 		sext.w	a0,s2
 194 0124 97000000 		call	_Z8printIntiii@plt
 194      E7800000 
 195              	.LVL20:
 196              		.loc 1 61 42 is_stmt 1
 197              		.loc 1 61 53 is_stmt 0
 198 012c 17050000 		lla	a0,.LC1
 198      13050500 
 199 0134 97000000 		call	_Z11printStringPKc@plt
 199      E7800000 
 200              	.LVL21:
  62:test/Threads_C_API_test.cpp **** 
  63:test/Threads_C_API_test.cpp ****     uint64 result = fibonacci(12);
 201              		.loc 1 63 5 is_stmt 1
 202              		.loc 1 63 30 is_stmt 0
 203 013c 1305C000 		li	a0,12
 204 0140 97000000 		call	_ZL9fibonaccim
 204      E7800000 
 205              	.LVL22:
 206 0148 13090500 		mv	s2,a0
 207              	.LVL23:
  64:test/Threads_C_API_test.cpp ****     printString("C: fibonaci="); printInt(result); printString("\n");
 208              		.loc 1 64 5 is_stmt 1
 209              		.loc 1 64 16 is_stmt 0
 210 014c 17050000 		lla	a0,.LC5
 210      13050500 
 211              	.LVL24:
 212 0154 97000000 		call	_Z11printStringPKc@plt
 212      E7800000 
 213              	.LVL25:
 214              		.loc 1 64 34 is_stmt 1
 215              		.loc 1 64 42 is_stmt 0
 216 015c 13060000 		li	a2,0
 217 0160 9305A000 		li	a1,10
 218 0164 1B050900 		sext.w	a0,s2
 219 0168 97000000 		call	_Z8printIntiii@plt
 219      E7800000 
 220              	.LVL26:
 221              		.loc 1 64 52 is_stmt 1
 222              		.loc 1 64 63 is_stmt 0
 223 0170 17050000 		lla	a0,.LC1
 223      13050500 
 224 0178 97000000 		call	_Z11printStringPKc@plt
 224      E7800000 
 225              	.LVL27:
 226 0180 6F000004 		j	.L11
 227              	.L14:
  65:test/Threads_C_API_test.cpp **** 
  66:test/Threads_C_API_test.cpp ****     for (; i < 6; i++) {
  67:test/Threads_C_API_test.cpp ****         printString("C: i="); printInt(i); printString("\n");
 228              		.loc 1 67 9 is_stmt 1 discriminator 1
 229              		.loc 1 67 20 is_stmt 0 discriminator 1
 230 0184 17050000 		lla	a0,.LC0
 230      13050500 
 231 018c 97000000 		call	_Z11printStringPKc@plt
 231      E7800000 
 232              	.LVL28:
GAS LISTING /tmp/ccDFjEtA.s 			page 7


 233              		.loc 1 67 31 is_stmt 1 discriminator 1
 234              		.loc 1 67 39 is_stmt 0 discriminator 1
 235 0194 13060000 		li	a2,0
 236 0198 9305A000 		li	a1,10
 237 019c 13850400 		mv	a0,s1
 238 01a0 97000000 		call	_Z8printIntiii@plt
 238      E7800000 
 239              	.LVL29:
 240              		.loc 1 67 44 is_stmt 1 discriminator 1
 241              		.loc 1 67 55 is_stmt 0 discriminator 1
 242 01a8 17050000 		lla	a0,.LC1
 242      13050500 
 243 01b0 97000000 		call	_Z11printStringPKc@plt
 243      E7800000 
 244              	.LVL30:
  66:test/Threads_C_API_test.cpp ****         printString("C: i="); printInt(i); printString("\n");
 245              		.loc 1 66 5 is_stmt 1 discriminator 1
 246 01b8 9B841400 		addiw	s1,s1,1
 247              	.LVL31:
 248 01bc 93F4F40F 		andi	s1,s1,0xff
 249              	.LVL32:
 250              	.L11:
  66:test/Threads_C_API_test.cpp ****         printString("C: i="); printInt(i); printString("\n");
 251              		.loc 1 66 5 discriminator 2
  66:test/Threads_C_API_test.cpp ****         printString("C: i="); printInt(i); printString("\n");
 252              		.loc 1 66 14 discriminator 2
 253 01c0 93075000 		li	a5,5
 254 01c4 E3F097FC 		bleu	s1,a5,.L14
  68:test/Threads_C_API_test.cpp ****     }
  69:test/Threads_C_API_test.cpp **** 
  70:test/Threads_C_API_test.cpp ****     printString("C finished!\n");
 255              		.loc 1 70 5
 256              		.loc 1 70 16 is_stmt 0
 257 01c8 17050000 		lla	a0,.LC6
 257      13050500 
 258 01d0 97000000 		call	_Z11printStringPKc@plt
 258      E7800000 
 259              	.LVL33:
  71:test/Threads_C_API_test.cpp ****     thread_dispatch();
 260              		.loc 1 71 5 is_stmt 1
 261              		.loc 1 71 20 is_stmt 0
 262 01d8 97000000 		call	thread_dispatch@plt
 262      E7800000 
 263              	.LVL34:
  72:test/Threads_C_API_test.cpp ****     finishedC = true;
 264              		.loc 1 72 5 is_stmt 1
  73:test/Threads_C_API_test.cpp **** }
 265              		.loc 1 73 1 is_stmt 0
 266 01e0 83308101 		ld	ra,24(sp)
 267              		.cfi_restore 1
 268 01e4 03340101 		ld	s0,16(sp)
 269              		.cfi_restore 8
 270              		.cfi_def_cfa 2, 32
 271 01e8 83348100 		ld	s1,8(sp)
 272              		.cfi_restore 9
 273              	.LVL35:
 274 01ec 03390100 		ld	s2,0(sp)
GAS LISTING /tmp/ccDFjEtA.s 			page 8


 275              		.cfi_restore 18
 276              	.LVL36:
 277 01f0 13010102 		addi	sp,sp,32
 278              		.cfi_def_cfa_offset 0
 279 01f4 67800000 		jr	ra
 280              		.cfi_endproc
 281              	.LFE26:
 283              		.section	.rodata.str1.8
 284 0055 000000   		.align	3
 285              	.LC7:
 286 0058 443A2069 		.string	"D: i="
 286      3D00
 287 005e 0000     		.align	3
 288              	.LC8:
 289 0060 443A2064 		.string	"D: dispatch\n"
 289      69737061 
 289      7463680A 
 289      00
 290 006d 000000   		.align	3
 291              	.LC9:
 292 0070 443A2072 		.string	"D: returned\n"
 292      65747572 
 292      6E65640A 
 292      00
 293 007d 000000   		.align	3
 294              	.LC10:
 295 0080 443A2066 		.string	"D: fibonaci="
 295      69626F6E 
 295      6163693D 
 295      00
 296 008d 000000   		.align	3
 297              	.LC11:
 298 0090 44206669 		.string	"D finished!\n"
 298      6E697368 
 298      6564210A 
 298      00
 299              		.text
 300              		.align	2
 301              		.globl	_Z11workerBodyDPv
 303              	_Z11workerBodyDPv:
 304              	.LFB27:
  74:test/Threads_C_API_test.cpp **** 
  75:test/Threads_C_API_test.cpp **** void workerBodyD(void* arg) {
 305              		.loc 1 75 29 is_stmt 1
 306              		.cfi_startproc
 307              	.LVL37:
 308 01f8 130101FE 		addi	sp,sp,-32
 309              		.cfi_def_cfa_offset 32
 310 01fc 233C1100 		sd	ra,24(sp)
 311 0200 23388100 		sd	s0,16(sp)
 312 0204 23349100 		sd	s1,8(sp)
 313 0208 23302101 		sd	s2,0(sp)
 314              		.cfi_offset 1, -8
 315              		.cfi_offset 8, -16
 316              		.cfi_offset 9, -24
 317              		.cfi_offset 18, -32
 318 020c 13040102 		addi	s0,sp,32
GAS LISTING /tmp/ccDFjEtA.s 			page 9


 319              		.cfi_def_cfa 8, 0
  76:test/Threads_C_API_test.cpp ****     uint8 i = 10;
 320              		.loc 1 76 5
 321              	.LVL38:
 322              		.loc 1 76 11 is_stmt 0
 323 0210 9304A000 		li	s1,10
 324 0214 6F000004 		j	.L17
 325              	.LVL39:
 326              	.L21:
  77:test/Threads_C_API_test.cpp ****     for (; i < 13; i++) {
  78:test/Threads_C_API_test.cpp ****         printString("D: i="); printInt(i); printString("\n");
 327              		.loc 1 78 9 is_stmt 1 discriminator 1
 328              		.loc 1 78 20 is_stmt 0 discriminator 1
 329 0218 17050000 		lla	a0,.LC7
 329      13050500 
 330 0220 97000000 		call	_Z11printStringPKc@plt
 330      E7800000 
 331              	.LVL40:
 332              		.loc 1 78 31 is_stmt 1 discriminator 1
 333              		.loc 1 78 39 is_stmt 0 discriminator 1
 334 0228 13060000 		li	a2,0
 335 022c 9305A000 		li	a1,10
 336 0230 13850400 		mv	a0,s1
 337 0234 97000000 		call	_Z8printIntiii@plt
 337      E7800000 
 338              	.LVL41:
 339              		.loc 1 78 44 is_stmt 1 discriminator 1
 340              		.loc 1 78 55 is_stmt 0 discriminator 1
 341 023c 17050000 		lla	a0,.LC1
 341      13050500 
 342 0244 97000000 		call	_Z11printStringPKc@plt
 342      E7800000 
 343              	.LVL42:
  77:test/Threads_C_API_test.cpp ****     for (; i < 13; i++) {
 344              		.loc 1 77 5 is_stmt 1 discriminator 1
 345 024c 9B841400 		addiw	s1,s1,1
 346              	.LVL43:
 347 0250 93F4F40F 		andi	s1,s1,0xff
 348              	.LVL44:
 349              	.L17:
  77:test/Threads_C_API_test.cpp ****     for (; i < 13; i++) {
 350              		.loc 1 77 5 discriminator 2
  77:test/Threads_C_API_test.cpp ****     for (; i < 13; i++) {
 351              		.loc 1 77 14 discriminator 2
 352 0254 9307C000 		li	a5,12
 353 0258 E3F097FC 		bleu	s1,a5,.L21
  79:test/Threads_C_API_test.cpp ****     }
  80:test/Threads_C_API_test.cpp **** 
  81:test/Threads_C_API_test.cpp ****     printString("D: dispatch\n");
 354              		.loc 1 81 5
 355              		.loc 1 81 16 is_stmt 0
 356 025c 17050000 		lla	a0,.LC8
 356      13050500 
 357 0264 97000000 		call	_Z11printStringPKc@plt
 357      E7800000 
 358              	.LVL45:
  82:test/Threads_C_API_test.cpp ****     __asm__ ("li t1, 5");
GAS LISTING /tmp/ccDFjEtA.s 			page 10


 359              		.loc 1 82 5 is_stmt 1
 360              		.loc 1 82 25 is_stmt 0
 361              	#APP
 362              	# 82 "test/Threads_C_API_test.cpp" 1
  83              	    thread_dispatch();
 363              		li t1, 5
 364              	# 0 "" 2
 365              		.loc 1 83 5 is_stmt 1
 366              		.loc 1 83 20 is_stmt 0
 367              	#NO_APP
 368 0270 97000000 		call	thread_dispatch@plt
 368      E7800000 
 369              	.LVL46:
  84:test/Threads_C_API_test.cpp ****     printString("D: returned\n");
 370              		.loc 1 84 5 is_stmt 1
 371              		.loc 1 84 16 is_stmt 0
 372 0278 17050000 		lla	a0,.LC9
 372      13050500 
 373 0280 97000000 		call	_Z11printStringPKc@plt
 373      E7800000 
 374              	.LVL47:
  85:test/Threads_C_API_test.cpp ****     uint64 result = fibonacci(16);
 375              		.loc 1 85 5 is_stmt 1
 376              		.loc 1 85 30 is_stmt 0
 377 0288 13050001 		li	a0,16
 378 028c 97000000 		call	_ZL9fibonaccim
 378      E7800000 
 379              	.LVL48:
 380 0294 13090500 		mv	s2,a0
 381              	.LVL49:
  86:test/Threads_C_API_test.cpp ****     printString("D: fibonaci="); printInt(result); printString("\n");
 382              		.loc 1 86 5 is_stmt 1
 383              		.loc 1 86 16 is_stmt 0
 384 0298 17050000 		lla	a0,.LC10
 384      13050500 
 385              	.LVL50:
 386 02a0 97000000 		call	_Z11printStringPKc@plt
 386      E7800000 
 387              	.LVL51:
 388              		.loc 1 86 34 is_stmt 1
 389              		.loc 1 86 42 is_stmt 0
 390 02a8 13060000 		li	a2,0
 391 02ac 9305A000 		li	a1,10
 392 02b0 1B050900 		sext.w	a0,s2
 393 02b4 97000000 		call	_Z8printIntiii@plt
 393      E7800000 
 394              	.LVL52:
 395              		.loc 1 86 52 is_stmt 1
 396              		.loc 1 86 63 is_stmt 0
 397 02bc 17050000 		lla	a0,.LC1
 397      13050500 
 398 02c4 97000000 		call	_Z11printStringPKc@plt
 398      E7800000 
 399              	.LVL53:
 400 02cc 6F000004 		j	.L19
 401              	.L22:
  87:test/Threads_C_API_test.cpp **** 
GAS LISTING /tmp/ccDFjEtA.s 			page 11


  88:test/Threads_C_API_test.cpp ****     for (; i < 16; i++) {
  89:test/Threads_C_API_test.cpp ****         printString("D: i="); printInt(i); printString("\n");
 402              		.loc 1 89 9 is_stmt 1 discriminator 1
 403              		.loc 1 89 20 is_stmt 0 discriminator 1
 404 02d0 17050000 		lla	a0,.LC7
 404      13050500 
 405 02d8 97000000 		call	_Z11printStringPKc@plt
 405      E7800000 
 406              	.LVL54:
 407              		.loc 1 89 31 is_stmt 1 discriminator 1
 408              		.loc 1 89 39 is_stmt 0 discriminator 1
 409 02e0 13060000 		li	a2,0
 410 02e4 9305A000 		li	a1,10
 411 02e8 13850400 		mv	a0,s1
 412 02ec 97000000 		call	_Z8printIntiii@plt
 412      E7800000 
 413              	.LVL55:
 414              		.loc 1 89 44 is_stmt 1 discriminator 1
 415              		.loc 1 89 55 is_stmt 0 discriminator 1
 416 02f4 17050000 		lla	a0,.LC1
 416      13050500 
 417 02fc 97000000 		call	_Z11printStringPKc@plt
 417      E7800000 
 418              	.LVL56:
  88:test/Threads_C_API_test.cpp ****         printString("D: i="); printInt(i); printString("\n");
 419              		.loc 1 88 5 is_stmt 1 discriminator 1
 420 0304 9B841400 		addiw	s1,s1,1
 421              	.LVL57:
 422 0308 93F4F40F 		andi	s1,s1,0xff
 423              	.LVL58:
 424              	.L19:
  88:test/Threads_C_API_test.cpp ****         printString("D: i="); printInt(i); printString("\n");
 425              		.loc 1 88 5 discriminator 2
  88:test/Threads_C_API_test.cpp ****         printString("D: i="); printInt(i); printString("\n");
 426              		.loc 1 88 14 discriminator 2
 427 030c 9307F000 		li	a5,15
 428 0310 E3F097FC 		bleu	s1,a5,.L22
  90:test/Threads_C_API_test.cpp ****     }
  91:test/Threads_C_API_test.cpp **** 
  92:test/Threads_C_API_test.cpp ****     printString("D finished!\n");
 429              		.loc 1 92 5
 430              		.loc 1 92 16 is_stmt 0
 431 0314 17050000 		lla	a0,.LC11
 431      13050500 
 432 031c 97000000 		call	_Z11printStringPKc@plt
 432      E7800000 
 433              	.LVL59:
  93:test/Threads_C_API_test.cpp ****     thread_dispatch();
 434              		.loc 1 93 5 is_stmt 1
 435              		.loc 1 93 20 is_stmt 0
 436 0324 97000000 		call	thread_dispatch@plt
 436      E7800000 
 437              	.LVL60:
  94:test/Threads_C_API_test.cpp ****     finishedD = true;
 438              		.loc 1 94 5 is_stmt 1
  95:test/Threads_C_API_test.cpp **** }
 439              		.loc 1 95 1 is_stmt 0
GAS LISTING /tmp/ccDFjEtA.s 			page 12


 440 032c 83308101 		ld	ra,24(sp)
 441              		.cfi_restore 1
 442 0330 03340101 		ld	s0,16(sp)
 443              		.cfi_restore 8
 444              		.cfi_def_cfa 2, 32
 445 0334 83348100 		ld	s1,8(sp)
 446              		.cfi_restore 9
 447              	.LVL61:
 448 0338 03390100 		ld	s2,0(sp)
 449              		.cfi_restore 18
 450              	.LVL62:
 451 033c 13010102 		addi	sp,sp,32
 452              		.cfi_def_cfa_offset 0
 453 0340 67800000 		jr	ra
 454              		.cfi_endproc
 455              	.LFE27:
 457              		.section	.rodata.str1.8
 458 009d 000000   		.align	3
 459              	.LC12:
 460 00a0 413A2069 		.string	"A: i="
 460      3D00
 461 00a6 0000     		.align	3
 462              	.LC13:
 463 00a8 41206669 		.string	"A finished!\n"
 463      6E697368 
 463      6564210A 
 463      00
 464              		.text
 465              		.align	2
 466              		.globl	_Z11workerBodyAPv
 468              	_Z11workerBodyAPv:
 469              	.LFB24:
  18:test/Threads_C_API_test.cpp ****     for (uint64 i = 0; i < 10; i++) {
 470              		.loc 1 18 29 is_stmt 1
 471              		.cfi_startproc
 472              	.LVL63:
 473 0344 130101FE 		addi	sp,sp,-32
 474              		.cfi_def_cfa_offset 32
 475 0348 233C1100 		sd	ra,24(sp)
 476 034c 23388100 		sd	s0,16(sp)
 477 0350 23349100 		sd	s1,8(sp)
 478 0354 23302101 		sd	s2,0(sp)
 479              		.cfi_offset 1, -8
 480              		.cfi_offset 8, -16
 481              		.cfi_offset 9, -24
 482              		.cfi_offset 18, -32
 483 0358 13040102 		addi	s0,sp,32
 484              		.cfi_def_cfa 8, 0
  19:test/Threads_C_API_test.cpp ****         printString("A: i="); printInt(i); printString("\n");
 485              		.loc 1 19 5
 486              	.LVL64:
 487              	.LBB2:
  19:test/Threads_C_API_test.cpp ****         printString("A: i="); printInt(i); printString("\n");
 488              		.loc 1 19 17 is_stmt 0
 489 035c 13090000 		li	s2,0
 490 0360 6F008003 		j	.L29
 491              	.LVL65:
GAS LISTING /tmp/ccDFjEtA.s 			page 13


 492              	.L26:
 493              	.LBB3:
 494              	.LBB4:
 495              	.LBB5:
  25:test/Threads_C_API_test.cpp ****         }
 496              		.loc 1 25 13 is_stmt 1 discriminator 2
  25:test/Threads_C_API_test.cpp ****         }
 497              		.loc 1 25 28 is_stmt 0 discriminator 2
 498 0364 97000000 		call	thread_dispatch@plt
 498      E7800000 
 499              	.LVL66:
 500              	.LBE5:
  21:test/Threads_C_API_test.cpp ****             //Riscv::printString("A j : ");
 501              		.loc 1 21 9 is_stmt 1 discriminator 2
 502 036c 93841400 		addi	s1,s1,1
 503              	.LVL67:
 504              	.L28:
  21:test/Threads_C_API_test.cpp ****             //Riscv::printString("A j : ");
 505              		.loc 1 21 30 discriminator 1
 506 0370 B7270000 		li	a5,8192
 507 0374 9387F770 		addi	a5,a5,1807
 508 0378 63EE9700 		bgtu	s1,a5,.L25
 509              	.LBB7:
 510              	.LBB6:
  24:test/Threads_C_API_test.cpp ****             thread_dispatch();
 511              		.loc 1 24 25 is_stmt 0
 512 037c 13070000 		li	a4,0
 513              	.L27:
 514              	.LVL68:
  24:test/Threads_C_API_test.cpp ****             thread_dispatch();
 515              		.loc 1 24 34 is_stmt 1 discriminator 3
 516 0380 B7770000 		li	a5,28672
 517 0384 9387F752 		addi	a5,a5,1327
 518 0388 E3EEE7FC 		bgtu	a4,a5,.L26
  24:test/Threads_C_API_test.cpp ****             thread_dispatch();
 519              		.loc 1 24 13 discriminator 2
 520 038c 13071700 		addi	a4,a4,1
 521              	.LVL69:
 522 0390 6FF01FFF 		j	.L27
 523              	.LVL70:
 524              	.L25:
 525              	.LBE6:
 526              	.LBE7:
 527              	.LBE4:
 528              	.LBE3:
  19:test/Threads_C_API_test.cpp ****         printString("A: i="); printInt(i); printString("\n");
 529              		.loc 1 19 5 discriminator 2
 530 0394 13091900 		addi	s2,s2,1
 531              	.LVL71:
 532              	.L29:
  19:test/Threads_C_API_test.cpp ****         printString("A: i="); printInt(i); printString("\n");
 533              		.loc 1 19 26 discriminator 1
 534 0398 93079000 		li	a5,9
 535 039c 63E02705 		bgtu	s2,a5,.L24
 536              	.LBB9:
  20:test/Threads_C_API_test.cpp ****         for (uint64 j = 0; j < 10000; j++) {
 537              		.loc 1 20 9
GAS LISTING /tmp/ccDFjEtA.s 			page 14


  20:test/Threads_C_API_test.cpp ****         for (uint64 j = 0; j < 10000; j++) {
 538              		.loc 1 20 20 is_stmt 0
 539 03a0 17050000 		lla	a0,.LC12
 539      13050500 
 540 03a8 97000000 		call	_Z11printStringPKc@plt
 540      E7800000 
 541              	.LVL72:
  20:test/Threads_C_API_test.cpp ****         for (uint64 j = 0; j < 10000; j++) {
 542              		.loc 1 20 31 is_stmt 1
  20:test/Threads_C_API_test.cpp ****         for (uint64 j = 0; j < 10000; j++) {
 543              		.loc 1 20 39 is_stmt 0
 544 03b0 13060000 		li	a2,0
 545 03b4 9305A000 		li	a1,10
 546 03b8 1B050900 		sext.w	a0,s2
 547 03bc 97000000 		call	_Z8printIntiii@plt
 547      E7800000 
 548              	.LVL73:
  20:test/Threads_C_API_test.cpp ****         for (uint64 j = 0; j < 10000; j++) {
 549              		.loc 1 20 44 is_stmt 1
  20:test/Threads_C_API_test.cpp ****         for (uint64 j = 0; j < 10000; j++) {
 550              		.loc 1 20 55 is_stmt 0
 551 03c4 17050000 		lla	a0,.LC1
 551      13050500 
 552 03cc 97000000 		call	_Z11printStringPKc@plt
 552      E7800000 
 553              	.LVL74:
  21:test/Threads_C_API_test.cpp ****             //Riscv::printString("A j : ");
 554              		.loc 1 21 9 is_stmt 1
 555              	.LBB8:
  21:test/Threads_C_API_test.cpp ****             //Riscv::printString("A j : ");
 556              		.loc 1 21 21 is_stmt 0
 557 03d4 93040000 		li	s1,0
 558 03d8 6FF09FF9 		j	.L28
 559              	.LVL75:
 560              	.L24:
 561              	.LBE8:
 562              	.LBE9:
 563              	.LBE2:
  28:test/Threads_C_API_test.cpp ****     finishedA = true;
 564              		.loc 1 28 5 is_stmt 1
  28:test/Threads_C_API_test.cpp ****     finishedA = true;
 565              		.loc 1 28 23 is_stmt 0
 566 03dc 17050000 		lla	a0,.LC13
 566      13050500 
 567 03e4 97000000 		call	_ZN5Riscv11printStringEPKc@plt
 567      E7800000 
 568              	.LVL76:
  29:test/Threads_C_API_test.cpp **** }
 569              		.loc 1 29 5 is_stmt 1
  30:test/Threads_C_API_test.cpp **** 
 570              		.loc 1 30 1 is_stmt 0
 571 03ec 83308101 		ld	ra,24(sp)
 572              		.cfi_restore 1
 573 03f0 03340101 		ld	s0,16(sp)
 574              		.cfi_restore 8
 575              		.cfi_def_cfa 2, 32
 576 03f4 83348100 		ld	s1,8(sp)
GAS LISTING /tmp/ccDFjEtA.s 			page 15


 577              		.cfi_restore 9
 578 03f8 03390100 		ld	s2,0(sp)
 579              		.cfi_restore 18
 580              	.LVL77:
 581 03fc 13010102 		addi	sp,sp,32
 582              		.cfi_def_cfa_offset 0
 583 0400 67800000 		jr	ra
 584              		.cfi_endproc
 585              	.LFE24:
 587              		.section	.rodata.str1.8
 588 00b5 000000   		.align	3
 589              	.LC14:
 590 00b8 423A2069 		.string	"B: i="
 590      3D00
 591 00be 0000     		.align	3
 592              	.LC15:
 593 00c0 42206669 		.string	"B finished!\n"
 593      6E697368 
 593      6564210A 
 593      00
 594              		.text
 595              		.align	2
 596              		.globl	_Z11workerBodyBPv
 598              	_Z11workerBodyBPv:
 599              	.LFB25:
  33:test/Threads_C_API_test.cpp ****     for (uint64 i = 0; i < 16; i++) {
 600              		.loc 1 33 1 is_stmt 1
 601              		.cfi_startproc
 602              	.LVL78:
 603 0404 130101FE 		addi	sp,sp,-32
 604              		.cfi_def_cfa_offset 32
 605 0408 233C1100 		sd	ra,24(sp)
 606 040c 23388100 		sd	s0,16(sp)
 607 0410 23349100 		sd	s1,8(sp)
 608 0414 23302101 		sd	s2,0(sp)
 609              		.cfi_offset 1, -8
 610              		.cfi_offset 8, -16
 611              		.cfi_offset 9, -24
 612              		.cfi_offset 18, -32
 613 0418 13040102 		addi	s0,sp,32
 614              		.cfi_def_cfa 8, 0
  34:test/Threads_C_API_test.cpp ****         printString("B: i="); printInt(i); printString("\n");
 615              		.loc 1 34 5
 616              	.LVL79:
 617              	.LBB10:
  34:test/Threads_C_API_test.cpp ****         printString("B: i="); printInt(i); printString("\n");
 618              		.loc 1 34 17 is_stmt 0
 619 041c 13090000 		li	s2,0
 620 0420 6F008003 		j	.L37
 621              	.LVL80:
 622              	.L34:
 623              	.LBB11:
 624              	.LBB12:
 625              	.LBB13:
  40:test/Threads_C_API_test.cpp ****         }
 626              		.loc 1 40 13 is_stmt 1 discriminator 2
  40:test/Threads_C_API_test.cpp ****         }
GAS LISTING /tmp/ccDFjEtA.s 			page 16


 627              		.loc 1 40 28 is_stmt 0 discriminator 2
 628 0424 97000000 		call	thread_dispatch@plt
 628      E7800000 
 629              	.LVL81:
 630              	.LBE13:
  36:test/Threads_C_API_test.cpp ****             //Riscv::printString("B j : ");
 631              		.loc 1 36 9 is_stmt 1 discriminator 2
 632 042c 93841400 		addi	s1,s1,1
 633              	.LVL82:
 634              	.L36:
  36:test/Threads_C_API_test.cpp ****             //Riscv::printString("B j : ");
 635              		.loc 1 36 30 discriminator 1
 636 0430 B7270000 		li	a5,8192
 637 0434 9387F770 		addi	a5,a5,1807
 638 0438 63EE9700 		bgtu	s1,a5,.L33
 639              	.LBB15:
 640              	.LBB14:
  39:test/Threads_C_API_test.cpp ****             thread_dispatch();
 641              		.loc 1 39 25 is_stmt 0
 642 043c 13070000 		li	a4,0
 643              	.L35:
 644              	.LVL83:
  39:test/Threads_C_API_test.cpp ****             thread_dispatch();
 645              		.loc 1 39 34 is_stmt 1 discriminator 3
 646 0440 B7770000 		li	a5,28672
 647 0444 9387F752 		addi	a5,a5,1327
 648 0448 E3EEE7FC 		bgtu	a4,a5,.L34
  39:test/Threads_C_API_test.cpp ****             thread_dispatch();
 649              		.loc 1 39 13 discriminator 2
 650 044c 13071700 		addi	a4,a4,1
 651              	.LVL84:
 652 0450 6FF01FFF 		j	.L35
 653              	.LVL85:
 654              	.L33:
 655              	.LBE14:
 656              	.LBE15:
 657              	.LBE12:
 658              	.LBE11:
  34:test/Threads_C_API_test.cpp ****         printString("B: i="); printInt(i); printString("\n");
 659              		.loc 1 34 5 discriminator 2
 660 0454 13091900 		addi	s2,s2,1
 661              	.LVL86:
 662              	.L37:
  34:test/Threads_C_API_test.cpp ****         printString("B: i="); printInt(i); printString("\n");
 663              		.loc 1 34 26 discriminator 1
 664 0458 9307F000 		li	a5,15
 665 045c 63E02705 		bgtu	s2,a5,.L32
 666              	.LBB17:
  35:test/Threads_C_API_test.cpp ****         for (uint64 j = 0; j < 10000; j++) {
 667              		.loc 1 35 9
  35:test/Threads_C_API_test.cpp ****         for (uint64 j = 0; j < 10000; j++) {
 668              		.loc 1 35 20 is_stmt 0
 669 0460 17050000 		lla	a0,.LC14
 669      13050500 
 670 0468 97000000 		call	_Z11printStringPKc@plt
 670      E7800000 
 671              	.LVL87:
GAS LISTING /tmp/ccDFjEtA.s 			page 17


  35:test/Threads_C_API_test.cpp ****         for (uint64 j = 0; j < 10000; j++) {
 672              		.loc 1 35 31 is_stmt 1
  35:test/Threads_C_API_test.cpp ****         for (uint64 j = 0; j < 10000; j++) {
 673              		.loc 1 35 39 is_stmt 0
 674 0470 13060000 		li	a2,0
 675 0474 9305A000 		li	a1,10
 676 0478 1B050900 		sext.w	a0,s2
 677 047c 97000000 		call	_Z8printIntiii@plt
 677      E7800000 
 678              	.LVL88:
  35:test/Threads_C_API_test.cpp ****         for (uint64 j = 0; j < 10000; j++) {
 679              		.loc 1 35 44 is_stmt 1
  35:test/Threads_C_API_test.cpp ****         for (uint64 j = 0; j < 10000; j++) {
 680              		.loc 1 35 55 is_stmt 0
 681 0484 17050000 		lla	a0,.LC1
 681      13050500 
 682 048c 97000000 		call	_Z11printStringPKc@plt
 682      E7800000 
 683              	.LVL89:
  36:test/Threads_C_API_test.cpp ****             //Riscv::printString("B j : ");
 684              		.loc 1 36 9 is_stmt 1
 685              	.LBB16:
  36:test/Threads_C_API_test.cpp ****             //Riscv::printString("B j : ");
 686              		.loc 1 36 21 is_stmt 0
 687 0494 93040000 		li	s1,0
 688 0498 6FF09FF9 		j	.L36
 689              	.LVL90:
 690              	.L32:
 691              	.LBE16:
 692              	.LBE17:
 693              	.LBE10:
  43:test/Threads_C_API_test.cpp ****     thread_dispatch();
 694              		.loc 1 43 5 is_stmt 1
  43:test/Threads_C_API_test.cpp ****     thread_dispatch();
 695              		.loc 1 43 23 is_stmt 0
 696 049c 17050000 		lla	a0,.LC15
 696      13050500 
 697 04a4 97000000 		call	_ZN5Riscv11printStringEPKc@plt
 697      E7800000 
 698              	.LVL91:
  44:test/Threads_C_API_test.cpp ****     finishedB = true;
 699              		.loc 1 44 5 is_stmt 1
  44:test/Threads_C_API_test.cpp ****     finishedB = true;
 700              		.loc 1 44 20 is_stmt 0
 701 04ac 97000000 		call	thread_dispatch@plt
 701      E7800000 
 702              	.LVL92:
  45:test/Threads_C_API_test.cpp **** }
 703              		.loc 1 45 5 is_stmt 1
  45:test/Threads_C_API_test.cpp **** }
 704              		.loc 1 45 15 is_stmt 0
 705 04b4 93071000 		li	a5,1
 706 04b8 17070000 		sb	a5,.LANCHOR0,a4
 706      2300F700 
  46:test/Threads_C_API_test.cpp **** 
 707              		.loc 1 46 1
 708 04c0 83308101 		ld	ra,24(sp)
GAS LISTING /tmp/ccDFjEtA.s 			page 18


 709              		.cfi_restore 1
 710 04c4 03340101 		ld	s0,16(sp)
 711              		.cfi_restore 8
 712              		.cfi_def_cfa 2, 32
 713 04c8 83348100 		ld	s1,8(sp)
 714              		.cfi_restore 9
 715 04cc 03390100 		ld	s2,0(sp)
 716              		.cfi_restore 18
 717              	.LVL93:
 718 04d0 13010102 		addi	sp,sp,32
 719              		.cfi_def_cfa_offset 0
 720 04d4 67800000 		jr	ra
 721              		.cfi_endproc
 722              	.LFE25:
 724              		.section	.rodata.str1.8
 725 00cd 000000   		.align	3
 726              	.LC16:
 727 00d0 54687265 		.string	"ThreadA created\n"
 727      61644120 
 727      63726561 
 727      7465640A 
 727      00
 728 00e1 00000000 		.align	3
 728      000000
 729              	.LC17:
 730 00e8 54687265 		.string	"ThreadB created\n"
 730      61644220 
 730      63726561 
 730      7465640A 
 730      00
 731 00f9 00000000 		.align	3
 731      000000
 732              	.LC18:
 733 0100 54687265 		.string	"ThreadC created\n"
 733      61644320 
 733      63726561 
 733      7465640A 
 733      00
 734 0111 00000000 		.align	3
 734      000000
 735              	.LC19:
 736 0118 54687265 		.string	"ThreadD created\n"
 736      61644420 
 736      63726561 
 736      7465640A 
 736      00
 737              		.text
 738              		.align	2
 739              		.globl	_Z18Threads_C_API_testv
 741              	_Z18Threads_C_API_testv:
 742              	.LFB28:
  96:test/Threads_C_API_test.cpp **** 
  97:test/Threads_C_API_test.cpp **** 
  98:test/Threads_C_API_test.cpp **** void Threads_C_API_test()
  99:test/Threads_C_API_test.cpp **** {
 743              		.loc 1 99 1 is_stmt 1
 744              		.cfi_startproc
GAS LISTING /tmp/ccDFjEtA.s 			page 19


 745 04d8 130101FC 		addi	sp,sp,-64
 746              		.cfi_def_cfa_offset 64
 747 04dc 233C1102 		sd	ra,56(sp)
 748 04e0 23388102 		sd	s0,48(sp)
 749 04e4 23349102 		sd	s1,40(sp)
 750 04e8 23302103 		sd	s2,32(sp)
 751              		.cfi_offset 1, -8
 752              		.cfi_offset 8, -16
 753              		.cfi_offset 9, -24
 754              		.cfi_offset 18, -32
 755 04ec 13040104 		addi	s0,sp,64
 756              		.cfi_def_cfa 8, 0
 100:test/Threads_C_API_test.cpp ****     thread_t threads[4];
 757              		.loc 1 100 5
 101:test/Threads_C_API_test.cpp ****     thread_create(&threads[0], workerBodyA, nullptr);
 758              		.loc 1 101 5
 759              		.loc 1 101 18 is_stmt 0
 760 04f0 13060000 		li	a2,0
 761 04f4 97050000 		lla	a1,_Z11workerBodyAPv
 761      93850500 
 762 04fc 130504FC 		addi	a0,s0,-64
 763 0500 97000000 		call	thread_create@plt
 763      E7800000 
 764              	.LVL94:
 102:test/Threads_C_API_test.cpp ****     printString("ThreadA created\n");
 765              		.loc 1 102 5 is_stmt 1
 766              		.loc 1 102 16 is_stmt 0
 767 0508 17050000 		lla	a0,.LC16
 767      13050500 
 768 0510 97000000 		call	_Z11printStringPKc@plt
 768      E7800000 
 769              	.LVL95:
 103:test/Threads_C_API_test.cpp **** 
 104:test/Threads_C_API_test.cpp ****     thread_create(&threads[1], workerBodyB, nullptr);
 770              		.loc 1 104 5 is_stmt 1
 771              		.loc 1 104 18 is_stmt 0
 772 0518 13060000 		li	a2,0
 773 051c 97050000 		lla	a1,_Z11workerBodyBPv
 773      93850500 
 774 0524 130584FC 		addi	a0,s0,-56
 775 0528 97000000 		call	thread_create@plt
 775      E7800000 
 776              	.LVL96:
 105:test/Threads_C_API_test.cpp ****     printString("ThreadB created\n");
 777              		.loc 1 105 5 is_stmt 1
 778              		.loc 1 105 16 is_stmt 0
 779 0530 17050000 		lla	a0,.LC17
 779      13050500 
 780 0538 97000000 		call	_Z11printStringPKc@plt
 780      E7800000 
 781              	.LVL97:
 106:test/Threads_C_API_test.cpp **** 
 107:test/Threads_C_API_test.cpp ****     thread_create(&threads[2], workerBodyC, nullptr);
 782              		.loc 1 107 5 is_stmt 1
 783              		.loc 1 107 18 is_stmt 0
 784 0540 13060000 		li	a2,0
 785 0544 97050000 		lla	a1,_Z11workerBodyCPv
GAS LISTING /tmp/ccDFjEtA.s 			page 20


 785      93850500 
 786 054c 130504FD 		addi	a0,s0,-48
 787 0550 97000000 		call	thread_create@plt
 787      E7800000 
 788              	.LVL98:
 108:test/Threads_C_API_test.cpp ****     printString("ThreadC created\n");
 789              		.loc 1 108 5 is_stmt 1
 790              		.loc 1 108 16 is_stmt 0
 791 0558 17050000 		lla	a0,.LC18
 791      13050500 
 792 0560 97000000 		call	_Z11printStringPKc@plt
 792      E7800000 
 793              	.LVL99:
 109:test/Threads_C_API_test.cpp **** 
 110:test/Threads_C_API_test.cpp ****     thread_create(&threads[3], workerBodyD, nullptr);
 794              		.loc 1 110 5 is_stmt 1
 795              		.loc 1 110 18 is_stmt 0
 796 0568 13060000 		li	a2,0
 797 056c 97050000 		lla	a1,_Z11workerBodyDPv
 797      93850500 
 798 0574 130584FD 		addi	a0,s0,-40
 799 0578 97000000 		call	thread_create@plt
 799      E7800000 
 800              	.LVL100:
 111:test/Threads_C_API_test.cpp ****     printString("ThreadD created\n");
 801              		.loc 1 111 5 is_stmt 1
 802              		.loc 1 111 16 is_stmt 0
 803 0580 17050000 		lla	a0,.LC19
 803      13050500 
 804 0588 97000000 		call	_Z11printStringPKc@plt
 804      E7800000 
 805              	.LVL101:
 806              	.L41:
 112:test/Threads_C_API_test.cpp **** 
 113:test/Threads_C_API_test.cpp ****     while (!(finishedB)) {
 807              		.loc 1 113 5 is_stmt 1
 808              		.loc 1 113 12
 809 0590 97070000 		lbu	a5,.LANCHOR0
 809      83C70700 
 810 0598 63980700 		bnez	a5,.L44
 114:test/Threads_C_API_test.cpp ****         //printString("Main thread\n");
 115:test/Threads_C_API_test.cpp ****         thread_dispatch();
 811              		.loc 1 115 9
 812              		.loc 1 115 24 is_stmt 0
 813 059c 97000000 		call	thread_dispatch@plt
 813      E7800000 
 814              	.LVL102:
 815 05a4 6FF0DFFE 		j	.L41
 816              	.L44:
 817              	.LBB18:
 116:test/Threads_C_API_test.cpp ****     }
 117:test/Threads_C_API_test.cpp **** 
 118:test/Threads_C_API_test.cpp ****     for (auto &thread: threads) {
 818              		.loc 1 118 24
 819 05a8 930404FC 		addi	s1,s0,-64
 820 05ac 6F008000 		j	.L40
 821              	.LVL103:
GAS LISTING /tmp/ccDFjEtA.s 			page 21


 822              	.L43:
 823              		.loc 1 118 5 is_stmt 1 discriminator 3
 824 05b0 93848400 		addi	s1,s1,8
 825              	.LVL104:
 826              	.L40:
 827              		.loc 1 118 24 discriminator 1
 828 05b4 930704FE 		addi	a5,s0,-32
 829 05b8 6384F402 		beq	s1,a5,.L39
 830              	.LVL105:
 119:test/Threads_C_API_test.cpp ****         //todo
 120:test/Threads_C_API_test.cpp ****         //in order to syscall.c to stay .c it gotta be converted
 121:test/Threads_C_API_test.cpp ****         delete (PCB*)thread;
 831              		.loc 1 121 9 discriminator 2
 832              		.loc 1 121 16 is_stmt 0 discriminator 2
 833 05bc 03B90400 		ld	s2,0(s1)
 834              		.loc 1 121 28 discriminator 2
 835 05c0 E30809FE 		beqz	s2,.L43
 836              		.loc 1 121 22 discriminator 1
 837 05c4 13050900 		mv	a0,s2
 838 05c8 97000000 		call	_ZN3PCBD1Ev@plt
 838      E7800000 
 839              	.LVL106:
 840 05d0 13050900 		mv	a0,s2
 841 05d4 97000000 		call	_ZN3PCBdlEPv@plt
 841      E7800000 
 842              	.LVL107:
 843 05dc 6FF05FFD 		j	.L43
 844              	.LVL108:
 845              	.L39:
 846              	.LBE18:
 122:test/Threads_C_API_test.cpp ****     }
 123:test/Threads_C_API_test.cpp **** }
 847              		.loc 1 123 1
 848 05e0 83308103 		ld	ra,56(sp)
 849              		.cfi_restore 1
 850 05e4 03340103 		ld	s0,48(sp)
 851              		.cfi_restore 8
 852              		.cfi_def_cfa 2, 64
 853 05e8 83348102 		ld	s1,40(sp)
 854              		.cfi_restore 9
 855              	.LVL109:
 856 05ec 03390102 		ld	s2,32(sp)
 857              		.cfi_restore 18
 858 05f0 13010104 		addi	sp,sp,64
 859              		.cfi_def_cfa_offset 0
 860 05f4 67800000 		jr	ra
 861              		.cfi_endproc
 862              	.LFE28:
 864              		.bss
 865              		.set	.LANCHOR0,. + 0
 868              	_ZL9finishedB:
 869 0000 00       		.zero	1
 870              		.text
 871              	.Letext0:
 872              		.file 2 "test/../h/../lib/hw.h"
 873              		.file 3 "test/../h/syscall_c.h"
 874              		.file 4 "test/../h/PCB.hpp"
GAS LISTING /tmp/ccDFjEtA.s 			page 22


 875              		.file 5 "test/../h/Riscv.hpp"
 876              		.file 6 "test/printing.hpp"
GAS LISTING /tmp/ccDFjEtA.s 			page 23


DEFINED SYMBOLS
                            *ABS*:0000000000000000 Threads_C_API_test.cpp
     /tmp/ccDFjEtA.s:8      .text:0000000000000000 _ZL9fibonaccim
     /tmp/ccDFjEtA.s:12     .text:0000000000000000 .L0 
     /tmp/ccDFjEtA.s:14     .text:0000000000000000 .L0 
     /tmp/ccDFjEtA.s:15     .text:0000000000000004 .L0 
     /tmp/ccDFjEtA.s:20     .text:0000000000000014 .L0 
     /tmp/ccDFjEtA.s:21     .text:0000000000000014 .L0 
     /tmp/ccDFjEtA.s:22     .text:0000000000000014 .L0 
     /tmp/ccDFjEtA.s:23     .text:0000000000000014 .L0 
     /tmp/ccDFjEtA.s:25     .text:0000000000000018 .L0 
     /tmp/ccDFjEtA.s:28     .text:000000000000001c .L0 
     /tmp/ccDFjEtA.s:31     .text:0000000000000024 .L0 
     /tmp/ccDFjEtA.s:32     .text:0000000000000024 .L0 
     /tmp/ccDFjEtA.s:35     .text:000000000000002c .L0 
     /tmp/ccDFjEtA.s:39     .text:0000000000000030 .L0 
     /tmp/ccDFjEtA.s:40     .text:0000000000000030 .L0 
     /tmp/ccDFjEtA.s:45     .text:0000000000000040 .L0 
     /tmp/ccDFjEtA.s:49     .text:000000000000004c .L0 
     /tmp/ccDFjEtA.s:52     .text:0000000000000050 .L0 
     /tmp/ccDFjEtA.s:53     .text:0000000000000054 .L0 
     /tmp/ccDFjEtA.s:54     .text:0000000000000054 .L0 
     /tmp/ccDFjEtA.s:56     .text:0000000000000058 .L0 
     /tmp/ccDFjEtA.s:57     .text:0000000000000058 .L0 
     /tmp/ccDFjEtA.s:59     .text:000000000000005c .L0 
     /tmp/ccDFjEtA.s:62     .text:0000000000000060 .L0 
     /tmp/ccDFjEtA.s:64     .text:0000000000000064 .L0 
     /tmp/ccDFjEtA.s:68     .text:0000000000000068 .L0 
     /tmp/ccDFjEtA.s:70     .text:0000000000000068 .L0 
     /tmp/ccDFjEtA.s:71     .text:0000000000000068 .L0 
     /tmp/ccDFjEtA.s:74     .text:0000000000000074 .L0 
     /tmp/ccDFjEtA.s:103    .text:0000000000000074 _Z11workerBodyCPv
     /tmp/ccDFjEtA.s:106    .text:0000000000000074 .L0 
     /tmp/ccDFjEtA.s:108    .text:0000000000000074 .L0 
     /tmp/ccDFjEtA.s:109    .text:0000000000000078 .L0 
     /tmp/ccDFjEtA.s:114    .text:0000000000000088 .L0 
     /tmp/ccDFjEtA.s:115    .text:0000000000000088 .L0 
     /tmp/ccDFjEtA.s:116    .text:0000000000000088 .L0 
     /tmp/ccDFjEtA.s:117    .text:0000000000000088 .L0 
     /tmp/ccDFjEtA.s:119    .text:000000000000008c .L0 
     /tmp/ccDFjEtA.s:122    .text:000000000000008c .L0 
     /tmp/ccDFjEtA.s:123    .text:000000000000008c .L0 
     /tmp/ccDFjEtA.s:128    .text:0000000000000094 .L0 
     /tmp/ccDFjEtA.s:129    .text:0000000000000094 .L0 
     /tmp/ccDFjEtA.s:133    .text:00000000000000a4 .L0 
     /tmp/ccDFjEtA.s:134    .text:00000000000000a4 .L0 
     /tmp/ccDFjEtA.s:140    .text:00000000000000b8 .L0 
     /tmp/ccDFjEtA.s:141    .text:00000000000000b8 .L0 
     /tmp/ccDFjEtA.s:145    .text:00000000000000c8 .L0 
     /tmp/ccDFjEtA.s:151    .text:00000000000000d0 .L0 
     /tmp/ccDFjEtA.s:152    .text:00000000000000d0 .L0 
     /tmp/ccDFjEtA.s:155    .text:00000000000000d8 .L0 
     /tmp/ccDFjEtA.s:156    .text:00000000000000d8 .L0 
     /tmp/ccDFjEtA.s:160    .text:00000000000000e8 .L0 
test/Threads_C_API_test.cpp:55     .text:00000000000000e8 .L0 
     /tmp/ccDFjEtA.s:166    .text:00000000000000ec .L0 
     /tmp/ccDFjEtA.s:168    .text:00000000000000ec .L0 
GAS LISTING /tmp/ccDFjEtA.s 			page 24


     /tmp/ccDFjEtA.s:171    .text:00000000000000f4 .L0 
     /tmp/ccDFjEtA.s:172    .text:00000000000000f4 .L0 
     /tmp/ccDFjEtA.s:176    .text:0000000000000104 .L0 
     /tmp/ccDFjEtA.s:177    .text:0000000000000104 .L0 
test/Threads_C_API_test.cpp:59     .text:0000000000000104 .L0 
     /tmp/ccDFjEtA.s:184    .text:0000000000000108 .L0 
     /tmp/ccDFjEtA.s:186    .text:0000000000000108 .L0 
     /tmp/ccDFjEtA.s:190    .text:0000000000000118 .L0 
     /tmp/ccDFjEtA.s:191    .text:0000000000000118 .L0 
     /tmp/ccDFjEtA.s:197    .text:000000000000012c .L0 
     /tmp/ccDFjEtA.s:198    .text:000000000000012c .L0 
     /tmp/ccDFjEtA.s:202    .text:000000000000013c .L0 
     /tmp/ccDFjEtA.s:203    .text:000000000000013c .L0 
     /tmp/ccDFjEtA.s:209    .text:000000000000014c .L0 
     /tmp/ccDFjEtA.s:210    .text:000000000000014c .L0 
     /tmp/ccDFjEtA.s:215    .text:000000000000015c .L0 
     /tmp/ccDFjEtA.s:216    .text:000000000000015c .L0 
     /tmp/ccDFjEtA.s:222    .text:0000000000000170 .L0 
     /tmp/ccDFjEtA.s:223    .text:0000000000000170 .L0 
     /tmp/ccDFjEtA.s:229    .text:0000000000000184 .L0 
     /tmp/ccDFjEtA.s:230    .text:0000000000000184 .L0 
     /tmp/ccDFjEtA.s:234    .text:0000000000000194 .L0 
     /tmp/ccDFjEtA.s:235    .text:0000000000000194 .L0 
     /tmp/ccDFjEtA.s:241    .text:00000000000001a8 .L0 
     /tmp/ccDFjEtA.s:242    .text:00000000000001a8 .L0 
     /tmp/ccDFjEtA.s:246    .text:00000000000001b8 .L0 
     /tmp/ccDFjEtA.s:252    .text:00000000000001c0 .L0 
     /tmp/ccDFjEtA.s:253    .text:00000000000001c0 .L0 
     /tmp/ccDFjEtA.s:256    .text:00000000000001c8 .L0 
     /tmp/ccDFjEtA.s:257    .text:00000000000001c8 .L0 
     /tmp/ccDFjEtA.s:261    .text:00000000000001d8 .L0 
     /tmp/ccDFjEtA.s:262    .text:00000000000001d8 .L0 
     /tmp/ccDFjEtA.s:265    .text:00000000000001e0 .L0 
     /tmp/ccDFjEtA.s:266    .text:00000000000001e0 .L0 
     /tmp/ccDFjEtA.s:267    .text:00000000000001e4 .L0 
     /tmp/ccDFjEtA.s:269    .text:00000000000001e8 .L0 
     /tmp/ccDFjEtA.s:270    .text:00000000000001e8 .L0 
     /tmp/ccDFjEtA.s:272    .text:00000000000001ec .L0 
     /tmp/ccDFjEtA.s:275    .text:00000000000001f0 .L0 
     /tmp/ccDFjEtA.s:278    .text:00000000000001f4 .L0 
     /tmp/ccDFjEtA.s:280    .text:00000000000001f8 .L0 
     /tmp/ccDFjEtA.s:303    .text:00000000000001f8 _Z11workerBodyDPv
     /tmp/ccDFjEtA.s:306    .text:00000000000001f8 .L0 
     /tmp/ccDFjEtA.s:308    .text:00000000000001f8 .L0 
     /tmp/ccDFjEtA.s:309    .text:00000000000001fc .L0 
     /tmp/ccDFjEtA.s:314    .text:000000000000020c .L0 
     /tmp/ccDFjEtA.s:315    .text:000000000000020c .L0 
     /tmp/ccDFjEtA.s:316    .text:000000000000020c .L0 
     /tmp/ccDFjEtA.s:317    .text:000000000000020c .L0 
     /tmp/ccDFjEtA.s:319    .text:0000000000000210 .L0 
     /tmp/ccDFjEtA.s:322    .text:0000000000000210 .L0 
     /tmp/ccDFjEtA.s:323    .text:0000000000000210 .L0 
     /tmp/ccDFjEtA.s:328    .text:0000000000000218 .L0 
     /tmp/ccDFjEtA.s:329    .text:0000000000000218 .L0 
     /tmp/ccDFjEtA.s:333    .text:0000000000000228 .L0 
     /tmp/ccDFjEtA.s:334    .text:0000000000000228 .L0 
     /tmp/ccDFjEtA.s:340    .text:000000000000023c .L0 
GAS LISTING /tmp/ccDFjEtA.s 			page 25


     /tmp/ccDFjEtA.s:341    .text:000000000000023c .L0 
     /tmp/ccDFjEtA.s:345    .text:000000000000024c .L0 
     /tmp/ccDFjEtA.s:351    .text:0000000000000254 .L0 
     /tmp/ccDFjEtA.s:352    .text:0000000000000254 .L0 
     /tmp/ccDFjEtA.s:355    .text:000000000000025c .L0 
     /tmp/ccDFjEtA.s:356    .text:000000000000025c .L0 
     /tmp/ccDFjEtA.s:360    .text:000000000000026c .L0 
test/Threads_C_API_test.cpp:82     .text:000000000000026c .L0 
     /tmp/ccDFjEtA.s:366    .text:0000000000000270 .L0 
     /tmp/ccDFjEtA.s:368    .text:0000000000000270 .L0 
     /tmp/ccDFjEtA.s:371    .text:0000000000000278 .L0 
     /tmp/ccDFjEtA.s:372    .text:0000000000000278 .L0 
     /tmp/ccDFjEtA.s:376    .text:0000000000000288 .L0 
     /tmp/ccDFjEtA.s:377    .text:0000000000000288 .L0 
     /tmp/ccDFjEtA.s:383    .text:0000000000000298 .L0 
     /tmp/ccDFjEtA.s:384    .text:0000000000000298 .L0 
     /tmp/ccDFjEtA.s:389    .text:00000000000002a8 .L0 
     /tmp/ccDFjEtA.s:390    .text:00000000000002a8 .L0 
     /tmp/ccDFjEtA.s:396    .text:00000000000002bc .L0 
     /tmp/ccDFjEtA.s:397    .text:00000000000002bc .L0 
     /tmp/ccDFjEtA.s:403    .text:00000000000002d0 .L0 
     /tmp/ccDFjEtA.s:404    .text:00000000000002d0 .L0 
     /tmp/ccDFjEtA.s:408    .text:00000000000002e0 .L0 
     /tmp/ccDFjEtA.s:409    .text:00000000000002e0 .L0 
     /tmp/ccDFjEtA.s:415    .text:00000000000002f4 .L0 
     /tmp/ccDFjEtA.s:416    .text:00000000000002f4 .L0 
     /tmp/ccDFjEtA.s:420    .text:0000000000000304 .L0 
     /tmp/ccDFjEtA.s:426    .text:000000000000030c .L0 
     /tmp/ccDFjEtA.s:427    .text:000000000000030c .L0 
     /tmp/ccDFjEtA.s:430    .text:0000000000000314 .L0 
     /tmp/ccDFjEtA.s:431    .text:0000000000000314 .L0 
     /tmp/ccDFjEtA.s:435    .text:0000000000000324 .L0 
     /tmp/ccDFjEtA.s:436    .text:0000000000000324 .L0 
     /tmp/ccDFjEtA.s:439    .text:000000000000032c .L0 
     /tmp/ccDFjEtA.s:440    .text:000000000000032c .L0 
     /tmp/ccDFjEtA.s:441    .text:0000000000000330 .L0 
     /tmp/ccDFjEtA.s:443    .text:0000000000000334 .L0 
     /tmp/ccDFjEtA.s:444    .text:0000000000000334 .L0 
     /tmp/ccDFjEtA.s:446    .text:0000000000000338 .L0 
     /tmp/ccDFjEtA.s:449    .text:000000000000033c .L0 
     /tmp/ccDFjEtA.s:452    .text:0000000000000340 .L0 
     /tmp/ccDFjEtA.s:454    .text:0000000000000344 .L0 
     /tmp/ccDFjEtA.s:468    .text:0000000000000344 _Z11workerBodyAPv
     /tmp/ccDFjEtA.s:471    .text:0000000000000344 .L0 
     /tmp/ccDFjEtA.s:473    .text:0000000000000344 .L0 
     /tmp/ccDFjEtA.s:474    .text:0000000000000348 .L0 
     /tmp/ccDFjEtA.s:479    .text:0000000000000358 .L0 
     /tmp/ccDFjEtA.s:480    .text:0000000000000358 .L0 
     /tmp/ccDFjEtA.s:481    .text:0000000000000358 .L0 
     /tmp/ccDFjEtA.s:482    .text:0000000000000358 .L0 
     /tmp/ccDFjEtA.s:484    .text:000000000000035c .L0 
     /tmp/ccDFjEtA.s:488    .text:000000000000035c .L0 
     /tmp/ccDFjEtA.s:489    .text:000000000000035c .L0 
     /tmp/ccDFjEtA.s:497    .text:0000000000000364 .L0 
     /tmp/ccDFjEtA.s:498    .text:0000000000000364 .L0 
     /tmp/ccDFjEtA.s:502    .text:000000000000036c .L0 
     /tmp/ccDFjEtA.s:506    .text:0000000000000370 .L0 
GAS LISTING /tmp/ccDFjEtA.s 			page 26


     /tmp/ccDFjEtA.s:512    .text:000000000000037c .L0 
     /tmp/ccDFjEtA.s:516    .text:0000000000000380 .L0 
     /tmp/ccDFjEtA.s:520    .text:000000000000038c .L0 
     /tmp/ccDFjEtA.s:530    .text:0000000000000394 .L0 
     /tmp/ccDFjEtA.s:534    .text:0000000000000398 .L0 
     /tmp/ccDFjEtA.s:538    .text:00000000000003a0 .L0 
     /tmp/ccDFjEtA.s:539    .text:00000000000003a0 .L0 
     /tmp/ccDFjEtA.s:543    .text:00000000000003b0 .L0 
     /tmp/ccDFjEtA.s:544    .text:00000000000003b0 .L0 
     /tmp/ccDFjEtA.s:550    .text:00000000000003c4 .L0 
     /tmp/ccDFjEtA.s:551    .text:00000000000003c4 .L0 
     /tmp/ccDFjEtA.s:556    .text:00000000000003d4 .L0 
     /tmp/ccDFjEtA.s:557    .text:00000000000003d4 .L0 
     /tmp/ccDFjEtA.s:565    .text:00000000000003dc .L0 
     /tmp/ccDFjEtA.s:566    .text:00000000000003dc .L0 
     /tmp/ccDFjEtA.s:570    .text:00000000000003ec .L0 
     /tmp/ccDFjEtA.s:571    .text:00000000000003ec .L0 
     /tmp/ccDFjEtA.s:572    .text:00000000000003f0 .L0 
     /tmp/ccDFjEtA.s:574    .text:00000000000003f4 .L0 
     /tmp/ccDFjEtA.s:575    .text:00000000000003f4 .L0 
     /tmp/ccDFjEtA.s:577    .text:00000000000003f8 .L0 
     /tmp/ccDFjEtA.s:579    .text:00000000000003fc .L0 
     /tmp/ccDFjEtA.s:582    .text:0000000000000400 .L0 
     /tmp/ccDFjEtA.s:584    .text:0000000000000404 .L0 
     /tmp/ccDFjEtA.s:598    .text:0000000000000404 _Z11workerBodyBPv
     /tmp/ccDFjEtA.s:601    .text:0000000000000404 .L0 
     /tmp/ccDFjEtA.s:603    .text:0000000000000404 .L0 
     /tmp/ccDFjEtA.s:604    .text:0000000000000408 .L0 
     /tmp/ccDFjEtA.s:609    .text:0000000000000418 .L0 
     /tmp/ccDFjEtA.s:610    .text:0000000000000418 .L0 
     /tmp/ccDFjEtA.s:611    .text:0000000000000418 .L0 
     /tmp/ccDFjEtA.s:612    .text:0000000000000418 .L0 
     /tmp/ccDFjEtA.s:614    .text:000000000000041c .L0 
     /tmp/ccDFjEtA.s:618    .text:000000000000041c .L0 
     /tmp/ccDFjEtA.s:619    .text:000000000000041c .L0 
     /tmp/ccDFjEtA.s:627    .text:0000000000000424 .L0 
     /tmp/ccDFjEtA.s:628    .text:0000000000000424 .L0 
     /tmp/ccDFjEtA.s:632    .text:000000000000042c .L0 
     /tmp/ccDFjEtA.s:636    .text:0000000000000430 .L0 
     /tmp/ccDFjEtA.s:642    .text:000000000000043c .L0 
     /tmp/ccDFjEtA.s:646    .text:0000000000000440 .L0 
     /tmp/ccDFjEtA.s:650    .text:000000000000044c .L0 
     /tmp/ccDFjEtA.s:660    .text:0000000000000454 .L0 
     /tmp/ccDFjEtA.s:664    .text:0000000000000458 .L0 
     /tmp/ccDFjEtA.s:668    .text:0000000000000460 .L0 
     /tmp/ccDFjEtA.s:669    .text:0000000000000460 .L0 
     /tmp/ccDFjEtA.s:673    .text:0000000000000470 .L0 
     /tmp/ccDFjEtA.s:674    .text:0000000000000470 .L0 
     /tmp/ccDFjEtA.s:680    .text:0000000000000484 .L0 
     /tmp/ccDFjEtA.s:681    .text:0000000000000484 .L0 
     /tmp/ccDFjEtA.s:686    .text:0000000000000494 .L0 
     /tmp/ccDFjEtA.s:687    .text:0000000000000494 .L0 
     /tmp/ccDFjEtA.s:695    .text:000000000000049c .L0 
     /tmp/ccDFjEtA.s:696    .text:000000000000049c .L0 
     /tmp/ccDFjEtA.s:700    .text:00000000000004ac .L0 
     /tmp/ccDFjEtA.s:701    .text:00000000000004ac .L0 
     /tmp/ccDFjEtA.s:704    .text:00000000000004b4 .L0 
GAS LISTING /tmp/ccDFjEtA.s 			page 27


     /tmp/ccDFjEtA.s:705    .text:00000000000004b4 .L0 
     /tmp/ccDFjEtA.s:708    .text:00000000000004c0 .L0 
     /tmp/ccDFjEtA.s:709    .text:00000000000004c4 .L0 
     /tmp/ccDFjEtA.s:711    .text:00000000000004c8 .L0 
     /tmp/ccDFjEtA.s:712    .text:00000000000004c8 .L0 
     /tmp/ccDFjEtA.s:714    .text:00000000000004cc .L0 
     /tmp/ccDFjEtA.s:716    .text:00000000000004d0 .L0 
     /tmp/ccDFjEtA.s:719    .text:00000000000004d4 .L0 
     /tmp/ccDFjEtA.s:721    .text:00000000000004d8 .L0 
     /tmp/ccDFjEtA.s:741    .text:00000000000004d8 _Z18Threads_C_API_testv
     /tmp/ccDFjEtA.s:744    .text:00000000000004d8 .L0 
     /tmp/ccDFjEtA.s:745    .text:00000000000004d8 .L0 
     /tmp/ccDFjEtA.s:746    .text:00000000000004dc .L0 
     /tmp/ccDFjEtA.s:751    .text:00000000000004ec .L0 
     /tmp/ccDFjEtA.s:752    .text:00000000000004ec .L0 
     /tmp/ccDFjEtA.s:753    .text:00000000000004ec .L0 
     /tmp/ccDFjEtA.s:754    .text:00000000000004ec .L0 
     /tmp/ccDFjEtA.s:756    .text:00000000000004f0 .L0 
     /tmp/ccDFjEtA.s:758    .text:00000000000004f0 .L0 
     /tmp/ccDFjEtA.s:759    .text:00000000000004f0 .L0 
     /tmp/ccDFjEtA.s:760    .text:00000000000004f0 .L0 
     /tmp/ccDFjEtA.s:766    .text:0000000000000508 .L0 
     /tmp/ccDFjEtA.s:767    .text:0000000000000508 .L0 
     /tmp/ccDFjEtA.s:771    .text:0000000000000518 .L0 
     /tmp/ccDFjEtA.s:772    .text:0000000000000518 .L0 
     /tmp/ccDFjEtA.s:778    .text:0000000000000530 .L0 
     /tmp/ccDFjEtA.s:779    .text:0000000000000530 .L0 
     /tmp/ccDFjEtA.s:783    .text:0000000000000540 .L0 
     /tmp/ccDFjEtA.s:784    .text:0000000000000540 .L0 
     /tmp/ccDFjEtA.s:790    .text:0000000000000558 .L0 
     /tmp/ccDFjEtA.s:791    .text:0000000000000558 .L0 
     /tmp/ccDFjEtA.s:795    .text:0000000000000568 .L0 
     /tmp/ccDFjEtA.s:796    .text:0000000000000568 .L0 
     /tmp/ccDFjEtA.s:802    .text:0000000000000580 .L0 
     /tmp/ccDFjEtA.s:803    .text:0000000000000580 .L0 
     /tmp/ccDFjEtA.s:808    .text:0000000000000590 .L0 
     /tmp/ccDFjEtA.s:809    .text:0000000000000590 .L0 
     /tmp/ccDFjEtA.s:812    .text:000000000000059c .L0 
     /tmp/ccDFjEtA.s:813    .text:000000000000059c .L0 
     /tmp/ccDFjEtA.s:819    .text:00000000000005a8 .L0 
     /tmp/ccDFjEtA.s:824    .text:00000000000005b0 .L0 
     /tmp/ccDFjEtA.s:828    .text:00000000000005b4 .L0 
     /tmp/ccDFjEtA.s:832    .text:00000000000005bc .L0 
     /tmp/ccDFjEtA.s:833    .text:00000000000005bc .L0 
     /tmp/ccDFjEtA.s:835    .text:00000000000005c0 .L0 
     /tmp/ccDFjEtA.s:837    .text:00000000000005c4 .L0 
     /tmp/ccDFjEtA.s:848    .text:00000000000005e0 .L0 
     /tmp/ccDFjEtA.s:849    .text:00000000000005e4 .L0 
     /tmp/ccDFjEtA.s:851    .text:00000000000005e8 .L0 
     /tmp/ccDFjEtA.s:852    .text:00000000000005e8 .L0 
     /tmp/ccDFjEtA.s:854    .text:00000000000005ec .L0 
     /tmp/ccDFjEtA.s:857    .text:00000000000005f0 .L0 
     /tmp/ccDFjEtA.s:859    .text:00000000000005f4 .L0 
     /tmp/ccDFjEtA.s:861    .text:00000000000005f8 .L0 
     /tmp/ccDFjEtA.s:865    .bss:0000000000000000 .LANCHOR0
     /tmp/ccDFjEtA.s:868    .bss:0000000000000000 _ZL9finishedB
     /tmp/ccDFjEtA.s:877    .text:00000000000005f8 .L0 
GAS LISTING /tmp/ccDFjEtA.s 			page 28


     /tmp/ccDFjEtA.s:79     .rodata.str1.8:0000000000000000 .LC0
     /tmp/ccDFjEtA.s:129    .text:0000000000000094 .L0 
     /tmp/ccDFjEtA.s:82     .rodata.str1.8:0000000000000008 .LC1
     /tmp/ccDFjEtA.s:141    .text:00000000000000b8 .L0 
     /tmp/ccDFjEtA.s:85     .rodata.str1.8:0000000000000010 .LC2
     /tmp/ccDFjEtA.s:156    .text:00000000000000d8 .L0 
     /tmp/ccDFjEtA.s:88     .rodata.str1.8:0000000000000020 .LC3
     /tmp/ccDFjEtA.s:172    .text:00000000000000f4 .L0 
     /tmp/ccDFjEtA.s:91     .rodata.str1.8:0000000000000030 .LC4
     /tmp/ccDFjEtA.s:186    .text:0000000000000108 .L0 
     /tmp/ccDFjEtA.s:198    .text:000000000000012c .L0 
     /tmp/ccDFjEtA.s:94     .rodata.str1.8:0000000000000038 .LC5
     /tmp/ccDFjEtA.s:210    .text:000000000000014c .L0 
     /tmp/ccDFjEtA.s:223    .text:0000000000000170 .L0 
     /tmp/ccDFjEtA.s:230    .text:0000000000000184 .L0 
     /tmp/ccDFjEtA.s:242    .text:00000000000001a8 .L0 
     /tmp/ccDFjEtA.s:97     .rodata.str1.8:0000000000000048 .LC6
     /tmp/ccDFjEtA.s:257    .text:00000000000001c8 .L0 
     /tmp/ccDFjEtA.s:285    .rodata.str1.8:0000000000000058 .LC7
     /tmp/ccDFjEtA.s:329    .text:0000000000000218 .L0 
     /tmp/ccDFjEtA.s:341    .text:000000000000023c .L0 
     /tmp/ccDFjEtA.s:288    .rodata.str1.8:0000000000000060 .LC8
     /tmp/ccDFjEtA.s:356    .text:000000000000025c .L0 
     /tmp/ccDFjEtA.s:291    .rodata.str1.8:0000000000000070 .LC9
     /tmp/ccDFjEtA.s:372    .text:0000000000000278 .L0 
     /tmp/ccDFjEtA.s:294    .rodata.str1.8:0000000000000080 .LC10
     /tmp/ccDFjEtA.s:384    .text:0000000000000298 .L0 
     /tmp/ccDFjEtA.s:397    .text:00000000000002bc .L0 
     /tmp/ccDFjEtA.s:404    .text:00000000000002d0 .L0 
     /tmp/ccDFjEtA.s:416    .text:00000000000002f4 .L0 
     /tmp/ccDFjEtA.s:297    .rodata.str1.8:0000000000000090 .LC11
     /tmp/ccDFjEtA.s:431    .text:0000000000000314 .L0 
     /tmp/ccDFjEtA.s:459    .rodata.str1.8:00000000000000a0 .LC12
     /tmp/ccDFjEtA.s:539    .text:00000000000003a0 .L0 
     /tmp/ccDFjEtA.s:551    .text:00000000000003c4 .L0 
     /tmp/ccDFjEtA.s:462    .rodata.str1.8:00000000000000a8 .LC13
     /tmp/ccDFjEtA.s:566    .text:00000000000003dc .L0 
     /tmp/ccDFjEtA.s:589    .rodata.str1.8:00000000000000b8 .LC14
     /tmp/ccDFjEtA.s:669    .text:0000000000000460 .L0 
     /tmp/ccDFjEtA.s:681    .text:0000000000000484 .L0 
     /tmp/ccDFjEtA.s:592    .rodata.str1.8:00000000000000c0 .LC15
     /tmp/ccDFjEtA.s:696    .text:000000000000049c .L0 
     /tmp/ccDFjEtA.s:706    .text:00000000000004b8 .L0 
     /tmp/ccDFjEtA.s:761    .text:00000000000004f4 .L0 
     /tmp/ccDFjEtA.s:726    .rodata.str1.8:00000000000000d0 .LC16
     /tmp/ccDFjEtA.s:767    .text:0000000000000508 .L0 
     /tmp/ccDFjEtA.s:773    .text:000000000000051c .L0 
     /tmp/ccDFjEtA.s:729    .rodata.str1.8:00000000000000e8 .LC17
     /tmp/ccDFjEtA.s:779    .text:0000000000000530 .L0 
     /tmp/ccDFjEtA.s:785    .text:0000000000000544 .L0 
     /tmp/ccDFjEtA.s:732    .rodata.str1.8:0000000000000100 .LC18
     /tmp/ccDFjEtA.s:791    .text:0000000000000558 .L0 
     /tmp/ccDFjEtA.s:797    .text:000000000000056c .L0 
     /tmp/ccDFjEtA.s:735    .rodata.str1.8:0000000000000118 .LC19
     /tmp/ccDFjEtA.s:803    .text:0000000000000580 .L0 
     /tmp/ccDFjEtA.s:809    .text:0000000000000590 .L0 
     /tmp/ccDFjEtA.s:50     .text:0000000000000050 .L1
GAS LISTING /tmp/ccDFjEtA.s 			page 29


     /tmp/ccDFjEtA.s:67     .text:0000000000000068 .L6
     /tmp/ccDFjEtA.s:37     .text:0000000000000030 .L3
     /tmp/ccDFjEtA.s:149    .text:00000000000000d0 .L9
     /tmp/ccDFjEtA.s:126    .text:0000000000000094 .L13
     /tmp/ccDFjEtA.s:250    .text:00000000000001c0 .L11
     /tmp/ccDFjEtA.s:227    .text:0000000000000184 .L14
     /tmp/ccDFjEtA.s:349    .text:0000000000000254 .L17
     /tmp/ccDFjEtA.s:326    .text:0000000000000218 .L21
     /tmp/ccDFjEtA.s:424    .text:000000000000030c .L19
     /tmp/ccDFjEtA.s:401    .text:00000000000002d0 .L22
     /tmp/ccDFjEtA.s:532    .text:0000000000000398 .L29
     /tmp/ccDFjEtA.s:524    .text:0000000000000394 .L25
     /tmp/ccDFjEtA.s:492    .text:0000000000000364 .L26
     /tmp/ccDFjEtA.s:513    .text:0000000000000380 .L27
     /tmp/ccDFjEtA.s:560    .text:00000000000003dc .L24
     /tmp/ccDFjEtA.s:504    .text:0000000000000370 .L28
     /tmp/ccDFjEtA.s:662    .text:0000000000000458 .L37
     /tmp/ccDFjEtA.s:654    .text:0000000000000454 .L33
     /tmp/ccDFjEtA.s:622    .text:0000000000000424 .L34
     /tmp/ccDFjEtA.s:643    .text:0000000000000440 .L35
     /tmp/ccDFjEtA.s:690    .text:000000000000049c .L32
     /tmp/ccDFjEtA.s:634    .text:0000000000000430 .L36
     /tmp/ccDFjEtA.s:816    .text:00000000000005a8 .L44
     /tmp/ccDFjEtA.s:806    .text:0000000000000590 .L41
     /tmp/ccDFjEtA.s:826    .text:00000000000005b4 .L40
     /tmp/ccDFjEtA.s:845    .text:00000000000005e0 .L39
     /tmp/ccDFjEtA.s:822    .text:00000000000005b0 .L43
     /tmp/ccDFjEtA.s:2853   .debug_abbrev:0000000000000000 .Ldebug_abbrev0
     /tmp/ccDFjEtA.s:4017   .debug_str:000000000000012c .LASF182
     /tmp/ccDFjEtA.s:4019   .debug_str:00000000000001d8 .LASF183
     /tmp/ccDFjEtA.s:4305   .debug_str:0000000000000a71 .LASF184
     /tmp/ccDFjEtA.s:5      .text:0000000000000000 .Ltext0
     /tmp/ccDFjEtA.s:871    .text:00000000000005f8 .Letext0
     /tmp/ccDFjEtA.s:3981   .debug_line:0000000000000000 .Ldebug_line0
     /tmp/ccDFjEtA.s:4103   .debug_str:0000000000000484 .LASF0
     /tmp/ccDFjEtA.s:4131   .debug_str:0000000000000571 .LASF1
     /tmp/ccDFjEtA.s:4231   .debug_str:000000000000086e .LASF2
     /tmp/ccDFjEtA.s:4071   .debug_str:000000000000038e .LASF3
     /tmp/ccDFjEtA.s:4241   .debug_str:00000000000008ba .LASF4
     /tmp/ccDFjEtA.s:4117   .debug_str:00000000000004f3 .LASF5
     /tmp/ccDFjEtA.s:3995   .debug_str:0000000000000057 .LASF6
     /tmp/ccDFjEtA.s:4209   .debug_str:00000000000007d8 .LASF7
     /tmp/ccDFjEtA.s:4193   .debug_str:0000000000000761 .LASF8
     /tmp/ccDFjEtA.s:4123   .debug_str:0000000000000534 .LASF9
     /tmp/ccDFjEtA.s:4081   .debug_str:00000000000003cf .LASF10
     /tmp/ccDFjEtA.s:4085   .debug_str:00000000000003fb .LASF11
     /tmp/ccDFjEtA.s:4031   .debug_str:000000000000025b .LASF12
     /tmp/ccDFjEtA.s:4075   .debug_str:000000000000039d .LASF13
     /tmp/ccDFjEtA.s:4039   .debug_str:000000000000028c .LASF14
     /tmp/ccDFjEtA.s:4029   .debug_str:000000000000024b .LASF15
     /tmp/ccDFjEtA.s:4283   .debug_str:00000000000009fc .LASF16
     /tmp/ccDFjEtA.s:4067   .debug_str:000000000000036c .LASF17
     /tmp/ccDFjEtA.s:4267   .debug_str:000000000000095e .LASF18
     /tmp/ccDFjEtA.s:4297   .debug_str:0000000000000a3a .LASF19
     /tmp/ccDFjEtA.s:4293   .debug_str:0000000000000a2c .LASF185
     /tmp/ccDFjEtA.s:4025   .debug_str:0000000000000231 .LASF20
     /tmp/ccDFjEtA.s:4261   .debug_str:000000000000093d .LASF21
GAS LISTING /tmp/ccDFjEtA.s 			page 30


     /tmp/ccDFjEtA.s:4035   .debug_str:0000000000000273 .LASF22
     /tmp/ccDFjEtA.s:4015   .debug_str:0000000000000123 .LASF23
     /tmp/ccDFjEtA.s:4197   .debug_str:000000000000078a .LASF24
     /tmp/ccDFjEtA.s:4033   .debug_str:000000000000026a .LASF25
     /tmp/ccDFjEtA.s:4285   .debug_str:0000000000000a08 .LASF86
     /tmp/ccDFjEtA.s:4095   .debug_str:0000000000000451 .LASF26
     /tmp/ccDFjEtA.s:3999   .debug_str:0000000000000078 .LASF31
     /tmp/ccDFjEtA.s:4309   .debug_str:0000000000000a9c .LASF186
     /tmp/ccDFjEtA.s:4183   .debug_str:000000000000071b .LASF187
     /tmp/ccDFjEtA.s:4129   .debug_str:000000000000056c .LASF27
     /tmp/ccDFjEtA.s:4355   .debug_str:0000000000000bef .LASF29
     /tmp/ccDFjEtA.s:4351   .debug_str:0000000000000bd3 .LASF28
     /tmp/ccDFjEtA.s:4299   .debug_str:0000000000000a43 .LASF30
     /tmp/ccDFjEtA.s:4055   .debug_str:0000000000000327 .LASF56
     /tmp/ccDFjEtA.s:4005   .debug_str:00000000000000ab .LASF58
     /tmp/ccDFjEtA.s:4133   .debug_str:0000000000000584 .LASF36
     /tmp/ccDFjEtA.s:4185   .debug_str:0000000000000720 .LASF38
     /tmp/ccDFjEtA.s:4295   .debug_str:0000000000000a32 .LASF32
     /tmp/ccDFjEtA.s:4255   .debug_str:0000000000000905 .LASF33
     /tmp/ccDFjEtA.s:4135   .debug_str:000000000000058a .LASF40
     /tmp/ccDFjEtA.s:4141   .debug_str:00000000000005c1 .LASF42
     /tmp/ccDFjEtA.s:4359   .debug_str:0000000000000c13 .LASF34
     /tmp/ccDFjEtA.s:4069   .debug_str:0000000000000382 .LASF35
     /tmp/ccDFjEtA.s:3989   .debug_str:000000000000002a .LASF37
     /tmp/ccDFjEtA.s:4115   .debug_str:00000000000004e6 .LASF39
     /tmp/ccDFjEtA.s:4257   .debug_str:0000000000000916 .LASF41
     /tmp/ccDFjEtA.s:4163   .debug_str:000000000000066a .LASF43
     /tmp/ccDFjEtA.s:4237   .debug_str:00000000000008a7 .LASF44
     /tmp/ccDFjEtA.s:4275   .debug_str:00000000000009b8 .LASF45
     /tmp/ccDFjEtA.s:4165   .debug_str:000000000000067d .LASF46
     /tmp/ccDFjEtA.s:3985   .debug_str:000000000000000b .LASF47
     /tmp/ccDFjEtA.s:4341   .debug_str:0000000000000b89 .LASF48
     /tmp/ccDFjEtA.s:4191   .debug_str:0000000000000747 .LASF49
     /tmp/ccDFjEtA.s:4265   .debug_str:0000000000000950 .LASF50
     /tmp/ccDFjEtA.s:4211   .debug_str:00000000000007df .LASF51
     /tmp/ccDFjEtA.s:4051   .debug_str:0000000000000305 .LASF52
     /tmp/ccDFjEtA.s:4079   .debug_str:00000000000003bf .LASF53
     /tmp/ccDFjEtA.s:4223   .debug_str:0000000000000846 .LASF54
     /tmp/ccDFjEtA.s:4347   .debug_str:0000000000000bba .LASF55
     /tmp/ccDFjEtA.s:4119   .debug_str:0000000000000505 .LASF62
     /tmp/ccDFjEtA.s:4263   .debug_str:0000000000000945 .LASF57
     /tmp/ccDFjEtA.s:4353   .debug_str:0000000000000bd9 .LASF59
     /tmp/ccDFjEtA.s:4287   .debug_str:0000000000000a10 .LASF60
     /tmp/ccDFjEtA.s:4047   .debug_str:00000000000002e8 .LASF61
     /tmp/ccDFjEtA.s:4251   .debug_str:00000000000008ef .LASF63
     /tmp/ccDFjEtA.s:4105   .debug_str:0000000000000491 .LASF64
     /tmp/ccDFjEtA.s:4173   .debug_str:00000000000006ab .LASF65
     /tmp/ccDFjEtA.s:4043   .debug_str:00000000000002b7 .LASF66
     /tmp/ccDFjEtA.s:4215   .debug_str:00000000000007f2 .LASF67
     /tmp/ccDFjEtA.s:4365   .debug_str:0000000000000c2f .LASF68
     /tmp/ccDFjEtA.s:4177   .debug_str:00000000000006d1 .LASF69
     /tmp/ccDFjEtA.s:4235   .debug_str:0000000000000894 .LASF70
     /tmp/ccDFjEtA.s:4259   .debug_str:000000000000091f .LASF71
     /tmp/ccDFjEtA.s:4321   .debug_str:0000000000000af2 .LASF72
     /tmp/ccDFjEtA.s:4155   .debug_str:0000000000000620 .LASF73
     /tmp/ccDFjEtA.s:4313   .debug_str:0000000000000ac0 .LASF74
     /tmp/ccDFjEtA.s:4273   .debug_str:0000000000000998 .LASF75
GAS LISTING /tmp/ccDFjEtA.s 			page 31


     /tmp/ccDFjEtA.s:4303   .debug_str:0000000000000a67 .LASF76
     /tmp/ccDFjEtA.s:4187   .debug_str:0000000000000730 .LASF77
     /tmp/ccDFjEtA.s:4349   .debug_str:0000000000000bc5 .LASF78
     /tmp/ccDFjEtA.s:4009   .debug_str:00000000000000d9 .LASF80
     /tmp/ccDFjEtA.s:4107   .debug_str:00000000000004a5 .LASF79
     /tmp/ccDFjEtA.s:4023   .debug_str:0000000000000205 .LASF81
     /tmp/ccDFjEtA.s:4337   .debug_str:0000000000000b70 .LASF188
     /tmp/ccDFjEtA.s:4021   .debug_str:00000000000001f4 .LASF189
     /tmp/ccDFjEtA.s:3987   .debug_str:0000000000000025 .LASF82
     /tmp/ccDFjEtA.s:4319   .debug_str:0000000000000aed .LASF83
     /tmp/ccDFjEtA.s:4145   .debug_str:00000000000005e1 .LASF84
     /tmp/ccDFjEtA.s:4057   .debug_str:0000000000000330 .LASF85
     /tmp/ccDFjEtA.s:4307   .debug_str:0000000000000a94 .LASF87
     /tmp/ccDFjEtA.s:4329   .debug_str:0000000000000b3e .LASF88
     /tmp/ccDFjEtA.s:4097   .debug_str:0000000000000457 .LASF89
     /tmp/ccDFjEtA.s:4271   .debug_str:0000000000000980 .LASF90
     /tmp/ccDFjEtA.s:4189   .debug_str:000000000000073c .LASF91
     /tmp/ccDFjEtA.s:4149   .debug_str:00000000000005ee .LASF92
     /tmp/ccDFjEtA.s:4065   .debug_str:0000000000000362 .LASF93
     /tmp/ccDFjEtA.s:4195   .debug_str:0000000000000774 .LASF94
     /tmp/ccDFjEtA.s:4153   .debug_str:0000000000000610 .LASF95
     /tmp/ccDFjEtA.s:4325   .debug_str:0000000000000b16 .LASF96
     /tmp/ccDFjEtA.s:4323   .debug_str:0000000000000b05 .LASF97
     /tmp/ccDFjEtA.s:4139   .debug_str:00000000000005a3 .LASF98
     /tmp/ccDFjEtA.s:4113   .debug_str:00000000000004d4 .LASF99
     /tmp/ccDFjEtA.s:4045   .debug_str:00000000000002c9 .LASF100
     /tmp/ccDFjEtA.s:4345   .debug_str:0000000000000bae .LASF101
     /tmp/ccDFjEtA.s:4007   .debug_str:00000000000000be .LASF102
     /tmp/ccDFjEtA.s:4203   .debug_str:00000000000007b3 .LASF103
     /tmp/ccDFjEtA.s:3997   .debug_str:000000000000005e .LASF104
     /tmp/ccDFjEtA.s:4253   .debug_str:00000000000008f7 .LASF105
     /tmp/ccDFjEtA.s:4041   .debug_str:000000000000029c .LASF106
     /tmp/ccDFjEtA.s:4167   .debug_str:000000000000068c .LASF107
     /tmp/ccDFjEtA.s:4333   .debug_str:0000000000000b4e .LASF108
     /tmp/ccDFjEtA.s:4317   .debug_str:0000000000000ae4 .LASF111
     /tmp/ccDFjEtA.s:3993   .debug_str:0000000000000042 .LASF113
     /tmp/ccDFjEtA.s:4227   .debug_str:000000000000085a .LASF109
     /tmp/ccDFjEtA.s:4181   .debug_str:0000000000000706 .LASF110
     /tmp/ccDFjEtA.s:4213   .debug_str:00000000000007eb .LASF112
     /tmp/ccDFjEtA.s:4217   .debug_str:000000000000080f .LASF114
     /tmp/ccDFjEtA.s:4175   .debug_str:00000000000006ca .LASF115
     /tmp/ccDFjEtA.s:4125   .debug_str:0000000000000547 .LASF116
     /tmp/ccDFjEtA.s:4335   .debug_str:0000000000000b68 .LASF117
     /tmp/ccDFjEtA.s:4301   .debug_str:0000000000000a53 .LASF118
     /tmp/ccDFjEtA.s:4169   .debug_str:0000000000000699 .LASF119
     /tmp/ccDFjEtA.s:4179   .debug_str:00000000000006f2 .LASF120
     /tmp/ccDFjEtA.s:4157   .debug_str:000000000000063e .LASF121
     /tmp/ccDFjEtA.s:4219   .debug_str:0000000000000822 .LASF122
     /tmp/ccDFjEtA.s:4363   .debug_str:0000000000000c27 .LASF123
     /tmp/ccDFjEtA.s:4111   .debug_str:00000000000004c0 .LASF124
     /tmp/ccDFjEtA.s:4279   .debug_str:00000000000009e7 .LASF125
     /tmp/ccDFjEtA.s:4247   .debug_str:00000000000008d5 .LASF126
     /tmp/ccDFjEtA.s:4249   .debug_str:00000000000008e8 .LASF127
     /tmp/ccDFjEtA.s:4063   .debug_str:000000000000034f .LASF128
     /tmp/ccDFjEtA.s:4059   .debug_str:0000000000000336 .LASF129
     /tmp/ccDFjEtA.s:4001   .debug_str:0000000000000083 .LASF130
     /tmp/ccDFjEtA.s:4109   .debug_str:00000000000004ba .LASF131
GAS LISTING /tmp/ccDFjEtA.s 			page 32


     /tmp/ccDFjEtA.s:4053   .debug_str:0000000000000315 .LASF132
     /tmp/ccDFjEtA.s:3983   .debug_str:0000000000000000 .LASF133
     /tmp/ccDFjEtA.s:4233   .debug_str:000000000000087c .LASF134
     /tmp/ccDFjEtA.s:4229   .debug_str:0000000000000863 .LASF135
     /tmp/ccDFjEtA.s:4357   .debug_str:0000000000000bfb .LASF136
     /tmp/ccDFjEtA.s:4331   .debug_str:0000000000000b44 .LASF137
     /tmp/ccDFjEtA.s:4343   .debug_str:0000000000000b98 .LASF138
     /tmp/ccDFjEtA.s:4327   .debug_str:0000000000000b34 .LASF139
     /tmp/ccDFjEtA.s:4003   .debug_str:0000000000000095 .LASF140
     /tmp/ccDFjEtA.s:4093   .debug_str:0000000000000446 .LASF141
     /tmp/ccDFjEtA.s:4099   .debug_str:0000000000000462 .LASF142
     /tmp/ccDFjEtA.s:4315   .debug_str:0000000000000ad5 .LASF143
     /tmp/ccDFjEtA.s:4083   .debug_str:00000000000003df .LASF144
     /tmp/ccDFjEtA.s:4199   .debug_str:0000000000000792 .LASF145
     /tmp/ccDFjEtA.s:4121   .debug_str:0000000000000512 .LASF146
     /tmp/ccDFjEtA.s:4049   .debug_str:00000000000002fe .LASF147
     /tmp/ccDFjEtA.s:3991   .debug_str:000000000000003a .LASF148
     /tmp/ccDFjEtA.s:4011   .debug_str:0000000000000101 .LASF149
     /tmp/ccDFjEtA.s:4137   .debug_str:0000000000000597 .LASF150
     /tmp/ccDFjEtA.s:4013   .debug_str:0000000000000110 .LASF151
     /tmp/ccDFjEtA.s:4161   .debug_str:0000000000000658 .LASF152
     /tmp/ccDFjEtA.s:4087   .debug_str:0000000000000409 .LASF153
     /tmp/ccDFjEtA.s:4061   .debug_str:000000000000033c .LASF154
     /tmp/ccDFjEtA.s:4027   .debug_str:0000000000000237 .LASF155
     /tmp/ccDFjEtA.s:4289   .debug_str:0000000000000a1b .LASF156
     /tmp/ccDFjEtA.s:4147   .debug_str:00000000000005e9 .LASF157
     /tmp/ccDFjEtA.s:4239   .debug_str:00000000000008b0 .LASF159
     /tmp/ccDFjEtA.s:4101   .debug_str:000000000000047a .LASF158
     /tmp/ccDFjEtA.s:4243   .debug_str:00000000000008c1 .LASF160
     /tmp/ccDFjEtA.s:4245   .debug_str:00000000000008cb .LASF161
     /tmp/ccDFjEtA.s:4077   .debug_str:00000000000003ac .LASF162
     /tmp/ccDFjEtA.s:4091   .debug_str:000000000000042e .LASF163
     /tmp/ccDFjEtA.s:742    .text:00000000000004d8 .LFB28
     /tmp/ccDFjEtA.s:862    .text:00000000000005f8 .LFE28
     /tmp/ccDFjEtA.s:4143   .debug_str:00000000000005d9 .LASF164
     /tmp/ccDFjEtA.s:817    .text:00000000000005a8 .LBB18
     /tmp/ccDFjEtA.s:846    .text:00000000000005e0 .LBE18
     /tmp/ccDFjEtA.s:4225   .debug_str:0000000000000853 .LASF165
     /tmp/ccDFjEtA.s:3718   .debug_loc:0000000000000000 .LLST16
     /tmp/ccDFjEtA.s:4269   .debug_str:0000000000000974 .LASF166
     /tmp/ccDFjEtA.s:4291   .debug_str:0000000000000a20 .LASF190
     /tmp/ccDFjEtA.s:3729   .debug_loc:0000000000000036 .LLST17
     /tmp/ccDFjEtA.s:4171   .debug_str:00000000000006a1 .LASF167
     /tmp/ccDFjEtA.s:839    .text:00000000000005d0 .LVL106
     /tmp/ccDFjEtA.s:842    .text:00000000000005dc .LVL107
     /tmp/ccDFjEtA.s:764    .text:0000000000000508 .LVL94
     /tmp/ccDFjEtA.s:769    .text:0000000000000518 .LVL95
     /tmp/ccDFjEtA.s:776    .text:0000000000000530 .LVL96
     /tmp/ccDFjEtA.s:781    .text:0000000000000540 .LVL97
     /tmp/ccDFjEtA.s:788    .text:0000000000000558 .LVL98
     /tmp/ccDFjEtA.s:793    .text:0000000000000568 .LVL99
     /tmp/ccDFjEtA.s:800    .text:0000000000000580 .LVL100
     /tmp/ccDFjEtA.s:805    .text:0000000000000590 .LVL101
     /tmp/ccDFjEtA.s:814    .text:00000000000005a4 .LVL102
     /tmp/ccDFjEtA.s:4207   .debug_str:00000000000007cc .LASF168
     /tmp/ccDFjEtA.s:4339   .debug_str:0000000000000b77 .LASF169
     /tmp/ccDFjEtA.s:304    .text:00000000000001f8 .LFB27
GAS LISTING /tmp/ccDFjEtA.s 			page 33


     /tmp/ccDFjEtA.s:455    .text:0000000000000344 .LFE27
     /tmp/ccDFjEtA.s:3736   .debug_loc:0000000000000059 .LLST5
     /tmp/ccDFjEtA.s:3750   .debug_loc:0000000000000092 .LLST6
     /tmp/ccDFjEtA.s:4361   .debug_str:0000000000000c20 .LASF170
     /tmp/ccDFjEtA.s:3770   .debug_loc:00000000000000ef .LLST7
     /tmp/ccDFjEtA.s:331    .text:0000000000000228 .LVL40
     /tmp/ccDFjEtA.s:338    .text:000000000000023c .LVL41
     /tmp/ccDFjEtA.s:343    .text:000000000000024c .LVL42
     /tmp/ccDFjEtA.s:358    .text:000000000000026c .LVL45
     /tmp/ccDFjEtA.s:369    .text:0000000000000278 .LVL46
     /tmp/ccDFjEtA.s:374    .text:0000000000000288 .LVL47
     /tmp/ccDFjEtA.s:379    .text:0000000000000294 .LVL48
     /tmp/ccDFjEtA.s:387    .text:00000000000002a8 .LVL51
     /tmp/ccDFjEtA.s:394    .text:00000000000002bc .LVL52
     /tmp/ccDFjEtA.s:399    .text:00000000000002cc .LVL53
     /tmp/ccDFjEtA.s:406    .text:00000000000002e0 .LVL54
     /tmp/ccDFjEtA.s:413    .text:00000000000002f4 .LVL55
     /tmp/ccDFjEtA.s:418    .text:0000000000000304 .LVL56
     /tmp/ccDFjEtA.s:433    .text:0000000000000324 .LVL59
     /tmp/ccDFjEtA.s:437    .text:000000000000032c .LVL60
     /tmp/ccDFjEtA.s:4205   .debug_str:00000000000007c0 .LASF171
     /tmp/ccDFjEtA.s:4127   .debug_str:000000000000055a .LASF172
     /tmp/ccDFjEtA.s:104    .text:0000000000000074 .LFB26
     /tmp/ccDFjEtA.s:281    .text:00000000000001f8 .LFE26
     /tmp/ccDFjEtA.s:3781   .debug_loc:0000000000000125 .LLST1
     /tmp/ccDFjEtA.s:3795   .debug_loc:000000000000015e .LLST2
     /tmp/ccDFjEtA.s:3815   .debug_loc:00000000000001bb .LLST3
     /tmp/ccDFjEtA.s:3823   .debug_loc:00000000000001df .LLST4
     /tmp/ccDFjEtA.s:131    .text:00000000000000a4 .LVL10
     /tmp/ccDFjEtA.s:138    .text:00000000000000b8 .LVL11
     /tmp/ccDFjEtA.s:143    .text:00000000000000c8 .LVL12
     /tmp/ccDFjEtA.s:158    .text:00000000000000e8 .LVL15
     /tmp/ccDFjEtA.s:169    .text:00000000000000f4 .LVL16
     /tmp/ccDFjEtA.s:174    .text:0000000000000104 .LVL17
     /tmp/ccDFjEtA.s:188    .text:0000000000000118 .LVL19
     /tmp/ccDFjEtA.s:195    .text:000000000000012c .LVL20
     /tmp/ccDFjEtA.s:200    .text:000000000000013c .LVL21
     /tmp/ccDFjEtA.s:205    .text:0000000000000148 .LVL22
     /tmp/ccDFjEtA.s:213    .text:000000000000015c .LVL25
     /tmp/ccDFjEtA.s:220    .text:0000000000000170 .LVL26
     /tmp/ccDFjEtA.s:225    .text:0000000000000180 .LVL27
     /tmp/ccDFjEtA.s:232    .text:0000000000000194 .LVL28
     /tmp/ccDFjEtA.s:239    .text:00000000000001a8 .LVL29
     /tmp/ccDFjEtA.s:244    .text:00000000000001b8 .LVL30
     /tmp/ccDFjEtA.s:259    .text:00000000000001d8 .LVL33
     /tmp/ccDFjEtA.s:263    .text:00000000000001e0 .LVL34
     /tmp/ccDFjEtA.s:4311   .debug_str:0000000000000ab4 .LASF173
     /tmp/ccDFjEtA.s:4089   .debug_str:000000000000041c .LASF174
     /tmp/ccDFjEtA.s:599    .text:0000000000000404 .LFB25
     /tmp/ccDFjEtA.s:722    .text:00000000000004d8 .LFE25
     /tmp/ccDFjEtA.s:3834   .debug_loc:0000000000000215 .LLST12
     /tmp/ccDFjEtA.s:617    .text:000000000000041c .LBB10
     /tmp/ccDFjEtA.s:693    .text:000000000000049c .LBE10
     /tmp/ccDFjEtA.s:3848   .debug_loc:000000000000024e .LLST13
     /tmp/ccDFjEtA.s:3967   .debug_ranges:0000000000000000 .Ldebug_ranges0
     /tmp/ccDFjEtA.s:3860   .debug_loc:0000000000000285 .LLST14
     /tmp/ccDFjEtA.s:640    .text:000000000000043c .LBB14
GAS LISTING /tmp/ccDFjEtA.s 			page 34


     /tmp/ccDFjEtA.s:655    .text:0000000000000454 .LBE14
     /tmp/ccDFjEtA.s:3872   .debug_loc:00000000000002bc .LLST15
     /tmp/ccDFjEtA.s:629    .text:000000000000042c .LVL81
     /tmp/ccDFjEtA.s:671    .text:0000000000000470 .LVL87
     /tmp/ccDFjEtA.s:678    .text:0000000000000484 .LVL88
     /tmp/ccDFjEtA.s:683    .text:0000000000000494 .LVL89
     /tmp/ccDFjEtA.s:698    .text:00000000000004ac .LVL91
     /tmp/ccDFjEtA.s:702    .text:00000000000004b4 .LVL92
     /tmp/ccDFjEtA.s:4201   .debug_str:00000000000007a7 .LASF175
     /tmp/ccDFjEtA.s:4159   .debug_str:0000000000000646 .LASF176
     /tmp/ccDFjEtA.s:469    .text:0000000000000344 .LFB24
     /tmp/ccDFjEtA.s:585    .text:0000000000000404 .LFE24
     /tmp/ccDFjEtA.s:3883   .debug_loc:00000000000002f2 .LLST8
     /tmp/ccDFjEtA.s:487    .text:000000000000035c .LBB2
     /tmp/ccDFjEtA.s:563    .text:00000000000003dc .LBE2
     /tmp/ccDFjEtA.s:3897   .debug_loc:000000000000032b .LLST9
     /tmp/ccDFjEtA.s:3909   .debug_loc:0000000000000362 .LLST10
     /tmp/ccDFjEtA.s:510    .text:000000000000037c .LBB6
     /tmp/ccDFjEtA.s:525    .text:0000000000000394 .LBE6
     /tmp/ccDFjEtA.s:3921   .debug_loc:0000000000000399 .LLST11
     /tmp/ccDFjEtA.s:499    .text:000000000000036c .LVL66
     /tmp/ccDFjEtA.s:541    .text:00000000000003b0 .LVL72
     /tmp/ccDFjEtA.s:548    .text:00000000000003c4 .LVL73
     /tmp/ccDFjEtA.s:553    .text:00000000000003d4 .LVL74
     /tmp/ccDFjEtA.s:568    .text:00000000000003ec .LVL76
     /tmp/ccDFjEtA.s:4151   .debug_str:0000000000000606 .LASF191
     /tmp/ccDFjEtA.s:9      .text:0000000000000000 .LFB23
     /tmp/ccDFjEtA.s:75     .text:0000000000000074 .LFE23
     /tmp/ccDFjEtA.s:3932   .debug_loc:00000000000003cf .LLST0
     /tmp/ccDFjEtA.s:42     .text:000000000000003c .LVL2
     /tmp/ccDFjEtA.s:47     .text:000000000000004c .LVL3
     /tmp/ccDFjEtA.s:72     .text:0000000000000070 .LVL6
     /tmp/ccDFjEtA.s:4281   .debug_str:00000000000009ee .LASF177
     /tmp/ccDFjEtA.s:4277   .debug_str:00000000000009d4 .LASF178
     /tmp/ccDFjEtA.s:4221   .debug_str:0000000000000836 .LASF179
     /tmp/ccDFjEtA.s:4037   .debug_str:000000000000027d .LASF180
     /tmp/ccDFjEtA.s:4073   .debug_str:0000000000000394 .LASF181
     /tmp/ccDFjEtA.s:821    .text:00000000000005b0 .LVL103
     /tmp/ccDFjEtA.s:825    .text:00000000000005b4 .LVL104
     /tmp/ccDFjEtA.s:830    .text:00000000000005bc .LVL105
     /tmp/ccDFjEtA.s:844    .text:00000000000005e0 .LVL108
     /tmp/ccDFjEtA.s:855    .text:00000000000005ec .LVL109
     /tmp/ccDFjEtA.s:307    .text:00000000000001f8 .LVL37
     /tmp/ccDFjEtA.s:325    .text:0000000000000218 .LVL39
     /tmp/ccDFjEtA.s:321    .text:0000000000000210 .LVL38
     /tmp/ccDFjEtA.s:346    .text:0000000000000250 .LVL43
     /tmp/ccDFjEtA.s:348    .text:0000000000000254 .LVL44
     /tmp/ccDFjEtA.s:421    .text:0000000000000308 .LVL57
     /tmp/ccDFjEtA.s:423    .text:000000000000030c .LVL58
     /tmp/ccDFjEtA.s:447    .text:0000000000000338 .LVL61
     /tmp/ccDFjEtA.s:381    .text:0000000000000298 .LVL49
     /tmp/ccDFjEtA.s:385    .text:00000000000002a0 .LVL50
     /tmp/ccDFjEtA.s:450    .text:000000000000033c .LVL62
     /tmp/ccDFjEtA.s:107    .text:0000000000000074 .LVL7
     /tmp/ccDFjEtA.s:125    .text:0000000000000094 .LVL9
     /tmp/ccDFjEtA.s:121    .text:000000000000008c .LVL8
     /tmp/ccDFjEtA.s:146    .text:00000000000000cc .LVL13
GAS LISTING /tmp/ccDFjEtA.s 			page 35


     /tmp/ccDFjEtA.s:148    .text:00000000000000d0 .LVL14
     /tmp/ccDFjEtA.s:247    .text:00000000000001bc .LVL31
     /tmp/ccDFjEtA.s:249    .text:00000000000001c0 .LVL32
     /tmp/ccDFjEtA.s:273    .text:00000000000001ec .LVL35
     /tmp/ccDFjEtA.s:182    .text:0000000000000108 .LVL18
     /tmp/ccDFjEtA.s:207    .text:000000000000014c .LVL23
     /tmp/ccDFjEtA.s:211    .text:0000000000000154 .LVL24
     /tmp/ccDFjEtA.s:276    .text:00000000000001f0 .LVL36
     /tmp/ccDFjEtA.s:602    .text:0000000000000404 .LVL78
     /tmp/ccDFjEtA.s:621    .text:0000000000000424 .LVL80
     /tmp/ccDFjEtA.s:616    .text:000000000000041c .LVL79
     /tmp/ccDFjEtA.s:717    .text:00000000000004d0 .LVL93
     /tmp/ccDFjEtA.s:661    .text:0000000000000458 .LVL86
     /tmp/ccDFjEtA.s:689    .text:000000000000049c .LVL90
     /tmp/ccDFjEtA.s:644    .text:0000000000000440 .LVL83
     /tmp/ccDFjEtA.s:653    .text:0000000000000454 .LVL85
     /tmp/ccDFjEtA.s:472    .text:0000000000000344 .LVL63
     /tmp/ccDFjEtA.s:491    .text:0000000000000364 .LVL65
     /tmp/ccDFjEtA.s:486    .text:000000000000035c .LVL64
     /tmp/ccDFjEtA.s:580    .text:00000000000003fc .LVL77
     /tmp/ccDFjEtA.s:531    .text:0000000000000398 .LVL71
     /tmp/ccDFjEtA.s:559    .text:00000000000003dc .LVL75
     /tmp/ccDFjEtA.s:514    .text:0000000000000380 .LVL68
     /tmp/ccDFjEtA.s:523    .text:0000000000000394 .LVL70
     /tmp/ccDFjEtA.s:13     .text:0000000000000000 .LVL0
     /tmp/ccDFjEtA.s:36     .text:0000000000000030 .LVL1
     /tmp/ccDFjEtA.s:60     .text:000000000000005c .LVL4
     /tmp/ccDFjEtA.s:66     .text:0000000000000068 .LVL5
     /tmp/ccDFjEtA.s:878    .debug_info:0000000000000000 .Ldebug_info0
     /tmp/ccDFjEtA.s:494    .text:0000000000000364 .LBB4
     /tmp/ccDFjEtA.s:527    .text:0000000000000394 .LBE4
     /tmp/ccDFjEtA.s:555    .text:00000000000003d4 .LBB8
     /tmp/ccDFjEtA.s:561    .text:00000000000003dc .LBE8
     /tmp/ccDFjEtA.s:624    .text:0000000000000424 .LBB12
     /tmp/ccDFjEtA.s:657    .text:0000000000000454 .LBE12
     /tmp/ccDFjEtA.s:685    .text:0000000000000494 .LBB16
     /tmp/ccDFjEtA.s:691    .text:000000000000049c .LBE16

UNDEFINED SYMBOLS
thread_dispatch
_Z11printStringPKc
_Z8printIntiii
_ZN5Riscv11printStringEPKc
thread_create
_ZN3PCBD1Ev
_ZN3PCBdlEPv
