GAS LISTING /tmp/cc3VF1s7.s 			page 1


   1              		.file	"Threads_C_API_test.cpp"
   2              		.option pic
   3              		.option norelax
   4              		.text
   5              	.Ltext0:
   6              		.section	.rodata.str1.8,"aMS",@progbits,1
   7              		.align	3
   8              	.LC0:
   9 0000 413A2069 		.string	"A: i="
   9      3D00
  10 0006 0000     		.align	3
  11              	.LC1:
  12 0008 0A00     		.string	"\n"
  13 000a 00000000 		.align	3
  13      0000
  14              	.LC2:
  15 0010 41206669 		.string	"A finished!\n"
  15      6E697368 
  15      6564210A 
  15      00
  16              		.text
  17              		.align	2
  18              		.globl	_Z11workerBodyAPv
  20              	_Z11workerBodyAPv:
  21              	.LFB1:
  22              		.file 1 "test/Threads_C_API_test.cpp"
   1:test/Threads_C_API_test.cpp **** //
   2:test/Threads_C_API_test.cpp **** // Created by os on 5/16/22.
   3:test/Threads_C_API_test.cpp **** //
   4:test/Threads_C_API_test.cpp **** 
   5:test/Threads_C_API_test.cpp **** #include "Threads_C_API_test.hpp"
   6:test/Threads_C_API_test.cpp **** 
   7:test/Threads_C_API_test.cpp **** static bool finishedA = false;
   8:test/Threads_C_API_test.cpp **** static bool finishedB = false;
   9:test/Threads_C_API_test.cpp **** static bool finishedC = false;
  10:test/Threads_C_API_test.cpp **** static bool finishedD = false;
  11:test/Threads_C_API_test.cpp **** 
  12:test/Threads_C_API_test.cpp **** static uint64 fibonacci(uint64 n) {
  13:test/Threads_C_API_test.cpp ****     if (n == 0 || n == 1) { return n; }
  14:test/Threads_C_API_test.cpp ****     if (n % 10 == 0) { thread_dispatch(); }
  15:test/Threads_C_API_test.cpp ****     return fibonacci(n - 1) + fibonacci(n - 2);
  16:test/Threads_C_API_test.cpp **** }
  17:test/Threads_C_API_test.cpp **** 
  18:test/Threads_C_API_test.cpp **** void workerBodyA(void* arg) {
  23              		.loc 1 18 29
  24              		.cfi_startproc
  25              	.LVL0:
  26 0000 130101FE 		addi	sp,sp,-32
  27              		.cfi_def_cfa_offset 32
  28 0004 233C1100 		sd	ra,24(sp)
  29 0008 23388100 		sd	s0,16(sp)
  30 000c 23349100 		sd	s1,8(sp)
  31 0010 23302101 		sd	s2,0(sp)
  32              		.cfi_offset 1, -8
  33              		.cfi_offset 8, -16
  34              		.cfi_offset 9, -24
  35              		.cfi_offset 18, -32
GAS LISTING /tmp/cc3VF1s7.s 			page 2


  36 0014 13040102 		addi	s0,sp,32
  37              		.cfi_def_cfa 8, 0
  19:test/Threads_C_API_test.cpp ****     //__asm__ volatile("csrr a0, sstatus");
  20:test/Threads_C_API_test.cpp ****     for (uint64 i = 0; i < 10; i++) {
  38              		.loc 1 20 5
  39              	.LVL1:
  40              	.LBB2:
  41              		.loc 1 20 17 is_stmt 0
  42 0018 13090000 		li	s2,0
  43 001c 6F008003 		j	.L7
  44              	.LVL2:
  45              	.L4:
  46              	.LBB3:
  47              	.LBB4:
  48              	.LBB5:
  21:test/Threads_C_API_test.cpp ****         printString("A: i="); printInt(i); printString("\n");
  22:test/Threads_C_API_test.cpp ****         for (uint64 j = 0; j < 10000; j++) {
  23:test/Threads_C_API_test.cpp ****             for (uint64 k = 0; k < 30000; k++) { /* busy wait */ }
  24:test/Threads_C_API_test.cpp ****             thread_dispatch();
  49              		.loc 1 24 13 is_stmt 1 discriminator 2
  50              		.loc 1 24 28 is_stmt 0 discriminator 2
  51 0020 97000000 		call	thread_dispatch@plt
  51      E7800000 
  52              	.LVL3:
  53              	.LBE5:
  22:test/Threads_C_API_test.cpp ****             for (uint64 k = 0; k < 30000; k++) { /* busy wait */ }
  54              		.loc 1 22 9 is_stmt 1 discriminator 2
  55 0028 93841400 		addi	s1,s1,1
  56              	.LVL4:
  57              	.L6:
  22:test/Threads_C_API_test.cpp ****             for (uint64 k = 0; k < 30000; k++) { /* busy wait */ }
  58              		.loc 1 22 30 discriminator 1
  59 002c B7270000 		li	a5,8192
  60 0030 9387F770 		addi	a5,a5,1807
  61 0034 63EE9700 		bgtu	s1,a5,.L3
  62              	.LBB7:
  63              	.LBB6:
  23:test/Threads_C_API_test.cpp ****             thread_dispatch();
  64              		.loc 1 23 25 is_stmt 0
  65 0038 13070000 		li	a4,0
  66              	.L5:
  67              	.LVL5:
  23:test/Threads_C_API_test.cpp ****             thread_dispatch();
  68              		.loc 1 23 34 is_stmt 1 discriminator 3
  69 003c B7770000 		li	a5,28672
  70 0040 9387F752 		addi	a5,a5,1327
  71 0044 E3EEE7FC 		bgtu	a4,a5,.L4
  23:test/Threads_C_API_test.cpp ****             thread_dispatch();
  72              		.loc 1 23 13 discriminator 2
  73 0048 13071700 		addi	a4,a4,1
  74              	.LVL6:
  75 004c 6FF01FFF 		j	.L5
  76              	.LVL7:
  77              	.L3:
  78              	.LBE6:
  79              	.LBE7:
  80              	.LBE4:
GAS LISTING /tmp/cc3VF1s7.s 			page 3


  81              	.LBE3:
  20:test/Threads_C_API_test.cpp ****         printString("A: i="); printInt(i); printString("\n");
  82              		.loc 1 20 5 discriminator 2
  83 0050 13091900 		addi	s2,s2,1
  84              	.LVL8:
  85              	.L7:
  20:test/Threads_C_API_test.cpp ****         printString("A: i="); printInt(i); printString("\n");
  86              		.loc 1 20 26 discriminator 1
  87 0054 93079000 		li	a5,9
  88 0058 63E02705 		bgtu	s2,a5,.L2
  89              	.LBB9:
  21:test/Threads_C_API_test.cpp ****         for (uint64 j = 0; j < 10000; j++) {
  90              		.loc 1 21 9
  21:test/Threads_C_API_test.cpp ****         for (uint64 j = 0; j < 10000; j++) {
  91              		.loc 1 21 20 is_stmt 0
  92 005c 17050000 		lla	a0,.LC0
  92      13050500 
  93 0064 97000000 		call	_Z11printStringPKc@plt
  93      E7800000 
  94              	.LVL9:
  21:test/Threads_C_API_test.cpp ****         for (uint64 j = 0; j < 10000; j++) {
  95              		.loc 1 21 31 is_stmt 1
  21:test/Threads_C_API_test.cpp ****         for (uint64 j = 0; j < 10000; j++) {
  96              		.loc 1 21 39 is_stmt 0
  97 006c 13060000 		li	a2,0
  98 0070 9305A000 		li	a1,10
  99 0074 1B050900 		sext.w	a0,s2
 100 0078 97000000 		call	_Z8printIntiii@plt
 100      E7800000 
 101              	.LVL10:
  21:test/Threads_C_API_test.cpp ****         for (uint64 j = 0; j < 10000; j++) {
 102              		.loc 1 21 44 is_stmt 1
  21:test/Threads_C_API_test.cpp ****         for (uint64 j = 0; j < 10000; j++) {
 103              		.loc 1 21 55 is_stmt 0
 104 0080 17050000 		lla	a0,.LC1
 104      13050500 
 105 0088 97000000 		call	_Z11printStringPKc@plt
 105      E7800000 
 106              	.LVL11:
  22:test/Threads_C_API_test.cpp ****             for (uint64 k = 0; k < 30000; k++) { /* busy wait */ }
 107              		.loc 1 22 9 is_stmt 1
 108              	.LBB8:
  22:test/Threads_C_API_test.cpp ****             for (uint64 k = 0; k < 30000; k++) { /* busy wait */ }
 109              		.loc 1 22 21 is_stmt 0
 110 0090 93040000 		li	s1,0
 111 0094 6FF09FF9 		j	.L6
 112              	.LVL12:
 113              	.L2:
 114              	.LBE8:
 115              	.LBE9:
 116              	.LBE2:
  25:test/Threads_C_API_test.cpp ****         }
  26:test/Threads_C_API_test.cpp ****     }
  27:test/Threads_C_API_test.cpp ****     printString("A finished!\n");
 117              		.loc 1 27 5 is_stmt 1
 118              		.loc 1 27 16 is_stmt 0
 119 0098 17050000 		lla	a0,.LC2
GAS LISTING /tmp/cc3VF1s7.s 			page 4


 119      13050500 
 120 00a0 97000000 		call	_Z11printStringPKc@plt
 120      E7800000 
 121              	.LVL13:
  28:test/Threads_C_API_test.cpp ****     finishedA = true;
 122              		.loc 1 28 5 is_stmt 1
 123              		.loc 1 28 15 is_stmt 0
 124 00a8 93071000 		li	a5,1
 125 00ac 17070000 		sb	a5,.LANCHOR0,a4
 125      2300F700 
  29:test/Threads_C_API_test.cpp **** }
 126              		.loc 1 29 1
 127 00b4 83308101 		ld	ra,24(sp)
 128              		.cfi_restore 1
 129 00b8 03340101 		ld	s0,16(sp)
 130              		.cfi_restore 8
 131              		.cfi_def_cfa 2, 32
 132 00bc 83348100 		ld	s1,8(sp)
 133              		.cfi_restore 9
 134 00c0 03390100 		ld	s2,0(sp)
 135              		.cfi_restore 18
 136              	.LVL14:
 137 00c4 13010102 		addi	sp,sp,32
 138              		.cfi_def_cfa_offset 0
 139 00c8 67800000 		jr	ra
 140              		.cfi_endproc
 141              	.LFE1:
 143              		.section	.rodata.str1.8
 144 001d 000000   		.align	3
 145              	.LC3:
 146 0020 423A2069 		.string	"B: i="
 146      3D00
 147 0026 0000     		.align	3
 148              	.LC4:
 149 0028 42206669 		.string	"B finished!\n"
 149      6E697368 
 149      6564210A 
 149      00
 150              		.text
 151              		.align	2
 152              		.globl	_Z11workerBodyBPv
 154              	_Z11workerBodyBPv:
 155              	.LFB2:
  30:test/Threads_C_API_test.cpp **** 
  31:test/Threads_C_API_test.cpp **** void workerBodyB(void* arg) {
 156              		.loc 1 31 29 is_stmt 1
 157              		.cfi_startproc
 158              	.LVL15:
 159 00cc 130101FE 		addi	sp,sp,-32
 160              		.cfi_def_cfa_offset 32
 161 00d0 233C1100 		sd	ra,24(sp)
 162 00d4 23388100 		sd	s0,16(sp)
 163 00d8 23349100 		sd	s1,8(sp)
 164 00dc 23302101 		sd	s2,0(sp)
 165              		.cfi_offset 1, -8
 166              		.cfi_offset 8, -16
 167              		.cfi_offset 9, -24
GAS LISTING /tmp/cc3VF1s7.s 			page 5


 168              		.cfi_offset 18, -32
 169 00e0 13040102 		addi	s0,sp,32
 170              		.cfi_def_cfa 8, 0
  32:test/Threads_C_API_test.cpp ****     for (uint64 i = 0; i < 16; i++) {
 171              		.loc 1 32 5
 172              	.LVL16:
 173              	.LBB10:
 174              		.loc 1 32 17 is_stmt 0
 175 00e4 13090000 		li	s2,0
 176 00e8 6F008003 		j	.L15
 177              	.LVL17:
 178              	.L12:
 179              	.LBB11:
 180              	.LBB12:
 181              	.LBB13:
  33:test/Threads_C_API_test.cpp ****         printString("B: i="); printInt(i); printString("\n");
  34:test/Threads_C_API_test.cpp ****         for (uint64 j = 0; j < 10000; j++) {
  35:test/Threads_C_API_test.cpp ****             for (uint64 k = 0; k < 30000; k++) { /* busy wait */ }
  36:test/Threads_C_API_test.cpp ****             thread_dispatch();
 182              		.loc 1 36 13 is_stmt 1 discriminator 2
 183              		.loc 1 36 28 is_stmt 0 discriminator 2
 184 00ec 97000000 		call	thread_dispatch@plt
 184      E7800000 
 185              	.LVL18:
 186              	.LBE13:
  34:test/Threads_C_API_test.cpp ****             for (uint64 k = 0; k < 30000; k++) { /* busy wait */ }
 187              		.loc 1 34 9 is_stmt 1 discriminator 2
 188 00f4 93841400 		addi	s1,s1,1
 189              	.LVL19:
 190              	.L14:
  34:test/Threads_C_API_test.cpp ****             for (uint64 k = 0; k < 30000; k++) { /* busy wait */ }
 191              		.loc 1 34 30 discriminator 1
 192 00f8 B7270000 		li	a5,8192
 193 00fc 9387F770 		addi	a5,a5,1807
 194 0100 63EE9700 		bgtu	s1,a5,.L11
 195              	.LBB15:
 196              	.LBB14:
  35:test/Threads_C_API_test.cpp ****             thread_dispatch();
 197              		.loc 1 35 25 is_stmt 0
 198 0104 13070000 		li	a4,0
 199              	.L13:
 200              	.LVL20:
  35:test/Threads_C_API_test.cpp ****             thread_dispatch();
 201              		.loc 1 35 34 is_stmt 1 discriminator 3
 202 0108 B7770000 		li	a5,28672
 203 010c 9387F752 		addi	a5,a5,1327
 204 0110 E3EEE7FC 		bgtu	a4,a5,.L12
  35:test/Threads_C_API_test.cpp ****             thread_dispatch();
 205              		.loc 1 35 13 discriminator 2
 206 0114 13071700 		addi	a4,a4,1
 207              	.LVL21:
 208 0118 6FF01FFF 		j	.L13
 209              	.LVL22:
 210              	.L11:
 211              	.LBE14:
 212              	.LBE15:
 213              	.LBE12:
GAS LISTING /tmp/cc3VF1s7.s 			page 6


 214              	.LBE11:
  32:test/Threads_C_API_test.cpp ****         printString("B: i="); printInt(i); printString("\n");
 215              		.loc 1 32 5 discriminator 2
 216 011c 13091900 		addi	s2,s2,1
 217              	.LVL23:
 218              	.L15:
  32:test/Threads_C_API_test.cpp ****         printString("B: i="); printInt(i); printString("\n");
 219              		.loc 1 32 26 discriminator 1
 220 0120 9307F000 		li	a5,15
 221 0124 63E02705 		bgtu	s2,a5,.L10
 222              	.LBB17:
  33:test/Threads_C_API_test.cpp ****         for (uint64 j = 0; j < 10000; j++) {
 223              		.loc 1 33 9
  33:test/Threads_C_API_test.cpp ****         for (uint64 j = 0; j < 10000; j++) {
 224              		.loc 1 33 20 is_stmt 0
 225 0128 17050000 		lla	a0,.LC3
 225      13050500 
 226 0130 97000000 		call	_Z11printStringPKc@plt
 226      E7800000 
 227              	.LVL24:
  33:test/Threads_C_API_test.cpp ****         for (uint64 j = 0; j < 10000; j++) {
 228              		.loc 1 33 31 is_stmt 1
  33:test/Threads_C_API_test.cpp ****         for (uint64 j = 0; j < 10000; j++) {
 229              		.loc 1 33 39 is_stmt 0
 230 0138 13060000 		li	a2,0
 231 013c 9305A000 		li	a1,10
 232 0140 1B050900 		sext.w	a0,s2
 233 0144 97000000 		call	_Z8printIntiii@plt
 233      E7800000 
 234              	.LVL25:
  33:test/Threads_C_API_test.cpp ****         for (uint64 j = 0; j < 10000; j++) {
 235              		.loc 1 33 44 is_stmt 1
  33:test/Threads_C_API_test.cpp ****         for (uint64 j = 0; j < 10000; j++) {
 236              		.loc 1 33 55 is_stmt 0
 237 014c 17050000 		lla	a0,.LC1
 237      13050500 
 238 0154 97000000 		call	_Z11printStringPKc@plt
 238      E7800000 
 239              	.LVL26:
  34:test/Threads_C_API_test.cpp ****             for (uint64 k = 0; k < 30000; k++) { /* busy wait */ }
 240              		.loc 1 34 9 is_stmt 1
 241              	.LBB16:
  34:test/Threads_C_API_test.cpp ****             for (uint64 k = 0; k < 30000; k++) { /* busy wait */ }
 242              		.loc 1 34 21 is_stmt 0
 243 015c 93040000 		li	s1,0
 244 0160 6FF09FF9 		j	.L14
 245              	.LVL27:
 246              	.L10:
 247              	.LBE16:
 248              	.LBE17:
 249              	.LBE10:
  37:test/Threads_C_API_test.cpp ****         }
  38:test/Threads_C_API_test.cpp ****     }
  39:test/Threads_C_API_test.cpp ****     thread_dispatch();
 250              		.loc 1 39 5 is_stmt 1
 251              		.loc 1 39 20 is_stmt 0
 252 0164 97000000 		call	thread_dispatch@plt
GAS LISTING /tmp/cc3VF1s7.s 			page 7


 252      E7800000 
 253              	.LVL28:
  40:test/Threads_C_API_test.cpp ****     printString("B finished!\n");
 254              		.loc 1 40 5 is_stmt 1
 255              		.loc 1 40 16 is_stmt 0
 256 016c 17050000 		lla	a0,.LC4
 256      13050500 
 257 0174 97000000 		call	_Z11printStringPKc@plt
 257      E7800000 
 258              	.LVL29:
  41:test/Threads_C_API_test.cpp ****     finishedB = true;
 259              		.loc 1 41 5 is_stmt 1
 260              		.loc 1 41 15 is_stmt 0
 261 017c 93071000 		li	a5,1
 262 0180 17070000 		sb	a5,.LANCHOR0+1,a4
 262      2300F700 
  42:test/Threads_C_API_test.cpp **** }
 263              		.loc 1 42 1
 264 0188 83308101 		ld	ra,24(sp)
 265              		.cfi_restore 1
 266 018c 03340101 		ld	s0,16(sp)
 267              		.cfi_restore 8
 268              		.cfi_def_cfa 2, 32
 269 0190 83348100 		ld	s1,8(sp)
 270              		.cfi_restore 9
 271 0194 03390100 		ld	s2,0(sp)
 272              		.cfi_restore 18
 273              	.LVL30:
 274 0198 13010102 		addi	sp,sp,32
 275              		.cfi_def_cfa_offset 0
 276 019c 67800000 		jr	ra
 277              		.cfi_endproc
 278              	.LFE2:
 280              		.align	2
 282              	_ZL9fibonaccim:
 283              	.LFB0:
  12:test/Threads_C_API_test.cpp ****     if (n == 0 || n == 1) { return n; }
 284              		.loc 1 12 35 is_stmt 1
 285              		.cfi_startproc
 286              	.LVL31:
 287 01a0 130101FE 		addi	sp,sp,-32
 288              		.cfi_def_cfa_offset 32
 289 01a4 233C1100 		sd	ra,24(sp)
 290 01a8 23388100 		sd	s0,16(sp)
 291 01ac 23349100 		sd	s1,8(sp)
 292 01b0 23302101 		sd	s2,0(sp)
 293              		.cfi_offset 1, -8
 294              		.cfi_offset 8, -16
 295              		.cfi_offset 9, -24
 296              		.cfi_offset 18, -32
 297 01b4 13040102 		addi	s0,sp,32
 298              		.cfi_def_cfa 8, 0
 299 01b8 93040500 		mv	s1,a0
  13:test/Threads_C_API_test.cpp ****     if (n % 10 == 0) { thread_dispatch(); }
 300              		.loc 1 13 5
 301 01bc 93071000 		li	a5,1
 302 01c0 63F8A702 		bleu	a0,a5,.L17
GAS LISTING /tmp/cc3VF1s7.s 			page 8


  14:test/Threads_C_API_test.cpp ****     return fibonacci(n - 1) + fibonacci(n - 2);
 303              		.loc 1 14 5
  14:test/Threads_C_API_test.cpp ****     return fibonacci(n - 1) + fibonacci(n - 2);
 304              		.loc 1 14 11 is_stmt 0
 305 01c4 9307A000 		li	a5,10
 306 01c8 B377F502 		remu	a5,a0,a5
  14:test/Threads_C_API_test.cpp ****     return fibonacci(n - 1) + fibonacci(n - 2);
 307              		.loc 1 14 5
 308 01cc 638E0702 		beqz	a5,.L22
 309              	.LVL32:
 310              	.L19:
  15:test/Threads_C_API_test.cpp **** }
 311              		.loc 1 15 5 is_stmt 1
  15:test/Threads_C_API_test.cpp **** }
 312              		.loc 1 15 21 is_stmt 0
 313 01d0 1385F4FF 		addi	a0,s1,-1
 314 01d4 97000000 		call	_ZL9fibonaccim
 314      E7800000 
 315              	.LVL33:
 316 01dc 13090500 		mv	s2,a0
  15:test/Threads_C_API_test.cpp **** }
 317              		.loc 1 15 40
 318 01e0 1385E4FF 		addi	a0,s1,-2
 319 01e4 97000000 		call	_ZL9fibonaccim
 319      E7800000 
 320              	.LVL34:
  15:test/Threads_C_API_test.cpp **** }
 321              		.loc 1 15 46
 322 01ec 3305A900 		add	a0,s2,a0
 323              	.L17:
  16:test/Threads_C_API_test.cpp **** 
 324              		.loc 1 16 1
 325 01f0 83308101 		ld	ra,24(sp)
 326              		.cfi_remember_state
 327              		.cfi_restore 1
 328 01f4 03340101 		ld	s0,16(sp)
 329              		.cfi_restore 8
 330              		.cfi_def_cfa 2, 32
 331 01f8 83348100 		ld	s1,8(sp)
 332              		.cfi_restore 9
 333              	.LVL35:
 334 01fc 03390100 		ld	s2,0(sp)
 335              		.cfi_restore 18
 336 0200 13010102 		addi	sp,sp,32
 337              		.cfi_def_cfa_offset 0
 338 0204 67800000 		jr	ra
 339              	.LVL36:
 340              	.L22:
 341              		.cfi_restore_state
  14:test/Threads_C_API_test.cpp ****     return fibonacci(n - 1) + fibonacci(n - 2);
 342              		.loc 1 14 24 is_stmt 1 discriminator 1
  14:test/Threads_C_API_test.cpp ****     return fibonacci(n - 1) + fibonacci(n - 2);
 343              		.loc 1 14 39 is_stmt 0 discriminator 1
 344 0208 97000000 		call	thread_dispatch@plt
 344      E7800000 
 345              	.LVL37:
 346 0210 6FF01FFC 		j	.L19
GAS LISTING /tmp/cc3VF1s7.s 			page 9


 347              		.cfi_endproc
 348              	.LFE0:
 350              		.section	.rodata.str1.8
 351 0035 000000   		.align	3
 352              	.LC5:
 353 0038 433A2069 		.string	"C: i="
 353      3D00
 354 003e 0000     		.align	3
 355              	.LC6:
 356 0040 433A2064 		.string	"C: dispatch\n"
 356      69737061 
 356      7463680A 
 356      00
 357 004d 000000   		.align	3
 358              	.LC7:
 359 0050 433A2074 		.string	"C: t1="
 359      313D00
 360 0057 00       		.align	3
 361              	.LC8:
 362 0058 433A2066 		.string	"C: fibonaci="
 362      69626F6E 
 362      6163693D 
 362      00
 363 0065 000000   		.align	3
 364              	.LC9:
 365 0068 43206669 		.string	"C finished!\n"
 365      6E697368 
 365      6564210A 
 365      00
 366              		.text
 367              		.align	2
 368              		.globl	_Z11workerBodyCPv
 370              	_Z11workerBodyCPv:
 371              	.LFB3:
  43:test/Threads_C_API_test.cpp **** 
  44:test/Threads_C_API_test.cpp **** void workerBodyC(void* arg) {
 372              		.loc 1 44 29 is_stmt 1
 373              		.cfi_startproc
 374              	.LVL38:
 375 0214 130101FE 		addi	sp,sp,-32
 376              		.cfi_def_cfa_offset 32
 377 0218 233C1100 		sd	ra,24(sp)
 378 021c 23388100 		sd	s0,16(sp)
 379 0220 23349100 		sd	s1,8(sp)
 380 0224 23302101 		sd	s2,0(sp)
 381              		.cfi_offset 1, -8
 382              		.cfi_offset 8, -16
 383              		.cfi_offset 9, -24
 384              		.cfi_offset 18, -32
 385 0228 13040102 		addi	s0,sp,32
 386              		.cfi_def_cfa 8, 0
  45:test/Threads_C_API_test.cpp ****     uint8 i = 0;
 387              		.loc 1 45 5
 388              	.LVL39:
 389              		.loc 1 45 11 is_stmt 0
 390 022c 93040000 		li	s1,0
 391 0230 6F000004 		j	.L25
GAS LISTING /tmp/cc3VF1s7.s 			page 10


 392              	.LVL40:
 393              	.L29:
  46:test/Threads_C_API_test.cpp ****     for (; i < 3; i++) {
  47:test/Threads_C_API_test.cpp ****         printString("C: i="); printInt(i); printString("\n");
 394              		.loc 1 47 9 is_stmt 1 discriminator 1
 395              		.loc 1 47 20 is_stmt 0 discriminator 1
 396 0234 17050000 		lla	a0,.LC5
 396      13050500 
 397 023c 97000000 		call	_Z11printStringPKc@plt
 397      E7800000 
 398              	.LVL41:
 399              		.loc 1 47 31 is_stmt 1 discriminator 1
 400              		.loc 1 47 39 is_stmt 0 discriminator 1
 401 0244 13060000 		li	a2,0
 402 0248 9305A000 		li	a1,10
 403 024c 13850400 		mv	a0,s1
 404 0250 97000000 		call	_Z8printIntiii@plt
 404      E7800000 
 405              	.LVL42:
 406              		.loc 1 47 44 is_stmt 1 discriminator 1
 407              		.loc 1 47 55 is_stmt 0 discriminator 1
 408 0258 17050000 		lla	a0,.LC1
 408      13050500 
 409 0260 97000000 		call	_Z11printStringPKc@plt
 409      E7800000 
 410              	.LVL43:
  46:test/Threads_C_API_test.cpp ****     for (; i < 3; i++) {
 411              		.loc 1 46 5 is_stmt 1 discriminator 1
 412 0268 9B841400 		addiw	s1,s1,1
 413              	.LVL44:
 414 026c 93F4F40F 		andi	s1,s1,0xff
 415              	.LVL45:
 416              	.L25:
  46:test/Threads_C_API_test.cpp ****     for (; i < 3; i++) {
 417              		.loc 1 46 5 discriminator 2
  46:test/Threads_C_API_test.cpp ****     for (; i < 3; i++) {
 418              		.loc 1 46 14 discriminator 2
 419 0270 93072000 		li	a5,2
 420 0274 E3F097FC 		bleu	s1,a5,.L29
  48:test/Threads_C_API_test.cpp ****     }
  49:test/Threads_C_API_test.cpp **** 
  50:test/Threads_C_API_test.cpp ****     printString("C: dispatch\n");
 421              		.loc 1 50 5
 422              		.loc 1 50 16 is_stmt 0
 423 0278 17050000 		lla	a0,.LC6
 423      13050500 
 424 0280 97000000 		call	_Z11printStringPKc@plt
 424      E7800000 
 425              	.LVL46:
  51:test/Threads_C_API_test.cpp ****     __asm__ ("li t1, 7");
 426              		.loc 1 51 5 is_stmt 1
 427              		.loc 1 51 25 is_stmt 0
 428              	#APP
 429              	# 51 "test/Threads_C_API_test.cpp" 1
  52              	    thread_dispatch();
 430              		li t1, 7
 431              	# 0 "" 2
GAS LISTING /tmp/cc3VF1s7.s 			page 11


 432              		.loc 1 52 5 is_stmt 1
 433              		.loc 1 52 20 is_stmt 0
 434              	#NO_APP
 435 028c 97000000 		call	thread_dispatch@plt
 435      E7800000 
 436              	.LVL47:
  53:test/Threads_C_API_test.cpp **** 
  54:test/Threads_C_API_test.cpp ****     uint64 t1 = 0;
 437              		.loc 1 54 5 is_stmt 1
  55:test/Threads_C_API_test.cpp ****     __asm__ ("mv %[t1], t1" : [t1] "=r"(t1));
 438              		.loc 1 55 5
 439              		.loc 1 55 45 is_stmt 0
 440              	#APP
 441              	# 55 "test/Threads_C_API_test.cpp" 1
  56              	
 442              		mv s2, t1
 443              	# 0 "" 2
 444              	.LVL48:
  57:test/Threads_C_API_test.cpp ****     printString("C: t1="); printInt(t1); printString("\n");
 445              		.loc 1 57 5 is_stmt 1
 446              		.loc 1 57 16 is_stmt 0
 447              	#NO_APP
 448 0298 17050000 		lla	a0,.LC7
 448      13050500 
 449 02a0 97000000 		call	_Z11printStringPKc@plt
 449      E7800000 
 450              	.LVL49:
 451              		.loc 1 57 28 is_stmt 1
 452              		.loc 1 57 36 is_stmt 0
 453 02a8 13060000 		li	a2,0
 454 02ac 9305A000 		li	a1,10
 455 02b0 1B050900 		sext.w	a0,s2
 456 02b4 97000000 		call	_Z8printIntiii@plt
 456      E7800000 
 457              	.LVL50:
 458              		.loc 1 57 42 is_stmt 1
 459              		.loc 1 57 53 is_stmt 0
 460 02bc 17050000 		lla	a0,.LC1
 460      13050500 
 461 02c4 97000000 		call	_Z11printStringPKc@plt
 461      E7800000 
 462              	.LVL51:
  58:test/Threads_C_API_test.cpp **** 
  59:test/Threads_C_API_test.cpp ****     uint64 result = fibonacci(12);
 463              		.loc 1 59 5 is_stmt 1
 464              		.loc 1 59 30 is_stmt 0
 465 02cc 1305C000 		li	a0,12
 466 02d0 97000000 		call	_ZL9fibonaccim
 466      E7800000 
 467              	.LVL52:
 468 02d8 13090500 		mv	s2,a0
 469              	.LVL53:
  60:test/Threads_C_API_test.cpp ****     printString("C: fibonaci="); printInt(result); printString("\n");
 470              		.loc 1 60 5 is_stmt 1
 471              		.loc 1 60 16 is_stmt 0
 472 02dc 17050000 		lla	a0,.LC8
 472      13050500 
GAS LISTING /tmp/cc3VF1s7.s 			page 12


 473              	.LVL54:
 474 02e4 97000000 		call	_Z11printStringPKc@plt
 474      E7800000 
 475              	.LVL55:
 476              		.loc 1 60 34 is_stmt 1
 477              		.loc 1 60 42 is_stmt 0
 478 02ec 13060000 		li	a2,0
 479 02f0 9305A000 		li	a1,10
 480 02f4 1B050900 		sext.w	a0,s2
 481 02f8 97000000 		call	_Z8printIntiii@plt
 481      E7800000 
 482              	.LVL56:
 483              		.loc 1 60 52 is_stmt 1
 484              		.loc 1 60 63 is_stmt 0
 485 0300 17050000 		lla	a0,.LC1
 485      13050500 
 486 0308 97000000 		call	_Z11printStringPKc@plt
 486      E7800000 
 487              	.LVL57:
 488 0310 6F000004 		j	.L27
 489              	.L30:
  61:test/Threads_C_API_test.cpp **** 
  62:test/Threads_C_API_test.cpp ****     for (; i < 6; i++) {
  63:test/Threads_C_API_test.cpp ****         printString("C: i="); printInt(i); printString("\n");
 490              		.loc 1 63 9 is_stmt 1 discriminator 1
 491              		.loc 1 63 20 is_stmt 0 discriminator 1
 492 0314 17050000 		lla	a0,.LC5
 492      13050500 
 493 031c 97000000 		call	_Z11printStringPKc@plt
 493      E7800000 
 494              	.LVL58:
 495              		.loc 1 63 31 is_stmt 1 discriminator 1
 496              		.loc 1 63 39 is_stmt 0 discriminator 1
 497 0324 13060000 		li	a2,0
 498 0328 9305A000 		li	a1,10
 499 032c 13850400 		mv	a0,s1
 500 0330 97000000 		call	_Z8printIntiii@plt
 500      E7800000 
 501              	.LVL59:
 502              		.loc 1 63 44 is_stmt 1 discriminator 1
 503              		.loc 1 63 55 is_stmt 0 discriminator 1
 504 0338 17050000 		lla	a0,.LC1
 504      13050500 
 505 0340 97000000 		call	_Z11printStringPKc@plt
 505      E7800000 
 506              	.LVL60:
  62:test/Threads_C_API_test.cpp ****         printString("C: i="); printInt(i); printString("\n");
 507              		.loc 1 62 5 is_stmt 1 discriminator 1
 508 0348 9B841400 		addiw	s1,s1,1
 509              	.LVL61:
 510 034c 93F4F40F 		andi	s1,s1,0xff
 511              	.LVL62:
 512              	.L27:
  62:test/Threads_C_API_test.cpp ****         printString("C: i="); printInt(i); printString("\n");
 513              		.loc 1 62 5 discriminator 2
  62:test/Threads_C_API_test.cpp ****         printString("C: i="); printInt(i); printString("\n");
 514              		.loc 1 62 14 discriminator 2
GAS LISTING /tmp/cc3VF1s7.s 			page 13


 515 0350 93075000 		li	a5,5
 516 0354 E3F097FC 		bleu	s1,a5,.L30
  64:test/Threads_C_API_test.cpp ****     }
  65:test/Threads_C_API_test.cpp **** 
  66:test/Threads_C_API_test.cpp ****     thread_dispatch();
 517              		.loc 1 66 5
 518              		.loc 1 66 20 is_stmt 0
 519 0358 97000000 		call	thread_dispatch@plt
 519      E7800000 
 520              	.LVL63:
  67:test/Threads_C_API_test.cpp ****     printString("C finished!\n");
 521              		.loc 1 67 5 is_stmt 1
 522              		.loc 1 67 16 is_stmt 0
 523 0360 17050000 		lla	a0,.LC9
 523      13050500 
 524 0368 97000000 		call	_Z11printStringPKc@plt
 524      E7800000 
 525              	.LVL64:
  68:test/Threads_C_API_test.cpp ****     finishedC = true;
 526              		.loc 1 68 5 is_stmt 1
 527              		.loc 1 68 15 is_stmt 0
 528 0370 93071000 		li	a5,1
 529 0374 17070000 		sb	a5,.LANCHOR0+2,a4
 529      2300F700 
  69:test/Threads_C_API_test.cpp **** }
 530              		.loc 1 69 1
 531 037c 83308101 		ld	ra,24(sp)
 532              		.cfi_restore 1
 533 0380 03340101 		ld	s0,16(sp)
 534              		.cfi_restore 8
 535              		.cfi_def_cfa 2, 32
 536 0384 83348100 		ld	s1,8(sp)
 537              		.cfi_restore 9
 538              	.LVL65:
 539 0388 03390100 		ld	s2,0(sp)
 540              		.cfi_restore 18
 541              	.LVL66:
 542 038c 13010102 		addi	sp,sp,32
 543              		.cfi_def_cfa_offset 0
 544 0390 67800000 		jr	ra
 545              		.cfi_endproc
 546              	.LFE3:
 548              		.section	.rodata.str1.8
 549 0075 000000   		.align	3
 550              	.LC10:
 551 0078 443A2069 		.string	"D: i="
 551      3D00
 552 007e 0000     		.align	3
 553              	.LC11:
 554 0080 443A2064 		.string	"D: dispatch\n"
 554      69737061 
 554      7463680A 
 554      00
 555 008d 000000   		.align	3
 556              	.LC12:
 557 0090 443A2066 		.string	"D: fibonaci="
 557      69626F6E 
GAS LISTING /tmp/cc3VF1s7.s 			page 14


 557      6163693D 
 557      00
 558 009d 000000   		.align	3
 559              	.LC13:
 560 00a0 44206669 		.string	"D finished!\n"
 560      6E697368 
 560      6564210A 
 560      00
 561              		.text
 562              		.align	2
 563              		.globl	_Z11workerBodyDPv
 565              	_Z11workerBodyDPv:
 566              	.LFB4:
  70:test/Threads_C_API_test.cpp **** 
  71:test/Threads_C_API_test.cpp **** void workerBodyD(void* arg) {
 567              		.loc 1 71 29 is_stmt 1
 568              		.cfi_startproc
 569              	.LVL67:
 570 0394 130101FE 		addi	sp,sp,-32
 571              		.cfi_def_cfa_offset 32
 572 0398 233C1100 		sd	ra,24(sp)
 573 039c 23388100 		sd	s0,16(sp)
 574 03a0 23349100 		sd	s1,8(sp)
 575 03a4 23302101 		sd	s2,0(sp)
 576              		.cfi_offset 1, -8
 577              		.cfi_offset 8, -16
 578              		.cfi_offset 9, -24
 579              		.cfi_offset 18, -32
 580 03a8 13040102 		addi	s0,sp,32
 581              		.cfi_def_cfa 8, 0
  72:test/Threads_C_API_test.cpp ****     uint8 i = 10;
 582              		.loc 1 72 5
 583              	.LVL68:
 584              		.loc 1 72 11 is_stmt 0
 585 03ac 9304A000 		li	s1,10
 586 03b0 6F000004 		j	.L33
 587              	.LVL69:
 588              	.L37:
  73:test/Threads_C_API_test.cpp ****     for (; i < 13; i++) {
  74:test/Threads_C_API_test.cpp ****         printString("D: i="); printInt(i); printString("\n");
 589              		.loc 1 74 9 is_stmt 1 discriminator 1
 590              		.loc 1 74 20 is_stmt 0 discriminator 1
 591 03b4 17050000 		lla	a0,.LC10
 591      13050500 
 592 03bc 97000000 		call	_Z11printStringPKc@plt
 592      E7800000 
 593              	.LVL70:
 594              		.loc 1 74 31 is_stmt 1 discriminator 1
 595              		.loc 1 74 39 is_stmt 0 discriminator 1
 596 03c4 13060000 		li	a2,0
 597 03c8 9305A000 		li	a1,10
 598 03cc 13850400 		mv	a0,s1
 599 03d0 97000000 		call	_Z8printIntiii@plt
 599      E7800000 
 600              	.LVL71:
 601              		.loc 1 74 44 is_stmt 1 discriminator 1
 602              		.loc 1 74 55 is_stmt 0 discriminator 1
GAS LISTING /tmp/cc3VF1s7.s 			page 15


 603 03d8 17050000 		lla	a0,.LC1
 603      13050500 
 604 03e0 97000000 		call	_Z11printStringPKc@plt
 604      E7800000 
 605              	.LVL72:
  73:test/Threads_C_API_test.cpp ****     for (; i < 13; i++) {
 606              		.loc 1 73 5 is_stmt 1 discriminator 1
 607 03e8 9B841400 		addiw	s1,s1,1
 608              	.LVL73:
 609 03ec 93F4F40F 		andi	s1,s1,0xff
 610              	.LVL74:
 611              	.L33:
  73:test/Threads_C_API_test.cpp ****     for (; i < 13; i++) {
 612              		.loc 1 73 5 discriminator 2
  73:test/Threads_C_API_test.cpp ****     for (; i < 13; i++) {
 613              		.loc 1 73 14 discriminator 2
 614 03f0 9307C000 		li	a5,12
 615 03f4 E3F097FC 		bleu	s1,a5,.L37
  75:test/Threads_C_API_test.cpp ****     }
  76:test/Threads_C_API_test.cpp **** 
  77:test/Threads_C_API_test.cpp ****     printString("D: dispatch\n");
 616              		.loc 1 77 5
 617              		.loc 1 77 16 is_stmt 0
 618 03f8 17050000 		lla	a0,.LC11
 618      13050500 
 619 0400 97000000 		call	_Z11printStringPKc@plt
 619      E7800000 
 620              	.LVL75:
  78:test/Threads_C_API_test.cpp ****     __asm__ ("li t1, 5");
 621              		.loc 1 78 5 is_stmt 1
 622              		.loc 1 78 25 is_stmt 0
 623              	#APP
 624              	# 78 "test/Threads_C_API_test.cpp" 1
  79              	    thread_dispatch();
 625              		li t1, 5
 626              	# 0 "" 2
 627              		.loc 1 79 5 is_stmt 1
 628              		.loc 1 79 20 is_stmt 0
 629              	#NO_APP
 630 040c 97000000 		call	thread_dispatch@plt
 630      E7800000 
 631              	.LVL76:
  80:test/Threads_C_API_test.cpp **** 
  81:test/Threads_C_API_test.cpp ****     uint64 result = fibonacci(16);
 632              		.loc 1 81 5 is_stmt 1
 633              		.loc 1 81 30 is_stmt 0
 634 0414 13050001 		li	a0,16
 635 0418 97000000 		call	_ZL9fibonaccim
 635      E7800000 
 636              	.LVL77:
 637 0420 13090500 		mv	s2,a0
 638              	.LVL78:
  82:test/Threads_C_API_test.cpp ****     printString("D: fibonaci="); printInt(result); printString("\n");
 639              		.loc 1 82 5 is_stmt 1
 640              		.loc 1 82 16 is_stmt 0
 641 0424 17050000 		lla	a0,.LC12
 641      13050500 
GAS LISTING /tmp/cc3VF1s7.s 			page 16


 642              	.LVL79:
 643 042c 97000000 		call	_Z11printStringPKc@plt
 643      E7800000 
 644              	.LVL80:
 645              		.loc 1 82 34 is_stmt 1
 646              		.loc 1 82 42 is_stmt 0
 647 0434 13060000 		li	a2,0
 648 0438 9305A000 		li	a1,10
 649 043c 1B050900 		sext.w	a0,s2
 650 0440 97000000 		call	_Z8printIntiii@plt
 650      E7800000 
 651              	.LVL81:
 652              		.loc 1 82 52 is_stmt 1
 653              		.loc 1 82 63 is_stmt 0
 654 0448 17050000 		lla	a0,.LC1
 654      13050500 
 655 0450 97000000 		call	_Z11printStringPKc@plt
 655      E7800000 
 656              	.LVL82:
 657 0458 6F000004 		j	.L35
 658              	.L38:
  83:test/Threads_C_API_test.cpp **** 
  84:test/Threads_C_API_test.cpp ****     for (; i < 16; i++) {
  85:test/Threads_C_API_test.cpp ****         printString("D: i="); printInt(i); printString("\n");
 659              		.loc 1 85 9 is_stmt 1 discriminator 1
 660              		.loc 1 85 20 is_stmt 0 discriminator 1
 661 045c 17050000 		lla	a0,.LC10
 661      13050500 
 662 0464 97000000 		call	_Z11printStringPKc@plt
 662      E7800000 
 663              	.LVL83:
 664              		.loc 1 85 31 is_stmt 1 discriminator 1
 665              		.loc 1 85 39 is_stmt 0 discriminator 1
 666 046c 13060000 		li	a2,0
 667 0470 9305A000 		li	a1,10
 668 0474 13850400 		mv	a0,s1
 669 0478 97000000 		call	_Z8printIntiii@plt
 669      E7800000 
 670              	.LVL84:
 671              		.loc 1 85 44 is_stmt 1 discriminator 1
 672              		.loc 1 85 55 is_stmt 0 discriminator 1
 673 0480 17050000 		lla	a0,.LC1
 673      13050500 
 674 0488 97000000 		call	_Z11printStringPKc@plt
 674      E7800000 
 675              	.LVL85:
  84:test/Threads_C_API_test.cpp ****         printString("D: i="); printInt(i); printString("\n");
 676              		.loc 1 84 5 is_stmt 1 discriminator 1
 677 0490 9B841400 		addiw	s1,s1,1
 678              	.LVL86:
 679 0494 93F4F40F 		andi	s1,s1,0xff
 680              	.LVL87:
 681              	.L35:
  84:test/Threads_C_API_test.cpp ****         printString("D: i="); printInt(i); printString("\n");
 682              		.loc 1 84 5 discriminator 2
  84:test/Threads_C_API_test.cpp ****         printString("D: i="); printInt(i); printString("\n");
 683              		.loc 1 84 14 discriminator 2
GAS LISTING /tmp/cc3VF1s7.s 			page 17


 684 0498 9307F000 		li	a5,15
 685 049c E3F097FC 		bleu	s1,a5,.L38
  86:test/Threads_C_API_test.cpp ****     }
  87:test/Threads_C_API_test.cpp **** 
  88:test/Threads_C_API_test.cpp ****     thread_dispatch();
 686              		.loc 1 88 5
 687              		.loc 1 88 20 is_stmt 0
 688 04a0 97000000 		call	thread_dispatch@plt
 688      E7800000 
 689              	.LVL88:
  89:test/Threads_C_API_test.cpp ****     printString("D finished!\n");
 690              		.loc 1 89 5 is_stmt 1
 691              		.loc 1 89 16 is_stmt 0
 692 04a8 17050000 		lla	a0,.LC13
 692      13050500 
 693 04b0 97000000 		call	_Z11printStringPKc@plt
 693      E7800000 
 694              	.LVL89:
  90:test/Threads_C_API_test.cpp ****     finishedD = true;
 695              		.loc 1 90 5 is_stmt 1
 696              		.loc 1 90 15 is_stmt 0
 697 04b8 93071000 		li	a5,1
 698 04bc 17070000 		sb	a5,.LANCHOR0+3,a4
 698      2300F700 
  91:test/Threads_C_API_test.cpp **** }
 699              		.loc 1 91 1
 700 04c4 83308101 		ld	ra,24(sp)
 701              		.cfi_restore 1
 702 04c8 03340101 		ld	s0,16(sp)
 703              		.cfi_restore 8
 704              		.cfi_def_cfa 2, 32
 705 04cc 83348100 		ld	s1,8(sp)
 706              		.cfi_restore 9
 707              	.LVL90:
 708 04d0 03390100 		ld	s2,0(sp)
 709              		.cfi_restore 18
 710              	.LVL91:
 711 04d4 13010102 		addi	sp,sp,32
 712              		.cfi_def_cfa_offset 0
 713 04d8 67800000 		jr	ra
 714              		.cfi_endproc
 715              	.LFE4:
 717              		.section	.rodata.str1.8
 718 00ad 000000   		.align	3
 719              	.LC14:
 720 00b0 54687265 		.string	"ThreadA created\n"
 720      61644120 
 720      63726561 
 720      7465640A 
 720      00
 721 00c1 00000000 		.align	3
 721      000000
 722              	.LC15:
 723 00c8 54687265 		.string	"ThreadB created\n"
 723      61644220 
 723      63726561 
 723      7465640A 
GAS LISTING /tmp/cc3VF1s7.s 			page 18


 723      00
 724 00d9 00000000 		.align	3
 724      000000
 725              	.LC16:
 726 00e0 54687265 		.string	"ThreadC created\n"
 726      61644320 
 726      63726561 
 726      7465640A 
 726      00
 727 00f1 00000000 		.align	3
 727      000000
 728              	.LC17:
 729 00f8 54687265 		.string	"ThreadD created\n"
 729      61644420 
 729      63726561 
 729      7465640A 
 729      00
 730              		.text
 731              		.align	2
 732              		.globl	_Z18Threads_C_API_testv
 734              	_Z18Threads_C_API_testv:
 735              	.LFB5:
  92:test/Threads_C_API_test.cpp **** 
  93:test/Threads_C_API_test.cpp **** 
  94:test/Threads_C_API_test.cpp **** void Threads_C_API_test() {
 736              		.loc 1 94 27 is_stmt 1
 737              		.cfi_startproc
 738 04dc 130101FC 		addi	sp,sp,-64
 739              		.cfi_def_cfa_offset 64
 740 04e0 233C1102 		sd	ra,56(sp)
 741 04e4 23388102 		sd	s0,48(sp)
 742 04e8 23349102 		sd	s1,40(sp)
 743              		.cfi_offset 1, -8
 744              		.cfi_offset 8, -16
 745              		.cfi_offset 9, -24
 746 04ec 13040104 		addi	s0,sp,64
 747              		.cfi_def_cfa 8, 0
  95:test/Threads_C_API_test.cpp ****     thread_t threads[4];
 748              		.loc 1 95 5
  96:test/Threads_C_API_test.cpp ****     thread_create(&threads[0], workerBodyA, nullptr);
 749              		.loc 1 96 5
 750              		.loc 1 96 18 is_stmt 0
 751 04f0 13060000 		li	a2,0
 752 04f4 97050000 		lla	a1,_Z11workerBodyAPv
 752      93850500 
 753 04fc 130504FC 		addi	a0,s0,-64
 754 0500 97000000 		call	thread_create@plt
 754      E7800000 
 755              	.LVL92:
  97:test/Threads_C_API_test.cpp ****     printString("ThreadA created\n");
 756              		.loc 1 97 5 is_stmt 1
 757              		.loc 1 97 16 is_stmt 0
 758 0508 17050000 		lla	a0,.LC14
 758      13050500 
 759 0510 97000000 		call	_Z11printStringPKc@plt
 759      E7800000 
 760              	.LVL93:
GAS LISTING /tmp/cc3VF1s7.s 			page 19


  98:test/Threads_C_API_test.cpp **** 
  99:test/Threads_C_API_test.cpp ****     thread_create(&threads[1], workerBodyB, nullptr);
 761              		.loc 1 99 5 is_stmt 1
 762              		.loc 1 99 18 is_stmt 0
 763 0518 13060000 		li	a2,0
 764 051c 97050000 		lla	a1,_Z11workerBodyBPv
 764      93850500 
 765 0524 130584FC 		addi	a0,s0,-56
 766 0528 97000000 		call	thread_create@plt
 766      E7800000 
 767              	.LVL94:
 100:test/Threads_C_API_test.cpp ****     printString("ThreadB created\n");
 768              		.loc 1 100 5 is_stmt 1
 769              		.loc 1 100 16 is_stmt 0
 770 0530 17050000 		lla	a0,.LC15
 770      13050500 
 771 0538 97000000 		call	_Z11printStringPKc@plt
 771      E7800000 
 772              	.LVL95:
 101:test/Threads_C_API_test.cpp **** 
 102:test/Threads_C_API_test.cpp ****     thread_create(&threads[2], workerBodyC, nullptr);
 773              		.loc 1 102 5 is_stmt 1
 774              		.loc 1 102 18 is_stmt 0
 775 0540 13060000 		li	a2,0
 776 0544 97050000 		lla	a1,_Z11workerBodyCPv
 776      93850500 
 777 054c 130504FD 		addi	a0,s0,-48
 778 0550 97000000 		call	thread_create@plt
 778      E7800000 
 779              	.LVL96:
 103:test/Threads_C_API_test.cpp ****     printString("ThreadC created\n");
 780              		.loc 1 103 5 is_stmt 1
 781              		.loc 1 103 16 is_stmt 0
 782 0558 17050000 		lla	a0,.LC16
 782      13050500 
 783 0560 97000000 		call	_Z11printStringPKc@plt
 783      E7800000 
 784              	.LVL97:
 104:test/Threads_C_API_test.cpp **** 
 105:test/Threads_C_API_test.cpp ****     thread_create(&threads[3], workerBodyD, nullptr);
 785              		.loc 1 105 5 is_stmt 1
 786              		.loc 1 105 18 is_stmt 0
 787 0568 13060000 		li	a2,0
 788 056c 97050000 		lla	a1,_Z11workerBodyDPv
 788      93850500 
 789 0574 130584FD 		addi	a0,s0,-40
 790 0578 97000000 		call	thread_create@plt
 790      E7800000 
 791              	.LVL98:
 106:test/Threads_C_API_test.cpp ****     printString("ThreadD created\n");
 792              		.loc 1 106 5 is_stmt 1
 793              		.loc 1 106 16 is_stmt 0
 794 0580 17050000 		lla	a0,.LC17
 794      13050500 
 795 0588 97000000 		call	_Z11printStringPKc@plt
 795      E7800000 
 796              	.LVL99:
GAS LISTING /tmp/cc3VF1s7.s 			page 20


 797 0590 6F00C000 		j	.L42
 798              	.L40:
 107:test/Threads_C_API_test.cpp **** 
 108:test/Threads_C_API_test.cpp ****     while (!(finishedA && finishedB && finishedC && finishedD)) {
 109:test/Threads_C_API_test.cpp ****         thread_dispatch();
 799              		.loc 1 109 9 is_stmt 1
 800              		.loc 1 109 24 is_stmt 0
 801 0594 97000000 		call	thread_dispatch@plt
 801      E7800000 
 802              	.LVL100:
 803              	.L42:
 108:test/Threads_C_API_test.cpp ****         thread_dispatch();
 804              		.loc 1 108 5 is_stmt 1
 108:test/Threads_C_API_test.cpp ****         thread_dispatch();
 805              		.loc 1 108 12
 806 059c 97070000 		lbu	a5,.LANCHOR0
 806      83C70700 
 807 05a4 E38807FE 		beqz	a5,.L40
 108:test/Threads_C_API_test.cpp ****         thread_dispatch();
 808              		.loc 1 108 24 is_stmt 0 discriminator 1
 809 05a8 97070000 		lbu	a5,.LANCHOR0+1
 809      83C70700 
 810 05b0 E38207FE 		beqz	a5,.L40
 108:test/Threads_C_API_test.cpp ****         thread_dispatch();
 811              		.loc 1 108 37 discriminator 2
 812 05b4 97070000 		lbu	a5,.LANCHOR0+2
 812      83C70700 
 813 05bc E38C07FC 		beqz	a5,.L40
 108:test/Threads_C_API_test.cpp ****         thread_dispatch();
 814              		.loc 1 108 12 discriminator 3
 815 05c0 97070000 		lbu	a5,.LANCHOR0+3
 815      83C70700 
 816 05c8 E38607FC 		beqz	a5,.L40
 817              	.LBB18:
 110:test/Threads_C_API_test.cpp ****     }
 111:test/Threads_C_API_test.cpp **** 
 112:test/Threads_C_API_test.cpp ****     for (auto &thread: threads) { delete (uint64*)thread; }
 818              		.loc 1 112 24
 819 05cc 930404FC 		addi	s1,s0,-64
 820 05d0 6F008000 		j	.L41
 821              	.LVL101:
 822              	.L44:
 823              		.loc 1 112 5 is_stmt 1 discriminator 5
 824 05d4 93848400 		addi	s1,s1,8
 825              	.LVL102:
 826              	.L41:
 827              		.loc 1 112 24 discriminator 6
 828 05d8 930704FE 		addi	a5,s0,-32
 829 05dc 638CF400 		beq	s1,a5,.L39
 830              	.LVL103:
 831              		.loc 1 112 35 discriminator 2
 832              		.loc 1 112 42 is_stmt 0 discriminator 2
 833 05e0 03B50400 		ld	a0,0(s1)
 834              		.loc 1 112 57 discriminator 2
 835 05e4 E30805FE 		beqz	a0,.L44
 836              		.loc 1 112 51 discriminator 3
 837 05e8 97000000 		call	_ZdlPv@plt
GAS LISTING /tmp/cc3VF1s7.s 			page 21


 837      E7800000 
 838              	.LVL104:
 839 05f0 6FF05FFE 		j	.L44
 840              	.LVL105:
 841              	.L39:
 842              	.LBE18:
 113:test/Threads_C_API_test.cpp **** }
 843              		.loc 1 113 1
 844 05f4 83308103 		ld	ra,56(sp)
 845              		.cfi_restore 1
 846 05f8 03340103 		ld	s0,48(sp)
 847              		.cfi_restore 8
 848              		.cfi_def_cfa 2, 64
 849 05fc 83348102 		ld	s1,40(sp)
 850              		.cfi_restore 9
 851              	.LVL106:
 852 0600 13010104 		addi	sp,sp,64
 853              		.cfi_def_cfa_offset 0
 854 0604 67800000 		jr	ra
 855              		.cfi_endproc
 856              	.LFE5:
 858              		.bss
 859              		.set	.LANCHOR0,. + 0
 862              	_ZL9finishedA:
 863 0000 00       		.zero	1
 866              	_ZL9finishedB:
 867 0001 00       		.zero	1
 870              	_ZL9finishedC:
 871 0002 00       		.zero	1
 874              	_ZL9finishedD:
 875 0003 00       		.zero	1
 876              		.text
 877              	.Letext0:
 878              		.file 2 "test/../h/../lib/hw.h"
 879              		.file 3 "test/../h/syscall_c.h"
 880              		.file 4 "test/printing.hpp"
GAS LISTING /tmp/cc3VF1s7.s 			page 22


DEFINED SYMBOLS
                            *ABS*:0000000000000000 Threads_C_API_test.cpp
     /tmp/cc3VF1s7.s:20     .text:0000000000000000 _Z11workerBodyAPv
     /tmp/cc3VF1s7.s:24     .text:0000000000000000 .L0 
     /tmp/cc3VF1s7.s:26     .text:0000000000000000 .L0 
     /tmp/cc3VF1s7.s:27     .text:0000000000000004 .L0 
     /tmp/cc3VF1s7.s:32     .text:0000000000000014 .L0 
     /tmp/cc3VF1s7.s:33     .text:0000000000000014 .L0 
     /tmp/cc3VF1s7.s:34     .text:0000000000000014 .L0 
     /tmp/cc3VF1s7.s:35     .text:0000000000000014 .L0 
     /tmp/cc3VF1s7.s:37     .text:0000000000000018 .L0 
     /tmp/cc3VF1s7.s:41     .text:0000000000000018 .L0 
     /tmp/cc3VF1s7.s:42     .text:0000000000000018 .L0 
     /tmp/cc3VF1s7.s:50     .text:0000000000000020 .L0 
     /tmp/cc3VF1s7.s:51     .text:0000000000000020 .L0 
     /tmp/cc3VF1s7.s:55     .text:0000000000000028 .L0 
     /tmp/cc3VF1s7.s:59     .text:000000000000002c .L0 
     /tmp/cc3VF1s7.s:65     .text:0000000000000038 .L0 
     /tmp/cc3VF1s7.s:69     .text:000000000000003c .L0 
     /tmp/cc3VF1s7.s:73     .text:0000000000000048 .L0 
     /tmp/cc3VF1s7.s:83     .text:0000000000000050 .L0 
     /tmp/cc3VF1s7.s:87     .text:0000000000000054 .L0 
     /tmp/cc3VF1s7.s:91     .text:000000000000005c .L0 
     /tmp/cc3VF1s7.s:92     .text:000000000000005c .L0 
     /tmp/cc3VF1s7.s:96     .text:000000000000006c .L0 
     /tmp/cc3VF1s7.s:97     .text:000000000000006c .L0 
     /tmp/cc3VF1s7.s:103    .text:0000000000000080 .L0 
     /tmp/cc3VF1s7.s:104    .text:0000000000000080 .L0 
     /tmp/cc3VF1s7.s:109    .text:0000000000000090 .L0 
     /tmp/cc3VF1s7.s:110    .text:0000000000000090 .L0 
     /tmp/cc3VF1s7.s:118    .text:0000000000000098 .L0 
     /tmp/cc3VF1s7.s:119    .text:0000000000000098 .L0 
     /tmp/cc3VF1s7.s:123    .text:00000000000000a8 .L0 
     /tmp/cc3VF1s7.s:124    .text:00000000000000a8 .L0 
     /tmp/cc3VF1s7.s:127    .text:00000000000000b4 .L0 
     /tmp/cc3VF1s7.s:128    .text:00000000000000b8 .L0 
     /tmp/cc3VF1s7.s:130    .text:00000000000000bc .L0 
     /tmp/cc3VF1s7.s:131    .text:00000000000000bc .L0 
     /tmp/cc3VF1s7.s:133    .text:00000000000000c0 .L0 
     /tmp/cc3VF1s7.s:135    .text:00000000000000c4 .L0 
     /tmp/cc3VF1s7.s:138    .text:00000000000000c8 .L0 
     /tmp/cc3VF1s7.s:140    .text:00000000000000cc .L0 
     /tmp/cc3VF1s7.s:154    .text:00000000000000cc _Z11workerBodyBPv
     /tmp/cc3VF1s7.s:157    .text:00000000000000cc .L0 
     /tmp/cc3VF1s7.s:159    .text:00000000000000cc .L0 
     /tmp/cc3VF1s7.s:160    .text:00000000000000d0 .L0 
     /tmp/cc3VF1s7.s:165    .text:00000000000000e0 .L0 
     /tmp/cc3VF1s7.s:166    .text:00000000000000e0 .L0 
     /tmp/cc3VF1s7.s:167    .text:00000000000000e0 .L0 
     /tmp/cc3VF1s7.s:168    .text:00000000000000e0 .L0 
     /tmp/cc3VF1s7.s:170    .text:00000000000000e4 .L0 
     /tmp/cc3VF1s7.s:174    .text:00000000000000e4 .L0 
     /tmp/cc3VF1s7.s:175    .text:00000000000000e4 .L0 
     /tmp/cc3VF1s7.s:183    .text:00000000000000ec .L0 
     /tmp/cc3VF1s7.s:184    .text:00000000000000ec .L0 
     /tmp/cc3VF1s7.s:188    .text:00000000000000f4 .L0 
     /tmp/cc3VF1s7.s:192    .text:00000000000000f8 .L0 
GAS LISTING /tmp/cc3VF1s7.s 			page 23


     /tmp/cc3VF1s7.s:198    .text:0000000000000104 .L0 
     /tmp/cc3VF1s7.s:202    .text:0000000000000108 .L0 
     /tmp/cc3VF1s7.s:206    .text:0000000000000114 .L0 
     /tmp/cc3VF1s7.s:216    .text:000000000000011c .L0 
     /tmp/cc3VF1s7.s:220    .text:0000000000000120 .L0 
     /tmp/cc3VF1s7.s:224    .text:0000000000000128 .L0 
     /tmp/cc3VF1s7.s:225    .text:0000000000000128 .L0 
     /tmp/cc3VF1s7.s:229    .text:0000000000000138 .L0 
     /tmp/cc3VF1s7.s:230    .text:0000000000000138 .L0 
     /tmp/cc3VF1s7.s:236    .text:000000000000014c .L0 
     /tmp/cc3VF1s7.s:237    .text:000000000000014c .L0 
     /tmp/cc3VF1s7.s:242    .text:000000000000015c .L0 
     /tmp/cc3VF1s7.s:243    .text:000000000000015c .L0 
     /tmp/cc3VF1s7.s:251    .text:0000000000000164 .L0 
     /tmp/cc3VF1s7.s:252    .text:0000000000000164 .L0 
     /tmp/cc3VF1s7.s:255    .text:000000000000016c .L0 
     /tmp/cc3VF1s7.s:256    .text:000000000000016c .L0 
     /tmp/cc3VF1s7.s:260    .text:000000000000017c .L0 
     /tmp/cc3VF1s7.s:261    .text:000000000000017c .L0 
     /tmp/cc3VF1s7.s:264    .text:0000000000000188 .L0 
     /tmp/cc3VF1s7.s:265    .text:000000000000018c .L0 
     /tmp/cc3VF1s7.s:267    .text:0000000000000190 .L0 
     /tmp/cc3VF1s7.s:268    .text:0000000000000190 .L0 
     /tmp/cc3VF1s7.s:270    .text:0000000000000194 .L0 
     /tmp/cc3VF1s7.s:272    .text:0000000000000198 .L0 
     /tmp/cc3VF1s7.s:275    .text:000000000000019c .L0 
     /tmp/cc3VF1s7.s:277    .text:00000000000001a0 .L0 
     /tmp/cc3VF1s7.s:282    .text:00000000000001a0 _ZL9fibonaccim
     /tmp/cc3VF1s7.s:285    .text:00000000000001a0 .L0 
     /tmp/cc3VF1s7.s:287    .text:00000000000001a0 .L0 
     /tmp/cc3VF1s7.s:288    .text:00000000000001a4 .L0 
     /tmp/cc3VF1s7.s:293    .text:00000000000001b4 .L0 
     /tmp/cc3VF1s7.s:294    .text:00000000000001b4 .L0 
     /tmp/cc3VF1s7.s:295    .text:00000000000001b4 .L0 
     /tmp/cc3VF1s7.s:296    .text:00000000000001b4 .L0 
     /tmp/cc3VF1s7.s:298    .text:00000000000001b8 .L0 
     /tmp/cc3VF1s7.s:301    .text:00000000000001bc .L0 
     /tmp/cc3VF1s7.s:304    .text:00000000000001c4 .L0 
     /tmp/cc3VF1s7.s:305    .text:00000000000001c4 .L0 
     /tmp/cc3VF1s7.s:308    .text:00000000000001cc .L0 
     /tmp/cc3VF1s7.s:312    .text:00000000000001d0 .L0 
     /tmp/cc3VF1s7.s:313    .text:00000000000001d0 .L0 
     /tmp/cc3VF1s7.s:318    .text:00000000000001e0 .L0 
     /tmp/cc3VF1s7.s:322    .text:00000000000001ec .L0 
     /tmp/cc3VF1s7.s:325    .text:00000000000001f0 .L0 
     /tmp/cc3VF1s7.s:326    .text:00000000000001f4 .L0 
     /tmp/cc3VF1s7.s:327    .text:00000000000001f4 .L0 
     /tmp/cc3VF1s7.s:329    .text:00000000000001f8 .L0 
     /tmp/cc3VF1s7.s:330    .text:00000000000001f8 .L0 
     /tmp/cc3VF1s7.s:332    .text:00000000000001fc .L0 
     /tmp/cc3VF1s7.s:335    .text:0000000000000200 .L0 
     /tmp/cc3VF1s7.s:337    .text:0000000000000204 .L0 
     /tmp/cc3VF1s7.s:341    .text:0000000000000208 .L0 
     /tmp/cc3VF1s7.s:343    .text:0000000000000208 .L0 
     /tmp/cc3VF1s7.s:344    .text:0000000000000208 .L0 
     /tmp/cc3VF1s7.s:347    .text:0000000000000214 .L0 
     /tmp/cc3VF1s7.s:370    .text:0000000000000214 _Z11workerBodyCPv
GAS LISTING /tmp/cc3VF1s7.s 			page 24


     /tmp/cc3VF1s7.s:373    .text:0000000000000214 .L0 
     /tmp/cc3VF1s7.s:375    .text:0000000000000214 .L0 
     /tmp/cc3VF1s7.s:376    .text:0000000000000218 .L0 
     /tmp/cc3VF1s7.s:381    .text:0000000000000228 .L0 
     /tmp/cc3VF1s7.s:382    .text:0000000000000228 .L0 
     /tmp/cc3VF1s7.s:383    .text:0000000000000228 .L0 
     /tmp/cc3VF1s7.s:384    .text:0000000000000228 .L0 
     /tmp/cc3VF1s7.s:386    .text:000000000000022c .L0 
     /tmp/cc3VF1s7.s:389    .text:000000000000022c .L0 
     /tmp/cc3VF1s7.s:390    .text:000000000000022c .L0 
     /tmp/cc3VF1s7.s:395    .text:0000000000000234 .L0 
     /tmp/cc3VF1s7.s:396    .text:0000000000000234 .L0 
     /tmp/cc3VF1s7.s:400    .text:0000000000000244 .L0 
     /tmp/cc3VF1s7.s:401    .text:0000000000000244 .L0 
     /tmp/cc3VF1s7.s:407    .text:0000000000000258 .L0 
     /tmp/cc3VF1s7.s:408    .text:0000000000000258 .L0 
     /tmp/cc3VF1s7.s:412    .text:0000000000000268 .L0 
     /tmp/cc3VF1s7.s:418    .text:0000000000000270 .L0 
     /tmp/cc3VF1s7.s:419    .text:0000000000000270 .L0 
     /tmp/cc3VF1s7.s:422    .text:0000000000000278 .L0 
     /tmp/cc3VF1s7.s:423    .text:0000000000000278 .L0 
     /tmp/cc3VF1s7.s:427    .text:0000000000000288 .L0 
test/Threads_C_API_test.cpp:51     .text:0000000000000288 .L0 
     /tmp/cc3VF1s7.s:433    .text:000000000000028c .L0 
     /tmp/cc3VF1s7.s:435    .text:000000000000028c .L0 
     /tmp/cc3VF1s7.s:438    .text:0000000000000294 .L0 
     /tmp/cc3VF1s7.s:439    .text:0000000000000294 .L0 
test/Threads_C_API_test.cpp:55     .text:0000000000000294 .L0 
     /tmp/cc3VF1s7.s:446    .text:0000000000000298 .L0 
     /tmp/cc3VF1s7.s:448    .text:0000000000000298 .L0 
     /tmp/cc3VF1s7.s:452    .text:00000000000002a8 .L0 
     /tmp/cc3VF1s7.s:453    .text:00000000000002a8 .L0 
     /tmp/cc3VF1s7.s:459    .text:00000000000002bc .L0 
     /tmp/cc3VF1s7.s:460    .text:00000000000002bc .L0 
     /tmp/cc3VF1s7.s:464    .text:00000000000002cc .L0 
     /tmp/cc3VF1s7.s:465    .text:00000000000002cc .L0 
     /tmp/cc3VF1s7.s:471    .text:00000000000002dc .L0 
     /tmp/cc3VF1s7.s:472    .text:00000000000002dc .L0 
     /tmp/cc3VF1s7.s:477    .text:00000000000002ec .L0 
     /tmp/cc3VF1s7.s:478    .text:00000000000002ec .L0 
     /tmp/cc3VF1s7.s:484    .text:0000000000000300 .L0 
     /tmp/cc3VF1s7.s:485    .text:0000000000000300 .L0 
     /tmp/cc3VF1s7.s:491    .text:0000000000000314 .L0 
     /tmp/cc3VF1s7.s:492    .text:0000000000000314 .L0 
     /tmp/cc3VF1s7.s:496    .text:0000000000000324 .L0 
     /tmp/cc3VF1s7.s:497    .text:0000000000000324 .L0 
     /tmp/cc3VF1s7.s:503    .text:0000000000000338 .L0 
     /tmp/cc3VF1s7.s:504    .text:0000000000000338 .L0 
     /tmp/cc3VF1s7.s:508    .text:0000000000000348 .L0 
     /tmp/cc3VF1s7.s:514    .text:0000000000000350 .L0 
     /tmp/cc3VF1s7.s:515    .text:0000000000000350 .L0 
     /tmp/cc3VF1s7.s:518    .text:0000000000000358 .L0 
     /tmp/cc3VF1s7.s:519    .text:0000000000000358 .L0 
     /tmp/cc3VF1s7.s:522    .text:0000000000000360 .L0 
     /tmp/cc3VF1s7.s:523    .text:0000000000000360 .L0 
     /tmp/cc3VF1s7.s:527    .text:0000000000000370 .L0 
     /tmp/cc3VF1s7.s:528    .text:0000000000000370 .L0 
GAS LISTING /tmp/cc3VF1s7.s 			page 25


     /tmp/cc3VF1s7.s:531    .text:000000000000037c .L0 
     /tmp/cc3VF1s7.s:532    .text:0000000000000380 .L0 
     /tmp/cc3VF1s7.s:534    .text:0000000000000384 .L0 
     /tmp/cc3VF1s7.s:535    .text:0000000000000384 .L0 
     /tmp/cc3VF1s7.s:537    .text:0000000000000388 .L0 
     /tmp/cc3VF1s7.s:540    .text:000000000000038c .L0 
     /tmp/cc3VF1s7.s:543    .text:0000000000000390 .L0 
     /tmp/cc3VF1s7.s:545    .text:0000000000000394 .L0 
     /tmp/cc3VF1s7.s:565    .text:0000000000000394 _Z11workerBodyDPv
     /tmp/cc3VF1s7.s:568    .text:0000000000000394 .L0 
     /tmp/cc3VF1s7.s:570    .text:0000000000000394 .L0 
     /tmp/cc3VF1s7.s:571    .text:0000000000000398 .L0 
     /tmp/cc3VF1s7.s:576    .text:00000000000003a8 .L0 
     /tmp/cc3VF1s7.s:577    .text:00000000000003a8 .L0 
     /tmp/cc3VF1s7.s:578    .text:00000000000003a8 .L0 
     /tmp/cc3VF1s7.s:579    .text:00000000000003a8 .L0 
     /tmp/cc3VF1s7.s:581    .text:00000000000003ac .L0 
     /tmp/cc3VF1s7.s:584    .text:00000000000003ac .L0 
     /tmp/cc3VF1s7.s:585    .text:00000000000003ac .L0 
     /tmp/cc3VF1s7.s:590    .text:00000000000003b4 .L0 
     /tmp/cc3VF1s7.s:591    .text:00000000000003b4 .L0 
     /tmp/cc3VF1s7.s:595    .text:00000000000003c4 .L0 
     /tmp/cc3VF1s7.s:596    .text:00000000000003c4 .L0 
     /tmp/cc3VF1s7.s:602    .text:00000000000003d8 .L0 
     /tmp/cc3VF1s7.s:603    .text:00000000000003d8 .L0 
     /tmp/cc3VF1s7.s:607    .text:00000000000003e8 .L0 
     /tmp/cc3VF1s7.s:613    .text:00000000000003f0 .L0 
     /tmp/cc3VF1s7.s:614    .text:00000000000003f0 .L0 
     /tmp/cc3VF1s7.s:617    .text:00000000000003f8 .L0 
     /tmp/cc3VF1s7.s:618    .text:00000000000003f8 .L0 
     /tmp/cc3VF1s7.s:622    .text:0000000000000408 .L0 
test/Threads_C_API_test.cpp:78     .text:0000000000000408 .L0 
     /tmp/cc3VF1s7.s:628    .text:000000000000040c .L0 
     /tmp/cc3VF1s7.s:630    .text:000000000000040c .L0 
     /tmp/cc3VF1s7.s:633    .text:0000000000000414 .L0 
     /tmp/cc3VF1s7.s:634    .text:0000000000000414 .L0 
     /tmp/cc3VF1s7.s:640    .text:0000000000000424 .L0 
     /tmp/cc3VF1s7.s:641    .text:0000000000000424 .L0 
     /tmp/cc3VF1s7.s:646    .text:0000000000000434 .L0 
     /tmp/cc3VF1s7.s:647    .text:0000000000000434 .L0 
     /tmp/cc3VF1s7.s:653    .text:0000000000000448 .L0 
     /tmp/cc3VF1s7.s:654    .text:0000000000000448 .L0 
     /tmp/cc3VF1s7.s:660    .text:000000000000045c .L0 
     /tmp/cc3VF1s7.s:661    .text:000000000000045c .L0 
     /tmp/cc3VF1s7.s:665    .text:000000000000046c .L0 
     /tmp/cc3VF1s7.s:666    .text:000000000000046c .L0 
     /tmp/cc3VF1s7.s:672    .text:0000000000000480 .L0 
     /tmp/cc3VF1s7.s:673    .text:0000000000000480 .L0 
     /tmp/cc3VF1s7.s:677    .text:0000000000000490 .L0 
     /tmp/cc3VF1s7.s:683    .text:0000000000000498 .L0 
     /tmp/cc3VF1s7.s:684    .text:0000000000000498 .L0 
     /tmp/cc3VF1s7.s:687    .text:00000000000004a0 .L0 
     /tmp/cc3VF1s7.s:688    .text:00000000000004a0 .L0 
     /tmp/cc3VF1s7.s:691    .text:00000000000004a8 .L0 
     /tmp/cc3VF1s7.s:692    .text:00000000000004a8 .L0 
     /tmp/cc3VF1s7.s:696    .text:00000000000004b8 .L0 
     /tmp/cc3VF1s7.s:697    .text:00000000000004b8 .L0 
GAS LISTING /tmp/cc3VF1s7.s 			page 26


     /tmp/cc3VF1s7.s:700    .text:00000000000004c4 .L0 
     /tmp/cc3VF1s7.s:701    .text:00000000000004c8 .L0 
     /tmp/cc3VF1s7.s:703    .text:00000000000004cc .L0 
     /tmp/cc3VF1s7.s:704    .text:00000000000004cc .L0 
     /tmp/cc3VF1s7.s:706    .text:00000000000004d0 .L0 
     /tmp/cc3VF1s7.s:709    .text:00000000000004d4 .L0 
     /tmp/cc3VF1s7.s:712    .text:00000000000004d8 .L0 
     /tmp/cc3VF1s7.s:714    .text:00000000000004dc .L0 
     /tmp/cc3VF1s7.s:734    .text:00000000000004dc _Z18Threads_C_API_testv
     /tmp/cc3VF1s7.s:737    .text:00000000000004dc .L0 
     /tmp/cc3VF1s7.s:738    .text:00000000000004dc .L0 
     /tmp/cc3VF1s7.s:739    .text:00000000000004e0 .L0 
     /tmp/cc3VF1s7.s:743    .text:00000000000004ec .L0 
     /tmp/cc3VF1s7.s:744    .text:00000000000004ec .L0 
     /tmp/cc3VF1s7.s:745    .text:00000000000004ec .L0 
     /tmp/cc3VF1s7.s:747    .text:00000000000004f0 .L0 
     /tmp/cc3VF1s7.s:749    .text:00000000000004f0 .L0 
     /tmp/cc3VF1s7.s:750    .text:00000000000004f0 .L0 
     /tmp/cc3VF1s7.s:751    .text:00000000000004f0 .L0 
     /tmp/cc3VF1s7.s:757    .text:0000000000000508 .L0 
     /tmp/cc3VF1s7.s:758    .text:0000000000000508 .L0 
     /tmp/cc3VF1s7.s:762    .text:0000000000000518 .L0 
     /tmp/cc3VF1s7.s:763    .text:0000000000000518 .L0 
     /tmp/cc3VF1s7.s:769    .text:0000000000000530 .L0 
     /tmp/cc3VF1s7.s:770    .text:0000000000000530 .L0 
     /tmp/cc3VF1s7.s:774    .text:0000000000000540 .L0 
     /tmp/cc3VF1s7.s:775    .text:0000000000000540 .L0 
     /tmp/cc3VF1s7.s:781    .text:0000000000000558 .L0 
     /tmp/cc3VF1s7.s:782    .text:0000000000000558 .L0 
     /tmp/cc3VF1s7.s:786    .text:0000000000000568 .L0 
     /tmp/cc3VF1s7.s:787    .text:0000000000000568 .L0 
     /tmp/cc3VF1s7.s:793    .text:0000000000000580 .L0 
     /tmp/cc3VF1s7.s:794    .text:0000000000000580 .L0 
     /tmp/cc3VF1s7.s:800    .text:0000000000000594 .L0 
     /tmp/cc3VF1s7.s:801    .text:0000000000000594 .L0 
     /tmp/cc3VF1s7.s:805    .text:000000000000059c .L0 
     /tmp/cc3VF1s7.s:806    .text:000000000000059c .L0 
     /tmp/cc3VF1s7.s:809    .text:00000000000005a8 .L0 
     /tmp/cc3VF1s7.s:812    .text:00000000000005b4 .L0 
     /tmp/cc3VF1s7.s:815    .text:00000000000005c0 .L0 
     /tmp/cc3VF1s7.s:819    .text:00000000000005cc .L0 
     /tmp/cc3VF1s7.s:824    .text:00000000000005d4 .L0 
     /tmp/cc3VF1s7.s:828    .text:00000000000005d8 .L0 
     /tmp/cc3VF1s7.s:832    .text:00000000000005e0 .L0 
     /tmp/cc3VF1s7.s:833    .text:00000000000005e0 .L0 
     /tmp/cc3VF1s7.s:835    .text:00000000000005e4 .L0 
     /tmp/cc3VF1s7.s:837    .text:00000000000005e8 .L0 
     /tmp/cc3VF1s7.s:844    .text:00000000000005f4 .L0 
     /tmp/cc3VF1s7.s:845    .text:00000000000005f8 .L0 
     /tmp/cc3VF1s7.s:847    .text:00000000000005fc .L0 
     /tmp/cc3VF1s7.s:848    .text:00000000000005fc .L0 
     /tmp/cc3VF1s7.s:850    .text:0000000000000600 .L0 
     /tmp/cc3VF1s7.s:853    .text:0000000000000604 .L0 
     /tmp/cc3VF1s7.s:855    .text:0000000000000608 .L0 
     /tmp/cc3VF1s7.s:859    .bss:0000000000000000 .LANCHOR0
     /tmp/cc3VF1s7.s:862    .bss:0000000000000000 _ZL9finishedA
     /tmp/cc3VF1s7.s:866    .bss:0000000000000001 _ZL9finishedB
GAS LISTING /tmp/cc3VF1s7.s 			page 27


     /tmp/cc3VF1s7.s:870    .bss:0000000000000002 _ZL9finishedC
     /tmp/cc3VF1s7.s:874    .bss:0000000000000003 _ZL9finishedD
     /tmp/cc3VF1s7.s:881    .text:0000000000000608 .L0 
     /tmp/cc3VF1s7.s:8      .rodata.str1.8:0000000000000000 .LC0
     /tmp/cc3VF1s7.s:92     .text:000000000000005c .L0 
     /tmp/cc3VF1s7.s:11     .rodata.str1.8:0000000000000008 .LC1
     /tmp/cc3VF1s7.s:104    .text:0000000000000080 .L0 
     /tmp/cc3VF1s7.s:14     .rodata.str1.8:0000000000000010 .LC2
     /tmp/cc3VF1s7.s:119    .text:0000000000000098 .L0 
     /tmp/cc3VF1s7.s:125    .text:00000000000000ac .L0 
     /tmp/cc3VF1s7.s:145    .rodata.str1.8:0000000000000020 .LC3
     /tmp/cc3VF1s7.s:225    .text:0000000000000128 .L0 
     /tmp/cc3VF1s7.s:237    .text:000000000000014c .L0 
     /tmp/cc3VF1s7.s:148    .rodata.str1.8:0000000000000028 .LC4
     /tmp/cc3VF1s7.s:256    .text:000000000000016c .L0 
     /tmp/cc3VF1s7.s:262    .text:0000000000000180 .L0 
     /tmp/cc3VF1s7.s:352    .rodata.str1.8:0000000000000038 .LC5
     /tmp/cc3VF1s7.s:396    .text:0000000000000234 .L0 
     /tmp/cc3VF1s7.s:408    .text:0000000000000258 .L0 
     /tmp/cc3VF1s7.s:355    .rodata.str1.8:0000000000000040 .LC6
     /tmp/cc3VF1s7.s:423    .text:0000000000000278 .L0 
     /tmp/cc3VF1s7.s:358    .rodata.str1.8:0000000000000050 .LC7
     /tmp/cc3VF1s7.s:448    .text:0000000000000298 .L0 
     /tmp/cc3VF1s7.s:460    .text:00000000000002bc .L0 
     /tmp/cc3VF1s7.s:361    .rodata.str1.8:0000000000000058 .LC8
     /tmp/cc3VF1s7.s:472    .text:00000000000002dc .L0 
     /tmp/cc3VF1s7.s:485    .text:0000000000000300 .L0 
     /tmp/cc3VF1s7.s:492    .text:0000000000000314 .L0 
     /tmp/cc3VF1s7.s:504    .text:0000000000000338 .L0 
     /tmp/cc3VF1s7.s:364    .rodata.str1.8:0000000000000068 .LC9
     /tmp/cc3VF1s7.s:523    .text:0000000000000360 .L0 
     /tmp/cc3VF1s7.s:529    .text:0000000000000374 .L0 
     /tmp/cc3VF1s7.s:550    .rodata.str1.8:0000000000000078 .LC10
     /tmp/cc3VF1s7.s:591    .text:00000000000003b4 .L0 
     /tmp/cc3VF1s7.s:603    .text:00000000000003d8 .L0 
     /tmp/cc3VF1s7.s:553    .rodata.str1.8:0000000000000080 .LC11
     /tmp/cc3VF1s7.s:618    .text:00000000000003f8 .L0 
     /tmp/cc3VF1s7.s:556    .rodata.str1.8:0000000000000090 .LC12
     /tmp/cc3VF1s7.s:641    .text:0000000000000424 .L0 
     /tmp/cc3VF1s7.s:654    .text:0000000000000448 .L0 
     /tmp/cc3VF1s7.s:661    .text:000000000000045c .L0 
     /tmp/cc3VF1s7.s:673    .text:0000000000000480 .L0 
     /tmp/cc3VF1s7.s:559    .rodata.str1.8:00000000000000a0 .LC13
     /tmp/cc3VF1s7.s:692    .text:00000000000004a8 .L0 
     /tmp/cc3VF1s7.s:698    .text:00000000000004bc .L0 
     /tmp/cc3VF1s7.s:752    .text:00000000000004f4 .L0 
     /tmp/cc3VF1s7.s:719    .rodata.str1.8:00000000000000b0 .LC14
     /tmp/cc3VF1s7.s:758    .text:0000000000000508 .L0 
     /tmp/cc3VF1s7.s:764    .text:000000000000051c .L0 
     /tmp/cc3VF1s7.s:722    .rodata.str1.8:00000000000000c8 .LC15
     /tmp/cc3VF1s7.s:770    .text:0000000000000530 .L0 
     /tmp/cc3VF1s7.s:776    .text:0000000000000544 .L0 
     /tmp/cc3VF1s7.s:725    .rodata.str1.8:00000000000000e0 .LC16
     /tmp/cc3VF1s7.s:782    .text:0000000000000558 .L0 
     /tmp/cc3VF1s7.s:788    .text:000000000000056c .L0 
     /tmp/cc3VF1s7.s:728    .rodata.str1.8:00000000000000f8 .LC17
     /tmp/cc3VF1s7.s:794    .text:0000000000000580 .L0 
GAS LISTING /tmp/cc3VF1s7.s 			page 28


     /tmp/cc3VF1s7.s:806    .text:000000000000059c .L0 
     /tmp/cc3VF1s7.s:809    .text:00000000000005a8 .L0 
     /tmp/cc3VF1s7.s:812    .text:00000000000005b4 .L0 
     /tmp/cc3VF1s7.s:815    .text:00000000000005c0 .L0 
     /tmp/cc3VF1s7.s:85     .text:0000000000000054 .L7
     /tmp/cc3VF1s7.s:77     .text:0000000000000050 .L3
     /tmp/cc3VF1s7.s:45     .text:0000000000000020 .L4
     /tmp/cc3VF1s7.s:66     .text:000000000000003c .L5
     /tmp/cc3VF1s7.s:113    .text:0000000000000098 .L2
     /tmp/cc3VF1s7.s:57     .text:000000000000002c .L6
     /tmp/cc3VF1s7.s:218    .text:0000000000000120 .L15
     /tmp/cc3VF1s7.s:210    .text:000000000000011c .L11
     /tmp/cc3VF1s7.s:178    .text:00000000000000ec .L12
     /tmp/cc3VF1s7.s:199    .text:0000000000000108 .L13
     /tmp/cc3VF1s7.s:246    .text:0000000000000164 .L10
     /tmp/cc3VF1s7.s:190    .text:00000000000000f8 .L14
     /tmp/cc3VF1s7.s:323    .text:00000000000001f0 .L17
     /tmp/cc3VF1s7.s:340    .text:0000000000000208 .L22
     /tmp/cc3VF1s7.s:310    .text:00000000000001d0 .L19
     /tmp/cc3VF1s7.s:416    .text:0000000000000270 .L25
     /tmp/cc3VF1s7.s:393    .text:0000000000000234 .L29
     /tmp/cc3VF1s7.s:512    .text:0000000000000350 .L27
     /tmp/cc3VF1s7.s:489    .text:0000000000000314 .L30
     /tmp/cc3VF1s7.s:611    .text:00000000000003f0 .L33
     /tmp/cc3VF1s7.s:588    .text:00000000000003b4 .L37
     /tmp/cc3VF1s7.s:681    .text:0000000000000498 .L35
     /tmp/cc3VF1s7.s:658    .text:000000000000045c .L38
     /tmp/cc3VF1s7.s:803    .text:000000000000059c .L42
     /tmp/cc3VF1s7.s:798    .text:0000000000000594 .L40
     /tmp/cc3VF1s7.s:826    .text:00000000000005d8 .L41
     /tmp/cc3VF1s7.s:841    .text:00000000000005f4 .L39
     /tmp/cc3VF1s7.s:822    .text:00000000000005d4 .L44
     /tmp/cc3VF1s7.s:2003   .debug_abbrev:0000000000000000 .Ldebug_abbrev0
     /tmp/cc3VF1s7.s:2667   .debug_str:0000000000000038 .LASF45
     /tmp/cc3VF1s7.s:2673   .debug_str:000000000000011d .LASF46
     /tmp/cc3VF1s7.s:2731   .debug_str:00000000000002bf .LASF47
     /tmp/cc3VF1s7.s:5      .text:0000000000000000 .Ltext0
     /tmp/cc3VF1s7.s:877    .text:0000000000000608 .Letext0
     /tmp/cc3VF1s7.s:2657   .debug_line:0000000000000000 .Ldebug_line0
     /tmp/cc3VF1s7.s:2711   .debug_str:0000000000000237 .LASF0
     /tmp/cc3VF1s7.s:2701   .debug_str:00000000000001f5 .LASF1
     /tmp/cc3VF1s7.s:2695   .debug_str:00000000000001c7 .LASF2
     /tmp/cc3VF1s7.s:2749   .debug_str:0000000000000344 .LASF3
     /tmp/cc3VF1s7.s:2675   .debug_str:0000000000000139 .LASF4
     /tmp/cc3VF1s7.s:2699   .debug_str:00000000000001e3 .LASF5
     /tmp/cc3VF1s7.s:2663   .debug_str:000000000000001f .LASF6
     /tmp/cc3VF1s7.s:2659   .debug_str:0000000000000000 .LASF7
     /tmp/cc3VF1s7.s:2689   .debug_str:0000000000000192 .LASF8
     /tmp/cc3VF1s7.s:2719   .debug_str:000000000000026a .LASF9
     /tmp/cc3VF1s7.s:2671   .debug_str:000000000000010f .LASF10
     /tmp/cc3VF1s7.s:2761   .debug_str:0000000000000389 .LASF11
     /tmp/cc3VF1s7.s:2691   .debug_str:00000000000001a5 .LASF12
     /tmp/cc3VF1s7.s:2753   .debug_str:000000000000035c .LASF13
     /tmp/cc3VF1s7.s:2727   .debug_str:00000000000002a5 .LASF14
     /tmp/cc3VF1s7.s:2705   .debug_str:000000000000020f .LASF15
     /tmp/cc3VF1s7.s:2685   .debug_str:0000000000000172 .LASF16
     /tmp/cc3VF1s7.s:2721   .debug_str:000000000000027a .LASF17
GAS LISTING /tmp/cc3VF1s7.s 			page 29


     /tmp/cc3VF1s7.s:2723   .debug_str:0000000000000290 .LASF18
     /tmp/cc3VF1s7.s:2729   .debug_str:00000000000002b5 .LASF19
     /tmp/cc3VF1s7.s:2677   .debug_str:0000000000000140 .LASF20
     /tmp/cc3VF1s7.s:2687   .debug_str:0000000000000188 .LASF21
     /tmp/cc3VF1s7.s:2733   .debug_str:00000000000002e2 .LASF22
     /tmp/cc3VF1s7.s:2735   .debug_str:00000000000002ec .LASF23
     /tmp/cc3VF1s7.s:2669   .debug_str:00000000000000fc .LASF28
     /tmp/cc3VF1s7.s:2681   .debug_str:0000000000000151 .LASF30
     /tmp/cc3VF1s7.s:735    .text:00000000000004dc .LFB5
     /tmp/cc3VF1s7.s:856    .text:0000000000000608 .LFE5
     /tmp/cc3VF1s7.s:2739   .debug_str:0000000000000306 .LASF24
     /tmp/cc3VF1s7.s:817    .text:00000000000005cc .LBB18
     /tmp/cc3VF1s7.s:842    .text:00000000000005f4 .LBE18
     /tmp/cc3VF1s7.s:2703   .debug_str:0000000000000208 .LASF25
     /tmp/cc3VF1s7.s:2394   .debug_loc:0000000000000000 .LLST16
     /tmp/cc3VF1s7.s:2661   .debug_str:0000000000000013 .LASF26
     /tmp/cc3VF1s7.s:2679   .debug_str:0000000000000145 .LASF48
     /tmp/cc3VF1s7.s:2405   .debug_loc:0000000000000036 .LLST17
     /tmp/cc3VF1s7.s:2707   .debug_str:000000000000021b .LASF27
     /tmp/cc3VF1s7.s:838    .text:00000000000005f0 .LVL104
     /tmp/cc3VF1s7.s:755    .text:0000000000000508 .LVL92
     /tmp/cc3VF1s7.s:760    .text:0000000000000518 .LVL93
     /tmp/cc3VF1s7.s:767    .text:0000000000000530 .LVL94
     /tmp/cc3VF1s7.s:772    .text:0000000000000540 .LVL95
     /tmp/cc3VF1s7.s:779    .text:0000000000000558 .LVL96
     /tmp/cc3VF1s7.s:784    .text:0000000000000568 .LVL97
     /tmp/cc3VF1s7.s:791    .text:0000000000000580 .LVL98
     /tmp/cc3VF1s7.s:796    .text:0000000000000590 .LVL99
     /tmp/cc3VF1s7.s:802    .text:000000000000059c .LVL100
     /tmp/cc3VF1s7.s:2745   .debug_str:0000000000000326 .LASF29
     /tmp/cc3VF1s7.s:2751   .debug_str:000000000000034a .LASF31
     /tmp/cc3VF1s7.s:566    .text:0000000000000394 .LFB4
     /tmp/cc3VF1s7.s:715    .text:00000000000004dc .LFE4
     /tmp/cc3VF1s7.s:2412   .debug_loc:0000000000000059 .LLST13
     /tmp/cc3VF1s7.s:2426   .debug_loc:0000000000000092 .LLST14
     /tmp/cc3VF1s7.s:2717   .debug_str:0000000000000263 .LASF32
     /tmp/cc3VF1s7.s:2446   .debug_loc:00000000000000ef .LLST15
     /tmp/cc3VF1s7.s:593    .text:00000000000003c4 .LVL70
     /tmp/cc3VF1s7.s:600    .text:00000000000003d8 .LVL71
     /tmp/cc3VF1s7.s:605    .text:00000000000003e8 .LVL72
     /tmp/cc3VF1s7.s:620    .text:0000000000000408 .LVL75
     /tmp/cc3VF1s7.s:631    .text:0000000000000414 .LVL76
     /tmp/cc3VF1s7.s:636    .text:0000000000000420 .LVL77
     /tmp/cc3VF1s7.s:644    .text:0000000000000434 .LVL80
     /tmp/cc3VF1s7.s:651    .text:0000000000000448 .LVL81
     /tmp/cc3VF1s7.s:656    .text:0000000000000458 .LVL82
     /tmp/cc3VF1s7.s:663    .text:000000000000046c .LVL83
     /tmp/cc3VF1s7.s:670    .text:0000000000000480 .LVL84
     /tmp/cc3VF1s7.s:675    .text:0000000000000490 .LVL85
     /tmp/cc3VF1s7.s:689    .text:00000000000004a8 .LVL88
     /tmp/cc3VF1s7.s:694    .text:00000000000004b8 .LVL89
     /tmp/cc3VF1s7.s:2743   .debug_str:000000000000031a .LASF33
     /tmp/cc3VF1s7.s:2709   .debug_str:0000000000000225 .LASF34
     /tmp/cc3VF1s7.s:371    .text:0000000000000214 .LFB3
     /tmp/cc3VF1s7.s:546    .text:0000000000000394 .LFE3
     /tmp/cc3VF1s7.s:2457   .debug_loc:0000000000000125 .LLST9
     /tmp/cc3VF1s7.s:2471   .debug_loc:000000000000015e .LLST10
GAS LISTING /tmp/cc3VF1s7.s 			page 30


     /tmp/cc3VF1s7.s:2491   .debug_loc:00000000000001bb .LLST11
     /tmp/cc3VF1s7.s:2499   .debug_loc:00000000000001df .LLST12
     /tmp/cc3VF1s7.s:398    .text:0000000000000244 .LVL41
     /tmp/cc3VF1s7.s:405    .text:0000000000000258 .LVL42
     /tmp/cc3VF1s7.s:410    .text:0000000000000268 .LVL43
     /tmp/cc3VF1s7.s:425    .text:0000000000000288 .LVL46
     /tmp/cc3VF1s7.s:436    .text:0000000000000294 .LVL47
     /tmp/cc3VF1s7.s:450    .text:00000000000002a8 .LVL49
     /tmp/cc3VF1s7.s:457    .text:00000000000002bc .LVL50
     /tmp/cc3VF1s7.s:462    .text:00000000000002cc .LVL51
     /tmp/cc3VF1s7.s:467    .text:00000000000002d8 .LVL52
     /tmp/cc3VF1s7.s:475    .text:00000000000002ec .LVL55
     /tmp/cc3VF1s7.s:482    .text:0000000000000300 .LVL56
     /tmp/cc3VF1s7.s:487    .text:0000000000000310 .LVL57
     /tmp/cc3VF1s7.s:494    .text:0000000000000324 .LVL58
     /tmp/cc3VF1s7.s:501    .text:0000000000000338 .LVL59
     /tmp/cc3VF1s7.s:506    .text:0000000000000348 .LVL60
     /tmp/cc3VF1s7.s:520    .text:0000000000000360 .LVL63
     /tmp/cc3VF1s7.s:525    .text:0000000000000370 .LVL64
     /tmp/cc3VF1s7.s:2741   .debug_str:000000000000030e .LASF35
     /tmp/cc3VF1s7.s:2665   .debug_str:0000000000000026 .LASF36
     /tmp/cc3VF1s7.s:155    .text:00000000000000cc .LFB2
     /tmp/cc3VF1s7.s:278    .text:00000000000001a0 .LFE2
     /tmp/cc3VF1s7.s:2510   .debug_loc:0000000000000215 .LLST4
     /tmp/cc3VF1s7.s:173    .text:00000000000000e4 .LBB10
     /tmp/cc3VF1s7.s:249    .text:0000000000000164 .LBE10
     /tmp/cc3VF1s7.s:2524   .debug_loc:000000000000024e .LLST5
     /tmp/cc3VF1s7.s:2643   .debug_ranges:0000000000000000 .Ldebug_ranges0
     /tmp/cc3VF1s7.s:2536   .debug_loc:0000000000000285 .LLST6
     /tmp/cc3VF1s7.s:196    .text:0000000000000104 .LBB14
     /tmp/cc3VF1s7.s:211    .text:000000000000011c .LBE14
     /tmp/cc3VF1s7.s:2548   .debug_loc:00000000000002bc .LLST7
     /tmp/cc3VF1s7.s:185    .text:00000000000000f4 .LVL18
     /tmp/cc3VF1s7.s:227    .text:0000000000000138 .LVL24
     /tmp/cc3VF1s7.s:234    .text:000000000000014c .LVL25
     /tmp/cc3VF1s7.s:239    .text:000000000000015c .LVL26
     /tmp/cc3VF1s7.s:253    .text:000000000000016c .LVL28
     /tmp/cc3VF1s7.s:258    .text:000000000000017c .LVL29
     /tmp/cc3VF1s7.s:2725   .debug_str:0000000000000299 .LASF37
     /tmp/cc3VF1s7.s:2747   .debug_str:0000000000000332 .LASF38
     /tmp/cc3VF1s7.s:21     .text:0000000000000000 .LFB1
     /tmp/cc3VF1s7.s:141    .text:00000000000000cc .LFE1
     /tmp/cc3VF1s7.s:2559   .debug_loc:00000000000002f2 .LLST0
     /tmp/cc3VF1s7.s:40     .text:0000000000000018 .LBB2
     /tmp/cc3VF1s7.s:116    .text:0000000000000098 .LBE2
     /tmp/cc3VF1s7.s:2573   .debug_loc:000000000000032b .LLST1
     /tmp/cc3VF1s7.s:2585   .debug_loc:0000000000000362 .LLST2
     /tmp/cc3VF1s7.s:63     .text:0000000000000038 .LBB6
     /tmp/cc3VF1s7.s:78     .text:0000000000000050 .LBE6
     /tmp/cc3VF1s7.s:2597   .debug_loc:0000000000000399 .LLST3
     /tmp/cc3VF1s7.s:52     .text:0000000000000028 .LVL3
     /tmp/cc3VF1s7.s:94     .text:000000000000006c .LVL9
     /tmp/cc3VF1s7.s:101    .text:0000000000000080 .LVL10
     /tmp/cc3VF1s7.s:106    .text:0000000000000090 .LVL11
     /tmp/cc3VF1s7.s:121    .text:00000000000000a8 .LVL13
     /tmp/cc3VF1s7.s:2757   .debug_str:0000000000000373 .LASF49
     /tmp/cc3VF1s7.s:283    .text:00000000000001a0 .LFB0
GAS LISTING /tmp/cc3VF1s7.s 			page 31


     /tmp/cc3VF1s7.s:348    .text:0000000000000214 .LFE0
     /tmp/cc3VF1s7.s:2608   .debug_loc:00000000000003cf .LLST8
     /tmp/cc3VF1s7.s:315    .text:00000000000001dc .LVL33
     /tmp/cc3VF1s7.s:320    .text:00000000000001ec .LVL34
     /tmp/cc3VF1s7.s:345    .text:0000000000000210 .LVL37
     /tmp/cc3VF1s7.s:2755   .debug_str:000000000000036c .LASF50
     /tmp/cc3VF1s7.s:2713   .debug_str:0000000000000244 .LASF51
     /tmp/cc3VF1s7.s:2697   .debug_str:00000000000001d5 .LASF39
     /tmp/cc3VF1s7.s:2693   .debug_str:00000000000001b4 .LASF40
     /tmp/cc3VF1s7.s:2759   .debug_str:000000000000037d .LASF41
     /tmp/cc3VF1s7.s:2737   .debug_str:00000000000002f6 .LASF42
     /tmp/cc3VF1s7.s:2715   .debug_str:0000000000000254 .LASF43
     /tmp/cc3VF1s7.s:2683   .debug_str:0000000000000169 .LASF44
     /tmp/cc3VF1s7.s:821    .text:00000000000005d4 .LVL101
     /tmp/cc3VF1s7.s:825    .text:00000000000005d8 .LVL102
     /tmp/cc3VF1s7.s:830    .text:00000000000005e0 .LVL103
     /tmp/cc3VF1s7.s:840    .text:00000000000005f4 .LVL105
     /tmp/cc3VF1s7.s:851    .text:0000000000000600 .LVL106
     /tmp/cc3VF1s7.s:569    .text:0000000000000394 .LVL67
     /tmp/cc3VF1s7.s:587    .text:00000000000003b4 .LVL69
     /tmp/cc3VF1s7.s:583    .text:00000000000003ac .LVL68
     /tmp/cc3VF1s7.s:608    .text:00000000000003ec .LVL73
     /tmp/cc3VF1s7.s:610    .text:00000000000003f0 .LVL74
     /tmp/cc3VF1s7.s:678    .text:0000000000000494 .LVL86
     /tmp/cc3VF1s7.s:680    .text:0000000000000498 .LVL87
     /tmp/cc3VF1s7.s:707    .text:00000000000004d0 .LVL90
     /tmp/cc3VF1s7.s:638    .text:0000000000000424 .LVL78
     /tmp/cc3VF1s7.s:642    .text:000000000000042c .LVL79
     /tmp/cc3VF1s7.s:710    .text:00000000000004d4 .LVL91
     /tmp/cc3VF1s7.s:374    .text:0000000000000214 .LVL38
     /tmp/cc3VF1s7.s:392    .text:0000000000000234 .LVL40
     /tmp/cc3VF1s7.s:388    .text:000000000000022c .LVL39
     /tmp/cc3VF1s7.s:413    .text:000000000000026c .LVL44
     /tmp/cc3VF1s7.s:415    .text:0000000000000270 .LVL45
     /tmp/cc3VF1s7.s:509    .text:000000000000034c .LVL61
     /tmp/cc3VF1s7.s:511    .text:0000000000000350 .LVL62
     /tmp/cc3VF1s7.s:538    .text:0000000000000388 .LVL65
     /tmp/cc3VF1s7.s:444    .text:0000000000000298 .LVL48
     /tmp/cc3VF1s7.s:469    .text:00000000000002dc .LVL53
     /tmp/cc3VF1s7.s:473    .text:00000000000002e4 .LVL54
     /tmp/cc3VF1s7.s:541    .text:000000000000038c .LVL66
     /tmp/cc3VF1s7.s:158    .text:00000000000000cc .LVL15
     /tmp/cc3VF1s7.s:177    .text:00000000000000ec .LVL17
     /tmp/cc3VF1s7.s:172    .text:00000000000000e4 .LVL16
     /tmp/cc3VF1s7.s:273    .text:0000000000000198 .LVL30
     /tmp/cc3VF1s7.s:217    .text:0000000000000120 .LVL23
     /tmp/cc3VF1s7.s:245    .text:0000000000000164 .LVL27
     /tmp/cc3VF1s7.s:200    .text:0000000000000108 .LVL20
     /tmp/cc3VF1s7.s:209    .text:000000000000011c .LVL22
     /tmp/cc3VF1s7.s:25     .text:0000000000000000 .LVL0
     /tmp/cc3VF1s7.s:44     .text:0000000000000020 .LVL2
     /tmp/cc3VF1s7.s:39     .text:0000000000000018 .LVL1
     /tmp/cc3VF1s7.s:136    .text:00000000000000c4 .LVL14
     /tmp/cc3VF1s7.s:84     .text:0000000000000054 .LVL8
     /tmp/cc3VF1s7.s:112    .text:0000000000000098 .LVL12
     /tmp/cc3VF1s7.s:67     .text:000000000000003c .LVL5
     /tmp/cc3VF1s7.s:76     .text:0000000000000050 .LVL7
GAS LISTING /tmp/cc3VF1s7.s 			page 32


     /tmp/cc3VF1s7.s:286    .text:00000000000001a0 .LVL31
     /tmp/cc3VF1s7.s:309    .text:00000000000001d0 .LVL32
     /tmp/cc3VF1s7.s:333    .text:00000000000001fc .LVL35
     /tmp/cc3VF1s7.s:339    .text:0000000000000208 .LVL36
     /tmp/cc3VF1s7.s:882    .debug_info:0000000000000000 .Ldebug_info0
     /tmp/cc3VF1s7.s:47     .text:0000000000000020 .LBB4
     /tmp/cc3VF1s7.s:80     .text:0000000000000050 .LBE4
     /tmp/cc3VF1s7.s:108    .text:0000000000000090 .LBB8
     /tmp/cc3VF1s7.s:114    .text:0000000000000098 .LBE8
     /tmp/cc3VF1s7.s:180    .text:00000000000000ec .LBB12
     /tmp/cc3VF1s7.s:213    .text:000000000000011c .LBE12
     /tmp/cc3VF1s7.s:241    .text:000000000000015c .LBB16
     /tmp/cc3VF1s7.s:247    .text:0000000000000164 .LBE16

UNDEFINED SYMBOLS
thread_dispatch
_Z11printStringPKc
_Z8printIntiii
thread_create
_ZdlPv
