GAS LISTING /tmp/ccIi9nRm.s 			page 1


   1              		.file	"Threads_C_API_test.cpp"
   2              		.option pic
   3              		.option norelax
   4              		.text
   5              	.Ltext0:
   6              		.section	.rodata.str1.8,"aMS",@progbits,1
   7              		.align	3
   8              	.LC0:
   9 0000 413A2069 		.string	"A: i="
   9      3D00
  10 0006 0000     		.align	3
  11              	.LC1:
  12 0008 0A00     		.string	"\n"
  13 000a 00000000 		.align	3
  13      0000
  14              	.LC2:
  15 0010 41206669 		.string	"A finished!\n"
  15      6E697368 
  15      6564210A 
  15      00
  16              		.text
  17              		.align	2
  18              		.globl	_Z11workerBodyAPv
  20              	_Z11workerBodyAPv:
  21              	.LFB24:
  22              		.file 1 "test/Threads_C_API_test.cpp"
   1:test/Threads_C_API_test.cpp **** //
   2:test/Threads_C_API_test.cpp **** // Created by os on 5/16/22.
   3:test/Threads_C_API_test.cpp **** //
   4:test/Threads_C_API_test.cpp **** 
   5:test/Threads_C_API_test.cpp **** #include "Threads_C_API_test.hpp"
   6:test/Threads_C_API_test.cpp **** 
   7:test/Threads_C_API_test.cpp **** static bool finishedA = false;
   8:test/Threads_C_API_test.cpp **** static bool finishedB = false;
   9:test/Threads_C_API_test.cpp **** static bool finishedC = false;
  10:test/Threads_C_API_test.cpp **** static bool finishedD = false;
  11:test/Threads_C_API_test.cpp **** 
  12:test/Threads_C_API_test.cpp **** static uint64 fibonacci(uint64 n) {
  13:test/Threads_C_API_test.cpp ****     if (n == 0 || n == 1) { return n; }
  14:test/Threads_C_API_test.cpp ****     if (n % 10 == 0) { thread_dispatch(); }
  15:test/Threads_C_API_test.cpp ****     return fibonacci(n - 1) + fibonacci(n - 2);
  16:test/Threads_C_API_test.cpp **** }
  17:test/Threads_C_API_test.cpp **** 
  18:test/Threads_C_API_test.cpp **** void workerBodyA(void* arg) {
  23              		.loc 1 18 29
  24              		.cfi_startproc
  25              	.LVL0:
  26 0000 130101FE 		addi	sp,sp,-32
  27              		.cfi_def_cfa_offset 32
  28 0004 233C1100 		sd	ra,24(sp)
  29 0008 23388100 		sd	s0,16(sp)
  30 000c 23349100 		sd	s1,8(sp)
  31 0010 23302101 		sd	s2,0(sp)
  32              		.cfi_offset 1, -8
  33              		.cfi_offset 8, -16
  34              		.cfi_offset 9, -24
  35              		.cfi_offset 18, -32
GAS LISTING /tmp/ccIi9nRm.s 			page 2


  36 0014 13040102 		addi	s0,sp,32
  37              		.cfi_def_cfa 8, 0
  19:test/Threads_C_API_test.cpp ****     for (uint64 i = 0; i < 10; i++) {
  38              		.loc 1 19 5
  39              	.LVL1:
  40              	.LBB2:
  41              		.loc 1 19 17 is_stmt 0
  42 0018 13090000 		li	s2,0
  43 001c 6F008003 		j	.L7
  44              	.LVL2:
  45              	.L4:
  46              	.LBB3:
  47              	.LBB4:
  48              	.LBB5:
  20:test/Threads_C_API_test.cpp ****         printString("A: i="); printInt(i); printString("\n");
  21:test/Threads_C_API_test.cpp ****         for (uint64 j = 0; j < 10000; j++) {
  22:test/Threads_C_API_test.cpp ****             for (uint64 k = 0; k < 30000; k++) { /* busy wait */ }
  23:test/Threads_C_API_test.cpp ****             thread_dispatch();
  49              		.loc 1 23 13 is_stmt 1 discriminator 2
  50              		.loc 1 23 28 is_stmt 0 discriminator 2
  51 0020 97000000 		call	thread_dispatch@plt
  51      E7800000 
  52              	.LVL3:
  53              	.LBE5:
  21:test/Threads_C_API_test.cpp ****             for (uint64 k = 0; k < 30000; k++) { /* busy wait */ }
  54              		.loc 1 21 9 is_stmt 1 discriminator 2
  55 0028 93841400 		addi	s1,s1,1
  56              	.LVL4:
  57              	.L6:
  21:test/Threads_C_API_test.cpp ****             for (uint64 k = 0; k < 30000; k++) { /* busy wait */ }
  58              		.loc 1 21 30 discriminator 1
  59 002c B7270000 		li	a5,8192
  60 0030 9387F770 		addi	a5,a5,1807
  61 0034 63EE9700 		bgtu	s1,a5,.L3
  62              	.LBB7:
  63              	.LBB6:
  22:test/Threads_C_API_test.cpp ****             thread_dispatch();
  64              		.loc 1 22 25 is_stmt 0
  65 0038 13070000 		li	a4,0
  66              	.L5:
  67              	.LVL5:
  22:test/Threads_C_API_test.cpp ****             thread_dispatch();
  68              		.loc 1 22 34 is_stmt 1 discriminator 3
  69 003c B7770000 		li	a5,28672
  70 0040 9387F752 		addi	a5,a5,1327
  71 0044 E3EEE7FC 		bgtu	a4,a5,.L4
  22:test/Threads_C_API_test.cpp ****             thread_dispatch();
  72              		.loc 1 22 13 discriminator 2
  73 0048 13071700 		addi	a4,a4,1
  74              	.LVL6:
  75 004c 6FF01FFF 		j	.L5
  76              	.LVL7:
  77              	.L3:
  78              	.LBE6:
  79              	.LBE7:
  80              	.LBE4:
  81              	.LBE3:
GAS LISTING /tmp/ccIi9nRm.s 			page 3


  19:test/Threads_C_API_test.cpp ****         printString("A: i="); printInt(i); printString("\n");
  82              		.loc 1 19 5 discriminator 2
  83 0050 13091900 		addi	s2,s2,1
  84              	.LVL8:
  85              	.L7:
  19:test/Threads_C_API_test.cpp ****         printString("A: i="); printInt(i); printString("\n");
  86              		.loc 1 19 26 discriminator 1
  87 0054 93079000 		li	a5,9
  88 0058 63E02705 		bgtu	s2,a5,.L2
  89              	.LBB9:
  20:test/Threads_C_API_test.cpp ****         for (uint64 j = 0; j < 10000; j++) {
  90              		.loc 1 20 9
  20:test/Threads_C_API_test.cpp ****         for (uint64 j = 0; j < 10000; j++) {
  91              		.loc 1 20 20 is_stmt 0
  92 005c 17050000 		lla	a0,.LC0
  92      13050500 
  93 0064 97000000 		call	_Z11printStringPKc@plt
  93      E7800000 
  94              	.LVL9:
  20:test/Threads_C_API_test.cpp ****         for (uint64 j = 0; j < 10000; j++) {
  95              		.loc 1 20 31 is_stmt 1
  20:test/Threads_C_API_test.cpp ****         for (uint64 j = 0; j < 10000; j++) {
  96              		.loc 1 20 39 is_stmt 0
  97 006c 13060000 		li	a2,0
  98 0070 9305A000 		li	a1,10
  99 0074 1B050900 		sext.w	a0,s2
 100 0078 97000000 		call	_Z8printIntiii@plt
 100      E7800000 
 101              	.LVL10:
  20:test/Threads_C_API_test.cpp ****         for (uint64 j = 0; j < 10000; j++) {
 102              		.loc 1 20 44 is_stmt 1
  20:test/Threads_C_API_test.cpp ****         for (uint64 j = 0; j < 10000; j++) {
 103              		.loc 1 20 55 is_stmt 0
 104 0080 17050000 		lla	a0,.LC1
 104      13050500 
 105 0088 97000000 		call	_Z11printStringPKc@plt
 105      E7800000 
 106              	.LVL11:
  21:test/Threads_C_API_test.cpp ****             for (uint64 k = 0; k < 30000; k++) { /* busy wait */ }
 107              		.loc 1 21 9 is_stmt 1
 108              	.LBB8:
  21:test/Threads_C_API_test.cpp ****             for (uint64 k = 0; k < 30000; k++) { /* busy wait */ }
 109              		.loc 1 21 21 is_stmt 0
 110 0090 93040000 		li	s1,0
 111 0094 6FF09FF9 		j	.L6
 112              	.LVL12:
 113              	.L2:
 114              	.LBE8:
 115              	.LBE9:
 116              	.LBE2:
  24:test/Threads_C_API_test.cpp ****         }
  25:test/Threads_C_API_test.cpp ****     }
  26:test/Threads_C_API_test.cpp ****     printString("A finished!\n");
 117              		.loc 1 26 5 is_stmt 1
 118              		.loc 1 26 16 is_stmt 0
 119 0098 17050000 		lla	a0,.LC2
 119      13050500 
GAS LISTING /tmp/ccIi9nRm.s 			page 4


 120 00a0 97000000 		call	_Z11printStringPKc@plt
 120      E7800000 
 121              	.LVL13:
  27:test/Threads_C_API_test.cpp ****     finishedA = true;
 122              		.loc 1 27 5 is_stmt 1
 123              		.loc 1 27 15 is_stmt 0
 124 00a8 93071000 		li	a5,1
 125 00ac 17070000 		sb	a5,.LANCHOR0,a4
 125      2300F700 
  28:test/Threads_C_API_test.cpp **** }
 126              		.loc 1 28 1
 127 00b4 83308101 		ld	ra,24(sp)
 128              		.cfi_restore 1
 129 00b8 03340101 		ld	s0,16(sp)
 130              		.cfi_restore 8
 131              		.cfi_def_cfa 2, 32
 132 00bc 83348100 		ld	s1,8(sp)
 133              		.cfi_restore 9
 134 00c0 03390100 		ld	s2,0(sp)
 135              		.cfi_restore 18
 136              	.LVL14:
 137 00c4 13010102 		addi	sp,sp,32
 138              		.cfi_def_cfa_offset 0
 139 00c8 67800000 		jr	ra
 140              		.cfi_endproc
 141              	.LFE24:
 143              		.section	.rodata.str1.8
 144 001d 000000   		.align	3
 145              	.LC3:
 146 0020 423A2069 		.string	"B: i="
 146      3D00
 147 0026 0000     		.align	3
 148              	.LC4:
 149 0028 42206669 		.string	"B finished!\n"
 149      6E697368 
 149      6564210A 
 149      00
 150              		.text
 151              		.align	2
 152              		.globl	_Z11workerBodyBPv
 154              	_Z11workerBodyBPv:
 155              	.LFB25:
  29:test/Threads_C_API_test.cpp **** 
  30:test/Threads_C_API_test.cpp **** void workerBodyB(void* arg) {
 156              		.loc 1 30 29 is_stmt 1
 157              		.cfi_startproc
 158              	.LVL15:
 159 00cc 130101FE 		addi	sp,sp,-32
 160              		.cfi_def_cfa_offset 32
 161 00d0 233C1100 		sd	ra,24(sp)
 162 00d4 23388100 		sd	s0,16(sp)
 163 00d8 23349100 		sd	s1,8(sp)
 164 00dc 23302101 		sd	s2,0(sp)
 165              		.cfi_offset 1, -8
 166              		.cfi_offset 8, -16
 167              		.cfi_offset 9, -24
 168              		.cfi_offset 18, -32
GAS LISTING /tmp/ccIi9nRm.s 			page 5


 169 00e0 13040102 		addi	s0,sp,32
 170              		.cfi_def_cfa 8, 0
  31:test/Threads_C_API_test.cpp ****     for (uint64 i = 0; i < 16; i++) {
 171              		.loc 1 31 5
 172              	.LVL16:
 173              	.LBB10:
 174              		.loc 1 31 17 is_stmt 0
 175 00e4 13090000 		li	s2,0
 176 00e8 6F008003 		j	.L15
 177              	.LVL17:
 178              	.L12:
 179              	.LBB11:
 180              	.LBB12:
 181              	.LBB13:
  32:test/Threads_C_API_test.cpp ****         printString("B: i="); printInt(i); printString("\n");
  33:test/Threads_C_API_test.cpp ****         for (uint64 j = 0; j < 10000; j++) {
  34:test/Threads_C_API_test.cpp ****             for (uint64 k = 0; k < 30000; k++) { /* busy wait */ }
  35:test/Threads_C_API_test.cpp ****             thread_dispatch();
 182              		.loc 1 35 13 is_stmt 1 discriminator 2
 183              		.loc 1 35 28 is_stmt 0 discriminator 2
 184 00ec 97000000 		call	thread_dispatch@plt
 184      E7800000 
 185              	.LVL18:
 186              	.LBE13:
  33:test/Threads_C_API_test.cpp ****             for (uint64 k = 0; k < 30000; k++) { /* busy wait */ }
 187              		.loc 1 33 9 is_stmt 1 discriminator 2
 188 00f4 93841400 		addi	s1,s1,1
 189              	.LVL19:
 190              	.L14:
  33:test/Threads_C_API_test.cpp ****             for (uint64 k = 0; k < 30000; k++) { /* busy wait */ }
 191              		.loc 1 33 30 discriminator 1
 192 00f8 B7270000 		li	a5,8192
 193 00fc 9387F770 		addi	a5,a5,1807
 194 0100 63EE9700 		bgtu	s1,a5,.L11
 195              	.LBB15:
 196              	.LBB14:
  34:test/Threads_C_API_test.cpp ****             thread_dispatch();
 197              		.loc 1 34 25 is_stmt 0
 198 0104 13070000 		li	a4,0
 199              	.L13:
 200              	.LVL20:
  34:test/Threads_C_API_test.cpp ****             thread_dispatch();
 201              		.loc 1 34 34 is_stmt 1 discriminator 3
 202 0108 B7770000 		li	a5,28672
 203 010c 9387F752 		addi	a5,a5,1327
 204 0110 E3EEE7FC 		bgtu	a4,a5,.L12
  34:test/Threads_C_API_test.cpp ****             thread_dispatch();
 205              		.loc 1 34 13 discriminator 2
 206 0114 13071700 		addi	a4,a4,1
 207              	.LVL21:
 208 0118 6FF01FFF 		j	.L13
 209              	.LVL22:
 210              	.L11:
 211              	.LBE14:
 212              	.LBE15:
 213              	.LBE12:
 214              	.LBE11:
GAS LISTING /tmp/ccIi9nRm.s 			page 6


  31:test/Threads_C_API_test.cpp ****         printString("B: i="); printInt(i); printString("\n");
 215              		.loc 1 31 5 discriminator 2
 216 011c 13091900 		addi	s2,s2,1
 217              	.LVL23:
 218              	.L15:
  31:test/Threads_C_API_test.cpp ****         printString("B: i="); printInt(i); printString("\n");
 219              		.loc 1 31 26 discriminator 1
 220 0120 9307F000 		li	a5,15
 221 0124 63E02705 		bgtu	s2,a5,.L10
 222              	.LBB17:
  32:test/Threads_C_API_test.cpp ****         for (uint64 j = 0; j < 10000; j++) {
 223              		.loc 1 32 9
  32:test/Threads_C_API_test.cpp ****         for (uint64 j = 0; j < 10000; j++) {
 224              		.loc 1 32 20 is_stmt 0
 225 0128 17050000 		lla	a0,.LC3
 225      13050500 
 226 0130 97000000 		call	_Z11printStringPKc@plt
 226      E7800000 
 227              	.LVL24:
  32:test/Threads_C_API_test.cpp ****         for (uint64 j = 0; j < 10000; j++) {
 228              		.loc 1 32 31 is_stmt 1
  32:test/Threads_C_API_test.cpp ****         for (uint64 j = 0; j < 10000; j++) {
 229              		.loc 1 32 39 is_stmt 0
 230 0138 13060000 		li	a2,0
 231 013c 9305A000 		li	a1,10
 232 0140 1B050900 		sext.w	a0,s2
 233 0144 97000000 		call	_Z8printIntiii@plt
 233      E7800000 
 234              	.LVL25:
  32:test/Threads_C_API_test.cpp ****         for (uint64 j = 0; j < 10000; j++) {
 235              		.loc 1 32 44 is_stmt 1
  32:test/Threads_C_API_test.cpp ****         for (uint64 j = 0; j < 10000; j++) {
 236              		.loc 1 32 55 is_stmt 0
 237 014c 17050000 		lla	a0,.LC1
 237      13050500 
 238 0154 97000000 		call	_Z11printStringPKc@plt
 238      E7800000 
 239              	.LVL26:
  33:test/Threads_C_API_test.cpp ****             for (uint64 k = 0; k < 30000; k++) { /* busy wait */ }
 240              		.loc 1 33 9 is_stmt 1
 241              	.LBB16:
  33:test/Threads_C_API_test.cpp ****             for (uint64 k = 0; k < 30000; k++) { /* busy wait */ }
 242              		.loc 1 33 21 is_stmt 0
 243 015c 93040000 		li	s1,0
 244 0160 6FF09FF9 		j	.L14
 245              	.LVL27:
 246              	.L10:
 247              	.LBE16:
 248              	.LBE17:
 249              	.LBE10:
  36:test/Threads_C_API_test.cpp ****         }
  37:test/Threads_C_API_test.cpp ****     }
  38:test/Threads_C_API_test.cpp ****     printString("B finished!\n");
 250              		.loc 1 38 5 is_stmt 1
 251              		.loc 1 38 16 is_stmt 0
 252 0164 17050000 		lla	a0,.LC4
 252      13050500 
GAS LISTING /tmp/ccIi9nRm.s 			page 7


 253 016c 97000000 		call	_Z11printStringPKc@plt
 253      E7800000 
 254              	.LVL28:
  39:test/Threads_C_API_test.cpp ****     finishedB = true;
 255              		.loc 1 39 5 is_stmt 1
 256              		.loc 1 39 15 is_stmt 0
 257 0174 93071000 		li	a5,1
 258 0178 17070000 		sb	a5,.LANCHOR0+1,a4
 258      2300F700 
  40:test/Threads_C_API_test.cpp ****     thread_dispatch();
 259              		.loc 1 40 5 is_stmt 1
 260              		.loc 1 40 20 is_stmt 0
 261 0180 97000000 		call	thread_dispatch@plt
 261      E7800000 
 262              	.LVL29:
  41:test/Threads_C_API_test.cpp **** }
 263              		.loc 1 41 1
 264 0188 83308101 		ld	ra,24(sp)
 265              		.cfi_restore 1
 266 018c 03340101 		ld	s0,16(sp)
 267              		.cfi_restore 8
 268              		.cfi_def_cfa 2, 32
 269 0190 83348100 		ld	s1,8(sp)
 270              		.cfi_restore 9
 271 0194 03390100 		ld	s2,0(sp)
 272              		.cfi_restore 18
 273              	.LVL30:
 274 0198 13010102 		addi	sp,sp,32
 275              		.cfi_def_cfa_offset 0
 276 019c 67800000 		jr	ra
 277              		.cfi_endproc
 278              	.LFE25:
 280              		.align	2
 282              	_ZL9fibonaccim:
 283              	.LFB23:
  12:test/Threads_C_API_test.cpp ****     if (n == 0 || n == 1) { return n; }
 284              		.loc 1 12 35 is_stmt 1
 285              		.cfi_startproc
 286              	.LVL31:
 287 01a0 130101FE 		addi	sp,sp,-32
 288              		.cfi_def_cfa_offset 32
 289 01a4 233C1100 		sd	ra,24(sp)
 290 01a8 23388100 		sd	s0,16(sp)
 291 01ac 23349100 		sd	s1,8(sp)
 292 01b0 23302101 		sd	s2,0(sp)
 293              		.cfi_offset 1, -8
 294              		.cfi_offset 8, -16
 295              		.cfi_offset 9, -24
 296              		.cfi_offset 18, -32
 297 01b4 13040102 		addi	s0,sp,32
 298              		.cfi_def_cfa 8, 0
 299 01b8 93040500 		mv	s1,a0
  13:test/Threads_C_API_test.cpp ****     if (n % 10 == 0) { thread_dispatch(); }
 300              		.loc 1 13 5
 301 01bc 93071000 		li	a5,1
 302 01c0 63F8A702 		bleu	a0,a5,.L17
  14:test/Threads_C_API_test.cpp ****     return fibonacci(n - 1) + fibonacci(n - 2);
GAS LISTING /tmp/ccIi9nRm.s 			page 8


 303              		.loc 1 14 5
  14:test/Threads_C_API_test.cpp ****     return fibonacci(n - 1) + fibonacci(n - 2);
 304              		.loc 1 14 11 is_stmt 0
 305 01c4 9307A000 		li	a5,10
 306 01c8 B377F502 		remu	a5,a0,a5
  14:test/Threads_C_API_test.cpp ****     return fibonacci(n - 1) + fibonacci(n - 2);
 307              		.loc 1 14 5
 308 01cc 638E0702 		beqz	a5,.L22
 309              	.LVL32:
 310              	.L19:
  15:test/Threads_C_API_test.cpp **** }
 311              		.loc 1 15 5 is_stmt 1
  15:test/Threads_C_API_test.cpp **** }
 312              		.loc 1 15 21 is_stmt 0
 313 01d0 1385F4FF 		addi	a0,s1,-1
 314 01d4 97000000 		call	_ZL9fibonaccim
 314      E7800000 
 315              	.LVL33:
 316 01dc 13090500 		mv	s2,a0
  15:test/Threads_C_API_test.cpp **** }
 317              		.loc 1 15 40
 318 01e0 1385E4FF 		addi	a0,s1,-2
 319 01e4 97000000 		call	_ZL9fibonaccim
 319      E7800000 
 320              	.LVL34:
  15:test/Threads_C_API_test.cpp **** }
 321              		.loc 1 15 46
 322 01ec 3305A900 		add	a0,s2,a0
 323              	.L17:
  16:test/Threads_C_API_test.cpp **** 
 324              		.loc 1 16 1
 325 01f0 83308101 		ld	ra,24(sp)
 326              		.cfi_remember_state
 327              		.cfi_restore 1
 328 01f4 03340101 		ld	s0,16(sp)
 329              		.cfi_restore 8
 330              		.cfi_def_cfa 2, 32
 331 01f8 83348100 		ld	s1,8(sp)
 332              		.cfi_restore 9
 333              	.LVL35:
 334 01fc 03390100 		ld	s2,0(sp)
 335              		.cfi_restore 18
 336 0200 13010102 		addi	sp,sp,32
 337              		.cfi_def_cfa_offset 0
 338 0204 67800000 		jr	ra
 339              	.LVL36:
 340              	.L22:
 341              		.cfi_restore_state
  14:test/Threads_C_API_test.cpp ****     return fibonacci(n - 1) + fibonacci(n - 2);
 342              		.loc 1 14 24 is_stmt 1 discriminator 1
  14:test/Threads_C_API_test.cpp ****     return fibonacci(n - 1) + fibonacci(n - 2);
 343              		.loc 1 14 39 is_stmt 0 discriminator 1
 344 0208 97000000 		call	thread_dispatch@plt
 344      E7800000 
 345              	.LVL37:
 346 0210 6FF01FFC 		j	.L19
 347              		.cfi_endproc
GAS LISTING /tmp/ccIi9nRm.s 			page 9


 348              	.LFE23:
 350              		.section	.rodata.str1.8
 351 0035 000000   		.align	3
 352              	.LC5:
 353 0038 433A2069 		.string	"C: i="
 353      3D00
 354 003e 0000     		.align	3
 355              	.LC6:
 356 0040 433A2064 		.string	"C: dispatch\n"
 356      69737061 
 356      7463680A 
 356      00
 357 004d 000000   		.align	3
 358              	.LC7:
 359 0050 433A2074 		.string	"C: t1="
 359      313D00
 360 0057 00       		.align	3
 361              	.LC8:
 362 0058 433A2066 		.string	"C: fibonaci="
 362      69626F6E 
 362      6163693D 
 362      00
 363 0065 000000   		.align	3
 364              	.LC9:
 365 0068 43206669 		.string	"C finished!\n"
 365      6E697368 
 365      6564210A 
 365      00
 366              		.text
 367              		.align	2
 368              		.globl	_Z11workerBodyCPv
 370              	_Z11workerBodyCPv:
 371              	.LFB26:
  42:test/Threads_C_API_test.cpp **** 
  43:test/Threads_C_API_test.cpp **** void workerBodyC(void* arg) {
 372              		.loc 1 43 29 is_stmt 1
 373              		.cfi_startproc
 374              	.LVL38:
 375 0214 130101FE 		addi	sp,sp,-32
 376              		.cfi_def_cfa_offset 32
 377 0218 233C1100 		sd	ra,24(sp)
 378 021c 23388100 		sd	s0,16(sp)
 379 0220 23349100 		sd	s1,8(sp)
 380 0224 23302101 		sd	s2,0(sp)
 381              		.cfi_offset 1, -8
 382              		.cfi_offset 8, -16
 383              		.cfi_offset 9, -24
 384              		.cfi_offset 18, -32
 385 0228 13040102 		addi	s0,sp,32
 386              		.cfi_def_cfa 8, 0
  44:test/Threads_C_API_test.cpp ****     uint8 i = 0;
 387              		.loc 1 44 5
 388              	.LVL39:
 389              		.loc 1 44 11 is_stmt 0
 390 022c 93040000 		li	s1,0
 391 0230 6F000004 		j	.L25
 392              	.LVL40:
GAS LISTING /tmp/ccIi9nRm.s 			page 10


 393              	.L29:
  45:test/Threads_C_API_test.cpp ****     for (; i < 3; i++) {
  46:test/Threads_C_API_test.cpp ****         printString("C: i="); printInt(i); printString("\n");
 394              		.loc 1 46 9 is_stmt 1 discriminator 1
 395              		.loc 1 46 20 is_stmt 0 discriminator 1
 396 0234 17050000 		lla	a0,.LC5
 396      13050500 
 397 023c 97000000 		call	_Z11printStringPKc@plt
 397      E7800000 
 398              	.LVL41:
 399              		.loc 1 46 31 is_stmt 1 discriminator 1
 400              		.loc 1 46 39 is_stmt 0 discriminator 1
 401 0244 13060000 		li	a2,0
 402 0248 9305A000 		li	a1,10
 403 024c 13850400 		mv	a0,s1
 404 0250 97000000 		call	_Z8printIntiii@plt
 404      E7800000 
 405              	.LVL42:
 406              		.loc 1 46 44 is_stmt 1 discriminator 1
 407              		.loc 1 46 55 is_stmt 0 discriminator 1
 408 0258 17050000 		lla	a0,.LC1
 408      13050500 
 409 0260 97000000 		call	_Z11printStringPKc@plt
 409      E7800000 
 410              	.LVL43:
  45:test/Threads_C_API_test.cpp ****     for (; i < 3; i++) {
 411              		.loc 1 45 5 is_stmt 1 discriminator 1
 412 0268 9B841400 		addiw	s1,s1,1
 413              	.LVL44:
 414 026c 93F4F40F 		andi	s1,s1,0xff
 415              	.LVL45:
 416              	.L25:
  45:test/Threads_C_API_test.cpp ****     for (; i < 3; i++) {
 417              		.loc 1 45 5 discriminator 2
  45:test/Threads_C_API_test.cpp ****     for (; i < 3; i++) {
 418              		.loc 1 45 14 discriminator 2
 419 0270 93072000 		li	a5,2
 420 0274 E3F097FC 		bleu	s1,a5,.L29
  47:test/Threads_C_API_test.cpp ****     }
  48:test/Threads_C_API_test.cpp **** 
  49:test/Threads_C_API_test.cpp ****     printString("C: dispatch\n");
 421              		.loc 1 49 5
 422              		.loc 1 49 16 is_stmt 0
 423 0278 17050000 		lla	a0,.LC6
 423      13050500 
 424 0280 97000000 		call	_Z11printStringPKc@plt
 424      E7800000 
 425              	.LVL46:
  50:test/Threads_C_API_test.cpp ****     __asm__ ("li t1, 7");
 426              		.loc 1 50 5 is_stmt 1
 427              		.loc 1 50 25 is_stmt 0
 428              	#APP
 429              	# 50 "test/Threads_C_API_test.cpp" 1
  51              	    thread_dispatch();
 430              		li t1, 7
 431              	# 0 "" 2
 432              		.loc 1 51 5 is_stmt 1
GAS LISTING /tmp/ccIi9nRm.s 			page 11


 433              		.loc 1 51 20 is_stmt 0
 434              	#NO_APP
 435 028c 97000000 		call	thread_dispatch@plt
 435      E7800000 
 436              	.LVL47:
  52:test/Threads_C_API_test.cpp **** 
  53:test/Threads_C_API_test.cpp ****     uint64 t1 = 0;
 437              		.loc 1 53 5 is_stmt 1
  54:test/Threads_C_API_test.cpp ****     __asm__ ("mv %[t1], t1" : [t1] "=r"(t1));
 438              		.loc 1 54 5
 439              		.loc 1 54 45 is_stmt 0
 440              	#APP
 441              	# 54 "test/Threads_C_API_test.cpp" 1
  55              	
 442              		mv s2, t1
 443              	# 0 "" 2
 444              	.LVL48:
  56:test/Threads_C_API_test.cpp ****     printString("C: t1="); printInt(t1); printString("\n");
 445              		.loc 1 56 5 is_stmt 1
 446              		.loc 1 56 16 is_stmt 0
 447              	#NO_APP
 448 0298 17050000 		lla	a0,.LC7
 448      13050500 
 449 02a0 97000000 		call	_Z11printStringPKc@plt
 449      E7800000 
 450              	.LVL49:
 451              		.loc 1 56 28 is_stmt 1
 452              		.loc 1 56 36 is_stmt 0
 453 02a8 13060000 		li	a2,0
 454 02ac 9305A000 		li	a1,10
 455 02b0 1B050900 		sext.w	a0,s2
 456 02b4 97000000 		call	_Z8printIntiii@plt
 456      E7800000 
 457              	.LVL50:
 458              		.loc 1 56 42 is_stmt 1
 459              		.loc 1 56 53 is_stmt 0
 460 02bc 17050000 		lla	a0,.LC1
 460      13050500 
 461 02c4 97000000 		call	_Z11printStringPKc@plt
 461      E7800000 
 462              	.LVL51:
  57:test/Threads_C_API_test.cpp **** 
  58:test/Threads_C_API_test.cpp ****     uint64 result = fibonacci(12);
 463              		.loc 1 58 5 is_stmt 1
 464              		.loc 1 58 30 is_stmt 0
 465 02cc 1305C000 		li	a0,12
 466 02d0 97000000 		call	_ZL9fibonaccim
 466      E7800000 
 467              	.LVL52:
 468 02d8 13090500 		mv	s2,a0
 469              	.LVL53:
  59:test/Threads_C_API_test.cpp ****     printString("C: fibonaci="); printInt(result); printString("\n");
 470              		.loc 1 59 5 is_stmt 1
 471              		.loc 1 59 16 is_stmt 0
 472 02dc 17050000 		lla	a0,.LC8
 472      13050500 
 473              	.LVL54:
GAS LISTING /tmp/ccIi9nRm.s 			page 12


 474 02e4 97000000 		call	_Z11printStringPKc@plt
 474      E7800000 
 475              	.LVL55:
 476              		.loc 1 59 34 is_stmt 1
 477              		.loc 1 59 42 is_stmt 0
 478 02ec 13060000 		li	a2,0
 479 02f0 9305A000 		li	a1,10
 480 02f4 1B050900 		sext.w	a0,s2
 481 02f8 97000000 		call	_Z8printIntiii@plt
 481      E7800000 
 482              	.LVL56:
 483              		.loc 1 59 52 is_stmt 1
 484              		.loc 1 59 63 is_stmt 0
 485 0300 17050000 		lla	a0,.LC1
 485      13050500 
 486 0308 97000000 		call	_Z11printStringPKc@plt
 486      E7800000 
 487              	.LVL57:
 488 0310 6F000004 		j	.L27
 489              	.L30:
  60:test/Threads_C_API_test.cpp **** 
  61:test/Threads_C_API_test.cpp ****     for (; i < 6; i++) {
  62:test/Threads_C_API_test.cpp ****         printString("C: i="); printInt(i); printString("\n");
 490              		.loc 1 62 9 is_stmt 1 discriminator 1
 491              		.loc 1 62 20 is_stmt 0 discriminator 1
 492 0314 17050000 		lla	a0,.LC5
 492      13050500 
 493 031c 97000000 		call	_Z11printStringPKc@plt
 493      E7800000 
 494              	.LVL58:
 495              		.loc 1 62 31 is_stmt 1 discriminator 1
 496              		.loc 1 62 39 is_stmt 0 discriminator 1
 497 0324 13060000 		li	a2,0
 498 0328 9305A000 		li	a1,10
 499 032c 13850400 		mv	a0,s1
 500 0330 97000000 		call	_Z8printIntiii@plt
 500      E7800000 
 501              	.LVL59:
 502              		.loc 1 62 44 is_stmt 1 discriminator 1
 503              		.loc 1 62 55 is_stmt 0 discriminator 1
 504 0338 17050000 		lla	a0,.LC1
 504      13050500 
 505 0340 97000000 		call	_Z11printStringPKc@plt
 505      E7800000 
 506              	.LVL60:
  61:test/Threads_C_API_test.cpp ****         printString("C: i="); printInt(i); printString("\n");
 507              		.loc 1 61 5 is_stmt 1 discriminator 1
 508 0348 9B841400 		addiw	s1,s1,1
 509              	.LVL61:
 510 034c 93F4F40F 		andi	s1,s1,0xff
 511              	.LVL62:
 512              	.L27:
  61:test/Threads_C_API_test.cpp ****         printString("C: i="); printInt(i); printString("\n");
 513              		.loc 1 61 5 discriminator 2
  61:test/Threads_C_API_test.cpp ****         printString("C: i="); printInt(i); printString("\n");
 514              		.loc 1 61 14 discriminator 2
 515 0350 93075000 		li	a5,5
GAS LISTING /tmp/ccIi9nRm.s 			page 13


 516 0354 E3F097FC 		bleu	s1,a5,.L30
  63:test/Threads_C_API_test.cpp ****     }
  64:test/Threads_C_API_test.cpp **** 
  65:test/Threads_C_API_test.cpp ****     printString("C finished!\n");
 517              		.loc 1 65 5
 518              		.loc 1 65 16 is_stmt 0
 519 0358 17050000 		lla	a0,.LC9
 519      13050500 
 520 0360 97000000 		call	_Z11printStringPKc@plt
 520      E7800000 
 521              	.LVL63:
  66:test/Threads_C_API_test.cpp ****     finishedC = true;
 522              		.loc 1 66 5 is_stmt 1
 523              		.loc 1 66 15 is_stmt 0
 524 0368 93071000 		li	a5,1
 525 036c 17070000 		sb	a5,.LANCHOR0+2,a4
 525      2300F700 
  67:test/Threads_C_API_test.cpp ****     thread_dispatch();
 526              		.loc 1 67 5 is_stmt 1
 527              		.loc 1 67 20 is_stmt 0
 528 0374 97000000 		call	thread_dispatch@plt
 528      E7800000 
 529              	.LVL64:
  68:test/Threads_C_API_test.cpp **** }
 530              		.loc 1 68 1
 531 037c 83308101 		ld	ra,24(sp)
 532              		.cfi_restore 1
 533 0380 03340101 		ld	s0,16(sp)
 534              		.cfi_restore 8
 535              		.cfi_def_cfa 2, 32
 536 0384 83348100 		ld	s1,8(sp)
 537              		.cfi_restore 9
 538              	.LVL65:
 539 0388 03390100 		ld	s2,0(sp)
 540              		.cfi_restore 18
 541              	.LVL66:
 542 038c 13010102 		addi	sp,sp,32
 543              		.cfi_def_cfa_offset 0
 544 0390 67800000 		jr	ra
 545              		.cfi_endproc
 546              	.LFE26:
 548              		.section	.rodata.str1.8
 549 0075 000000   		.align	3
 550              	.LC10:
 551 0078 443A2069 		.string	"D: i="
 551      3D00
 552 007e 0000     		.align	3
 553              	.LC11:
 554 0080 443A2064 		.string	"D: dispatch\n"
 554      69737061 
 554      7463680A 
 554      00
 555 008d 000000   		.align	3
 556              	.LC12:
 557 0090 443A2066 		.string	"D: fibonaci="
 557      69626F6E 
 557      6163693D 
GAS LISTING /tmp/ccIi9nRm.s 			page 14


 557      00
 558 009d 000000   		.align	3
 559              	.LC13:
 560 00a0 44206669 		.string	"D finished!\n"
 560      6E697368 
 560      6564210A 
 560      00
 561              		.text
 562              		.align	2
 563              		.globl	_Z11workerBodyDPv
 565              	_Z11workerBodyDPv:
 566              	.LFB27:
  69:test/Threads_C_API_test.cpp **** 
  70:test/Threads_C_API_test.cpp **** void workerBodyD(void* arg) {
 567              		.loc 1 70 29 is_stmt 1
 568              		.cfi_startproc
 569              	.LVL67:
 570 0394 130101FE 		addi	sp,sp,-32
 571              		.cfi_def_cfa_offset 32
 572 0398 233C1100 		sd	ra,24(sp)
 573 039c 23388100 		sd	s0,16(sp)
 574 03a0 23349100 		sd	s1,8(sp)
 575 03a4 23302101 		sd	s2,0(sp)
 576              		.cfi_offset 1, -8
 577              		.cfi_offset 8, -16
 578              		.cfi_offset 9, -24
 579              		.cfi_offset 18, -32
 580 03a8 13040102 		addi	s0,sp,32
 581              		.cfi_def_cfa 8, 0
  71:test/Threads_C_API_test.cpp ****     uint8 i = 10;
 582              		.loc 1 71 5
 583              	.LVL68:
 584              		.loc 1 71 11 is_stmt 0
 585 03ac 9304A000 		li	s1,10
 586 03b0 6F000004 		j	.L33
 587              	.LVL69:
 588              	.L37:
  72:test/Threads_C_API_test.cpp ****     for (; i < 13; i++) {
  73:test/Threads_C_API_test.cpp ****         printString("D: i="); printInt(i); printString("\n");
 589              		.loc 1 73 9 is_stmt 1 discriminator 1
 590              		.loc 1 73 20 is_stmt 0 discriminator 1
 591 03b4 17050000 		lla	a0,.LC10
 591      13050500 
 592 03bc 97000000 		call	_Z11printStringPKc@plt
 592      E7800000 
 593              	.LVL70:
 594              		.loc 1 73 31 is_stmt 1 discriminator 1
 595              		.loc 1 73 39 is_stmt 0 discriminator 1
 596 03c4 13060000 		li	a2,0
 597 03c8 9305A000 		li	a1,10
 598 03cc 13850400 		mv	a0,s1
 599 03d0 97000000 		call	_Z8printIntiii@plt
 599      E7800000 
 600              	.LVL71:
 601              		.loc 1 73 44 is_stmt 1 discriminator 1
 602              		.loc 1 73 55 is_stmt 0 discriminator 1
 603 03d8 17050000 		lla	a0,.LC1
GAS LISTING /tmp/ccIi9nRm.s 			page 15


 603      13050500 
 604 03e0 97000000 		call	_Z11printStringPKc@plt
 604      E7800000 
 605              	.LVL72:
  72:test/Threads_C_API_test.cpp ****     for (; i < 13; i++) {
 606              		.loc 1 72 5 is_stmt 1 discriminator 1
 607 03e8 9B841400 		addiw	s1,s1,1
 608              	.LVL73:
 609 03ec 93F4F40F 		andi	s1,s1,0xff
 610              	.LVL74:
 611              	.L33:
  72:test/Threads_C_API_test.cpp ****     for (; i < 13; i++) {
 612              		.loc 1 72 5 discriminator 2
  72:test/Threads_C_API_test.cpp ****     for (; i < 13; i++) {
 613              		.loc 1 72 14 discriminator 2
 614 03f0 9307C000 		li	a5,12
 615 03f4 E3F097FC 		bleu	s1,a5,.L37
  74:test/Threads_C_API_test.cpp ****     }
  75:test/Threads_C_API_test.cpp **** 
  76:test/Threads_C_API_test.cpp ****     printString("D: dispatch\n");
 616              		.loc 1 76 5
 617              		.loc 1 76 16 is_stmt 0
 618 03f8 17050000 		lla	a0,.LC11
 618      13050500 
 619 0400 97000000 		call	_Z11printStringPKc@plt
 619      E7800000 
 620              	.LVL75:
  77:test/Threads_C_API_test.cpp ****     __asm__ ("li t1, 5");
 621              		.loc 1 77 5 is_stmt 1
 622              		.loc 1 77 25 is_stmt 0
 623              	#APP
 624              	# 77 "test/Threads_C_API_test.cpp" 1
  78              	    thread_dispatch();
 625              		li t1, 5
 626              	# 0 "" 2
 627              		.loc 1 78 5 is_stmt 1
 628              		.loc 1 78 20 is_stmt 0
 629              	#NO_APP
 630 040c 97000000 		call	thread_dispatch@plt
 630      E7800000 
 631              	.LVL76:
  79:test/Threads_C_API_test.cpp **** 
  80:test/Threads_C_API_test.cpp ****     uint64 result = fibonacci(16);
 632              		.loc 1 80 5 is_stmt 1
 633              		.loc 1 80 30 is_stmt 0
 634 0414 13050001 		li	a0,16
 635 0418 97000000 		call	_ZL9fibonaccim
 635      E7800000 
 636              	.LVL77:
 637 0420 13090500 		mv	s2,a0
 638              	.LVL78:
  81:test/Threads_C_API_test.cpp ****     printString("D: fibonaci="); printInt(result); printString("\n");
 639              		.loc 1 81 5 is_stmt 1
 640              		.loc 1 81 16 is_stmt 0
 641 0424 17050000 		lla	a0,.LC12
 641      13050500 
 642              	.LVL79:
GAS LISTING /tmp/ccIi9nRm.s 			page 16


 643 042c 97000000 		call	_Z11printStringPKc@plt
 643      E7800000 
 644              	.LVL80:
 645              		.loc 1 81 34 is_stmt 1
 646              		.loc 1 81 42 is_stmt 0
 647 0434 13060000 		li	a2,0
 648 0438 9305A000 		li	a1,10
 649 043c 1B050900 		sext.w	a0,s2
 650 0440 97000000 		call	_Z8printIntiii@plt
 650      E7800000 
 651              	.LVL81:
 652              		.loc 1 81 52 is_stmt 1
 653              		.loc 1 81 63 is_stmt 0
 654 0448 17050000 		lla	a0,.LC1
 654      13050500 
 655 0450 97000000 		call	_Z11printStringPKc@plt
 655      E7800000 
 656              	.LVL82:
 657 0458 6F000004 		j	.L35
 658              	.L38:
  82:test/Threads_C_API_test.cpp **** 
  83:test/Threads_C_API_test.cpp ****     for (; i < 16; i++) {
  84:test/Threads_C_API_test.cpp ****         printString("D: i="); printInt(i); printString("\n");
 659              		.loc 1 84 9 is_stmt 1 discriminator 1
 660              		.loc 1 84 20 is_stmt 0 discriminator 1
 661 045c 17050000 		lla	a0,.LC10
 661      13050500 
 662 0464 97000000 		call	_Z11printStringPKc@plt
 662      E7800000 
 663              	.LVL83:
 664              		.loc 1 84 31 is_stmt 1 discriminator 1
 665              		.loc 1 84 39 is_stmt 0 discriminator 1
 666 046c 13060000 		li	a2,0
 667 0470 9305A000 		li	a1,10
 668 0474 13850400 		mv	a0,s1
 669 0478 97000000 		call	_Z8printIntiii@plt
 669      E7800000 
 670              	.LVL84:
 671              		.loc 1 84 44 is_stmt 1 discriminator 1
 672              		.loc 1 84 55 is_stmt 0 discriminator 1
 673 0480 17050000 		lla	a0,.LC1
 673      13050500 
 674 0488 97000000 		call	_Z11printStringPKc@plt
 674      E7800000 
 675              	.LVL85:
  83:test/Threads_C_API_test.cpp ****         printString("D: i="); printInt(i); printString("\n");
 676              		.loc 1 83 5 is_stmt 1 discriminator 1
 677 0490 9B841400 		addiw	s1,s1,1
 678              	.LVL86:
 679 0494 93F4F40F 		andi	s1,s1,0xff
 680              	.LVL87:
 681              	.L35:
  83:test/Threads_C_API_test.cpp ****         printString("D: i="); printInt(i); printString("\n");
 682              		.loc 1 83 5 discriminator 2
  83:test/Threads_C_API_test.cpp ****         printString("D: i="); printInt(i); printString("\n");
 683              		.loc 1 83 14 discriminator 2
 684 0498 9307F000 		li	a5,15
GAS LISTING /tmp/ccIi9nRm.s 			page 17


 685 049c E3F097FC 		bleu	s1,a5,.L38
  85:test/Threads_C_API_test.cpp ****     }
  86:test/Threads_C_API_test.cpp **** 
  87:test/Threads_C_API_test.cpp ****     printString("D finished!\n");
 686              		.loc 1 87 5
 687              		.loc 1 87 16 is_stmt 0
 688 04a0 17050000 		lla	a0,.LC13
 688      13050500 
 689 04a8 97000000 		call	_Z11printStringPKc@plt
 689      E7800000 
 690              	.LVL88:
  88:test/Threads_C_API_test.cpp ****     finishedD = true;
 691              		.loc 1 88 5 is_stmt 1
 692              		.loc 1 88 15 is_stmt 0
 693 04b0 93071000 		li	a5,1
 694 04b4 17070000 		sb	a5,.LANCHOR0+3,a4
 694      2300F700 
  89:test/Threads_C_API_test.cpp ****     thread_dispatch();
 695              		.loc 1 89 5 is_stmt 1
 696              		.loc 1 89 20 is_stmt 0
 697 04bc 97000000 		call	thread_dispatch@plt
 697      E7800000 
 698              	.LVL89:
  90:test/Threads_C_API_test.cpp **** }
 699              		.loc 1 90 1
 700 04c4 83308101 		ld	ra,24(sp)
 701              		.cfi_restore 1
 702 04c8 03340101 		ld	s0,16(sp)
 703              		.cfi_restore 8
 704              		.cfi_def_cfa 2, 32
 705 04cc 83348100 		ld	s1,8(sp)
 706              		.cfi_restore 9
 707              	.LVL90:
 708 04d0 03390100 		ld	s2,0(sp)
 709              		.cfi_restore 18
 710              	.LVL91:
 711 04d4 13010102 		addi	sp,sp,32
 712              		.cfi_def_cfa_offset 0
 713 04d8 67800000 		jr	ra
 714              		.cfi_endproc
 715              	.LFE27:
 717              		.section	.rodata.str1.8
 718 00ad 000000   		.align	3
 719              	.LC14:
 720 00b0 54687265 		.string	"ThreadA created\n"
 720      61644120 
 720      63726561 
 720      7465640A 
 720      00
 721 00c1 00000000 		.align	3
 721      000000
 722              	.LC15:
 723 00c8 54687265 		.string	"ThreadB created\n"
 723      61644220 
 723      63726561 
 723      7465640A 
 723      00
GAS LISTING /tmp/ccIi9nRm.s 			page 18


 724 00d9 00000000 		.align	3
 724      000000
 725              	.LC16:
 726 00e0 54687265 		.string	"ThreadC created\n"
 726      61644320 
 726      63726561 
 726      7465640A 
 726      00
 727 00f1 00000000 		.align	3
 727      000000
 728              	.LC17:
 729 00f8 54687265 		.string	"ThreadD created\n"
 729      61644420 
 729      63726561 
 729      7465640A 
 729      00
 730              		.text
 731              		.align	2
 732              		.globl	_Z18Threads_C_API_testv
 734              	_Z18Threads_C_API_testv:
 735              	.LFB28:
  91:test/Threads_C_API_test.cpp **** 
  92:test/Threads_C_API_test.cpp **** 
  93:test/Threads_C_API_test.cpp **** void Threads_C_API_test() {
 736              		.loc 1 93 27 is_stmt 1
 737              		.cfi_startproc
 738 04dc 130101FC 		addi	sp,sp,-64
 739              		.cfi_def_cfa_offset 64
 740 04e0 233C1102 		sd	ra,56(sp)
 741 04e4 23388102 		sd	s0,48(sp)
 742 04e8 23349102 		sd	s1,40(sp)
 743 04ec 23302103 		sd	s2,32(sp)
 744              		.cfi_offset 1, -8
 745              		.cfi_offset 8, -16
 746              		.cfi_offset 9, -24
 747              		.cfi_offset 18, -32
 748 04f0 13040104 		addi	s0,sp,64
 749              		.cfi_def_cfa 8, 0
  94:test/Threads_C_API_test.cpp ****     thread_t threads[4];
 750              		.loc 1 94 5
  95:test/Threads_C_API_test.cpp ****     thread_create(&threads[0], workerBodyA, nullptr);
 751              		.loc 1 95 5
 752              		.loc 1 95 18 is_stmt 0
 753 04f4 13060000 		li	a2,0
 754 04f8 97050000 		lla	a1,_Z11workerBodyAPv
 754      93850500 
 755 0500 130504FC 		addi	a0,s0,-64
 756 0504 97000000 		call	thread_create@plt
 756      E7800000 
 757              	.LVL92:
  96:test/Threads_C_API_test.cpp ****     printString("ThreadA created\n");
 758              		.loc 1 96 5 is_stmt 1
 759              		.loc 1 96 16 is_stmt 0
 760 050c 17050000 		lla	a0,.LC14
 760      13050500 
 761 0514 97000000 		call	_Z11printStringPKc@plt
 761      E7800000 
GAS LISTING /tmp/ccIi9nRm.s 			page 19


 762              	.LVL93:
  97:test/Threads_C_API_test.cpp **** 
  98:test/Threads_C_API_test.cpp ****     thread_create(&threads[1], workerBodyB, nullptr);
 763              		.loc 1 98 5 is_stmt 1
 764              		.loc 1 98 18 is_stmt 0
 765 051c 13060000 		li	a2,0
 766 0520 97050000 		lla	a1,_Z11workerBodyBPv
 766      93850500 
 767 0528 130584FC 		addi	a0,s0,-56
 768 052c 97000000 		call	thread_create@plt
 768      E7800000 
 769              	.LVL94:
  99:test/Threads_C_API_test.cpp ****     printString("ThreadB created\n");
 770              		.loc 1 99 5 is_stmt 1
 771              		.loc 1 99 16 is_stmt 0
 772 0534 17050000 		lla	a0,.LC15
 772      13050500 
 773 053c 97000000 		call	_Z11printStringPKc@plt
 773      E7800000 
 774              	.LVL95:
 100:test/Threads_C_API_test.cpp **** 
 101:test/Threads_C_API_test.cpp ****     thread_create(&threads[2], workerBodyC, nullptr);
 775              		.loc 1 101 5 is_stmt 1
 776              		.loc 1 101 18 is_stmt 0
 777 0544 13060000 		li	a2,0
 778 0548 97050000 		lla	a1,_Z11workerBodyCPv
 778      93850500 
 779 0550 130504FD 		addi	a0,s0,-48
 780 0554 97000000 		call	thread_create@plt
 780      E7800000 
 781              	.LVL96:
 102:test/Threads_C_API_test.cpp ****     printString("ThreadC created\n");
 782              		.loc 1 102 5 is_stmt 1
 783              		.loc 1 102 16 is_stmt 0
 784 055c 17050000 		lla	a0,.LC16
 784      13050500 
 785 0564 97000000 		call	_Z11printStringPKc@plt
 785      E7800000 
 786              	.LVL97:
 103:test/Threads_C_API_test.cpp **** 
 104:test/Threads_C_API_test.cpp ****     thread_create(&threads[3], workerBodyD, nullptr);
 787              		.loc 1 104 5 is_stmt 1
 788              		.loc 1 104 18 is_stmt 0
 789 056c 13060000 		li	a2,0
 790 0570 97050000 		lla	a1,_Z11workerBodyDPv
 790      93850500 
 791 0578 130584FD 		addi	a0,s0,-40
 792 057c 97000000 		call	thread_create@plt
 792      E7800000 
 793              	.LVL98:
 105:test/Threads_C_API_test.cpp ****     printString("ThreadD created\n");
 794              		.loc 1 105 5 is_stmt 1
 795              		.loc 1 105 16 is_stmt 0
 796 0584 17050000 		lla	a0,.LC17
 796      13050500 
 797 058c 97000000 		call	_Z11printStringPKc@plt
 797      E7800000 
GAS LISTING /tmp/ccIi9nRm.s 			page 20


 798              	.LVL99:
 799 0594 6F00C000 		j	.L42
 800              	.L40:
 106:test/Threads_C_API_test.cpp **** 
 107:test/Threads_C_API_test.cpp ****     while (!(finishedA && finishedB && finishedC && finishedD)) {
 108:test/Threads_C_API_test.cpp ****         //printString("Main thread\n");
 109:test/Threads_C_API_test.cpp ****         thread_dispatch();
 801              		.loc 1 109 9 is_stmt 1
 802              		.loc 1 109 24 is_stmt 0
 803 0598 97000000 		call	thread_dispatch@plt
 803      E7800000 
 804              	.LVL100:
 805              	.L42:
 107:test/Threads_C_API_test.cpp ****         //printString("Main thread\n");
 806              		.loc 1 107 5 is_stmt 1
 107:test/Threads_C_API_test.cpp ****         //printString("Main thread\n");
 807              		.loc 1 107 12
 808 05a0 97070000 		lbu	a5,.LANCHOR0
 808      83C70700 
 809 05a8 E38807FE 		beqz	a5,.L40
 107:test/Threads_C_API_test.cpp ****         //printString("Main thread\n");
 810              		.loc 1 107 24 is_stmt 0 discriminator 1
 811 05ac 97070000 		lbu	a5,.LANCHOR0+1
 811      83C70700 
 812 05b4 E38207FE 		beqz	a5,.L40
 107:test/Threads_C_API_test.cpp ****         //printString("Main thread\n");
 813              		.loc 1 107 37 discriminator 2
 814 05b8 97070000 		lbu	a5,.LANCHOR0+2
 814      83C70700 
 815 05c0 E38C07FC 		beqz	a5,.L40
 107:test/Threads_C_API_test.cpp ****         //printString("Main thread\n");
 816              		.loc 1 107 12 discriminator 3
 817 05c4 97070000 		lbu	a5,.LANCHOR0+3
 817      83C70700 
 818 05cc E38607FC 		beqz	a5,.L40
 819              	.LBB18:
 110:test/Threads_C_API_test.cpp ****     }
 111:test/Threads_C_API_test.cpp **** 
 112:test/Threads_C_API_test.cpp ****     for (auto &thread: threads) {
 820              		.loc 1 112 24
 821 05d0 930404FC 		addi	s1,s0,-64
 822 05d4 6F008000 		j	.L41
 823              	.LVL101:
 824              	.L44:
 825              		.loc 1 112 5 is_stmt 1 discriminator 3
 826 05d8 93848400 		addi	s1,s1,8
 827              	.LVL102:
 828              	.L41:
 829              		.loc 1 112 24 discriminator 1
 830 05dc 930704FE 		addi	a5,s0,-32
 831 05e0 6384F402 		beq	s1,a5,.L39
 832              	.LVL103:
 113:test/Threads_C_API_test.cpp ****         //todo
 114:test/Threads_C_API_test.cpp ****         //in order to syscall.c to stay .c it gotta be converted
 115:test/Threads_C_API_test.cpp ****         delete (PCB*)thread;
 833              		.loc 1 115 9 discriminator 2
 834              		.loc 1 115 16 is_stmt 0 discriminator 2
GAS LISTING /tmp/ccIi9nRm.s 			page 21


 835 05e4 03B90400 		ld	s2,0(s1)
 836              		.loc 1 115 28 discriminator 2
 837 05e8 E30809FE 		beqz	s2,.L44
 838              		.loc 1 115 22 discriminator 1
 839 05ec 13050900 		mv	a0,s2
 840 05f0 97000000 		call	_ZN3PCBD1Ev@plt
 840      E7800000 
 841              	.LVL104:
 842 05f8 13050900 		mv	a0,s2
 843 05fc 97000000 		call	_ZN3PCBdlEPv@plt
 843      E7800000 
 844              	.LVL105:
 845 0604 6FF05FFD 		j	.L44
 846              	.LVL106:
 847              	.L39:
 848              	.LBE18:
 116:test/Threads_C_API_test.cpp ****     }
 117:test/Threads_C_API_test.cpp **** }
 849              		.loc 1 117 1
 850 0608 83308103 		ld	ra,56(sp)
 851              		.cfi_restore 1
 852 060c 03340103 		ld	s0,48(sp)
 853              		.cfi_restore 8
 854              		.cfi_def_cfa 2, 64
 855 0610 83348102 		ld	s1,40(sp)
 856              		.cfi_restore 9
 857              	.LVL107:
 858 0614 03390102 		ld	s2,32(sp)
 859              		.cfi_restore 18
 860 0618 13010104 		addi	sp,sp,64
 861              		.cfi_def_cfa_offset 0
 862 061c 67800000 		jr	ra
 863              		.cfi_endproc
 864              	.LFE28:
 866              		.bss
 867              		.set	.LANCHOR0,. + 0
 870              	_ZL9finishedA:
 871 0000 00       		.zero	1
 874              	_ZL9finishedB:
 875 0001 00       		.zero	1
 878              	_ZL9finishedC:
 879 0002 00       		.zero	1
 882              	_ZL9finishedD:
 883 0003 00       		.zero	1
 884              		.text
 885              	.Letext0:
 886              		.file 2 "test/../h/../lib/hw.h"
 887              		.file 3 "test/../h/syscall_c.h"
 888              		.file 4 "test/../h/PCB.hpp"
 889              		.file 5 "test/printing.hpp"
GAS LISTING /tmp/ccIi9nRm.s 			page 22


DEFINED SYMBOLS
                            *ABS*:0000000000000000 Threads_C_API_test.cpp
     /tmp/ccIi9nRm.s:20     .text:0000000000000000 _Z11workerBodyAPv
     /tmp/ccIi9nRm.s:24     .text:0000000000000000 .L0 
     /tmp/ccIi9nRm.s:26     .text:0000000000000000 .L0 
     /tmp/ccIi9nRm.s:27     .text:0000000000000004 .L0 
     /tmp/ccIi9nRm.s:32     .text:0000000000000014 .L0 
     /tmp/ccIi9nRm.s:33     .text:0000000000000014 .L0 
     /tmp/ccIi9nRm.s:34     .text:0000000000000014 .L0 
     /tmp/ccIi9nRm.s:35     .text:0000000000000014 .L0 
     /tmp/ccIi9nRm.s:37     .text:0000000000000018 .L0 
     /tmp/ccIi9nRm.s:41     .text:0000000000000018 .L0 
     /tmp/ccIi9nRm.s:42     .text:0000000000000018 .L0 
     /tmp/ccIi9nRm.s:50     .text:0000000000000020 .L0 
     /tmp/ccIi9nRm.s:51     .text:0000000000000020 .L0 
     /tmp/ccIi9nRm.s:55     .text:0000000000000028 .L0 
     /tmp/ccIi9nRm.s:59     .text:000000000000002c .L0 
     /tmp/ccIi9nRm.s:65     .text:0000000000000038 .L0 
     /tmp/ccIi9nRm.s:69     .text:000000000000003c .L0 
     /tmp/ccIi9nRm.s:73     .text:0000000000000048 .L0 
     /tmp/ccIi9nRm.s:83     .text:0000000000000050 .L0 
     /tmp/ccIi9nRm.s:87     .text:0000000000000054 .L0 
     /tmp/ccIi9nRm.s:91     .text:000000000000005c .L0 
     /tmp/ccIi9nRm.s:92     .text:000000000000005c .L0 
     /tmp/ccIi9nRm.s:96     .text:000000000000006c .L0 
     /tmp/ccIi9nRm.s:97     .text:000000000000006c .L0 
     /tmp/ccIi9nRm.s:103    .text:0000000000000080 .L0 
     /tmp/ccIi9nRm.s:104    .text:0000000000000080 .L0 
     /tmp/ccIi9nRm.s:109    .text:0000000000000090 .L0 
     /tmp/ccIi9nRm.s:110    .text:0000000000000090 .L0 
     /tmp/ccIi9nRm.s:118    .text:0000000000000098 .L0 
     /tmp/ccIi9nRm.s:119    .text:0000000000000098 .L0 
     /tmp/ccIi9nRm.s:123    .text:00000000000000a8 .L0 
     /tmp/ccIi9nRm.s:124    .text:00000000000000a8 .L0 
     /tmp/ccIi9nRm.s:127    .text:00000000000000b4 .L0 
     /tmp/ccIi9nRm.s:128    .text:00000000000000b8 .L0 
     /tmp/ccIi9nRm.s:130    .text:00000000000000bc .L0 
     /tmp/ccIi9nRm.s:131    .text:00000000000000bc .L0 
     /tmp/ccIi9nRm.s:133    .text:00000000000000c0 .L0 
     /tmp/ccIi9nRm.s:135    .text:00000000000000c4 .L0 
     /tmp/ccIi9nRm.s:138    .text:00000000000000c8 .L0 
     /tmp/ccIi9nRm.s:140    .text:00000000000000cc .L0 
     /tmp/ccIi9nRm.s:154    .text:00000000000000cc _Z11workerBodyBPv
     /tmp/ccIi9nRm.s:157    .text:00000000000000cc .L0 
     /tmp/ccIi9nRm.s:159    .text:00000000000000cc .L0 
     /tmp/ccIi9nRm.s:160    .text:00000000000000d0 .L0 
     /tmp/ccIi9nRm.s:165    .text:00000000000000e0 .L0 
     /tmp/ccIi9nRm.s:166    .text:00000000000000e0 .L0 
     /tmp/ccIi9nRm.s:167    .text:00000000000000e0 .L0 
     /tmp/ccIi9nRm.s:168    .text:00000000000000e0 .L0 
     /tmp/ccIi9nRm.s:170    .text:00000000000000e4 .L0 
     /tmp/ccIi9nRm.s:174    .text:00000000000000e4 .L0 
     /tmp/ccIi9nRm.s:175    .text:00000000000000e4 .L0 
     /tmp/ccIi9nRm.s:183    .text:00000000000000ec .L0 
     /tmp/ccIi9nRm.s:184    .text:00000000000000ec .L0 
     /tmp/ccIi9nRm.s:188    .text:00000000000000f4 .L0 
     /tmp/ccIi9nRm.s:192    .text:00000000000000f8 .L0 
GAS LISTING /tmp/ccIi9nRm.s 			page 23


     /tmp/ccIi9nRm.s:198    .text:0000000000000104 .L0 
     /tmp/ccIi9nRm.s:202    .text:0000000000000108 .L0 
     /tmp/ccIi9nRm.s:206    .text:0000000000000114 .L0 
     /tmp/ccIi9nRm.s:216    .text:000000000000011c .L0 
     /tmp/ccIi9nRm.s:220    .text:0000000000000120 .L0 
     /tmp/ccIi9nRm.s:224    .text:0000000000000128 .L0 
     /tmp/ccIi9nRm.s:225    .text:0000000000000128 .L0 
     /tmp/ccIi9nRm.s:229    .text:0000000000000138 .L0 
     /tmp/ccIi9nRm.s:230    .text:0000000000000138 .L0 
     /tmp/ccIi9nRm.s:236    .text:000000000000014c .L0 
     /tmp/ccIi9nRm.s:237    .text:000000000000014c .L0 
     /tmp/ccIi9nRm.s:242    .text:000000000000015c .L0 
     /tmp/ccIi9nRm.s:243    .text:000000000000015c .L0 
     /tmp/ccIi9nRm.s:251    .text:0000000000000164 .L0 
     /tmp/ccIi9nRm.s:252    .text:0000000000000164 .L0 
     /tmp/ccIi9nRm.s:256    .text:0000000000000174 .L0 
     /tmp/ccIi9nRm.s:257    .text:0000000000000174 .L0 
     /tmp/ccIi9nRm.s:260    .text:0000000000000180 .L0 
     /tmp/ccIi9nRm.s:261    .text:0000000000000180 .L0 
     /tmp/ccIi9nRm.s:264    .text:0000000000000188 .L0 
     /tmp/ccIi9nRm.s:265    .text:000000000000018c .L0 
     /tmp/ccIi9nRm.s:267    .text:0000000000000190 .L0 
     /tmp/ccIi9nRm.s:268    .text:0000000000000190 .L0 
     /tmp/ccIi9nRm.s:270    .text:0000000000000194 .L0 
     /tmp/ccIi9nRm.s:272    .text:0000000000000198 .L0 
     /tmp/ccIi9nRm.s:275    .text:000000000000019c .L0 
     /tmp/ccIi9nRm.s:277    .text:00000000000001a0 .L0 
     /tmp/ccIi9nRm.s:282    .text:00000000000001a0 _ZL9fibonaccim
     /tmp/ccIi9nRm.s:285    .text:00000000000001a0 .L0 
     /tmp/ccIi9nRm.s:287    .text:00000000000001a0 .L0 
     /tmp/ccIi9nRm.s:288    .text:00000000000001a4 .L0 
     /tmp/ccIi9nRm.s:293    .text:00000000000001b4 .L0 
     /tmp/ccIi9nRm.s:294    .text:00000000000001b4 .L0 
     /tmp/ccIi9nRm.s:295    .text:00000000000001b4 .L0 
     /tmp/ccIi9nRm.s:296    .text:00000000000001b4 .L0 
     /tmp/ccIi9nRm.s:298    .text:00000000000001b8 .L0 
     /tmp/ccIi9nRm.s:301    .text:00000000000001bc .L0 
     /tmp/ccIi9nRm.s:304    .text:00000000000001c4 .L0 
     /tmp/ccIi9nRm.s:305    .text:00000000000001c4 .L0 
     /tmp/ccIi9nRm.s:308    .text:00000000000001cc .L0 
     /tmp/ccIi9nRm.s:312    .text:00000000000001d0 .L0 
     /tmp/ccIi9nRm.s:313    .text:00000000000001d0 .L0 
     /tmp/ccIi9nRm.s:318    .text:00000000000001e0 .L0 
     /tmp/ccIi9nRm.s:322    .text:00000000000001ec .L0 
     /tmp/ccIi9nRm.s:325    .text:00000000000001f0 .L0 
     /tmp/ccIi9nRm.s:326    .text:00000000000001f4 .L0 
     /tmp/ccIi9nRm.s:327    .text:00000000000001f4 .L0 
     /tmp/ccIi9nRm.s:329    .text:00000000000001f8 .L0 
     /tmp/ccIi9nRm.s:330    .text:00000000000001f8 .L0 
     /tmp/ccIi9nRm.s:332    .text:00000000000001fc .L0 
     /tmp/ccIi9nRm.s:335    .text:0000000000000200 .L0 
     /tmp/ccIi9nRm.s:337    .text:0000000000000204 .L0 
     /tmp/ccIi9nRm.s:341    .text:0000000000000208 .L0 
     /tmp/ccIi9nRm.s:343    .text:0000000000000208 .L0 
     /tmp/ccIi9nRm.s:344    .text:0000000000000208 .L0 
     /tmp/ccIi9nRm.s:347    .text:0000000000000214 .L0 
     /tmp/ccIi9nRm.s:370    .text:0000000000000214 _Z11workerBodyCPv
GAS LISTING /tmp/ccIi9nRm.s 			page 24


     /tmp/ccIi9nRm.s:373    .text:0000000000000214 .L0 
     /tmp/ccIi9nRm.s:375    .text:0000000000000214 .L0 
     /tmp/ccIi9nRm.s:376    .text:0000000000000218 .L0 
     /tmp/ccIi9nRm.s:381    .text:0000000000000228 .L0 
     /tmp/ccIi9nRm.s:382    .text:0000000000000228 .L0 
     /tmp/ccIi9nRm.s:383    .text:0000000000000228 .L0 
     /tmp/ccIi9nRm.s:384    .text:0000000000000228 .L0 
     /tmp/ccIi9nRm.s:386    .text:000000000000022c .L0 
     /tmp/ccIi9nRm.s:389    .text:000000000000022c .L0 
     /tmp/ccIi9nRm.s:390    .text:000000000000022c .L0 
     /tmp/ccIi9nRm.s:395    .text:0000000000000234 .L0 
     /tmp/ccIi9nRm.s:396    .text:0000000000000234 .L0 
     /tmp/ccIi9nRm.s:400    .text:0000000000000244 .L0 
     /tmp/ccIi9nRm.s:401    .text:0000000000000244 .L0 
     /tmp/ccIi9nRm.s:407    .text:0000000000000258 .L0 
     /tmp/ccIi9nRm.s:408    .text:0000000000000258 .L0 
     /tmp/ccIi9nRm.s:412    .text:0000000000000268 .L0 
     /tmp/ccIi9nRm.s:418    .text:0000000000000270 .L0 
     /tmp/ccIi9nRm.s:419    .text:0000000000000270 .L0 
     /tmp/ccIi9nRm.s:422    .text:0000000000000278 .L0 
     /tmp/ccIi9nRm.s:423    .text:0000000000000278 .L0 
     /tmp/ccIi9nRm.s:427    .text:0000000000000288 .L0 
test/Threads_C_API_test.cpp:50     .text:0000000000000288 .L0 
     /tmp/ccIi9nRm.s:433    .text:000000000000028c .L0 
     /tmp/ccIi9nRm.s:435    .text:000000000000028c .L0 
     /tmp/ccIi9nRm.s:438    .text:0000000000000294 .L0 
     /tmp/ccIi9nRm.s:439    .text:0000000000000294 .L0 
test/Threads_C_API_test.cpp:54     .text:0000000000000294 .L0 
     /tmp/ccIi9nRm.s:446    .text:0000000000000298 .L0 
     /tmp/ccIi9nRm.s:448    .text:0000000000000298 .L0 
     /tmp/ccIi9nRm.s:452    .text:00000000000002a8 .L0 
     /tmp/ccIi9nRm.s:453    .text:00000000000002a8 .L0 
     /tmp/ccIi9nRm.s:459    .text:00000000000002bc .L0 
     /tmp/ccIi9nRm.s:460    .text:00000000000002bc .L0 
     /tmp/ccIi9nRm.s:464    .text:00000000000002cc .L0 
     /tmp/ccIi9nRm.s:465    .text:00000000000002cc .L0 
     /tmp/ccIi9nRm.s:471    .text:00000000000002dc .L0 
     /tmp/ccIi9nRm.s:472    .text:00000000000002dc .L0 
     /tmp/ccIi9nRm.s:477    .text:00000000000002ec .L0 
     /tmp/ccIi9nRm.s:478    .text:00000000000002ec .L0 
     /tmp/ccIi9nRm.s:484    .text:0000000000000300 .L0 
     /tmp/ccIi9nRm.s:485    .text:0000000000000300 .L0 
     /tmp/ccIi9nRm.s:491    .text:0000000000000314 .L0 
     /tmp/ccIi9nRm.s:492    .text:0000000000000314 .L0 
     /tmp/ccIi9nRm.s:496    .text:0000000000000324 .L0 
     /tmp/ccIi9nRm.s:497    .text:0000000000000324 .L0 
     /tmp/ccIi9nRm.s:503    .text:0000000000000338 .L0 
     /tmp/ccIi9nRm.s:504    .text:0000000000000338 .L0 
     /tmp/ccIi9nRm.s:508    .text:0000000000000348 .L0 
     /tmp/ccIi9nRm.s:514    .text:0000000000000350 .L0 
     /tmp/ccIi9nRm.s:515    .text:0000000000000350 .L0 
     /tmp/ccIi9nRm.s:518    .text:0000000000000358 .L0 
     /tmp/ccIi9nRm.s:519    .text:0000000000000358 .L0 
     /tmp/ccIi9nRm.s:523    .text:0000000000000368 .L0 
     /tmp/ccIi9nRm.s:524    .text:0000000000000368 .L0 
     /tmp/ccIi9nRm.s:527    .text:0000000000000374 .L0 
     /tmp/ccIi9nRm.s:528    .text:0000000000000374 .L0 
GAS LISTING /tmp/ccIi9nRm.s 			page 25


     /tmp/ccIi9nRm.s:531    .text:000000000000037c .L0 
     /tmp/ccIi9nRm.s:532    .text:0000000000000380 .L0 
     /tmp/ccIi9nRm.s:534    .text:0000000000000384 .L0 
     /tmp/ccIi9nRm.s:535    .text:0000000000000384 .L0 
     /tmp/ccIi9nRm.s:537    .text:0000000000000388 .L0 
     /tmp/ccIi9nRm.s:540    .text:000000000000038c .L0 
     /tmp/ccIi9nRm.s:543    .text:0000000000000390 .L0 
     /tmp/ccIi9nRm.s:545    .text:0000000000000394 .L0 
     /tmp/ccIi9nRm.s:565    .text:0000000000000394 _Z11workerBodyDPv
     /tmp/ccIi9nRm.s:568    .text:0000000000000394 .L0 
     /tmp/ccIi9nRm.s:570    .text:0000000000000394 .L0 
     /tmp/ccIi9nRm.s:571    .text:0000000000000398 .L0 
     /tmp/ccIi9nRm.s:576    .text:00000000000003a8 .L0 
     /tmp/ccIi9nRm.s:577    .text:00000000000003a8 .L0 
     /tmp/ccIi9nRm.s:578    .text:00000000000003a8 .L0 
     /tmp/ccIi9nRm.s:579    .text:00000000000003a8 .L0 
     /tmp/ccIi9nRm.s:581    .text:00000000000003ac .L0 
     /tmp/ccIi9nRm.s:584    .text:00000000000003ac .L0 
     /tmp/ccIi9nRm.s:585    .text:00000000000003ac .L0 
     /tmp/ccIi9nRm.s:590    .text:00000000000003b4 .L0 
     /tmp/ccIi9nRm.s:591    .text:00000000000003b4 .L0 
     /tmp/ccIi9nRm.s:595    .text:00000000000003c4 .L0 
     /tmp/ccIi9nRm.s:596    .text:00000000000003c4 .L0 
     /tmp/ccIi9nRm.s:602    .text:00000000000003d8 .L0 
     /tmp/ccIi9nRm.s:603    .text:00000000000003d8 .L0 
     /tmp/ccIi9nRm.s:607    .text:00000000000003e8 .L0 
     /tmp/ccIi9nRm.s:613    .text:00000000000003f0 .L0 
     /tmp/ccIi9nRm.s:614    .text:00000000000003f0 .L0 
     /tmp/ccIi9nRm.s:617    .text:00000000000003f8 .L0 
     /tmp/ccIi9nRm.s:618    .text:00000000000003f8 .L0 
     /tmp/ccIi9nRm.s:622    .text:0000000000000408 .L0 
test/Threads_C_API_test.cpp:77     .text:0000000000000408 .L0 
     /tmp/ccIi9nRm.s:628    .text:000000000000040c .L0 
     /tmp/ccIi9nRm.s:630    .text:000000000000040c .L0 
     /tmp/ccIi9nRm.s:633    .text:0000000000000414 .L0 
     /tmp/ccIi9nRm.s:634    .text:0000000000000414 .L0 
     /tmp/ccIi9nRm.s:640    .text:0000000000000424 .L0 
     /tmp/ccIi9nRm.s:641    .text:0000000000000424 .L0 
     /tmp/ccIi9nRm.s:646    .text:0000000000000434 .L0 
     /tmp/ccIi9nRm.s:647    .text:0000000000000434 .L0 
     /tmp/ccIi9nRm.s:653    .text:0000000000000448 .L0 
     /tmp/ccIi9nRm.s:654    .text:0000000000000448 .L0 
     /tmp/ccIi9nRm.s:660    .text:000000000000045c .L0 
     /tmp/ccIi9nRm.s:661    .text:000000000000045c .L0 
     /tmp/ccIi9nRm.s:665    .text:000000000000046c .L0 
     /tmp/ccIi9nRm.s:666    .text:000000000000046c .L0 
     /tmp/ccIi9nRm.s:672    .text:0000000000000480 .L0 
     /tmp/ccIi9nRm.s:673    .text:0000000000000480 .L0 
     /tmp/ccIi9nRm.s:677    .text:0000000000000490 .L0 
     /tmp/ccIi9nRm.s:683    .text:0000000000000498 .L0 
     /tmp/ccIi9nRm.s:684    .text:0000000000000498 .L0 
     /tmp/ccIi9nRm.s:687    .text:00000000000004a0 .L0 
     /tmp/ccIi9nRm.s:688    .text:00000000000004a0 .L0 
     /tmp/ccIi9nRm.s:692    .text:00000000000004b0 .L0 
     /tmp/ccIi9nRm.s:693    .text:00000000000004b0 .L0 
     /tmp/ccIi9nRm.s:696    .text:00000000000004bc .L0 
     /tmp/ccIi9nRm.s:697    .text:00000000000004bc .L0 
GAS LISTING /tmp/ccIi9nRm.s 			page 26


     /tmp/ccIi9nRm.s:700    .text:00000000000004c4 .L0 
     /tmp/ccIi9nRm.s:701    .text:00000000000004c8 .L0 
     /tmp/ccIi9nRm.s:703    .text:00000000000004cc .L0 
     /tmp/ccIi9nRm.s:704    .text:00000000000004cc .L0 
     /tmp/ccIi9nRm.s:706    .text:00000000000004d0 .L0 
     /tmp/ccIi9nRm.s:709    .text:00000000000004d4 .L0 
     /tmp/ccIi9nRm.s:712    .text:00000000000004d8 .L0 
     /tmp/ccIi9nRm.s:714    .text:00000000000004dc .L0 
     /tmp/ccIi9nRm.s:734    .text:00000000000004dc _Z18Threads_C_API_testv
     /tmp/ccIi9nRm.s:737    .text:00000000000004dc .L0 
     /tmp/ccIi9nRm.s:738    .text:00000000000004dc .L0 
     /tmp/ccIi9nRm.s:739    .text:00000000000004e0 .L0 
     /tmp/ccIi9nRm.s:744    .text:00000000000004f0 .L0 
     /tmp/ccIi9nRm.s:745    .text:00000000000004f0 .L0 
     /tmp/ccIi9nRm.s:746    .text:00000000000004f0 .L0 
     /tmp/ccIi9nRm.s:747    .text:00000000000004f0 .L0 
     /tmp/ccIi9nRm.s:749    .text:00000000000004f4 .L0 
     /tmp/ccIi9nRm.s:751    .text:00000000000004f4 .L0 
     /tmp/ccIi9nRm.s:752    .text:00000000000004f4 .L0 
     /tmp/ccIi9nRm.s:753    .text:00000000000004f4 .L0 
     /tmp/ccIi9nRm.s:759    .text:000000000000050c .L0 
     /tmp/ccIi9nRm.s:760    .text:000000000000050c .L0 
     /tmp/ccIi9nRm.s:764    .text:000000000000051c .L0 
     /tmp/ccIi9nRm.s:765    .text:000000000000051c .L0 
     /tmp/ccIi9nRm.s:771    .text:0000000000000534 .L0 
     /tmp/ccIi9nRm.s:772    .text:0000000000000534 .L0 
     /tmp/ccIi9nRm.s:776    .text:0000000000000544 .L0 
     /tmp/ccIi9nRm.s:777    .text:0000000000000544 .L0 
     /tmp/ccIi9nRm.s:783    .text:000000000000055c .L0 
     /tmp/ccIi9nRm.s:784    .text:000000000000055c .L0 
     /tmp/ccIi9nRm.s:788    .text:000000000000056c .L0 
     /tmp/ccIi9nRm.s:789    .text:000000000000056c .L0 
     /tmp/ccIi9nRm.s:795    .text:0000000000000584 .L0 
     /tmp/ccIi9nRm.s:796    .text:0000000000000584 .L0 
     /tmp/ccIi9nRm.s:802    .text:0000000000000598 .L0 
     /tmp/ccIi9nRm.s:803    .text:0000000000000598 .L0 
     /tmp/ccIi9nRm.s:807    .text:00000000000005a0 .L0 
     /tmp/ccIi9nRm.s:808    .text:00000000000005a0 .L0 
     /tmp/ccIi9nRm.s:811    .text:00000000000005ac .L0 
     /tmp/ccIi9nRm.s:814    .text:00000000000005b8 .L0 
     /tmp/ccIi9nRm.s:817    .text:00000000000005c4 .L0 
     /tmp/ccIi9nRm.s:821    .text:00000000000005d0 .L0 
     /tmp/ccIi9nRm.s:826    .text:00000000000005d8 .L0 
     /tmp/ccIi9nRm.s:830    .text:00000000000005dc .L0 
     /tmp/ccIi9nRm.s:834    .text:00000000000005e4 .L0 
     /tmp/ccIi9nRm.s:835    .text:00000000000005e4 .L0 
     /tmp/ccIi9nRm.s:837    .text:00000000000005e8 .L0 
     /tmp/ccIi9nRm.s:839    .text:00000000000005ec .L0 
     /tmp/ccIi9nRm.s:850    .text:0000000000000608 .L0 
     /tmp/ccIi9nRm.s:851    .text:000000000000060c .L0 
     /tmp/ccIi9nRm.s:853    .text:0000000000000610 .L0 
     /tmp/ccIi9nRm.s:854    .text:0000000000000610 .L0 
     /tmp/ccIi9nRm.s:856    .text:0000000000000614 .L0 
     /tmp/ccIi9nRm.s:859    .text:0000000000000618 .L0 
     /tmp/ccIi9nRm.s:861    .text:000000000000061c .L0 
     /tmp/ccIi9nRm.s:863    .text:0000000000000620 .L0 
     /tmp/ccIi9nRm.s:867    .bss:0000000000000000 .LANCHOR0
GAS LISTING /tmp/ccIi9nRm.s 			page 27


     /tmp/ccIi9nRm.s:870    .bss:0000000000000000 _ZL9finishedA
     /tmp/ccIi9nRm.s:874    .bss:0000000000000001 _ZL9finishedB
     /tmp/ccIi9nRm.s:878    .bss:0000000000000002 _ZL9finishedC
     /tmp/ccIi9nRm.s:882    .bss:0000000000000003 _ZL9finishedD
     /tmp/ccIi9nRm.s:890    .text:0000000000000620 .L0 
     /tmp/ccIi9nRm.s:8      .rodata.str1.8:0000000000000000 .LC0
     /tmp/ccIi9nRm.s:92     .text:000000000000005c .L0 
     /tmp/ccIi9nRm.s:11     .rodata.str1.8:0000000000000008 .LC1
     /tmp/ccIi9nRm.s:104    .text:0000000000000080 .L0 
     /tmp/ccIi9nRm.s:14     .rodata.str1.8:0000000000000010 .LC2
     /tmp/ccIi9nRm.s:119    .text:0000000000000098 .L0 
     /tmp/ccIi9nRm.s:125    .text:00000000000000ac .L0 
     /tmp/ccIi9nRm.s:145    .rodata.str1.8:0000000000000020 .LC3
     /tmp/ccIi9nRm.s:225    .text:0000000000000128 .L0 
     /tmp/ccIi9nRm.s:237    .text:000000000000014c .L0 
     /tmp/ccIi9nRm.s:148    .rodata.str1.8:0000000000000028 .LC4
     /tmp/ccIi9nRm.s:252    .text:0000000000000164 .L0 
     /tmp/ccIi9nRm.s:258    .text:0000000000000178 .L0 
     /tmp/ccIi9nRm.s:352    .rodata.str1.8:0000000000000038 .LC5
     /tmp/ccIi9nRm.s:396    .text:0000000000000234 .L0 
     /tmp/ccIi9nRm.s:408    .text:0000000000000258 .L0 
     /tmp/ccIi9nRm.s:355    .rodata.str1.8:0000000000000040 .LC6
     /tmp/ccIi9nRm.s:423    .text:0000000000000278 .L0 
     /tmp/ccIi9nRm.s:358    .rodata.str1.8:0000000000000050 .LC7
     /tmp/ccIi9nRm.s:448    .text:0000000000000298 .L0 
     /tmp/ccIi9nRm.s:460    .text:00000000000002bc .L0 
     /tmp/ccIi9nRm.s:361    .rodata.str1.8:0000000000000058 .LC8
     /tmp/ccIi9nRm.s:472    .text:00000000000002dc .L0 
     /tmp/ccIi9nRm.s:485    .text:0000000000000300 .L0 
     /tmp/ccIi9nRm.s:492    .text:0000000000000314 .L0 
     /tmp/ccIi9nRm.s:504    .text:0000000000000338 .L0 
     /tmp/ccIi9nRm.s:364    .rodata.str1.8:0000000000000068 .LC9
     /tmp/ccIi9nRm.s:519    .text:0000000000000358 .L0 
     /tmp/ccIi9nRm.s:525    .text:000000000000036c .L0 
     /tmp/ccIi9nRm.s:550    .rodata.str1.8:0000000000000078 .LC10
     /tmp/ccIi9nRm.s:591    .text:00000000000003b4 .L0 
     /tmp/ccIi9nRm.s:603    .text:00000000000003d8 .L0 
     /tmp/ccIi9nRm.s:553    .rodata.str1.8:0000000000000080 .LC11
     /tmp/ccIi9nRm.s:618    .text:00000000000003f8 .L0 
     /tmp/ccIi9nRm.s:556    .rodata.str1.8:0000000000000090 .LC12
     /tmp/ccIi9nRm.s:641    .text:0000000000000424 .L0 
     /tmp/ccIi9nRm.s:654    .text:0000000000000448 .L0 
     /tmp/ccIi9nRm.s:661    .text:000000000000045c .L0 
     /tmp/ccIi9nRm.s:673    .text:0000000000000480 .L0 
     /tmp/ccIi9nRm.s:559    .rodata.str1.8:00000000000000a0 .LC13
     /tmp/ccIi9nRm.s:688    .text:00000000000004a0 .L0 
     /tmp/ccIi9nRm.s:694    .text:00000000000004b4 .L0 
     /tmp/ccIi9nRm.s:754    .text:00000000000004f8 .L0 
     /tmp/ccIi9nRm.s:719    .rodata.str1.8:00000000000000b0 .LC14
     /tmp/ccIi9nRm.s:760    .text:000000000000050c .L0 
     /tmp/ccIi9nRm.s:766    .text:0000000000000520 .L0 
     /tmp/ccIi9nRm.s:722    .rodata.str1.8:00000000000000c8 .LC15
     /tmp/ccIi9nRm.s:772    .text:0000000000000534 .L0 
     /tmp/ccIi9nRm.s:778    .text:0000000000000548 .L0 
     /tmp/ccIi9nRm.s:725    .rodata.str1.8:00000000000000e0 .LC16
     /tmp/ccIi9nRm.s:784    .text:000000000000055c .L0 
     /tmp/ccIi9nRm.s:790    .text:0000000000000570 .L0 
GAS LISTING /tmp/ccIi9nRm.s 			page 28


     /tmp/ccIi9nRm.s:728    .rodata.str1.8:00000000000000f8 .LC17
     /tmp/ccIi9nRm.s:796    .text:0000000000000584 .L0 
     /tmp/ccIi9nRm.s:808    .text:00000000000005a0 .L0 
     /tmp/ccIi9nRm.s:811    .text:00000000000005ac .L0 
     /tmp/ccIi9nRm.s:814    .text:00000000000005b8 .L0 
     /tmp/ccIi9nRm.s:817    .text:00000000000005c4 .L0 
     /tmp/ccIi9nRm.s:85     .text:0000000000000054 .L7
     /tmp/ccIi9nRm.s:77     .text:0000000000000050 .L3
     /tmp/ccIi9nRm.s:45     .text:0000000000000020 .L4
     /tmp/ccIi9nRm.s:66     .text:000000000000003c .L5
     /tmp/ccIi9nRm.s:113    .text:0000000000000098 .L2
     /tmp/ccIi9nRm.s:57     .text:000000000000002c .L6
     /tmp/ccIi9nRm.s:218    .text:0000000000000120 .L15
     /tmp/ccIi9nRm.s:210    .text:000000000000011c .L11
     /tmp/ccIi9nRm.s:178    .text:00000000000000ec .L12
     /tmp/ccIi9nRm.s:199    .text:0000000000000108 .L13
     /tmp/ccIi9nRm.s:246    .text:0000000000000164 .L10
     /tmp/ccIi9nRm.s:190    .text:00000000000000f8 .L14
     /tmp/ccIi9nRm.s:323    .text:00000000000001f0 .L17
     /tmp/ccIi9nRm.s:340    .text:0000000000000208 .L22
     /tmp/ccIi9nRm.s:310    .text:00000000000001d0 .L19
     /tmp/ccIi9nRm.s:416    .text:0000000000000270 .L25
     /tmp/ccIi9nRm.s:393    .text:0000000000000234 .L29
     /tmp/ccIi9nRm.s:512    .text:0000000000000350 .L27
     /tmp/ccIi9nRm.s:489    .text:0000000000000314 .L30
     /tmp/ccIi9nRm.s:611    .text:00000000000003f0 .L33
     /tmp/ccIi9nRm.s:588    .text:00000000000003b4 .L37
     /tmp/ccIi9nRm.s:681    .text:0000000000000498 .L35
     /tmp/ccIi9nRm.s:658    .text:000000000000045c .L38
     /tmp/ccIi9nRm.s:805    .text:00000000000005a0 .L42
     /tmp/ccIi9nRm.s:800    .text:0000000000000598 .L40
     /tmp/ccIi9nRm.s:828    .text:00000000000005dc .L41
     /tmp/ccIi9nRm.s:847    .text:0000000000000608 .L39
     /tmp/ccIi9nRm.s:824    .text:00000000000005d8 .L44
     /tmp/ccIi9nRm.s:2428   .debug_abbrev:0000000000000000 .Ldebug_abbrev0
     /tmp/ccIi9nRm.s:3498   .debug_str:000000000000008e .LASF94
     /tmp/ccIi9nRm.s:3500   .debug_str:000000000000013a .LASF95
     /tmp/ccIi9nRm.s:3666   .debug_str:0000000000000597 .LASF96
     /tmp/ccIi9nRm.s:5      .text:0000000000000000 .Ltext0
     /tmp/ccIi9nRm.s:885    .text:0000000000000620 .Letext0
     /tmp/ccIi9nRm.s:3478   .debug_line:0000000000000000 .Ldebug_line0
     /tmp/ccIi9nRm.s:3550   .debug_str:00000000000002c1 .LASF0
     /tmp/ccIi9nRm.s:3562   .debug_str:000000000000031a .LASF1
     /tmp/ccIi9nRm.s:3614   .debug_str:0000000000000466 .LASF2
     /tmp/ccIi9nRm.s:3534   .debug_str:000000000000024b .LASF3
     /tmp/ccIi9nRm.s:3620   .debug_str:0000000000000487 .LASF4
     /tmp/ccIi9nRm.s:3556   .debug_str:00000000000002f0 .LASF5
     /tmp/ccIi9nRm.s:3488   .debug_str:0000000000000039 .LASF6
     /tmp/ccIi9nRm.s:3606   .debug_str:000000000000043c .LASF7
     /tmp/ccIi9nRm.s:3592   .debug_str:00000000000003e8 .LASF8
     /tmp/ccIi9nRm.s:3558   .debug_str:0000000000000302 .LASF9
     /tmp/ccIi9nRm.s:3540   .debug_str:0000000000000273 .LASF10
     /tmp/ccIi9nRm.s:3542   .debug_str:0000000000000283 .LASF11
     /tmp/ccIi9nRm.s:3512   .debug_str:00000000000001bb .LASF12
     /tmp/ccIi9nRm.s:3536   .debug_str:0000000000000251 .LASF13
     /tmp/ccIi9nRm.s:3520   .debug_str:00000000000001ec .LASF14
     /tmp/ccIi9nRm.s:3510   .debug_str:00000000000001ab .LASF15
GAS LISTING /tmp/ccIi9nRm.s 			page 29


     /tmp/ccIi9nRm.s:3648   .debug_str:0000000000000541 .LASF16
     /tmp/ccIi9nRm.s:3530   .debug_str:0000000000000229 .LASF17
     /tmp/ccIi9nRm.s:3638   .debug_str:00000000000004e2 .LASF18
     /tmp/ccIi9nRm.s:3660   .debug_str:0000000000000574 .LASF19
     /tmp/ccIi9nRm.s:3656   .debug_str:0000000000000566 .LASF97
     /tmp/ccIi9nRm.s:3506   .debug_str:0000000000000193 .LASF20
     /tmp/ccIi9nRm.s:3634   .debug_str:00000000000004cc .LASF21
     /tmp/ccIi9nRm.s:3516   .debug_str:00000000000001d3 .LASF22
     /tmp/ccIi9nRm.s:3496   .debug_str:0000000000000085 .LASF23
     /tmp/ccIi9nRm.s:3596   .debug_str:0000000000000404 .LASF24
     /tmp/ccIi9nRm.s:3514   .debug_str:00000000000001ca .LASF25
     /tmp/ccIi9nRm.s:3650   .debug_str:000000000000054d .LASF64
     /tmp/ccIi9nRm.s:3548   .debug_str:00000000000002bb .LASF26
     /tmp/ccIi9nRm.s:3670   .debug_str:00000000000005c2 .LASF98
     /tmp/ccIi9nRm.s:3584   .debug_str:00000000000003ad .LASF99
     /tmp/ccIi9nRm.s:3560   .debug_str:0000000000000315 .LASF27
     /tmp/ccIi9nRm.s:3688   .debug_str:000000000000062f .LASF29
     /tmp/ccIi9nRm.s:3686   .debug_str:0000000000000629 .LASF28
     /tmp/ccIi9nRm.s:3662   .debug_str:000000000000057d .LASF30
     /tmp/ccIi9nRm.s:3526   .debug_str:000000000000021a .LASF100
     /tmp/ccIi9nRm.s:3490   .debug_str:0000000000000040 .LASF101
     /tmp/ccIi9nRm.s:3564   .debug_str:000000000000032d .LASF36
     /tmp/ccIi9nRm.s:3586   .debug_str:00000000000003b2 .LASF38
     /tmp/ccIi9nRm.s:3658   .debug_str:000000000000056c .LASF31
     /tmp/ccIi9nRm.s:3674   .debug_str:00000000000005df .LASF32
     /tmp/ccIi9nRm.s:3630   .debug_str:00000000000004b2 .LASF33
     /tmp/ccIi9nRm.s:3566   .debug_str:0000000000000333 .LASF40
     /tmp/ccIi9nRm.s:3568   .debug_str:0000000000000340 .LASF42
     /tmp/ccIi9nRm.s:3690   .debug_str:000000000000063b .LASF34
     /tmp/ccIi9nRm.s:3532   .debug_str:000000000000023f .LASF35
     /tmp/ccIi9nRm.s:3486   .debug_str:0000000000000029 .LASF37
     /tmp/ccIi9nRm.s:3554   .debug_str:00000000000002e3 .LASF39
     /tmp/ccIi9nRm.s:3632   .debug_str:00000000000004c3 .LASF41
     /tmp/ccIi9nRm.s:3578   .debug_str:0000000000000381 .LASF43
     /tmp/ccIi9nRm.s:3616   .debug_str:0000000000000474 .LASF44
     /tmp/ccIi9nRm.s:3642   .debug_str:0000000000000504 .LASF45
     /tmp/ccIi9nRm.s:3580   .debug_str:0000000000000394 .LASF46
     /tmp/ccIi9nRm.s:3482   .debug_str:000000000000000a .LASF47
     /tmp/ccIi9nRm.s:3680   .debug_str:0000000000000603 .LASF48
     /tmp/ccIi9nRm.s:3590   .debug_str:00000000000003ce .LASF49
     /tmp/ccIi9nRm.s:3636   .debug_str:00000000000004d4 .LASF50
     /tmp/ccIi9nRm.s:3608   .debug_str:0000000000000443 .LASF51
     /tmp/ccIi9nRm.s:3524   .debug_str:000000000000020a .LASF52
     /tmp/ccIi9nRm.s:3684   .debug_str:000000000000061e .LASF53
     /tmp/ccIi9nRm.s:3626   .debug_str:00000000000004a2 .LASF102
     /tmp/ccIi9nRm.s:3664   .debug_str:000000000000058d .LASF54
     /tmp/ccIi9nRm.s:3588   .debug_str:00000000000003c2 .LASF55
     /tmp/ccIi9nRm.s:3522   .debug_str:00000000000001fc .LASF56
     /tmp/ccIi9nRm.s:3492   .debug_str:0000000000000053 .LASF58
     /tmp/ccIi9nRm.s:3552   .debug_str:00000000000002ce .LASF57
     /tmp/ccIi9nRm.s:3504   .debug_str:0000000000000167 .LASF59
     /tmp/ccIi9nRm.s:3676   .debug_str:00000000000005ea .LASF103
     /tmp/ccIi9nRm.s:3502   .debug_str:0000000000000156 .LASF104
     /tmp/ccIi9nRm.s:3484   .debug_str:0000000000000024 .LASF60
     /tmp/ccIi9nRm.s:3672   .debug_str:00000000000005da .LASF61
     /tmp/ccIi9nRm.s:3570   .debug_str:0000000000000358 .LASF62
     /tmp/ccIi9nRm.s:3528   .debug_str:0000000000000223 .LASF63
GAS LISTING /tmp/ccIi9nRm.s 			page 30


     /tmp/ccIi9nRm.s:3668   .debug_str:00000000000005ba .LASF65
     /tmp/ccIi9nRm.s:3494   .debug_str:000000000000007b .LASF66
     /tmp/ccIi9nRm.s:3652   .debug_str:0000000000000555 .LASF67
     /tmp/ccIi9nRm.s:3618   .debug_str:000000000000047d .LASF68
     /tmp/ccIi9nRm.s:3572   .debug_str:0000000000000360 .LASF69
     /tmp/ccIi9nRm.s:3582   .debug_str:00000000000003a3 .LASF70
     /tmp/ccIi9nRm.s:3622   .debug_str:000000000000048e .LASF71
     /tmp/ccIi9nRm.s:3624   .debug_str:0000000000000498 .LASF72
     /tmp/ccIi9nRm.s:3538   .debug_str:0000000000000260 .LASF73
     /tmp/ccIi9nRm.s:3546   .debug_str:00000000000002a3 .LASF74
     /tmp/ccIi9nRm.s:735    .text:00000000000004dc .LFB28
     /tmp/ccIi9nRm.s:864    .text:0000000000000620 .LFE28
     /tmp/ccIi9nRm.s:3628   .debug_str:00000000000004aa .LASF75
     /tmp/ccIi9nRm.s:819    .text:00000000000005d0 .LBB18
     /tmp/ccIi9nRm.s:848    .text:0000000000000608 .LBE18
     /tmp/ccIi9nRm.s:3612   .debug_str:000000000000045f .LASF76
     /tmp/ccIi9nRm.s:3215   .debug_loc:0000000000000000 .LLST16
     /tmp/ccIi9nRm.s:3640   .debug_str:00000000000004f8 .LASF77
     /tmp/ccIi9nRm.s:3654   .debug_str:000000000000055a .LASF105
     /tmp/ccIi9nRm.s:3226   .debug_loc:0000000000000036 .LLST17
     /tmp/ccIi9nRm.s:3480   .debug_str:0000000000000000 .LASF78
     /tmp/ccIi9nRm.s:841    .text:00000000000005f8 .LVL104
     /tmp/ccIi9nRm.s:844    .text:0000000000000604 .LVL105
     /tmp/ccIi9nRm.s:757    .text:000000000000050c .LVL92
     /tmp/ccIi9nRm.s:762    .text:000000000000051c .LVL93
     /tmp/ccIi9nRm.s:769    .text:0000000000000534 .LVL94
     /tmp/ccIi9nRm.s:774    .text:0000000000000544 .LVL95
     /tmp/ccIi9nRm.s:781    .text:000000000000055c .LVL96
     /tmp/ccIi9nRm.s:786    .text:000000000000056c .LVL97
     /tmp/ccIi9nRm.s:793    .text:0000000000000584 .LVL98
     /tmp/ccIi9nRm.s:798    .text:0000000000000594 .LVL99
     /tmp/ccIi9nRm.s:804    .text:00000000000005a0 .LVL100
     /tmp/ccIi9nRm.s:3604   .debug_str:0000000000000430 .LASF79
     /tmp/ccIi9nRm.s:3678   .debug_str:00000000000005f1 .LASF80
     /tmp/ccIi9nRm.s:566    .text:0000000000000394 .LFB27
     /tmp/ccIi9nRm.s:715    .text:00000000000004dc .LFE27
     /tmp/ccIi9nRm.s:3233   .debug_loc:0000000000000059 .LLST13
     /tmp/ccIi9nRm.s:3247   .debug_loc:0000000000000092 .LLST14
     /tmp/ccIi9nRm.s:3692   .debug_str:0000000000000648 .LASF81
     /tmp/ccIi9nRm.s:3267   .debug_loc:00000000000000ef .LLST15
     /tmp/ccIi9nRm.s:593    .text:00000000000003c4 .LVL70
     /tmp/ccIi9nRm.s:600    .text:00000000000003d8 .LVL71
     /tmp/ccIi9nRm.s:605    .text:00000000000003e8 .LVL72
     /tmp/ccIi9nRm.s:620    .text:0000000000000408 .LVL75
     /tmp/ccIi9nRm.s:631    .text:0000000000000414 .LVL76
     /tmp/ccIi9nRm.s:636    .text:0000000000000420 .LVL77
     /tmp/ccIi9nRm.s:644    .text:0000000000000434 .LVL80
     /tmp/ccIi9nRm.s:651    .text:0000000000000448 .LVL81
     /tmp/ccIi9nRm.s:656    .text:0000000000000458 .LVL82
     /tmp/ccIi9nRm.s:663    .text:000000000000046c .LVL83
     /tmp/ccIi9nRm.s:670    .text:0000000000000480 .LVL84
     /tmp/ccIi9nRm.s:675    .text:0000000000000490 .LVL85
     /tmp/ccIi9nRm.s:690    .text:00000000000004b0 .LVL88
     /tmp/ccIi9nRm.s:698    .text:00000000000004c4 .LVL89
     /tmp/ccIi9nRm.s:3602   .debug_str:0000000000000424 .LASF82
     /tmp/ccIi9nRm.s:3508   .debug_str:0000000000000199 .LASF83
     /tmp/ccIi9nRm.s:371    .text:0000000000000214 .LFB26
GAS LISTING /tmp/ccIi9nRm.s 			page 31


     /tmp/ccIi9nRm.s:546    .text:0000000000000394 .LFE26
     /tmp/ccIi9nRm.s:3278   .debug_loc:0000000000000125 .LLST9
     /tmp/ccIi9nRm.s:3292   .debug_loc:000000000000015e .LLST10
     /tmp/ccIi9nRm.s:3312   .debug_loc:00000000000001bb .LLST11
     /tmp/ccIi9nRm.s:3320   .debug_loc:00000000000001df .LLST12
     /tmp/ccIi9nRm.s:398    .text:0000000000000244 .LVL41
     /tmp/ccIi9nRm.s:405    .text:0000000000000258 .LVL42
     /tmp/ccIi9nRm.s:410    .text:0000000000000268 .LVL43
     /tmp/ccIi9nRm.s:425    .text:0000000000000288 .LVL46
     /tmp/ccIi9nRm.s:436    .text:0000000000000294 .LVL47
     /tmp/ccIi9nRm.s:450    .text:00000000000002a8 .LVL49
     /tmp/ccIi9nRm.s:457    .text:00000000000002bc .LVL50
     /tmp/ccIi9nRm.s:462    .text:00000000000002cc .LVL51
     /tmp/ccIi9nRm.s:467    .text:00000000000002d8 .LVL52
     /tmp/ccIi9nRm.s:475    .text:00000000000002ec .LVL55
     /tmp/ccIi9nRm.s:482    .text:0000000000000300 .LVL56
     /tmp/ccIi9nRm.s:487    .text:0000000000000310 .LVL57
     /tmp/ccIi9nRm.s:494    .text:0000000000000324 .LVL58
     /tmp/ccIi9nRm.s:501    .text:0000000000000338 .LVL59
     /tmp/ccIi9nRm.s:506    .text:0000000000000348 .LVL60
     /tmp/ccIi9nRm.s:521    .text:0000000000000368 .LVL63
     /tmp/ccIi9nRm.s:529    .text:000000000000037c .LVL64
     /tmp/ccIi9nRm.s:3600   .debug_str:0000000000000418 .LASF84
     /tmp/ccIi9nRm.s:3544   .debug_str:0000000000000291 .LASF85
     /tmp/ccIi9nRm.s:155    .text:00000000000000cc .LFB25
     /tmp/ccIi9nRm.s:278    .text:00000000000001a0 .LFE25
     /tmp/ccIi9nRm.s:3331   .debug_loc:0000000000000215 .LLST4
     /tmp/ccIi9nRm.s:173    .text:00000000000000e4 .LBB10
     /tmp/ccIi9nRm.s:249    .text:0000000000000164 .LBE10
     /tmp/ccIi9nRm.s:3345   .debug_loc:000000000000024e .LLST5
     /tmp/ccIi9nRm.s:3464   .debug_ranges:0000000000000000 .Ldebug_ranges0
     /tmp/ccIi9nRm.s:3357   .debug_loc:0000000000000285 .LLST6
     /tmp/ccIi9nRm.s:196    .text:0000000000000104 .LBB14
     /tmp/ccIi9nRm.s:211    .text:000000000000011c .LBE14
     /tmp/ccIi9nRm.s:3369   .debug_loc:00000000000002bc .LLST7
     /tmp/ccIi9nRm.s:185    .text:00000000000000f4 .LVL18
     /tmp/ccIi9nRm.s:227    .text:0000000000000138 .LVL24
     /tmp/ccIi9nRm.s:234    .text:000000000000014c .LVL25
     /tmp/ccIi9nRm.s:239    .text:000000000000015c .LVL26
     /tmp/ccIi9nRm.s:254    .text:0000000000000174 .LVL28
     /tmp/ccIi9nRm.s:262    .text:0000000000000188 .LVL29
     /tmp/ccIi9nRm.s:3598   .debug_str:000000000000040c .LASF86
     /tmp/ccIi9nRm.s:3576   .debug_str:000000000000036f .LASF87
     /tmp/ccIi9nRm.s:21     .text:0000000000000000 .LFB24
     /tmp/ccIi9nRm.s:141    .text:00000000000000cc .LFE24
     /tmp/ccIi9nRm.s:3380   .debug_loc:00000000000002f2 .LLST0
     /tmp/ccIi9nRm.s:40     .text:0000000000000018 .LBB2
     /tmp/ccIi9nRm.s:116    .text:0000000000000098 .LBE2
     /tmp/ccIi9nRm.s:3394   .debug_loc:000000000000032b .LLST1
     /tmp/ccIi9nRm.s:3406   .debug_loc:0000000000000362 .LLST2
     /tmp/ccIi9nRm.s:63     .text:0000000000000038 .LBB6
     /tmp/ccIi9nRm.s:78     .text:0000000000000050 .LBE6
     /tmp/ccIi9nRm.s:3418   .debug_loc:0000000000000399 .LLST3
     /tmp/ccIi9nRm.s:52     .text:0000000000000028 .LVL3
     /tmp/ccIi9nRm.s:94     .text:000000000000006c .LVL9
     /tmp/ccIi9nRm.s:101    .text:0000000000000080 .LVL10
     /tmp/ccIi9nRm.s:106    .text:0000000000000090 .LVL11
GAS LISTING /tmp/ccIi9nRm.s 			page 32


     /tmp/ccIi9nRm.s:121    .text:00000000000000a8 .LVL13
     /tmp/ccIi9nRm.s:3574   .debug_str:0000000000000365 .LASF106
     /tmp/ccIi9nRm.s:283    .text:00000000000001a0 .LFB23
     /tmp/ccIi9nRm.s:348    .text:0000000000000214 .LFE23
     /tmp/ccIi9nRm.s:3429   .debug_loc:00000000000003cf .LLST8
     /tmp/ccIi9nRm.s:315    .text:00000000000001dc .LVL33
     /tmp/ccIi9nRm.s:320    .text:00000000000001ec .LVL34
     /tmp/ccIi9nRm.s:345    .text:0000000000000210 .LVL37
     /tmp/ccIi9nRm.s:3646   .debug_str:0000000000000533 .LASF88
     /tmp/ccIi9nRm.s:3644   .debug_str:0000000000000520 .LASF89
     /tmp/ccIi9nRm.s:3682   .debug_str:0000000000000612 .LASF90
     /tmp/ccIi9nRm.s:3610   .debug_str:000000000000044f .LASF91
     /tmp/ccIi9nRm.s:3518   .debug_str:00000000000001dd .LASF92
     /tmp/ccIi9nRm.s:3594   .debug_str:00000000000003fb .LASF93
     /tmp/ccIi9nRm.s:823    .text:00000000000005d8 .LVL101
     /tmp/ccIi9nRm.s:827    .text:00000000000005dc .LVL102
     /tmp/ccIi9nRm.s:832    .text:00000000000005e4 .LVL103
     /tmp/ccIi9nRm.s:846    .text:0000000000000608 .LVL106
     /tmp/ccIi9nRm.s:857    .text:0000000000000614 .LVL107
     /tmp/ccIi9nRm.s:569    .text:0000000000000394 .LVL67
     /tmp/ccIi9nRm.s:587    .text:00000000000003b4 .LVL69
     /tmp/ccIi9nRm.s:583    .text:00000000000003ac .LVL68
     /tmp/ccIi9nRm.s:608    .text:00000000000003ec .LVL73
     /tmp/ccIi9nRm.s:610    .text:00000000000003f0 .LVL74
     /tmp/ccIi9nRm.s:678    .text:0000000000000494 .LVL86
     /tmp/ccIi9nRm.s:680    .text:0000000000000498 .LVL87
     /tmp/ccIi9nRm.s:707    .text:00000000000004d0 .LVL90
     /tmp/ccIi9nRm.s:638    .text:0000000000000424 .LVL78
     /tmp/ccIi9nRm.s:642    .text:000000000000042c .LVL79
     /tmp/ccIi9nRm.s:710    .text:00000000000004d4 .LVL91
     /tmp/ccIi9nRm.s:374    .text:0000000000000214 .LVL38
     /tmp/ccIi9nRm.s:392    .text:0000000000000234 .LVL40
     /tmp/ccIi9nRm.s:388    .text:000000000000022c .LVL39
     /tmp/ccIi9nRm.s:413    .text:000000000000026c .LVL44
     /tmp/ccIi9nRm.s:415    .text:0000000000000270 .LVL45
     /tmp/ccIi9nRm.s:509    .text:000000000000034c .LVL61
     /tmp/ccIi9nRm.s:511    .text:0000000000000350 .LVL62
     /tmp/ccIi9nRm.s:538    .text:0000000000000388 .LVL65
     /tmp/ccIi9nRm.s:444    .text:0000000000000298 .LVL48
     /tmp/ccIi9nRm.s:469    .text:00000000000002dc .LVL53
     /tmp/ccIi9nRm.s:473    .text:00000000000002e4 .LVL54
     /tmp/ccIi9nRm.s:541    .text:000000000000038c .LVL66
     /tmp/ccIi9nRm.s:158    .text:00000000000000cc .LVL15
     /tmp/ccIi9nRm.s:177    .text:00000000000000ec .LVL17
     /tmp/ccIi9nRm.s:172    .text:00000000000000e4 .LVL16
     /tmp/ccIi9nRm.s:273    .text:0000000000000198 .LVL30
     /tmp/ccIi9nRm.s:217    .text:0000000000000120 .LVL23
     /tmp/ccIi9nRm.s:245    .text:0000000000000164 .LVL27
     /tmp/ccIi9nRm.s:200    .text:0000000000000108 .LVL20
     /tmp/ccIi9nRm.s:209    .text:000000000000011c .LVL22
     /tmp/ccIi9nRm.s:25     .text:0000000000000000 .LVL0
     /tmp/ccIi9nRm.s:44     .text:0000000000000020 .LVL2
     /tmp/ccIi9nRm.s:39     .text:0000000000000018 .LVL1
     /tmp/ccIi9nRm.s:136    .text:00000000000000c4 .LVL14
     /tmp/ccIi9nRm.s:84     .text:0000000000000054 .LVL8
     /tmp/ccIi9nRm.s:112    .text:0000000000000098 .LVL12
     /tmp/ccIi9nRm.s:67     .text:000000000000003c .LVL5
GAS LISTING /tmp/ccIi9nRm.s 			page 33


     /tmp/ccIi9nRm.s:76     .text:0000000000000050 .LVL7
     /tmp/ccIi9nRm.s:286    .text:00000000000001a0 .LVL31
     /tmp/ccIi9nRm.s:309    .text:00000000000001d0 .LVL32
     /tmp/ccIi9nRm.s:333    .text:00000000000001fc .LVL35
     /tmp/ccIi9nRm.s:339    .text:0000000000000208 .LVL36
     /tmp/ccIi9nRm.s:891    .debug_info:0000000000000000 .Ldebug_info0
     /tmp/ccIi9nRm.s:47     .text:0000000000000020 .LBB4
     /tmp/ccIi9nRm.s:80     .text:0000000000000050 .LBE4
     /tmp/ccIi9nRm.s:108    .text:0000000000000090 .LBB8
     /tmp/ccIi9nRm.s:114    .text:0000000000000098 .LBE8
     /tmp/ccIi9nRm.s:180    .text:00000000000000ec .LBB12
     /tmp/ccIi9nRm.s:213    .text:000000000000011c .LBE12
     /tmp/ccIi9nRm.s:241    .text:000000000000015c .LBB16
     /tmp/ccIi9nRm.s:247    .text:0000000000000164 .LBE16

UNDEFINED SYMBOLS
thread_dispatch
_Z11printStringPKc
_Z8printIntiii
thread_create
_ZN3PCBD1Ev
_ZN3PCBdlEPv
