GAS LISTING /tmp/cc1ENCv0.s 			page 1


   1              		.file	"Threads_C_API_test.cpp"
   2              		.option pic
   3              		.option norelax
   4              		.text
   5              	.Ltext0:
   6              		.section	.rodata.str1.8,"aMS",@progbits,1
   7              		.align	3
   8              	.LC0:
   9 0000 413A2069 		.string	"A: i="
   9      3D00
  10 0006 0000     		.align	3
  11              	.LC1:
  12 0008 0A00     		.string	"\n"
  13 000a 00000000 		.align	3
  13      0000
  14              	.LC2:
  15 0010 41206669 		.string	"A finished!\n"
  15      6E697368 
  15      6564210A 
  15      00
  16              		.text
  17              		.align	2
  18              		.globl	_Z11workerBodyAPv
  20              	_Z11workerBodyAPv:
  21              	.LFB24:
  22              		.file 1 "test/Threads_C_API_test.cpp"
   1:test/Threads_C_API_test.cpp **** //
   2:test/Threads_C_API_test.cpp **** // Created by os on 5/16/22.
   3:test/Threads_C_API_test.cpp **** //
   4:test/Threads_C_API_test.cpp **** 
   5:test/Threads_C_API_test.cpp **** #include "Threads_C_API_test.hpp"
   6:test/Threads_C_API_test.cpp **** 
   7:test/Threads_C_API_test.cpp **** static bool finishedA = false;
   8:test/Threads_C_API_test.cpp **** static bool finishedB = false;
   9:test/Threads_C_API_test.cpp **** static bool finishedC = false;
  10:test/Threads_C_API_test.cpp **** static bool finishedD = false;
  11:test/Threads_C_API_test.cpp **** 
  12:test/Threads_C_API_test.cpp **** static uint64 fibonacci(uint64 n) {
  13:test/Threads_C_API_test.cpp ****     if (n == 0 || n == 1) { return n; }
  14:test/Threads_C_API_test.cpp ****     if (n % 10 == 0) { thread_dispatch(); }
  15:test/Threads_C_API_test.cpp ****     return fibonacci(n - 1) + fibonacci(n - 2);
  16:test/Threads_C_API_test.cpp **** }
  17:test/Threads_C_API_test.cpp **** 
  18:test/Threads_C_API_test.cpp **** void workerBodyA(void* arg) {
  23              		.loc 1 18 29
  24              		.cfi_startproc
  25              	.LVL0:
  26 0000 130101FE 		addi	sp,sp,-32
  27              		.cfi_def_cfa_offset 32
  28 0004 233C1100 		sd	ra,24(sp)
  29 0008 23388100 		sd	s0,16(sp)
  30 000c 23349100 		sd	s1,8(sp)
  31 0010 23302101 		sd	s2,0(sp)
  32              		.cfi_offset 1, -8
  33              		.cfi_offset 8, -16
  34              		.cfi_offset 9, -24
  35              		.cfi_offset 18, -32
GAS LISTING /tmp/cc1ENCv0.s 			page 2


  36 0014 13040102 		addi	s0,sp,32
  37              		.cfi_def_cfa 8, 0
  19:test/Threads_C_API_test.cpp ****     for (uint64 i = 0; i < 10; i++) {
  38              		.loc 1 19 5
  39              	.LVL1:
  40              	.LBB2:
  41              		.loc 1 19 17 is_stmt 0
  42 0018 13090000 		li	s2,0
  43 001c 6F004003 		j	.L7
  44              	.LVL2:
  45              	.L4:
  46              	.LBB3:
  47              	.LBB4:
  48              	.LBB5:
  20:test/Threads_C_API_test.cpp ****         printString("A: i="); printInt(i); printString("\n");
  21:test/Threads_C_API_test.cpp ****         for (uint64 j = 0; j < 500; j++) {
  22:test/Threads_C_API_test.cpp ****             //Riscv::printString("A j : ");
  23:test/Threads_C_API_test.cpp ****             //Riscv::printInteger(j);
  24:test/Threads_C_API_test.cpp ****             for (uint64 k = 0; k < 3000; k++) { /* busy wait */ }
  25:test/Threads_C_API_test.cpp ****             thread_dispatch();
  49              		.loc 1 25 13 is_stmt 1 discriminator 2
  50              		.loc 1 25 28 is_stmt 0 discriminator 2
  51 0020 97000000 		call	thread_dispatch@plt
  51      E7800000 
  52              	.LVL3:
  53              	.LBE5:
  21:test/Threads_C_API_test.cpp ****             //Riscv::printString("A j : ");
  54              		.loc 1 21 9 is_stmt 1 discriminator 2
  55 0028 93841400 		addi	s1,s1,1
  56              	.LVL4:
  57              	.L6:
  21:test/Threads_C_API_test.cpp ****             //Riscv::printString("A j : ");
  58              		.loc 1 21 30 discriminator 1
  59 002c 9307301F 		li	a5,499
  60 0030 63EE9700 		bgtu	s1,a5,.L3
  61              	.LBB7:
  62              	.LBB6:
  24:test/Threads_C_API_test.cpp ****             thread_dispatch();
  63              		.loc 1 24 25 is_stmt 0
  64 0034 13070000 		li	a4,0
  65              	.L5:
  66              	.LVL5:
  24:test/Threads_C_API_test.cpp ****             thread_dispatch();
  67              		.loc 1 24 34 is_stmt 1 discriminator 3
  68 0038 B7170000 		li	a5,4096
  69 003c 938777BB 		addi	a5,a5,-1097
  70 0040 E3E0E7FE 		bgtu	a4,a5,.L4
  24:test/Threads_C_API_test.cpp ****             thread_dispatch();
  71              		.loc 1 24 13 discriminator 2
  72 0044 13071700 		addi	a4,a4,1
  73              	.LVL6:
  74 0048 6FF01FFF 		j	.L5
  75              	.LVL7:
  76              	.L3:
  77              	.LBE6:
  78              	.LBE7:
  79              	.LBE4:
GAS LISTING /tmp/cc1ENCv0.s 			page 3


  80              	.LBE3:
  19:test/Threads_C_API_test.cpp ****         printString("A: i="); printInt(i); printString("\n");
  81              		.loc 1 19 5 discriminator 2
  82 004c 13091900 		addi	s2,s2,1
  83              	.LVL8:
  84              	.L7:
  19:test/Threads_C_API_test.cpp ****         printString("A: i="); printInt(i); printString("\n");
  85              		.loc 1 19 26 discriminator 1
  86 0050 93079000 		li	a5,9
  87 0054 63E02705 		bgtu	s2,a5,.L2
  88              	.LBB9:
  20:test/Threads_C_API_test.cpp ****         for (uint64 j = 0; j < 500; j++) {
  89              		.loc 1 20 9
  20:test/Threads_C_API_test.cpp ****         for (uint64 j = 0; j < 500; j++) {
  90              		.loc 1 20 20 is_stmt 0
  91 0058 17050000 		lla	a0,.LC0
  91      13050500 
  92 0060 97000000 		call	_Z11printStringPKc@plt
  92      E7800000 
  93              	.LVL9:
  20:test/Threads_C_API_test.cpp ****         for (uint64 j = 0; j < 500; j++) {
  94              		.loc 1 20 31 is_stmt 1
  20:test/Threads_C_API_test.cpp ****         for (uint64 j = 0; j < 500; j++) {
  95              		.loc 1 20 39 is_stmt 0
  96 0068 13060000 		li	a2,0
  97 006c 9305A000 		li	a1,10
  98 0070 1B050900 		sext.w	a0,s2
  99 0074 97000000 		call	_Z8printIntiii@plt
  99      E7800000 
 100              	.LVL10:
  20:test/Threads_C_API_test.cpp ****         for (uint64 j = 0; j < 500; j++) {
 101              		.loc 1 20 44 is_stmt 1
  20:test/Threads_C_API_test.cpp ****         for (uint64 j = 0; j < 500; j++) {
 102              		.loc 1 20 55 is_stmt 0
 103 007c 17050000 		lla	a0,.LC1
 103      13050500 
 104 0084 97000000 		call	_Z11printStringPKc@plt
 104      E7800000 
 105              	.LVL11:
  21:test/Threads_C_API_test.cpp ****             //Riscv::printString("A j : ");
 106              		.loc 1 21 9 is_stmt 1
 107              	.LBB8:
  21:test/Threads_C_API_test.cpp ****             //Riscv::printString("A j : ");
 108              		.loc 1 21 21 is_stmt 0
 109 008c 93040000 		li	s1,0
 110 0090 6FF0DFF9 		j	.L6
 111              	.LVL12:
 112              	.L2:
 113              	.LBE8:
 114              	.LBE9:
 115              	.LBE2:
  26:test/Threads_C_API_test.cpp ****         }
  27:test/Threads_C_API_test.cpp ****     }
  28:test/Threads_C_API_test.cpp ****     printString("A finished!\n");
 116              		.loc 1 28 5 is_stmt 1
 117              		.loc 1 28 16 is_stmt 0
 118 0094 17050000 		lla	a0,.LC2
GAS LISTING /tmp/cc1ENCv0.s 			page 4


 118      13050500 
 119 009c 97000000 		call	_Z11printStringPKc@plt
 119      E7800000 
 120              	.LVL13:
  29:test/Threads_C_API_test.cpp ****     finishedA = true;
 121              		.loc 1 29 5 is_stmt 1
 122              		.loc 1 29 15 is_stmt 0
 123 00a4 93071000 		li	a5,1
 124 00a8 17070000 		sb	a5,.LANCHOR0,a4
 124      2300F700 
  30:test/Threads_C_API_test.cpp **** }
 125              		.loc 1 30 1
 126 00b0 83308101 		ld	ra,24(sp)
 127              		.cfi_restore 1
 128 00b4 03340101 		ld	s0,16(sp)
 129              		.cfi_restore 8
 130              		.cfi_def_cfa 2, 32
 131 00b8 83348100 		ld	s1,8(sp)
 132              		.cfi_restore 9
 133 00bc 03390100 		ld	s2,0(sp)
 134              		.cfi_restore 18
 135              	.LVL14:
 136 00c0 13010102 		addi	sp,sp,32
 137              		.cfi_def_cfa_offset 0
 138 00c4 67800000 		jr	ra
 139              		.cfi_endproc
 140              	.LFE24:
 142              		.section	.rodata.str1.8
 143 001d 000000   		.align	3
 144              	.LC3:
 145 0020 423A2069 		.string	"B: i="
 145      3D00
 146 0026 0000     		.align	3
 147              	.LC4:
 148 0028 42206669 		.string	"B finished!\n"
 148      6E697368 
 148      6564210A 
 148      00
 149              		.text
 150              		.align	2
 151              		.globl	_Z11workerBodyBPv
 153              	_Z11workerBodyBPv:
 154              	.LFB25:
  31:test/Threads_C_API_test.cpp **** 
  32:test/Threads_C_API_test.cpp **** void workerBodyB(void* arg) {
 155              		.loc 1 32 29 is_stmt 1
 156              		.cfi_startproc
 157              	.LVL15:
 158 00c8 130101FE 		addi	sp,sp,-32
 159              		.cfi_def_cfa_offset 32
 160 00cc 233C1100 		sd	ra,24(sp)
 161 00d0 23388100 		sd	s0,16(sp)
 162 00d4 23349100 		sd	s1,8(sp)
 163 00d8 23302101 		sd	s2,0(sp)
 164              		.cfi_offset 1, -8
 165              		.cfi_offset 8, -16
 166              		.cfi_offset 9, -24
GAS LISTING /tmp/cc1ENCv0.s 			page 5


 167              		.cfi_offset 18, -32
 168 00dc 13040102 		addi	s0,sp,32
 169              		.cfi_def_cfa 8, 0
  33:test/Threads_C_API_test.cpp ****     for (uint64 i = 0; i < 16; i++) {
 170              		.loc 1 33 5
 171              	.LVL16:
 172              	.LBB10:
 173              		.loc 1 33 17 is_stmt 0
 174 00e0 13090000 		li	s2,0
 175 00e4 6F004003 		j	.L15
 176              	.LVL17:
 177              	.L12:
 178              	.LBB11:
 179              	.LBB12:
 180              	.LBB13:
  34:test/Threads_C_API_test.cpp ****         printString("B: i="); printInt(i); printString("\n");
  35:test/Threads_C_API_test.cpp ****         for (uint64 j = 0; j < 500; j++) {
  36:test/Threads_C_API_test.cpp ****             //Riscv::printString("B j : ");
  37:test/Threads_C_API_test.cpp ****             //Riscv::printInteger(j);
  38:test/Threads_C_API_test.cpp ****             for (uint64 k = 0; k < 3000; k++) { /* busy wait */ }
  39:test/Threads_C_API_test.cpp ****             thread_dispatch();
 181              		.loc 1 39 13 is_stmt 1 discriminator 2
 182              		.loc 1 39 28 is_stmt 0 discriminator 2
 183 00e8 97000000 		call	thread_dispatch@plt
 183      E7800000 
 184              	.LVL18:
 185              	.LBE13:
  35:test/Threads_C_API_test.cpp ****             //Riscv::printString("B j : ");
 186              		.loc 1 35 9 is_stmt 1 discriminator 2
 187 00f0 93841400 		addi	s1,s1,1
 188              	.LVL19:
 189              	.L14:
  35:test/Threads_C_API_test.cpp ****             //Riscv::printString("B j : ");
 190              		.loc 1 35 30 discriminator 1
 191 00f4 9307301F 		li	a5,499
 192 00f8 63EE9700 		bgtu	s1,a5,.L11
 193              	.LBB15:
 194              	.LBB14:
  38:test/Threads_C_API_test.cpp ****             thread_dispatch();
 195              		.loc 1 38 25 is_stmt 0
 196 00fc 13070000 		li	a4,0
 197              	.L13:
 198              	.LVL20:
  38:test/Threads_C_API_test.cpp ****             thread_dispatch();
 199              		.loc 1 38 34 is_stmt 1 discriminator 3
 200 0100 B7170000 		li	a5,4096
 201 0104 938777BB 		addi	a5,a5,-1097
 202 0108 E3E0E7FE 		bgtu	a4,a5,.L12
  38:test/Threads_C_API_test.cpp ****             thread_dispatch();
 203              		.loc 1 38 13 discriminator 2
 204 010c 13071700 		addi	a4,a4,1
 205              	.LVL21:
 206 0110 6FF01FFF 		j	.L13
 207              	.LVL22:
 208              	.L11:
 209              	.LBE14:
 210              	.LBE15:
GAS LISTING /tmp/cc1ENCv0.s 			page 6


 211              	.LBE12:
 212              	.LBE11:
  33:test/Threads_C_API_test.cpp ****         printString("B: i="); printInt(i); printString("\n");
 213              		.loc 1 33 5 discriminator 2
 214 0114 13091900 		addi	s2,s2,1
 215              	.LVL23:
 216              	.L15:
  33:test/Threads_C_API_test.cpp ****         printString("B: i="); printInt(i); printString("\n");
 217              		.loc 1 33 26 discriminator 1
 218 0118 9307F000 		li	a5,15
 219 011c 63E02705 		bgtu	s2,a5,.L10
 220              	.LBB17:
  34:test/Threads_C_API_test.cpp ****         for (uint64 j = 0; j < 500; j++) {
 221              		.loc 1 34 9
  34:test/Threads_C_API_test.cpp ****         for (uint64 j = 0; j < 500; j++) {
 222              		.loc 1 34 20 is_stmt 0
 223 0120 17050000 		lla	a0,.LC3
 223      13050500 
 224 0128 97000000 		call	_Z11printStringPKc@plt
 224      E7800000 
 225              	.LVL24:
  34:test/Threads_C_API_test.cpp ****         for (uint64 j = 0; j < 500; j++) {
 226              		.loc 1 34 31 is_stmt 1
  34:test/Threads_C_API_test.cpp ****         for (uint64 j = 0; j < 500; j++) {
 227              		.loc 1 34 39 is_stmt 0
 228 0130 13060000 		li	a2,0
 229 0134 9305A000 		li	a1,10
 230 0138 1B050900 		sext.w	a0,s2
 231 013c 97000000 		call	_Z8printIntiii@plt
 231      E7800000 
 232              	.LVL25:
  34:test/Threads_C_API_test.cpp ****         for (uint64 j = 0; j < 500; j++) {
 233              		.loc 1 34 44 is_stmt 1
  34:test/Threads_C_API_test.cpp ****         for (uint64 j = 0; j < 500; j++) {
 234              		.loc 1 34 55 is_stmt 0
 235 0144 17050000 		lla	a0,.LC1
 235      13050500 
 236 014c 97000000 		call	_Z11printStringPKc@plt
 236      E7800000 
 237              	.LVL26:
  35:test/Threads_C_API_test.cpp ****             //Riscv::printString("B j : ");
 238              		.loc 1 35 9 is_stmt 1
 239              	.LBB16:
  35:test/Threads_C_API_test.cpp ****             //Riscv::printString("B j : ");
 240              		.loc 1 35 21 is_stmt 0
 241 0154 93040000 		li	s1,0
 242 0158 6FF0DFF9 		j	.L14
 243              	.LVL27:
 244              	.L10:
 245              	.LBE16:
 246              	.LBE17:
 247              	.LBE10:
  40:test/Threads_C_API_test.cpp ****         }
  41:test/Threads_C_API_test.cpp ****     }
  42:test/Threads_C_API_test.cpp ****     printString("B finished!\n");
 248              		.loc 1 42 5 is_stmt 1
 249              		.loc 1 42 16 is_stmt 0
GAS LISTING /tmp/cc1ENCv0.s 			page 7


 250 015c 17050000 		lla	a0,.LC4
 250      13050500 
 251 0164 97000000 		call	_Z11printStringPKc@plt
 251      E7800000 
 252              	.LVL28:
  43:test/Threads_C_API_test.cpp ****     finishedB = true;
 253              		.loc 1 43 5 is_stmt 1
 254              		.loc 1 43 15 is_stmt 0
 255 016c 93071000 		li	a5,1
 256 0170 17070000 		sb	a5,.LANCHOR0+1,a4
 256      2300F700 
  44:test/Threads_C_API_test.cpp ****     thread_dispatch();
 257              		.loc 1 44 5 is_stmt 1
 258              		.loc 1 44 20 is_stmt 0
 259 0178 97000000 		call	thread_dispatch@plt
 259      E7800000 
 260              	.LVL29:
  45:test/Threads_C_API_test.cpp **** }
 261              		.loc 1 45 1
 262 0180 83308101 		ld	ra,24(sp)
 263              		.cfi_restore 1
 264 0184 03340101 		ld	s0,16(sp)
 265              		.cfi_restore 8
 266              		.cfi_def_cfa 2, 32
 267 0188 83348100 		ld	s1,8(sp)
 268              		.cfi_restore 9
 269 018c 03390100 		ld	s2,0(sp)
 270              		.cfi_restore 18
 271              	.LVL30:
 272 0190 13010102 		addi	sp,sp,32
 273              		.cfi_def_cfa_offset 0
 274 0194 67800000 		jr	ra
 275              		.cfi_endproc
 276              	.LFE25:
 278              		.align	2
 280              	_ZL9fibonaccim:
 281              	.LFB23:
  12:test/Threads_C_API_test.cpp ****     if (n == 0 || n == 1) { return n; }
 282              		.loc 1 12 35 is_stmt 1
 283              		.cfi_startproc
 284              	.LVL31:
 285 0198 130101FE 		addi	sp,sp,-32
 286              		.cfi_def_cfa_offset 32
 287 019c 233C1100 		sd	ra,24(sp)
 288 01a0 23388100 		sd	s0,16(sp)
 289 01a4 23349100 		sd	s1,8(sp)
 290 01a8 23302101 		sd	s2,0(sp)
 291              		.cfi_offset 1, -8
 292              		.cfi_offset 8, -16
 293              		.cfi_offset 9, -24
 294              		.cfi_offset 18, -32
 295 01ac 13040102 		addi	s0,sp,32
 296              		.cfi_def_cfa 8, 0
 297 01b0 93040500 		mv	s1,a0
  13:test/Threads_C_API_test.cpp ****     if (n % 10 == 0) { thread_dispatch(); }
 298              		.loc 1 13 5
 299 01b4 93071000 		li	a5,1
GAS LISTING /tmp/cc1ENCv0.s 			page 8


 300 01b8 63F8A702 		bleu	a0,a5,.L17
  14:test/Threads_C_API_test.cpp ****     return fibonacci(n - 1) + fibonacci(n - 2);
 301              		.loc 1 14 5
  14:test/Threads_C_API_test.cpp ****     return fibonacci(n - 1) + fibonacci(n - 2);
 302              		.loc 1 14 11 is_stmt 0
 303 01bc 9307A000 		li	a5,10
 304 01c0 B377F502 		remu	a5,a0,a5
  14:test/Threads_C_API_test.cpp ****     return fibonacci(n - 1) + fibonacci(n - 2);
 305              		.loc 1 14 5
 306 01c4 638E0702 		beqz	a5,.L22
 307              	.LVL32:
 308              	.L19:
  15:test/Threads_C_API_test.cpp **** }
 309              		.loc 1 15 5 is_stmt 1
  15:test/Threads_C_API_test.cpp **** }
 310              		.loc 1 15 21 is_stmt 0
 311 01c8 1385F4FF 		addi	a0,s1,-1
 312 01cc 97000000 		call	_ZL9fibonaccim
 312      E7800000 
 313              	.LVL33:
 314 01d4 13090500 		mv	s2,a0
  15:test/Threads_C_API_test.cpp **** }
 315              		.loc 1 15 40
 316 01d8 1385E4FF 		addi	a0,s1,-2
 317 01dc 97000000 		call	_ZL9fibonaccim
 317      E7800000 
 318              	.LVL34:
  15:test/Threads_C_API_test.cpp **** }
 319              		.loc 1 15 46
 320 01e4 3305A900 		add	a0,s2,a0
 321              	.L17:
  16:test/Threads_C_API_test.cpp **** 
 322              		.loc 1 16 1
 323 01e8 83308101 		ld	ra,24(sp)
 324              		.cfi_remember_state
 325              		.cfi_restore 1
 326 01ec 03340101 		ld	s0,16(sp)
 327              		.cfi_restore 8
 328              		.cfi_def_cfa 2, 32
 329 01f0 83348100 		ld	s1,8(sp)
 330              		.cfi_restore 9
 331              	.LVL35:
 332 01f4 03390100 		ld	s2,0(sp)
 333              		.cfi_restore 18
 334 01f8 13010102 		addi	sp,sp,32
 335              		.cfi_def_cfa_offset 0
 336 01fc 67800000 		jr	ra
 337              	.LVL36:
 338              	.L22:
 339              		.cfi_restore_state
  14:test/Threads_C_API_test.cpp ****     return fibonacci(n - 1) + fibonacci(n - 2);
 340              		.loc 1 14 24 is_stmt 1 discriminator 1
  14:test/Threads_C_API_test.cpp ****     return fibonacci(n - 1) + fibonacci(n - 2);
 341              		.loc 1 14 39 is_stmt 0 discriminator 1
 342 0200 97000000 		call	thread_dispatch@plt
 342      E7800000 
 343              	.LVL37:
GAS LISTING /tmp/cc1ENCv0.s 			page 9


 344 0208 6FF01FFC 		j	.L19
 345              		.cfi_endproc
 346              	.LFE23:
 348              		.section	.rodata.str1.8
 349 0035 000000   		.align	3
 350              	.LC5:
 351 0038 433A2069 		.string	"C: i="
 351      3D00
 352 003e 0000     		.align	3
 353              	.LC6:
 354 0040 433A2064 		.string	"C: dispatch\n"
 354      69737061 
 354      7463680A 
 354      00
 355 004d 000000   		.align	3
 356              	.LC7:
 357 0050 433A2074 		.string	"C: t1="
 357      313D00
 358 0057 00       		.align	3
 359              	.LC8:
 360 0058 433A2066 		.string	"C: fibonaci="
 360      69626F6E 
 360      6163693D 
 360      00
 361 0065 000000   		.align	3
 362              	.LC9:
 363 0068 43206669 		.string	"C finished!\n"
 363      6E697368 
 363      6564210A 
 363      00
 364              		.text
 365              		.align	2
 366              		.globl	_Z11workerBodyCPv
 368              	_Z11workerBodyCPv:
 369              	.LFB26:
  46:test/Threads_C_API_test.cpp **** 
  47:test/Threads_C_API_test.cpp **** void workerBodyC(void* arg) {
 370              		.loc 1 47 29 is_stmt 1
 371              		.cfi_startproc
 372              	.LVL38:
 373 020c 130101FE 		addi	sp,sp,-32
 374              		.cfi_def_cfa_offset 32
 375 0210 233C1100 		sd	ra,24(sp)
 376 0214 23388100 		sd	s0,16(sp)
 377 0218 23349100 		sd	s1,8(sp)
 378 021c 23302101 		sd	s2,0(sp)
 379              		.cfi_offset 1, -8
 380              		.cfi_offset 8, -16
 381              		.cfi_offset 9, -24
 382              		.cfi_offset 18, -32
 383 0220 13040102 		addi	s0,sp,32
 384              		.cfi_def_cfa 8, 0
  48:test/Threads_C_API_test.cpp ****     uint8 i = 0;
 385              		.loc 1 48 5
 386              	.LVL39:
 387              		.loc 1 48 11 is_stmt 0
 388 0224 93040000 		li	s1,0
GAS LISTING /tmp/cc1ENCv0.s 			page 10


 389 0228 6F000004 		j	.L25
 390              	.LVL40:
 391              	.L29:
  49:test/Threads_C_API_test.cpp ****     for (; i < 3; i++) {
  50:test/Threads_C_API_test.cpp ****         printString("C: i="); printInt(i); printString("\n");
 392              		.loc 1 50 9 is_stmt 1 discriminator 1
 393              		.loc 1 50 20 is_stmt 0 discriminator 1
 394 022c 17050000 		lla	a0,.LC5
 394      13050500 
 395 0234 97000000 		call	_Z11printStringPKc@plt
 395      E7800000 
 396              	.LVL41:
 397              		.loc 1 50 31 is_stmt 1 discriminator 1
 398              		.loc 1 50 39 is_stmt 0 discriminator 1
 399 023c 13060000 		li	a2,0
 400 0240 9305A000 		li	a1,10
 401 0244 13850400 		mv	a0,s1
 402 0248 97000000 		call	_Z8printIntiii@plt
 402      E7800000 
 403              	.LVL42:
 404              		.loc 1 50 44 is_stmt 1 discriminator 1
 405              		.loc 1 50 55 is_stmt 0 discriminator 1
 406 0250 17050000 		lla	a0,.LC1
 406      13050500 
 407 0258 97000000 		call	_Z11printStringPKc@plt
 407      E7800000 
 408              	.LVL43:
  49:test/Threads_C_API_test.cpp ****     for (; i < 3; i++) {
 409              		.loc 1 49 5 is_stmt 1 discriminator 1
 410 0260 9B841400 		addiw	s1,s1,1
 411              	.LVL44:
 412 0264 93F4F40F 		andi	s1,s1,0xff
 413              	.LVL45:
 414              	.L25:
  49:test/Threads_C_API_test.cpp ****     for (; i < 3; i++) {
 415              		.loc 1 49 5 discriminator 2
  49:test/Threads_C_API_test.cpp ****     for (; i < 3; i++) {
 416              		.loc 1 49 14 discriminator 2
 417 0268 93072000 		li	a5,2
 418 026c E3F097FC 		bleu	s1,a5,.L29
  51:test/Threads_C_API_test.cpp ****     }
  52:test/Threads_C_API_test.cpp **** 
  53:test/Threads_C_API_test.cpp ****     printString("C: dispatch\n");
 419              		.loc 1 53 5
 420              		.loc 1 53 16 is_stmt 0
 421 0270 17050000 		lla	a0,.LC6
 421      13050500 
 422 0278 97000000 		call	_Z11printStringPKc@plt
 422      E7800000 
 423              	.LVL46:
  54:test/Threads_C_API_test.cpp ****     __asm__ ("li t1, 7");
 424              		.loc 1 54 5 is_stmt 1
 425              		.loc 1 54 25 is_stmt 0
 426              	#APP
 427              	# 54 "test/Threads_C_API_test.cpp" 1
  55              	    thread_dispatch();
 428              		li t1, 7
GAS LISTING /tmp/cc1ENCv0.s 			page 11


 429              	# 0 "" 2
 430              		.loc 1 55 5 is_stmt 1
 431              		.loc 1 55 20 is_stmt 0
 432              	#NO_APP
 433 0284 97000000 		call	thread_dispatch@plt
 433      E7800000 
 434              	.LVL47:
  56:test/Threads_C_API_test.cpp **** 
  57:test/Threads_C_API_test.cpp ****     uint64 t1 = 0;
 435              		.loc 1 57 5 is_stmt 1
  58:test/Threads_C_API_test.cpp ****     __asm__ ("mv %[t1], t1" : [t1] "=r"(t1));
 436              		.loc 1 58 5
 437              		.loc 1 58 45 is_stmt 0
 438              	#APP
 439              	# 58 "test/Threads_C_API_test.cpp" 1
  59              	
 440              		mv s2, t1
 441              	# 0 "" 2
 442              	.LVL48:
  60:test/Threads_C_API_test.cpp ****     printString("C: t1="); printInt(t1); printString("\n");
 443              		.loc 1 60 5 is_stmt 1
 444              		.loc 1 60 16 is_stmt 0
 445              	#NO_APP
 446 0290 17050000 		lla	a0,.LC7
 446      13050500 
 447 0298 97000000 		call	_Z11printStringPKc@plt
 447      E7800000 
 448              	.LVL49:
 449              		.loc 1 60 28 is_stmt 1
 450              		.loc 1 60 36 is_stmt 0
 451 02a0 13060000 		li	a2,0
 452 02a4 9305A000 		li	a1,10
 453 02a8 1B050900 		sext.w	a0,s2
 454 02ac 97000000 		call	_Z8printIntiii@plt
 454      E7800000 
 455              	.LVL50:
 456              		.loc 1 60 42 is_stmt 1
 457              		.loc 1 60 53 is_stmt 0
 458 02b4 17050000 		lla	a0,.LC1
 458      13050500 
 459 02bc 97000000 		call	_Z11printStringPKc@plt
 459      E7800000 
 460              	.LVL51:
  61:test/Threads_C_API_test.cpp **** 
  62:test/Threads_C_API_test.cpp ****     uint64 result = fibonacci(12);
 461              		.loc 1 62 5 is_stmt 1
 462              		.loc 1 62 30 is_stmt 0
 463 02c4 1305C000 		li	a0,12
 464 02c8 97000000 		call	_ZL9fibonaccim
 464      E7800000 
 465              	.LVL52:
 466 02d0 13090500 		mv	s2,a0
 467              	.LVL53:
  63:test/Threads_C_API_test.cpp ****     printString("C: fibonaci="); printInt(result); printString("\n");
 468              		.loc 1 63 5 is_stmt 1
 469              		.loc 1 63 16 is_stmt 0
 470 02d4 17050000 		lla	a0,.LC8
GAS LISTING /tmp/cc1ENCv0.s 			page 12


 470      13050500 
 471              	.LVL54:
 472 02dc 97000000 		call	_Z11printStringPKc@plt
 472      E7800000 
 473              	.LVL55:
 474              		.loc 1 63 34 is_stmt 1
 475              		.loc 1 63 42 is_stmt 0
 476 02e4 13060000 		li	a2,0
 477 02e8 9305A000 		li	a1,10
 478 02ec 1B050900 		sext.w	a0,s2
 479 02f0 97000000 		call	_Z8printIntiii@plt
 479      E7800000 
 480              	.LVL56:
 481              		.loc 1 63 52 is_stmt 1
 482              		.loc 1 63 63 is_stmt 0
 483 02f8 17050000 		lla	a0,.LC1
 483      13050500 
 484 0300 97000000 		call	_Z11printStringPKc@plt
 484      E7800000 
 485              	.LVL57:
 486 0308 6F000004 		j	.L27
 487              	.L30:
  64:test/Threads_C_API_test.cpp **** 
  65:test/Threads_C_API_test.cpp ****     for (; i < 6; i++) {
  66:test/Threads_C_API_test.cpp ****         printString("C: i="); printInt(i); printString("\n");
 488              		.loc 1 66 9 is_stmt 1 discriminator 1
 489              		.loc 1 66 20 is_stmt 0 discriminator 1
 490 030c 17050000 		lla	a0,.LC5
 490      13050500 
 491 0314 97000000 		call	_Z11printStringPKc@plt
 491      E7800000 
 492              	.LVL58:
 493              		.loc 1 66 31 is_stmt 1 discriminator 1
 494              		.loc 1 66 39 is_stmt 0 discriminator 1
 495 031c 13060000 		li	a2,0
 496 0320 9305A000 		li	a1,10
 497 0324 13850400 		mv	a0,s1
 498 0328 97000000 		call	_Z8printIntiii@plt
 498      E7800000 
 499              	.LVL59:
 500              		.loc 1 66 44 is_stmt 1 discriminator 1
 501              		.loc 1 66 55 is_stmt 0 discriminator 1
 502 0330 17050000 		lla	a0,.LC1
 502      13050500 
 503 0338 97000000 		call	_Z11printStringPKc@plt
 503      E7800000 
 504              	.LVL60:
  65:test/Threads_C_API_test.cpp ****         printString("C: i="); printInt(i); printString("\n");
 505              		.loc 1 65 5 is_stmt 1 discriminator 1
 506 0340 9B841400 		addiw	s1,s1,1
 507              	.LVL61:
 508 0344 93F4F40F 		andi	s1,s1,0xff
 509              	.LVL62:
 510              	.L27:
  65:test/Threads_C_API_test.cpp ****         printString("C: i="); printInt(i); printString("\n");
 511              		.loc 1 65 5 discriminator 2
  65:test/Threads_C_API_test.cpp ****         printString("C: i="); printInt(i); printString("\n");
GAS LISTING /tmp/cc1ENCv0.s 			page 13


 512              		.loc 1 65 14 discriminator 2
 513 0348 93075000 		li	a5,5
 514 034c E3F097FC 		bleu	s1,a5,.L30
  67:test/Threads_C_API_test.cpp ****     }
  68:test/Threads_C_API_test.cpp **** 
  69:test/Threads_C_API_test.cpp ****     printString("C finished!\n");
 515              		.loc 1 69 5
 516              		.loc 1 69 16 is_stmt 0
 517 0350 17050000 		lla	a0,.LC9
 517      13050500 
 518 0358 97000000 		call	_Z11printStringPKc@plt
 518      E7800000 
 519              	.LVL63:
  70:test/Threads_C_API_test.cpp ****     finishedC = true;
 520              		.loc 1 70 5 is_stmt 1
 521              		.loc 1 70 15 is_stmt 0
 522 0360 93071000 		li	a5,1
 523 0364 17070000 		sb	a5,.LANCHOR0+2,a4
 523      2300F700 
  71:test/Threads_C_API_test.cpp ****     thread_dispatch();
 524              		.loc 1 71 5 is_stmt 1
 525              		.loc 1 71 20 is_stmt 0
 526 036c 97000000 		call	thread_dispatch@plt
 526      E7800000 
 527              	.LVL64:
  72:test/Threads_C_API_test.cpp **** }
 528              		.loc 1 72 1
 529 0374 83308101 		ld	ra,24(sp)
 530              		.cfi_restore 1
 531 0378 03340101 		ld	s0,16(sp)
 532              		.cfi_restore 8
 533              		.cfi_def_cfa 2, 32
 534 037c 83348100 		ld	s1,8(sp)
 535              		.cfi_restore 9
 536              	.LVL65:
 537 0380 03390100 		ld	s2,0(sp)
 538              		.cfi_restore 18
 539              	.LVL66:
 540 0384 13010102 		addi	sp,sp,32
 541              		.cfi_def_cfa_offset 0
 542 0388 67800000 		jr	ra
 543              		.cfi_endproc
 544              	.LFE26:
 546              		.section	.rodata.str1.8
 547 0075 000000   		.align	3
 548              	.LC10:
 549 0078 443A2069 		.string	"D: i="
 549      3D00
 550 007e 0000     		.align	3
 551              	.LC11:
 552 0080 443A2064 		.string	"D: dispatch\n"
 552      69737061 
 552      7463680A 
 552      00
 553 008d 000000   		.align	3
 554              	.LC12:
 555 0090 443A2066 		.string	"D: fibonaci="
GAS LISTING /tmp/cc1ENCv0.s 			page 14


 555      69626F6E 
 555      6163693D 
 555      00
 556 009d 000000   		.align	3
 557              	.LC13:
 558 00a0 44206669 		.string	"D finished!\n"
 558      6E697368 
 558      6564210A 
 558      00
 559              		.text
 560              		.align	2
 561              		.globl	_Z11workerBodyDPv
 563              	_Z11workerBodyDPv:
 564              	.LFB27:
  73:test/Threads_C_API_test.cpp **** 
  74:test/Threads_C_API_test.cpp **** void workerBodyD(void* arg) {
 565              		.loc 1 74 29 is_stmt 1
 566              		.cfi_startproc
 567              	.LVL67:
 568 038c 130101FE 		addi	sp,sp,-32
 569              		.cfi_def_cfa_offset 32
 570 0390 233C1100 		sd	ra,24(sp)
 571 0394 23388100 		sd	s0,16(sp)
 572 0398 23349100 		sd	s1,8(sp)
 573 039c 23302101 		sd	s2,0(sp)
 574              		.cfi_offset 1, -8
 575              		.cfi_offset 8, -16
 576              		.cfi_offset 9, -24
 577              		.cfi_offset 18, -32
 578 03a0 13040102 		addi	s0,sp,32
 579              		.cfi_def_cfa 8, 0
  75:test/Threads_C_API_test.cpp ****     uint8 i = 10;
 580              		.loc 1 75 5
 581              	.LVL68:
 582              		.loc 1 75 11 is_stmt 0
 583 03a4 9304A000 		li	s1,10
 584 03a8 6F000004 		j	.L33
 585              	.LVL69:
 586              	.L37:
  76:test/Threads_C_API_test.cpp ****     for (; i < 13; i++) {
  77:test/Threads_C_API_test.cpp ****         printString("D: i="); printInt(i); printString("\n");
 587              		.loc 1 77 9 is_stmt 1 discriminator 1
 588              		.loc 1 77 20 is_stmt 0 discriminator 1
 589 03ac 17050000 		lla	a0,.LC10
 589      13050500 
 590 03b4 97000000 		call	_Z11printStringPKc@plt
 590      E7800000 
 591              	.LVL70:
 592              		.loc 1 77 31 is_stmt 1 discriminator 1
 593              		.loc 1 77 39 is_stmt 0 discriminator 1
 594 03bc 13060000 		li	a2,0
 595 03c0 9305A000 		li	a1,10
 596 03c4 13850400 		mv	a0,s1
 597 03c8 97000000 		call	_Z8printIntiii@plt
 597      E7800000 
 598              	.LVL71:
 599              		.loc 1 77 44 is_stmt 1 discriminator 1
GAS LISTING /tmp/cc1ENCv0.s 			page 15


 600              		.loc 1 77 55 is_stmt 0 discriminator 1
 601 03d0 17050000 		lla	a0,.LC1
 601      13050500 
 602 03d8 97000000 		call	_Z11printStringPKc@plt
 602      E7800000 
 603              	.LVL72:
  76:test/Threads_C_API_test.cpp ****     for (; i < 13; i++) {
 604              		.loc 1 76 5 is_stmt 1 discriminator 1
 605 03e0 9B841400 		addiw	s1,s1,1
 606              	.LVL73:
 607 03e4 93F4F40F 		andi	s1,s1,0xff
 608              	.LVL74:
 609              	.L33:
  76:test/Threads_C_API_test.cpp ****     for (; i < 13; i++) {
 610              		.loc 1 76 5 discriminator 2
  76:test/Threads_C_API_test.cpp ****     for (; i < 13; i++) {
 611              		.loc 1 76 14 discriminator 2
 612 03e8 9307C000 		li	a5,12
 613 03ec E3F097FC 		bleu	s1,a5,.L37
  78:test/Threads_C_API_test.cpp ****     }
  79:test/Threads_C_API_test.cpp **** 
  80:test/Threads_C_API_test.cpp ****     printString("D: dispatch\n");
 614              		.loc 1 80 5
 615              		.loc 1 80 16 is_stmt 0
 616 03f0 17050000 		lla	a0,.LC11
 616      13050500 
 617 03f8 97000000 		call	_Z11printStringPKc@plt
 617      E7800000 
 618              	.LVL75:
  81:test/Threads_C_API_test.cpp ****     __asm__ ("li t1, 5");
 619              		.loc 1 81 5 is_stmt 1
 620              		.loc 1 81 25 is_stmt 0
 621              	#APP
 622              	# 81 "test/Threads_C_API_test.cpp" 1
  82              	    thread_dispatch();
 623              		li t1, 5
 624              	# 0 "" 2
 625              		.loc 1 82 5 is_stmt 1
 626              		.loc 1 82 20 is_stmt 0
 627              	#NO_APP
 628 0404 97000000 		call	thread_dispatch@plt
 628      E7800000 
 629              	.LVL76:
  83:test/Threads_C_API_test.cpp **** 
  84:test/Threads_C_API_test.cpp ****     uint64 result = fibonacci(16);
 630              		.loc 1 84 5 is_stmt 1
 631              		.loc 1 84 30 is_stmt 0
 632 040c 13050001 		li	a0,16
 633 0410 97000000 		call	_ZL9fibonaccim
 633      E7800000 
 634              	.LVL77:
 635 0418 13090500 		mv	s2,a0
 636              	.LVL78:
  85:test/Threads_C_API_test.cpp ****     printString("D: fibonaci="); printInt(result); printString("\n");
 637              		.loc 1 85 5 is_stmt 1
 638              		.loc 1 85 16 is_stmt 0
 639 041c 17050000 		lla	a0,.LC12
GAS LISTING /tmp/cc1ENCv0.s 			page 16


 639      13050500 
 640              	.LVL79:
 641 0424 97000000 		call	_Z11printStringPKc@plt
 641      E7800000 
 642              	.LVL80:
 643              		.loc 1 85 34 is_stmt 1
 644              		.loc 1 85 42 is_stmt 0
 645 042c 13060000 		li	a2,0
 646 0430 9305A000 		li	a1,10
 647 0434 1B050900 		sext.w	a0,s2
 648 0438 97000000 		call	_Z8printIntiii@plt
 648      E7800000 
 649              	.LVL81:
 650              		.loc 1 85 52 is_stmt 1
 651              		.loc 1 85 63 is_stmt 0
 652 0440 17050000 		lla	a0,.LC1
 652      13050500 
 653 0448 97000000 		call	_Z11printStringPKc@plt
 653      E7800000 
 654              	.LVL82:
 655 0450 6F000004 		j	.L35
 656              	.L38:
  86:test/Threads_C_API_test.cpp **** 
  87:test/Threads_C_API_test.cpp ****     for (; i < 16; i++) {
  88:test/Threads_C_API_test.cpp ****         printString("D: i="); printInt(i); printString("\n");
 657              		.loc 1 88 9 is_stmt 1 discriminator 1
 658              		.loc 1 88 20 is_stmt 0 discriminator 1
 659 0454 17050000 		lla	a0,.LC10
 659      13050500 
 660 045c 97000000 		call	_Z11printStringPKc@plt
 660      E7800000 
 661              	.LVL83:
 662              		.loc 1 88 31 is_stmt 1 discriminator 1
 663              		.loc 1 88 39 is_stmt 0 discriminator 1
 664 0464 13060000 		li	a2,0
 665 0468 9305A000 		li	a1,10
 666 046c 13850400 		mv	a0,s1
 667 0470 97000000 		call	_Z8printIntiii@plt
 667      E7800000 
 668              	.LVL84:
 669              		.loc 1 88 44 is_stmt 1 discriminator 1
 670              		.loc 1 88 55 is_stmt 0 discriminator 1
 671 0478 17050000 		lla	a0,.LC1
 671      13050500 
 672 0480 97000000 		call	_Z11printStringPKc@plt
 672      E7800000 
 673              	.LVL85:
  87:test/Threads_C_API_test.cpp ****         printString("D: i="); printInt(i); printString("\n");
 674              		.loc 1 87 5 is_stmt 1 discriminator 1
 675 0488 9B841400 		addiw	s1,s1,1
 676              	.LVL86:
 677 048c 93F4F40F 		andi	s1,s1,0xff
 678              	.LVL87:
 679              	.L35:
  87:test/Threads_C_API_test.cpp ****         printString("D: i="); printInt(i); printString("\n");
 680              		.loc 1 87 5 discriminator 2
  87:test/Threads_C_API_test.cpp ****         printString("D: i="); printInt(i); printString("\n");
GAS LISTING /tmp/cc1ENCv0.s 			page 17


 681              		.loc 1 87 14 discriminator 2
 682 0490 9307F000 		li	a5,15
 683 0494 E3F097FC 		bleu	s1,a5,.L38
  89:test/Threads_C_API_test.cpp ****     }
  90:test/Threads_C_API_test.cpp **** 
  91:test/Threads_C_API_test.cpp ****     printString("D finished!\n");
 684              		.loc 1 91 5
 685              		.loc 1 91 16 is_stmt 0
 686 0498 17050000 		lla	a0,.LC13
 686      13050500 
 687 04a0 97000000 		call	_Z11printStringPKc@plt
 687      E7800000 
 688              	.LVL88:
  92:test/Threads_C_API_test.cpp ****     finishedD = true;
 689              		.loc 1 92 5 is_stmt 1
 690              		.loc 1 92 15 is_stmt 0
 691 04a8 93071000 		li	a5,1
 692 04ac 17070000 		sb	a5,.LANCHOR0+3,a4
 692      2300F700 
  93:test/Threads_C_API_test.cpp ****     thread_dispatch();
 693              		.loc 1 93 5 is_stmt 1
 694              		.loc 1 93 20 is_stmt 0
 695 04b4 97000000 		call	thread_dispatch@plt
 695      E7800000 
 696              	.LVL89:
  94:test/Threads_C_API_test.cpp **** }
 697              		.loc 1 94 1
 698 04bc 83308101 		ld	ra,24(sp)
 699              		.cfi_restore 1
 700 04c0 03340101 		ld	s0,16(sp)
 701              		.cfi_restore 8
 702              		.cfi_def_cfa 2, 32
 703 04c4 83348100 		ld	s1,8(sp)
 704              		.cfi_restore 9
 705              	.LVL90:
 706 04c8 03390100 		ld	s2,0(sp)
 707              		.cfi_restore 18
 708              	.LVL91:
 709 04cc 13010102 		addi	sp,sp,32
 710              		.cfi_def_cfa_offset 0
 711 04d0 67800000 		jr	ra
 712              		.cfi_endproc
 713              	.LFE27:
 715              		.section	.rodata.str1.8
 716 00ad 000000   		.align	3
 717              	.LC14:
 718 00b0 54687265 		.string	"ThreadA created\n"
 718      61644120 
 718      63726561 
 718      7465640A 
 718      00
 719 00c1 00000000 		.align	3
 719      000000
 720              	.LC15:
 721 00c8 54687265 		.string	"ThreadB created\n"
 721      61644220 
 721      63726561 
GAS LISTING /tmp/cc1ENCv0.s 			page 18


 721      7465640A 
 721      00
 722 00d9 00000000 		.align	3
 722      000000
 723              	.LC16:
 724 00e0 54687265 		.string	"ThreadC created\n"
 724      61644320 
 724      63726561 
 724      7465640A 
 724      00
 725 00f1 00000000 		.align	3
 725      000000
 726              	.LC17:
 727 00f8 54687265 		.string	"ThreadD created\n"
 727      61644420 
 727      63726561 
 727      7465640A 
 727      00
 728              		.text
 729              		.align	2
 730              		.globl	_Z18Threads_C_API_testv
 732              	_Z18Threads_C_API_testv:
 733              	.LFB28:
  95:test/Threads_C_API_test.cpp **** 
  96:test/Threads_C_API_test.cpp **** 
  97:test/Threads_C_API_test.cpp **** void Threads_C_API_test() {
 734              		.loc 1 97 27 is_stmt 1
 735              		.cfi_startproc
 736 04d4 130101FC 		addi	sp,sp,-64
 737              		.cfi_def_cfa_offset 64
 738 04d8 233C1102 		sd	ra,56(sp)
 739 04dc 23388102 		sd	s0,48(sp)
 740 04e0 23349102 		sd	s1,40(sp)
 741 04e4 23302103 		sd	s2,32(sp)
 742              		.cfi_offset 1, -8
 743              		.cfi_offset 8, -16
 744              		.cfi_offset 9, -24
 745              		.cfi_offset 18, -32
 746 04e8 13040104 		addi	s0,sp,64
 747              		.cfi_def_cfa 8, 0
  98:test/Threads_C_API_test.cpp ****     thread_t threads[4];
 748              		.loc 1 98 5
  99:test/Threads_C_API_test.cpp ****     thread_create(&threads[0], workerBodyA, nullptr);
 749              		.loc 1 99 5
 750              		.loc 1 99 18 is_stmt 0
 751 04ec 13060000 		li	a2,0
 752 04f0 97050000 		lla	a1,_Z11workerBodyAPv
 752      93850500 
 753 04f8 130504FC 		addi	a0,s0,-64
 754 04fc 97000000 		call	thread_create@plt
 754      E7800000 
 755              	.LVL92:
 100:test/Threads_C_API_test.cpp ****     printString("ThreadA created\n");
 756              		.loc 1 100 5 is_stmt 1
 757              		.loc 1 100 16 is_stmt 0
 758 0504 17050000 		lla	a0,.LC14
 758      13050500 
GAS LISTING /tmp/cc1ENCv0.s 			page 19


 759 050c 97000000 		call	_Z11printStringPKc@plt
 759      E7800000 
 760              	.LVL93:
 101:test/Threads_C_API_test.cpp **** 
 102:test/Threads_C_API_test.cpp ****     thread_create(&threads[1], workerBodyB, nullptr);
 761              		.loc 1 102 5 is_stmt 1
 762              		.loc 1 102 18 is_stmt 0
 763 0514 13060000 		li	a2,0
 764 0518 97050000 		lla	a1,_Z11workerBodyBPv
 764      93850500 
 765 0520 130584FC 		addi	a0,s0,-56
 766 0524 97000000 		call	thread_create@plt
 766      E7800000 
 767              	.LVL94:
 103:test/Threads_C_API_test.cpp ****     printString("ThreadB created\n");
 768              		.loc 1 103 5 is_stmt 1
 769              		.loc 1 103 16 is_stmt 0
 770 052c 17050000 		lla	a0,.LC15
 770      13050500 
 771 0534 97000000 		call	_Z11printStringPKc@plt
 771      E7800000 
 772              	.LVL95:
 104:test/Threads_C_API_test.cpp **** 
 105:test/Threads_C_API_test.cpp ****     thread_create(&threads[2], workerBodyC, nullptr);
 773              		.loc 1 105 5 is_stmt 1
 774              		.loc 1 105 18 is_stmt 0
 775 053c 13060000 		li	a2,0
 776 0540 97050000 		lla	a1,_Z11workerBodyCPv
 776      93850500 
 777 0548 130504FD 		addi	a0,s0,-48
 778 054c 97000000 		call	thread_create@plt
 778      E7800000 
 779              	.LVL96:
 106:test/Threads_C_API_test.cpp ****     printString("ThreadC created\n");
 780              		.loc 1 106 5 is_stmt 1
 781              		.loc 1 106 16 is_stmt 0
 782 0554 17050000 		lla	a0,.LC16
 782      13050500 
 783 055c 97000000 		call	_Z11printStringPKc@plt
 783      E7800000 
 784              	.LVL97:
 107:test/Threads_C_API_test.cpp **** 
 108:test/Threads_C_API_test.cpp ****     thread_create(&threads[3], workerBodyD, nullptr);
 785              		.loc 1 108 5 is_stmt 1
 786              		.loc 1 108 18 is_stmt 0
 787 0564 13060000 		li	a2,0
 788 0568 97050000 		lla	a1,_Z11workerBodyDPv
 788      93850500 
 789 0570 130584FD 		addi	a0,s0,-40
 790 0574 97000000 		call	thread_create@plt
 790      E7800000 
 791              	.LVL98:
 109:test/Threads_C_API_test.cpp ****     printString("ThreadD created\n");
 792              		.loc 1 109 5 is_stmt 1
 793              		.loc 1 109 16 is_stmt 0
 794 057c 17050000 		lla	a0,.LC17
 794      13050500 
GAS LISTING /tmp/cc1ENCv0.s 			page 20


 795 0584 97000000 		call	_Z11printStringPKc@plt
 795      E7800000 
 796              	.LVL99:
 797 058c 6F00C000 		j	.L42
 798              	.L40:
 110:test/Threads_C_API_test.cpp **** 
 111:test/Threads_C_API_test.cpp ****     while (!(finishedA && finishedB && finishedC && finishedD)) {
 112:test/Threads_C_API_test.cpp ****         //printString("Main thread\n");
 113:test/Threads_C_API_test.cpp ****         thread_dispatch();
 799              		.loc 1 113 9 is_stmt 1
 800              		.loc 1 113 24 is_stmt 0
 801 0590 97000000 		call	thread_dispatch@plt
 801      E7800000 
 802              	.LVL100:
 803              	.L42:
 111:test/Threads_C_API_test.cpp ****         //printString("Main thread\n");
 804              		.loc 1 111 5 is_stmt 1
 111:test/Threads_C_API_test.cpp ****         //printString("Main thread\n");
 805              		.loc 1 111 12
 806 0598 97070000 		lbu	a5,.LANCHOR0
 806      83C70700 
 807 05a0 E38807FE 		beqz	a5,.L40
 111:test/Threads_C_API_test.cpp ****         //printString("Main thread\n");
 808              		.loc 1 111 24 is_stmt 0 discriminator 1
 809 05a4 97070000 		lbu	a5,.LANCHOR0+1
 809      83C70700 
 810 05ac E38207FE 		beqz	a5,.L40
 111:test/Threads_C_API_test.cpp ****         //printString("Main thread\n");
 811              		.loc 1 111 37 discriminator 2
 812 05b0 97070000 		lbu	a5,.LANCHOR0+2
 812      83C70700 
 813 05b8 E38C07FC 		beqz	a5,.L40
 111:test/Threads_C_API_test.cpp ****         //printString("Main thread\n");
 814              		.loc 1 111 12 discriminator 3
 815 05bc 97070000 		lbu	a5,.LANCHOR0+3
 815      83C70700 
 816 05c4 E38607FC 		beqz	a5,.L40
 817              	.LBB18:
 114:test/Threads_C_API_test.cpp ****     }
 115:test/Threads_C_API_test.cpp **** 
 116:test/Threads_C_API_test.cpp ****     for (auto &thread: threads) {
 818              		.loc 1 116 24
 819 05c8 930404FC 		addi	s1,s0,-64
 820 05cc 6F008000 		j	.L41
 821              	.LVL101:
 822              	.L44:
 823              		.loc 1 116 5 is_stmt 1 discriminator 3
 824 05d0 93848400 		addi	s1,s1,8
 825              	.LVL102:
 826              	.L41:
 827              		.loc 1 116 24 discriminator 1
 828 05d4 930704FE 		addi	a5,s0,-32
 829 05d8 6384F402 		beq	s1,a5,.L39
 830              	.LVL103:
 117:test/Threads_C_API_test.cpp ****         //todo
 118:test/Threads_C_API_test.cpp ****         //in order to syscall.c to stay .c it gotta be converted
 119:test/Threads_C_API_test.cpp ****         delete (PCB*)thread;
GAS LISTING /tmp/cc1ENCv0.s 			page 21


 831              		.loc 1 119 9 discriminator 2
 832              		.loc 1 119 16 is_stmt 0 discriminator 2
 833 05dc 03B90400 		ld	s2,0(s1)
 834              		.loc 1 119 28 discriminator 2
 835 05e0 E30809FE 		beqz	s2,.L44
 836              		.loc 1 119 22 discriminator 1
 837 05e4 13050900 		mv	a0,s2
 838 05e8 97000000 		call	_ZN3PCBD1Ev@plt
 838      E7800000 
 839              	.LVL104:
 840 05f0 13050900 		mv	a0,s2
 841 05f4 97000000 		call	_ZN3PCBdlEPv@plt
 841      E7800000 
 842              	.LVL105:
 843 05fc 6FF05FFD 		j	.L44
 844              	.LVL106:
 845              	.L39:
 846              	.LBE18:
 120:test/Threads_C_API_test.cpp ****     }
 121:test/Threads_C_API_test.cpp **** }
 847              		.loc 1 121 1
 848 0600 83308103 		ld	ra,56(sp)
 849              		.cfi_restore 1
 850 0604 03340103 		ld	s0,48(sp)
 851              		.cfi_restore 8
 852              		.cfi_def_cfa 2, 64
 853 0608 83348102 		ld	s1,40(sp)
 854              		.cfi_restore 9
 855              	.LVL107:
 856 060c 03390102 		ld	s2,32(sp)
 857              		.cfi_restore 18
 858 0610 13010104 		addi	sp,sp,64
 859              		.cfi_def_cfa_offset 0
 860 0614 67800000 		jr	ra
 861              		.cfi_endproc
 862              	.LFE28:
 864              		.bss
 865              		.set	.LANCHOR0,. + 0
 868              	_ZL9finishedA:
 869 0000 00       		.zero	1
 872              	_ZL9finishedB:
 873 0001 00       		.zero	1
 876              	_ZL9finishedC:
 877 0002 00       		.zero	1
 880              	_ZL9finishedD:
 881 0003 00       		.zero	1
 882              		.text
 883              	.Letext0:
 884              		.file 2 "test/../h/../lib/hw.h"
 885              		.file 3 "test/../h/syscall_c.h"
 886              		.file 4 "test/../h/PCB.hpp"
 887              		.file 5 "test/printing.hpp"
GAS LISTING /tmp/cc1ENCv0.s 			page 22


DEFINED SYMBOLS
                            *ABS*:0000000000000000 Threads_C_API_test.cpp
     /tmp/cc1ENCv0.s:20     .text:0000000000000000 _Z11workerBodyAPv
     /tmp/cc1ENCv0.s:24     .text:0000000000000000 .L0 
     /tmp/cc1ENCv0.s:26     .text:0000000000000000 .L0 
     /tmp/cc1ENCv0.s:27     .text:0000000000000004 .L0 
     /tmp/cc1ENCv0.s:32     .text:0000000000000014 .L0 
     /tmp/cc1ENCv0.s:33     .text:0000000000000014 .L0 
     /tmp/cc1ENCv0.s:34     .text:0000000000000014 .L0 
     /tmp/cc1ENCv0.s:35     .text:0000000000000014 .L0 
     /tmp/cc1ENCv0.s:37     .text:0000000000000018 .L0 
     /tmp/cc1ENCv0.s:41     .text:0000000000000018 .L0 
     /tmp/cc1ENCv0.s:42     .text:0000000000000018 .L0 
     /tmp/cc1ENCv0.s:50     .text:0000000000000020 .L0 
     /tmp/cc1ENCv0.s:51     .text:0000000000000020 .L0 
     /tmp/cc1ENCv0.s:55     .text:0000000000000028 .L0 
     /tmp/cc1ENCv0.s:59     .text:000000000000002c .L0 
     /tmp/cc1ENCv0.s:64     .text:0000000000000034 .L0 
     /tmp/cc1ENCv0.s:68     .text:0000000000000038 .L0 
     /tmp/cc1ENCv0.s:72     .text:0000000000000044 .L0 
     /tmp/cc1ENCv0.s:82     .text:000000000000004c .L0 
     /tmp/cc1ENCv0.s:86     .text:0000000000000050 .L0 
     /tmp/cc1ENCv0.s:90     .text:0000000000000058 .L0 
     /tmp/cc1ENCv0.s:91     .text:0000000000000058 .L0 
     /tmp/cc1ENCv0.s:95     .text:0000000000000068 .L0 
     /tmp/cc1ENCv0.s:96     .text:0000000000000068 .L0 
     /tmp/cc1ENCv0.s:102    .text:000000000000007c .L0 
     /tmp/cc1ENCv0.s:103    .text:000000000000007c .L0 
     /tmp/cc1ENCv0.s:108    .text:000000000000008c .L0 
     /tmp/cc1ENCv0.s:109    .text:000000000000008c .L0 
     /tmp/cc1ENCv0.s:117    .text:0000000000000094 .L0 
     /tmp/cc1ENCv0.s:118    .text:0000000000000094 .L0 
     /tmp/cc1ENCv0.s:122    .text:00000000000000a4 .L0 
     /tmp/cc1ENCv0.s:123    .text:00000000000000a4 .L0 
     /tmp/cc1ENCv0.s:126    .text:00000000000000b0 .L0 
     /tmp/cc1ENCv0.s:127    .text:00000000000000b4 .L0 
     /tmp/cc1ENCv0.s:129    .text:00000000000000b8 .L0 
     /tmp/cc1ENCv0.s:130    .text:00000000000000b8 .L0 
     /tmp/cc1ENCv0.s:132    .text:00000000000000bc .L0 
     /tmp/cc1ENCv0.s:134    .text:00000000000000c0 .L0 
     /tmp/cc1ENCv0.s:137    .text:00000000000000c4 .L0 
     /tmp/cc1ENCv0.s:139    .text:00000000000000c8 .L0 
     /tmp/cc1ENCv0.s:153    .text:00000000000000c8 _Z11workerBodyBPv
     /tmp/cc1ENCv0.s:156    .text:00000000000000c8 .L0 
     /tmp/cc1ENCv0.s:158    .text:00000000000000c8 .L0 
     /tmp/cc1ENCv0.s:159    .text:00000000000000cc .L0 
     /tmp/cc1ENCv0.s:164    .text:00000000000000dc .L0 
     /tmp/cc1ENCv0.s:165    .text:00000000000000dc .L0 
     /tmp/cc1ENCv0.s:166    .text:00000000000000dc .L0 
     /tmp/cc1ENCv0.s:167    .text:00000000000000dc .L0 
     /tmp/cc1ENCv0.s:169    .text:00000000000000e0 .L0 
     /tmp/cc1ENCv0.s:173    .text:00000000000000e0 .L0 
     /tmp/cc1ENCv0.s:174    .text:00000000000000e0 .L0 
     /tmp/cc1ENCv0.s:182    .text:00000000000000e8 .L0 
     /tmp/cc1ENCv0.s:183    .text:00000000000000e8 .L0 
     /tmp/cc1ENCv0.s:187    .text:00000000000000f0 .L0 
     /tmp/cc1ENCv0.s:191    .text:00000000000000f4 .L0 
GAS LISTING /tmp/cc1ENCv0.s 			page 23


     /tmp/cc1ENCv0.s:196    .text:00000000000000fc .L0 
     /tmp/cc1ENCv0.s:200    .text:0000000000000100 .L0 
     /tmp/cc1ENCv0.s:204    .text:000000000000010c .L0 
     /tmp/cc1ENCv0.s:214    .text:0000000000000114 .L0 
     /tmp/cc1ENCv0.s:218    .text:0000000000000118 .L0 
     /tmp/cc1ENCv0.s:222    .text:0000000000000120 .L0 
     /tmp/cc1ENCv0.s:223    .text:0000000000000120 .L0 
     /tmp/cc1ENCv0.s:227    .text:0000000000000130 .L0 
     /tmp/cc1ENCv0.s:228    .text:0000000000000130 .L0 
     /tmp/cc1ENCv0.s:234    .text:0000000000000144 .L0 
     /tmp/cc1ENCv0.s:235    .text:0000000000000144 .L0 
     /tmp/cc1ENCv0.s:240    .text:0000000000000154 .L0 
     /tmp/cc1ENCv0.s:241    .text:0000000000000154 .L0 
     /tmp/cc1ENCv0.s:249    .text:000000000000015c .L0 
     /tmp/cc1ENCv0.s:250    .text:000000000000015c .L0 
     /tmp/cc1ENCv0.s:254    .text:000000000000016c .L0 
     /tmp/cc1ENCv0.s:255    .text:000000000000016c .L0 
     /tmp/cc1ENCv0.s:258    .text:0000000000000178 .L0 
     /tmp/cc1ENCv0.s:259    .text:0000000000000178 .L0 
     /tmp/cc1ENCv0.s:262    .text:0000000000000180 .L0 
     /tmp/cc1ENCv0.s:263    .text:0000000000000184 .L0 
     /tmp/cc1ENCv0.s:265    .text:0000000000000188 .L0 
     /tmp/cc1ENCv0.s:266    .text:0000000000000188 .L0 
     /tmp/cc1ENCv0.s:268    .text:000000000000018c .L0 
     /tmp/cc1ENCv0.s:270    .text:0000000000000190 .L0 
     /tmp/cc1ENCv0.s:273    .text:0000000000000194 .L0 
     /tmp/cc1ENCv0.s:275    .text:0000000000000198 .L0 
     /tmp/cc1ENCv0.s:280    .text:0000000000000198 _ZL9fibonaccim
     /tmp/cc1ENCv0.s:283    .text:0000000000000198 .L0 
     /tmp/cc1ENCv0.s:285    .text:0000000000000198 .L0 
     /tmp/cc1ENCv0.s:286    .text:000000000000019c .L0 
     /tmp/cc1ENCv0.s:291    .text:00000000000001ac .L0 
     /tmp/cc1ENCv0.s:292    .text:00000000000001ac .L0 
     /tmp/cc1ENCv0.s:293    .text:00000000000001ac .L0 
     /tmp/cc1ENCv0.s:294    .text:00000000000001ac .L0 
     /tmp/cc1ENCv0.s:296    .text:00000000000001b0 .L0 
     /tmp/cc1ENCv0.s:299    .text:00000000000001b4 .L0 
     /tmp/cc1ENCv0.s:302    .text:00000000000001bc .L0 
     /tmp/cc1ENCv0.s:303    .text:00000000000001bc .L0 
     /tmp/cc1ENCv0.s:306    .text:00000000000001c4 .L0 
     /tmp/cc1ENCv0.s:310    .text:00000000000001c8 .L0 
     /tmp/cc1ENCv0.s:311    .text:00000000000001c8 .L0 
     /tmp/cc1ENCv0.s:316    .text:00000000000001d8 .L0 
     /tmp/cc1ENCv0.s:320    .text:00000000000001e4 .L0 
     /tmp/cc1ENCv0.s:323    .text:00000000000001e8 .L0 
     /tmp/cc1ENCv0.s:324    .text:00000000000001ec .L0 
     /tmp/cc1ENCv0.s:325    .text:00000000000001ec .L0 
     /tmp/cc1ENCv0.s:327    .text:00000000000001f0 .L0 
     /tmp/cc1ENCv0.s:328    .text:00000000000001f0 .L0 
     /tmp/cc1ENCv0.s:330    .text:00000000000001f4 .L0 
     /tmp/cc1ENCv0.s:333    .text:00000000000001f8 .L0 
     /tmp/cc1ENCv0.s:335    .text:00000000000001fc .L0 
     /tmp/cc1ENCv0.s:339    .text:0000000000000200 .L0 
     /tmp/cc1ENCv0.s:341    .text:0000000000000200 .L0 
     /tmp/cc1ENCv0.s:342    .text:0000000000000200 .L0 
     /tmp/cc1ENCv0.s:345    .text:000000000000020c .L0 
     /tmp/cc1ENCv0.s:368    .text:000000000000020c _Z11workerBodyCPv
GAS LISTING /tmp/cc1ENCv0.s 			page 24


     /tmp/cc1ENCv0.s:371    .text:000000000000020c .L0 
     /tmp/cc1ENCv0.s:373    .text:000000000000020c .L0 
     /tmp/cc1ENCv0.s:374    .text:0000000000000210 .L0 
     /tmp/cc1ENCv0.s:379    .text:0000000000000220 .L0 
     /tmp/cc1ENCv0.s:380    .text:0000000000000220 .L0 
     /tmp/cc1ENCv0.s:381    .text:0000000000000220 .L0 
     /tmp/cc1ENCv0.s:382    .text:0000000000000220 .L0 
     /tmp/cc1ENCv0.s:384    .text:0000000000000224 .L0 
     /tmp/cc1ENCv0.s:387    .text:0000000000000224 .L0 
     /tmp/cc1ENCv0.s:388    .text:0000000000000224 .L0 
     /tmp/cc1ENCv0.s:393    .text:000000000000022c .L0 
     /tmp/cc1ENCv0.s:394    .text:000000000000022c .L0 
     /tmp/cc1ENCv0.s:398    .text:000000000000023c .L0 
     /tmp/cc1ENCv0.s:399    .text:000000000000023c .L0 
     /tmp/cc1ENCv0.s:405    .text:0000000000000250 .L0 
     /tmp/cc1ENCv0.s:406    .text:0000000000000250 .L0 
     /tmp/cc1ENCv0.s:410    .text:0000000000000260 .L0 
     /tmp/cc1ENCv0.s:416    .text:0000000000000268 .L0 
     /tmp/cc1ENCv0.s:417    .text:0000000000000268 .L0 
     /tmp/cc1ENCv0.s:420    .text:0000000000000270 .L0 
     /tmp/cc1ENCv0.s:421    .text:0000000000000270 .L0 
     /tmp/cc1ENCv0.s:425    .text:0000000000000280 .L0 
test/Threads_C_API_test.cpp:54     .text:0000000000000280 .L0 
     /tmp/cc1ENCv0.s:431    .text:0000000000000284 .L0 
     /tmp/cc1ENCv0.s:433    .text:0000000000000284 .L0 
     /tmp/cc1ENCv0.s:436    .text:000000000000028c .L0 
     /tmp/cc1ENCv0.s:437    .text:000000000000028c .L0 
test/Threads_C_API_test.cpp:58     .text:000000000000028c .L0 
     /tmp/cc1ENCv0.s:444    .text:0000000000000290 .L0 
     /tmp/cc1ENCv0.s:446    .text:0000000000000290 .L0 
     /tmp/cc1ENCv0.s:450    .text:00000000000002a0 .L0 
     /tmp/cc1ENCv0.s:451    .text:00000000000002a0 .L0 
     /tmp/cc1ENCv0.s:457    .text:00000000000002b4 .L0 
     /tmp/cc1ENCv0.s:458    .text:00000000000002b4 .L0 
     /tmp/cc1ENCv0.s:462    .text:00000000000002c4 .L0 
     /tmp/cc1ENCv0.s:463    .text:00000000000002c4 .L0 
     /tmp/cc1ENCv0.s:469    .text:00000000000002d4 .L0 
     /tmp/cc1ENCv0.s:470    .text:00000000000002d4 .L0 
     /tmp/cc1ENCv0.s:475    .text:00000000000002e4 .L0 
     /tmp/cc1ENCv0.s:476    .text:00000000000002e4 .L0 
     /tmp/cc1ENCv0.s:482    .text:00000000000002f8 .L0 
     /tmp/cc1ENCv0.s:483    .text:00000000000002f8 .L0 
     /tmp/cc1ENCv0.s:489    .text:000000000000030c .L0 
     /tmp/cc1ENCv0.s:490    .text:000000000000030c .L0 
     /tmp/cc1ENCv0.s:494    .text:000000000000031c .L0 
     /tmp/cc1ENCv0.s:495    .text:000000000000031c .L0 
     /tmp/cc1ENCv0.s:501    .text:0000000000000330 .L0 
     /tmp/cc1ENCv0.s:502    .text:0000000000000330 .L0 
     /tmp/cc1ENCv0.s:506    .text:0000000000000340 .L0 
     /tmp/cc1ENCv0.s:512    .text:0000000000000348 .L0 
     /tmp/cc1ENCv0.s:513    .text:0000000000000348 .L0 
     /tmp/cc1ENCv0.s:516    .text:0000000000000350 .L0 
     /tmp/cc1ENCv0.s:517    .text:0000000000000350 .L0 
     /tmp/cc1ENCv0.s:521    .text:0000000000000360 .L0 
     /tmp/cc1ENCv0.s:522    .text:0000000000000360 .L0 
     /tmp/cc1ENCv0.s:525    .text:000000000000036c .L0 
     /tmp/cc1ENCv0.s:526    .text:000000000000036c .L0 
GAS LISTING /tmp/cc1ENCv0.s 			page 25


     /tmp/cc1ENCv0.s:529    .text:0000000000000374 .L0 
     /tmp/cc1ENCv0.s:530    .text:0000000000000378 .L0 
     /tmp/cc1ENCv0.s:532    .text:000000000000037c .L0 
     /tmp/cc1ENCv0.s:533    .text:000000000000037c .L0 
     /tmp/cc1ENCv0.s:535    .text:0000000000000380 .L0 
     /tmp/cc1ENCv0.s:538    .text:0000000000000384 .L0 
     /tmp/cc1ENCv0.s:541    .text:0000000000000388 .L0 
     /tmp/cc1ENCv0.s:543    .text:000000000000038c .L0 
     /tmp/cc1ENCv0.s:563    .text:000000000000038c _Z11workerBodyDPv
     /tmp/cc1ENCv0.s:566    .text:000000000000038c .L0 
     /tmp/cc1ENCv0.s:568    .text:000000000000038c .L0 
     /tmp/cc1ENCv0.s:569    .text:0000000000000390 .L0 
     /tmp/cc1ENCv0.s:574    .text:00000000000003a0 .L0 
     /tmp/cc1ENCv0.s:575    .text:00000000000003a0 .L0 
     /tmp/cc1ENCv0.s:576    .text:00000000000003a0 .L0 
     /tmp/cc1ENCv0.s:577    .text:00000000000003a0 .L0 
     /tmp/cc1ENCv0.s:579    .text:00000000000003a4 .L0 
     /tmp/cc1ENCv0.s:582    .text:00000000000003a4 .L0 
     /tmp/cc1ENCv0.s:583    .text:00000000000003a4 .L0 
     /tmp/cc1ENCv0.s:588    .text:00000000000003ac .L0 
     /tmp/cc1ENCv0.s:589    .text:00000000000003ac .L0 
     /tmp/cc1ENCv0.s:593    .text:00000000000003bc .L0 
     /tmp/cc1ENCv0.s:594    .text:00000000000003bc .L0 
     /tmp/cc1ENCv0.s:600    .text:00000000000003d0 .L0 
     /tmp/cc1ENCv0.s:601    .text:00000000000003d0 .L0 
     /tmp/cc1ENCv0.s:605    .text:00000000000003e0 .L0 
     /tmp/cc1ENCv0.s:611    .text:00000000000003e8 .L0 
     /tmp/cc1ENCv0.s:612    .text:00000000000003e8 .L0 
     /tmp/cc1ENCv0.s:615    .text:00000000000003f0 .L0 
     /tmp/cc1ENCv0.s:616    .text:00000000000003f0 .L0 
     /tmp/cc1ENCv0.s:620    .text:0000000000000400 .L0 
test/Threads_C_API_test.cpp:81     .text:0000000000000400 .L0 
     /tmp/cc1ENCv0.s:626    .text:0000000000000404 .L0 
     /tmp/cc1ENCv0.s:628    .text:0000000000000404 .L0 
     /tmp/cc1ENCv0.s:631    .text:000000000000040c .L0 
     /tmp/cc1ENCv0.s:632    .text:000000000000040c .L0 
     /tmp/cc1ENCv0.s:638    .text:000000000000041c .L0 
     /tmp/cc1ENCv0.s:639    .text:000000000000041c .L0 
     /tmp/cc1ENCv0.s:644    .text:000000000000042c .L0 
     /tmp/cc1ENCv0.s:645    .text:000000000000042c .L0 
     /tmp/cc1ENCv0.s:651    .text:0000000000000440 .L0 
     /tmp/cc1ENCv0.s:652    .text:0000000000000440 .L0 
     /tmp/cc1ENCv0.s:658    .text:0000000000000454 .L0 
     /tmp/cc1ENCv0.s:659    .text:0000000000000454 .L0 
     /tmp/cc1ENCv0.s:663    .text:0000000000000464 .L0 
     /tmp/cc1ENCv0.s:664    .text:0000000000000464 .L0 
     /tmp/cc1ENCv0.s:670    .text:0000000000000478 .L0 
     /tmp/cc1ENCv0.s:671    .text:0000000000000478 .L0 
     /tmp/cc1ENCv0.s:675    .text:0000000000000488 .L0 
     /tmp/cc1ENCv0.s:681    .text:0000000000000490 .L0 
     /tmp/cc1ENCv0.s:682    .text:0000000000000490 .L0 
     /tmp/cc1ENCv0.s:685    .text:0000000000000498 .L0 
     /tmp/cc1ENCv0.s:686    .text:0000000000000498 .L0 
     /tmp/cc1ENCv0.s:690    .text:00000000000004a8 .L0 
     /tmp/cc1ENCv0.s:691    .text:00000000000004a8 .L0 
     /tmp/cc1ENCv0.s:694    .text:00000000000004b4 .L0 
     /tmp/cc1ENCv0.s:695    .text:00000000000004b4 .L0 
GAS LISTING /tmp/cc1ENCv0.s 			page 26


     /tmp/cc1ENCv0.s:698    .text:00000000000004bc .L0 
     /tmp/cc1ENCv0.s:699    .text:00000000000004c0 .L0 
     /tmp/cc1ENCv0.s:701    .text:00000000000004c4 .L0 
     /tmp/cc1ENCv0.s:702    .text:00000000000004c4 .L0 
     /tmp/cc1ENCv0.s:704    .text:00000000000004c8 .L0 
     /tmp/cc1ENCv0.s:707    .text:00000000000004cc .L0 
     /tmp/cc1ENCv0.s:710    .text:00000000000004d0 .L0 
     /tmp/cc1ENCv0.s:712    .text:00000000000004d4 .L0 
     /tmp/cc1ENCv0.s:732    .text:00000000000004d4 _Z18Threads_C_API_testv
     /tmp/cc1ENCv0.s:735    .text:00000000000004d4 .L0 
     /tmp/cc1ENCv0.s:736    .text:00000000000004d4 .L0 
     /tmp/cc1ENCv0.s:737    .text:00000000000004d8 .L0 
     /tmp/cc1ENCv0.s:742    .text:00000000000004e8 .L0 
     /tmp/cc1ENCv0.s:743    .text:00000000000004e8 .L0 
     /tmp/cc1ENCv0.s:744    .text:00000000000004e8 .L0 
     /tmp/cc1ENCv0.s:745    .text:00000000000004e8 .L0 
     /tmp/cc1ENCv0.s:747    .text:00000000000004ec .L0 
     /tmp/cc1ENCv0.s:749    .text:00000000000004ec .L0 
     /tmp/cc1ENCv0.s:750    .text:00000000000004ec .L0 
     /tmp/cc1ENCv0.s:751    .text:00000000000004ec .L0 
     /tmp/cc1ENCv0.s:757    .text:0000000000000504 .L0 
     /tmp/cc1ENCv0.s:758    .text:0000000000000504 .L0 
     /tmp/cc1ENCv0.s:762    .text:0000000000000514 .L0 
     /tmp/cc1ENCv0.s:763    .text:0000000000000514 .L0 
     /tmp/cc1ENCv0.s:769    .text:000000000000052c .L0 
     /tmp/cc1ENCv0.s:770    .text:000000000000052c .L0 
     /tmp/cc1ENCv0.s:774    .text:000000000000053c .L0 
     /tmp/cc1ENCv0.s:775    .text:000000000000053c .L0 
     /tmp/cc1ENCv0.s:781    .text:0000000000000554 .L0 
     /tmp/cc1ENCv0.s:782    .text:0000000000000554 .L0 
     /tmp/cc1ENCv0.s:786    .text:0000000000000564 .L0 
     /tmp/cc1ENCv0.s:787    .text:0000000000000564 .L0 
     /tmp/cc1ENCv0.s:793    .text:000000000000057c .L0 
     /tmp/cc1ENCv0.s:794    .text:000000000000057c .L0 
     /tmp/cc1ENCv0.s:800    .text:0000000000000590 .L0 
     /tmp/cc1ENCv0.s:801    .text:0000000000000590 .L0 
     /tmp/cc1ENCv0.s:805    .text:0000000000000598 .L0 
     /tmp/cc1ENCv0.s:806    .text:0000000000000598 .L0 
     /tmp/cc1ENCv0.s:809    .text:00000000000005a4 .L0 
     /tmp/cc1ENCv0.s:812    .text:00000000000005b0 .L0 
     /tmp/cc1ENCv0.s:815    .text:00000000000005bc .L0 
     /tmp/cc1ENCv0.s:819    .text:00000000000005c8 .L0 
     /tmp/cc1ENCv0.s:824    .text:00000000000005d0 .L0 
     /tmp/cc1ENCv0.s:828    .text:00000000000005d4 .L0 
     /tmp/cc1ENCv0.s:832    .text:00000000000005dc .L0 
     /tmp/cc1ENCv0.s:833    .text:00000000000005dc .L0 
     /tmp/cc1ENCv0.s:835    .text:00000000000005e0 .L0 
     /tmp/cc1ENCv0.s:837    .text:00000000000005e4 .L0 
     /tmp/cc1ENCv0.s:848    .text:0000000000000600 .L0 
     /tmp/cc1ENCv0.s:849    .text:0000000000000604 .L0 
     /tmp/cc1ENCv0.s:851    .text:0000000000000608 .L0 
     /tmp/cc1ENCv0.s:852    .text:0000000000000608 .L0 
     /tmp/cc1ENCv0.s:854    .text:000000000000060c .L0 
     /tmp/cc1ENCv0.s:857    .text:0000000000000610 .L0 
     /tmp/cc1ENCv0.s:859    .text:0000000000000614 .L0 
     /tmp/cc1ENCv0.s:861    .text:0000000000000618 .L0 
     /tmp/cc1ENCv0.s:865    .bss:0000000000000000 .LANCHOR0
GAS LISTING /tmp/cc1ENCv0.s 			page 27


     /tmp/cc1ENCv0.s:868    .bss:0000000000000000 _ZL9finishedA
     /tmp/cc1ENCv0.s:872    .bss:0000000000000001 _ZL9finishedB
     /tmp/cc1ENCv0.s:876    .bss:0000000000000002 _ZL9finishedC
     /tmp/cc1ENCv0.s:880    .bss:0000000000000003 _ZL9finishedD
     /tmp/cc1ENCv0.s:888    .text:0000000000000618 .L0 
     /tmp/cc1ENCv0.s:8      .rodata.str1.8:0000000000000000 .LC0
     /tmp/cc1ENCv0.s:91     .text:0000000000000058 .L0 
     /tmp/cc1ENCv0.s:11     .rodata.str1.8:0000000000000008 .LC1
     /tmp/cc1ENCv0.s:103    .text:000000000000007c .L0 
     /tmp/cc1ENCv0.s:14     .rodata.str1.8:0000000000000010 .LC2
     /tmp/cc1ENCv0.s:118    .text:0000000000000094 .L0 
     /tmp/cc1ENCv0.s:124    .text:00000000000000a8 .L0 
     /tmp/cc1ENCv0.s:144    .rodata.str1.8:0000000000000020 .LC3
     /tmp/cc1ENCv0.s:223    .text:0000000000000120 .L0 
     /tmp/cc1ENCv0.s:235    .text:0000000000000144 .L0 
     /tmp/cc1ENCv0.s:147    .rodata.str1.8:0000000000000028 .LC4
     /tmp/cc1ENCv0.s:250    .text:000000000000015c .L0 
     /tmp/cc1ENCv0.s:256    .text:0000000000000170 .L0 
     /tmp/cc1ENCv0.s:350    .rodata.str1.8:0000000000000038 .LC5
     /tmp/cc1ENCv0.s:394    .text:000000000000022c .L0 
     /tmp/cc1ENCv0.s:406    .text:0000000000000250 .L0 
     /tmp/cc1ENCv0.s:353    .rodata.str1.8:0000000000000040 .LC6
     /tmp/cc1ENCv0.s:421    .text:0000000000000270 .L0 
     /tmp/cc1ENCv0.s:356    .rodata.str1.8:0000000000000050 .LC7
     /tmp/cc1ENCv0.s:446    .text:0000000000000290 .L0 
     /tmp/cc1ENCv0.s:458    .text:00000000000002b4 .L0 
     /tmp/cc1ENCv0.s:359    .rodata.str1.8:0000000000000058 .LC8
     /tmp/cc1ENCv0.s:470    .text:00000000000002d4 .L0 
     /tmp/cc1ENCv0.s:483    .text:00000000000002f8 .L0 
     /tmp/cc1ENCv0.s:490    .text:000000000000030c .L0 
     /tmp/cc1ENCv0.s:502    .text:0000000000000330 .L0 
     /tmp/cc1ENCv0.s:362    .rodata.str1.8:0000000000000068 .LC9
     /tmp/cc1ENCv0.s:517    .text:0000000000000350 .L0 
     /tmp/cc1ENCv0.s:523    .text:0000000000000364 .L0 
     /tmp/cc1ENCv0.s:548    .rodata.str1.8:0000000000000078 .LC10
     /tmp/cc1ENCv0.s:589    .text:00000000000003ac .L0 
     /tmp/cc1ENCv0.s:601    .text:00000000000003d0 .L0 
     /tmp/cc1ENCv0.s:551    .rodata.str1.8:0000000000000080 .LC11
     /tmp/cc1ENCv0.s:616    .text:00000000000003f0 .L0 
     /tmp/cc1ENCv0.s:554    .rodata.str1.8:0000000000000090 .LC12
     /tmp/cc1ENCv0.s:639    .text:000000000000041c .L0 
     /tmp/cc1ENCv0.s:652    .text:0000000000000440 .L0 
     /tmp/cc1ENCv0.s:659    .text:0000000000000454 .L0 
     /tmp/cc1ENCv0.s:671    .text:0000000000000478 .L0 
     /tmp/cc1ENCv0.s:557    .rodata.str1.8:00000000000000a0 .LC13
     /tmp/cc1ENCv0.s:686    .text:0000000000000498 .L0 
     /tmp/cc1ENCv0.s:692    .text:00000000000004ac .L0 
     /tmp/cc1ENCv0.s:752    .text:00000000000004f0 .L0 
     /tmp/cc1ENCv0.s:717    .rodata.str1.8:00000000000000b0 .LC14
     /tmp/cc1ENCv0.s:758    .text:0000000000000504 .L0 
     /tmp/cc1ENCv0.s:764    .text:0000000000000518 .L0 
     /tmp/cc1ENCv0.s:720    .rodata.str1.8:00000000000000c8 .LC15
     /tmp/cc1ENCv0.s:770    .text:000000000000052c .L0 
     /tmp/cc1ENCv0.s:776    .text:0000000000000540 .L0 
     /tmp/cc1ENCv0.s:723    .rodata.str1.8:00000000000000e0 .LC16
     /tmp/cc1ENCv0.s:782    .text:0000000000000554 .L0 
     /tmp/cc1ENCv0.s:788    .text:0000000000000568 .L0 
GAS LISTING /tmp/cc1ENCv0.s 			page 28


     /tmp/cc1ENCv0.s:726    .rodata.str1.8:00000000000000f8 .LC17
     /tmp/cc1ENCv0.s:794    .text:000000000000057c .L0 
     /tmp/cc1ENCv0.s:806    .text:0000000000000598 .L0 
     /tmp/cc1ENCv0.s:809    .text:00000000000005a4 .L0 
     /tmp/cc1ENCv0.s:812    .text:00000000000005b0 .L0 
     /tmp/cc1ENCv0.s:815    .text:00000000000005bc .L0 
     /tmp/cc1ENCv0.s:84     .text:0000000000000050 .L7
     /tmp/cc1ENCv0.s:76     .text:000000000000004c .L3
     /tmp/cc1ENCv0.s:45     .text:0000000000000020 .L4
     /tmp/cc1ENCv0.s:65     .text:0000000000000038 .L5
     /tmp/cc1ENCv0.s:112    .text:0000000000000094 .L2
     /tmp/cc1ENCv0.s:57     .text:000000000000002c .L6
     /tmp/cc1ENCv0.s:216    .text:0000000000000118 .L15
     /tmp/cc1ENCv0.s:208    .text:0000000000000114 .L11
     /tmp/cc1ENCv0.s:177    .text:00000000000000e8 .L12
     /tmp/cc1ENCv0.s:197    .text:0000000000000100 .L13
     /tmp/cc1ENCv0.s:244    .text:000000000000015c .L10
     /tmp/cc1ENCv0.s:189    .text:00000000000000f4 .L14
     /tmp/cc1ENCv0.s:321    .text:00000000000001e8 .L17
     /tmp/cc1ENCv0.s:338    .text:0000000000000200 .L22
     /tmp/cc1ENCv0.s:308    .text:00000000000001c8 .L19
     /tmp/cc1ENCv0.s:414    .text:0000000000000268 .L25
     /tmp/cc1ENCv0.s:391    .text:000000000000022c .L29
     /tmp/cc1ENCv0.s:510    .text:0000000000000348 .L27
     /tmp/cc1ENCv0.s:487    .text:000000000000030c .L30
     /tmp/cc1ENCv0.s:609    .text:00000000000003e8 .L33
     /tmp/cc1ENCv0.s:586    .text:00000000000003ac .L37
     /tmp/cc1ENCv0.s:679    .text:0000000000000490 .L35
     /tmp/cc1ENCv0.s:656    .text:0000000000000454 .L38
     /tmp/cc1ENCv0.s:803    .text:0000000000000598 .L42
     /tmp/cc1ENCv0.s:798    .text:0000000000000590 .L40
     /tmp/cc1ENCv0.s:826    .text:00000000000005d4 .L41
     /tmp/cc1ENCv0.s:845    .text:0000000000000600 .L39
     /tmp/cc1ENCv0.s:822    .text:00000000000005d0 .L44
     /tmp/cc1ENCv0.s:2441   .debug_abbrev:0000000000000000 .Ldebug_abbrev0
     /tmp/cc1ENCv0.s:3511   .debug_str:000000000000008e .LASF100
     /tmp/cc1ENCv0.s:3513   .debug_str:000000000000013a .LASF101
     /tmp/cc1ENCv0.s:3683   .debug_str:00000000000005af .LASF102
     /tmp/cc1ENCv0.s:5      .text:0000000000000000 .Ltext0
     /tmp/cc1ENCv0.s:883    .text:0000000000000618 .Letext0
     /tmp/cc1ENCv0.s:3491   .debug_line:0000000000000000 .Ldebug_line0
     /tmp/cc1ENCv0.s:3563   .debug_str:00000000000002c1 .LASF0
     /tmp/cc1ENCv0.s:3577   .debug_str:0000000000000327 .LASF1
     /tmp/cc1ENCv0.s:3629   .debug_str:0000000000000473 .LASF2
     /tmp/cc1ENCv0.s:3547   .debug_str:000000000000024b .LASF3
     /tmp/cc1ENCv0.s:3635   .debug_str:0000000000000494 .LASF4
     /tmp/cc1ENCv0.s:3569   .debug_str:00000000000002f0 .LASF5
     /tmp/cc1ENCv0.s:3501   .debug_str:0000000000000039 .LASF6
     /tmp/cc1ENCv0.s:3621   .debug_str:0000000000000449 .LASF7
     /tmp/cc1ENCv0.s:3607   .debug_str:00000000000003f5 .LASF8
     /tmp/cc1ENCv0.s:3573   .debug_str:000000000000030f .LASF9
     /tmp/cc1ENCv0.s:3553   .debug_str:0000000000000273 .LASF10
     /tmp/cc1ENCv0.s:3555   .debug_str:0000000000000283 .LASF11
     /tmp/cc1ENCv0.s:3525   .debug_str:00000000000001bb .LASF12
     /tmp/cc1ENCv0.s:3549   .debug_str:0000000000000251 .LASF13
     /tmp/cc1ENCv0.s:3533   .debug_str:00000000000001ec .LASF14
     /tmp/cc1ENCv0.s:3523   .debug_str:00000000000001ab .LASF15
GAS LISTING /tmp/cc1ENCv0.s 			page 29


     /tmp/cc1ENCv0.s:3665   .debug_str:0000000000000559 .LASF16
     /tmp/cc1ENCv0.s:3543   .debug_str:0000000000000229 .LASF17
     /tmp/cc1ENCv0.s:3655   .debug_str:00000000000004fa .LASF18
     /tmp/cc1ENCv0.s:3677   .debug_str:000000000000058c .LASF19
     /tmp/cc1ENCv0.s:3673   .debug_str:000000000000057e .LASF103
     /tmp/cc1ENCv0.s:3519   .debug_str:0000000000000193 .LASF20
     /tmp/cc1ENCv0.s:3649   .debug_str:00000000000004d9 .LASF21
     /tmp/cc1ENCv0.s:3529   .debug_str:00000000000001d3 .LASF22
     /tmp/cc1ENCv0.s:3509   .debug_str:0000000000000085 .LASF23
     /tmp/cc1ENCv0.s:3611   .debug_str:0000000000000411 .LASF24
     /tmp/cc1ENCv0.s:3527   .debug_str:00000000000001ca .LASF25
     /tmp/cc1ENCv0.s:3667   .debug_str:0000000000000565 .LASF70
     /tmp/cc1ENCv0.s:3561   .debug_str:00000000000002bb .LASF26
     /tmp/cc1ENCv0.s:3687   .debug_str:00000000000005da .LASF104
     /tmp/cc1ENCv0.s:3599   .debug_str:00000000000003ba .LASF105
     /tmp/cc1ENCv0.s:3575   .debug_str:0000000000000322 .LASF27
     /tmp/cc1ENCv0.s:3707   .debug_str:000000000000065d .LASF29
     /tmp/cc1ENCv0.s:3703   .debug_str:0000000000000641 .LASF28
     /tmp/cc1ENCv0.s:3679   .debug_str:0000000000000595 .LASF30
     /tmp/cc1ENCv0.s:3539   .debug_str:000000000000021a .LASF54
     /tmp/cc1ENCv0.s:3503   .debug_str:0000000000000040 .LASF56
     /tmp/cc1ENCv0.s:3579   .debug_str:000000000000033a .LASF36
     /tmp/cc1ENCv0.s:3601   .debug_str:00000000000003bf .LASF38
     /tmp/cc1ENCv0.s:3675   .debug_str:0000000000000584 .LASF31
     /tmp/cc1ENCv0.s:3691   .debug_str:00000000000005f7 .LASF32
     /tmp/cc1ENCv0.s:3645   .debug_str:00000000000004bf .LASF33
     /tmp/cc1ENCv0.s:3581   .debug_str:0000000000000340 .LASF40
     /tmp/cc1ENCv0.s:3583   .debug_str:000000000000034d .LASF42
     /tmp/cc1ENCv0.s:3709   .debug_str:0000000000000669 .LASF34
     /tmp/cc1ENCv0.s:3545   .debug_str:000000000000023f .LASF35
     /tmp/cc1ENCv0.s:3499   .debug_str:0000000000000029 .LASF37
     /tmp/cc1ENCv0.s:3567   .debug_str:00000000000002e3 .LASF39
     /tmp/cc1ENCv0.s:3647   .debug_str:00000000000004d0 .LASF41
     /tmp/cc1ENCv0.s:3593   .debug_str:000000000000038e .LASF43
     /tmp/cc1ENCv0.s:3631   .debug_str:0000000000000481 .LASF44
     /tmp/cc1ENCv0.s:3659   .debug_str:000000000000051c .LASF45
     /tmp/cc1ENCv0.s:3595   .debug_str:00000000000003a1 .LASF46
     /tmp/cc1ENCv0.s:3495   .debug_str:000000000000000a .LASF47
     /tmp/cc1ENCv0.s:3697   .debug_str:000000000000061b .LASF48
     /tmp/cc1ENCv0.s:3605   .debug_str:00000000000003db .LASF49
     /tmp/cc1ENCv0.s:3653   .debug_str:00000000000004ec .LASF50
     /tmp/cc1ENCv0.s:3623   .debug_str:0000000000000450 .LASF51
     /tmp/cc1ENCv0.s:3537   .debug_str:000000000000020a .LASF52
     /tmp/cc1ENCv0.s:3701   .debug_str:0000000000000636 .LASF53
     /tmp/cc1ENCv0.s:3571   .debug_str:0000000000000302 .LASF58
     /tmp/cc1ENCv0.s:3651   .debug_str:00000000000004e1 .LASF55
     /tmp/cc1ENCv0.s:3705   .debug_str:0000000000000647 .LASF57
     /tmp/cc1ENCv0.s:3641   .debug_str:00000000000004af .LASF59
     /tmp/cc1ENCv0.s:3681   .debug_str:00000000000005a5 .LASF60
     /tmp/cc1ENCv0.s:3603   .debug_str:00000000000003cf .LASF61
     /tmp/cc1ENCv0.s:3535   .debug_str:00000000000001fc .LASF62
     /tmp/cc1ENCv0.s:3505   .debug_str:0000000000000053 .LASF64
     /tmp/cc1ENCv0.s:3565   .debug_str:00000000000002ce .LASF63
     /tmp/cc1ENCv0.s:3517   .debug_str:0000000000000167 .LASF65
     /tmp/cc1ENCv0.s:3693   .debug_str:0000000000000602 .LASF106
     /tmp/cc1ENCv0.s:3515   .debug_str:0000000000000156 .LASF107
     /tmp/cc1ENCv0.s:3497   .debug_str:0000000000000024 .LASF66
GAS LISTING /tmp/cc1ENCv0.s 			page 30


     /tmp/cc1ENCv0.s:3689   .debug_str:00000000000005f2 .LASF67
     /tmp/cc1ENCv0.s:3585   .debug_str:0000000000000365 .LASF68
     /tmp/cc1ENCv0.s:3541   .debug_str:0000000000000223 .LASF69
     /tmp/cc1ENCv0.s:3685   .debug_str:00000000000005d2 .LASF71
     /tmp/cc1ENCv0.s:3507   .debug_str:000000000000007b .LASF72
     /tmp/cc1ENCv0.s:3669   .debug_str:000000000000056d .LASF73
     /tmp/cc1ENCv0.s:3587   .debug_str:000000000000036d .LASF74
     /tmp/cc1ENCv0.s:3633   .debug_str:000000000000048a .LASF75
     /tmp/cc1ENCv0.s:3597   .debug_str:00000000000003b0 .LASF76
     /tmp/cc1ENCv0.s:3637   .debug_str:000000000000049b .LASF77
     /tmp/cc1ENCv0.s:3639   .debug_str:00000000000004a5 .LASF78
     /tmp/cc1ENCv0.s:3551   .debug_str:0000000000000260 .LASF79
     /tmp/cc1ENCv0.s:3559   .debug_str:00000000000002a3 .LASF80
     /tmp/cc1ENCv0.s:733    .text:00000000000004d4 .LFB28
     /tmp/cc1ENCv0.s:862    .text:0000000000000618 .LFE28
     /tmp/cc1ENCv0.s:3643   .debug_str:00000000000004b7 .LASF81
     /tmp/cc1ENCv0.s:817    .text:00000000000005c8 .LBB18
     /tmp/cc1ENCv0.s:846    .text:0000000000000600 .LBE18
     /tmp/cc1ENCv0.s:3627   .debug_str:000000000000046c .LASF82
     /tmp/cc1ENCv0.s:3228   .debug_loc:0000000000000000 .LLST16
     /tmp/cc1ENCv0.s:3657   .debug_str:0000000000000510 .LASF83
     /tmp/cc1ENCv0.s:3671   .debug_str:0000000000000572 .LASF108
     /tmp/cc1ENCv0.s:3239   .debug_loc:0000000000000036 .LLST17
     /tmp/cc1ENCv0.s:3493   .debug_str:0000000000000000 .LASF84
     /tmp/cc1ENCv0.s:839    .text:00000000000005f0 .LVL104
     /tmp/cc1ENCv0.s:842    .text:00000000000005fc .LVL105
     /tmp/cc1ENCv0.s:755    .text:0000000000000504 .LVL92
     /tmp/cc1ENCv0.s:760    .text:0000000000000514 .LVL93
     /tmp/cc1ENCv0.s:767    .text:000000000000052c .LVL94
     /tmp/cc1ENCv0.s:772    .text:000000000000053c .LVL95
     /tmp/cc1ENCv0.s:779    .text:0000000000000554 .LVL96
     /tmp/cc1ENCv0.s:784    .text:0000000000000564 .LVL97
     /tmp/cc1ENCv0.s:791    .text:000000000000057c .LVL98
     /tmp/cc1ENCv0.s:796    .text:000000000000058c .LVL99
     /tmp/cc1ENCv0.s:802    .text:0000000000000598 .LVL100
     /tmp/cc1ENCv0.s:3619   .debug_str:000000000000043d .LASF85
     /tmp/cc1ENCv0.s:3695   .debug_str:0000000000000609 .LASF86
     /tmp/cc1ENCv0.s:564    .text:000000000000038c .LFB27
     /tmp/cc1ENCv0.s:713    .text:00000000000004d4 .LFE27
     /tmp/cc1ENCv0.s:3246   .debug_loc:0000000000000059 .LLST13
     /tmp/cc1ENCv0.s:3260   .debug_loc:0000000000000092 .LLST14
     /tmp/cc1ENCv0.s:3711   .debug_str:0000000000000676 .LASF87
     /tmp/cc1ENCv0.s:3280   .debug_loc:00000000000000ef .LLST15
     /tmp/cc1ENCv0.s:591    .text:00000000000003bc .LVL70
     /tmp/cc1ENCv0.s:598    .text:00000000000003d0 .LVL71
     /tmp/cc1ENCv0.s:603    .text:00000000000003e0 .LVL72
     /tmp/cc1ENCv0.s:618    .text:0000000000000400 .LVL75
     /tmp/cc1ENCv0.s:629    .text:000000000000040c .LVL76
     /tmp/cc1ENCv0.s:634    .text:0000000000000418 .LVL77
     /tmp/cc1ENCv0.s:642    .text:000000000000042c .LVL80
     /tmp/cc1ENCv0.s:649    .text:0000000000000440 .LVL81
     /tmp/cc1ENCv0.s:654    .text:0000000000000450 .LVL82
     /tmp/cc1ENCv0.s:661    .text:0000000000000464 .LVL83
     /tmp/cc1ENCv0.s:668    .text:0000000000000478 .LVL84
     /tmp/cc1ENCv0.s:673    .text:0000000000000488 .LVL85
     /tmp/cc1ENCv0.s:688    .text:00000000000004a8 .LVL88
     /tmp/cc1ENCv0.s:696    .text:00000000000004bc .LVL89
GAS LISTING /tmp/cc1ENCv0.s 			page 31


     /tmp/cc1ENCv0.s:3617   .debug_str:0000000000000431 .LASF88
     /tmp/cc1ENCv0.s:3521   .debug_str:0000000000000199 .LASF89
     /tmp/cc1ENCv0.s:369    .text:000000000000020c .LFB26
     /tmp/cc1ENCv0.s:544    .text:000000000000038c .LFE26
     /tmp/cc1ENCv0.s:3291   .debug_loc:0000000000000125 .LLST9
     /tmp/cc1ENCv0.s:3305   .debug_loc:000000000000015e .LLST10
     /tmp/cc1ENCv0.s:3325   .debug_loc:00000000000001bb .LLST11
     /tmp/cc1ENCv0.s:3333   .debug_loc:00000000000001df .LLST12
     /tmp/cc1ENCv0.s:396    .text:000000000000023c .LVL41
     /tmp/cc1ENCv0.s:403    .text:0000000000000250 .LVL42
     /tmp/cc1ENCv0.s:408    .text:0000000000000260 .LVL43
     /tmp/cc1ENCv0.s:423    .text:0000000000000280 .LVL46
     /tmp/cc1ENCv0.s:434    .text:000000000000028c .LVL47
     /tmp/cc1ENCv0.s:448    .text:00000000000002a0 .LVL49
     /tmp/cc1ENCv0.s:455    .text:00000000000002b4 .LVL50
     /tmp/cc1ENCv0.s:460    .text:00000000000002c4 .LVL51
     /tmp/cc1ENCv0.s:465    .text:00000000000002d0 .LVL52
     /tmp/cc1ENCv0.s:473    .text:00000000000002e4 .LVL55
     /tmp/cc1ENCv0.s:480    .text:00000000000002f8 .LVL56
     /tmp/cc1ENCv0.s:485    .text:0000000000000308 .LVL57
     /tmp/cc1ENCv0.s:492    .text:000000000000031c .LVL58
     /tmp/cc1ENCv0.s:499    .text:0000000000000330 .LVL59
     /tmp/cc1ENCv0.s:504    .text:0000000000000340 .LVL60
     /tmp/cc1ENCv0.s:519    .text:0000000000000360 .LVL63
     /tmp/cc1ENCv0.s:527    .text:0000000000000374 .LVL64
     /tmp/cc1ENCv0.s:3615   .debug_str:0000000000000425 .LASF90
     /tmp/cc1ENCv0.s:3557   .debug_str:0000000000000291 .LASF91
     /tmp/cc1ENCv0.s:154    .text:00000000000000c8 .LFB25
     /tmp/cc1ENCv0.s:276    .text:0000000000000198 .LFE25
     /tmp/cc1ENCv0.s:3344   .debug_loc:0000000000000215 .LLST4
     /tmp/cc1ENCv0.s:172    .text:00000000000000e0 .LBB10
     /tmp/cc1ENCv0.s:247    .text:000000000000015c .LBE10
     /tmp/cc1ENCv0.s:3358   .debug_loc:000000000000024e .LLST5
     /tmp/cc1ENCv0.s:3477   .debug_ranges:0000000000000000 .Ldebug_ranges0
     /tmp/cc1ENCv0.s:3370   .debug_loc:0000000000000285 .LLST6
     /tmp/cc1ENCv0.s:194    .text:00000000000000fc .LBB14
     /tmp/cc1ENCv0.s:209    .text:0000000000000114 .LBE14
     /tmp/cc1ENCv0.s:3382   .debug_loc:00000000000002bc .LLST7
     /tmp/cc1ENCv0.s:184    .text:00000000000000f0 .LVL18
     /tmp/cc1ENCv0.s:225    .text:0000000000000130 .LVL24
     /tmp/cc1ENCv0.s:232    .text:0000000000000144 .LVL25
     /tmp/cc1ENCv0.s:237    .text:0000000000000154 .LVL26
     /tmp/cc1ENCv0.s:252    .text:000000000000016c .LVL28
     /tmp/cc1ENCv0.s:260    .text:0000000000000180 .LVL29
     /tmp/cc1ENCv0.s:3613   .debug_str:0000000000000419 .LASF92
     /tmp/cc1ENCv0.s:3591   .debug_str:000000000000037c .LASF93
     /tmp/cc1ENCv0.s:21     .text:0000000000000000 .LFB24
     /tmp/cc1ENCv0.s:140    .text:00000000000000c8 .LFE24
     /tmp/cc1ENCv0.s:3393   .debug_loc:00000000000002f2 .LLST0
     /tmp/cc1ENCv0.s:40     .text:0000000000000018 .LBB2
     /tmp/cc1ENCv0.s:115    .text:0000000000000094 .LBE2
     /tmp/cc1ENCv0.s:3407   .debug_loc:000000000000032b .LLST1
     /tmp/cc1ENCv0.s:3419   .debug_loc:0000000000000362 .LLST2
     /tmp/cc1ENCv0.s:62     .text:0000000000000034 .LBB6
     /tmp/cc1ENCv0.s:77     .text:000000000000004c .LBE6
     /tmp/cc1ENCv0.s:3431   .debug_loc:0000000000000399 .LLST3
     /tmp/cc1ENCv0.s:52     .text:0000000000000028 .LVL3
GAS LISTING /tmp/cc1ENCv0.s 			page 32


     /tmp/cc1ENCv0.s:93     .text:0000000000000068 .LVL9
     /tmp/cc1ENCv0.s:100    .text:000000000000007c .LVL10
     /tmp/cc1ENCv0.s:105    .text:000000000000008c .LVL11
     /tmp/cc1ENCv0.s:120    .text:00000000000000a4 .LVL13
     /tmp/cc1ENCv0.s:3589   .debug_str:0000000000000372 .LASF109
     /tmp/cc1ENCv0.s:281    .text:0000000000000198 .LFB23
     /tmp/cc1ENCv0.s:346    .text:000000000000020c .LFE23
     /tmp/cc1ENCv0.s:3442   .debug_loc:00000000000003cf .LLST8
     /tmp/cc1ENCv0.s:313    .text:00000000000001d4 .LVL33
     /tmp/cc1ENCv0.s:318    .text:00000000000001e4 .LVL34
     /tmp/cc1ENCv0.s:343    .text:0000000000000208 .LVL37
     /tmp/cc1ENCv0.s:3663   .debug_str:000000000000054b .LASF94
     /tmp/cc1ENCv0.s:3661   .debug_str:0000000000000538 .LASF95
     /tmp/cc1ENCv0.s:3699   .debug_str:000000000000062a .LASF96
     /tmp/cc1ENCv0.s:3625   .debug_str:000000000000045c .LASF97
     /tmp/cc1ENCv0.s:3531   .debug_str:00000000000001dd .LASF98
     /tmp/cc1ENCv0.s:3609   .debug_str:0000000000000408 .LASF99
     /tmp/cc1ENCv0.s:821    .text:00000000000005d0 .LVL101
     /tmp/cc1ENCv0.s:825    .text:00000000000005d4 .LVL102
     /tmp/cc1ENCv0.s:830    .text:00000000000005dc .LVL103
     /tmp/cc1ENCv0.s:844    .text:0000000000000600 .LVL106
     /tmp/cc1ENCv0.s:855    .text:000000000000060c .LVL107
     /tmp/cc1ENCv0.s:567    .text:000000000000038c .LVL67
     /tmp/cc1ENCv0.s:585    .text:00000000000003ac .LVL69
     /tmp/cc1ENCv0.s:581    .text:00000000000003a4 .LVL68
     /tmp/cc1ENCv0.s:606    .text:00000000000003e4 .LVL73
     /tmp/cc1ENCv0.s:608    .text:00000000000003e8 .LVL74
     /tmp/cc1ENCv0.s:676    .text:000000000000048c .LVL86
     /tmp/cc1ENCv0.s:678    .text:0000000000000490 .LVL87
     /tmp/cc1ENCv0.s:705    .text:00000000000004c8 .LVL90
     /tmp/cc1ENCv0.s:636    .text:000000000000041c .LVL78
     /tmp/cc1ENCv0.s:640    .text:0000000000000424 .LVL79
     /tmp/cc1ENCv0.s:708    .text:00000000000004cc .LVL91
     /tmp/cc1ENCv0.s:372    .text:000000000000020c .LVL38
     /tmp/cc1ENCv0.s:390    .text:000000000000022c .LVL40
     /tmp/cc1ENCv0.s:386    .text:0000000000000224 .LVL39
     /tmp/cc1ENCv0.s:411    .text:0000000000000264 .LVL44
     /tmp/cc1ENCv0.s:413    .text:0000000000000268 .LVL45
     /tmp/cc1ENCv0.s:507    .text:0000000000000344 .LVL61
     /tmp/cc1ENCv0.s:509    .text:0000000000000348 .LVL62
     /tmp/cc1ENCv0.s:536    .text:0000000000000380 .LVL65
     /tmp/cc1ENCv0.s:442    .text:0000000000000290 .LVL48
     /tmp/cc1ENCv0.s:467    .text:00000000000002d4 .LVL53
     /tmp/cc1ENCv0.s:471    .text:00000000000002dc .LVL54
     /tmp/cc1ENCv0.s:539    .text:0000000000000384 .LVL66
     /tmp/cc1ENCv0.s:157    .text:00000000000000c8 .LVL15
     /tmp/cc1ENCv0.s:176    .text:00000000000000e8 .LVL17
     /tmp/cc1ENCv0.s:171    .text:00000000000000e0 .LVL16
     /tmp/cc1ENCv0.s:271    .text:0000000000000190 .LVL30
     /tmp/cc1ENCv0.s:215    .text:0000000000000118 .LVL23
     /tmp/cc1ENCv0.s:243    .text:000000000000015c .LVL27
     /tmp/cc1ENCv0.s:198    .text:0000000000000100 .LVL20
     /tmp/cc1ENCv0.s:207    .text:0000000000000114 .LVL22
     /tmp/cc1ENCv0.s:25     .text:0000000000000000 .LVL0
     /tmp/cc1ENCv0.s:44     .text:0000000000000020 .LVL2
     /tmp/cc1ENCv0.s:39     .text:0000000000000018 .LVL1
     /tmp/cc1ENCv0.s:135    .text:00000000000000c0 .LVL14
GAS LISTING /tmp/cc1ENCv0.s 			page 33


     /tmp/cc1ENCv0.s:83     .text:0000000000000050 .LVL8
     /tmp/cc1ENCv0.s:111    .text:0000000000000094 .LVL12
     /tmp/cc1ENCv0.s:66     .text:0000000000000038 .LVL5
     /tmp/cc1ENCv0.s:75     .text:000000000000004c .LVL7
     /tmp/cc1ENCv0.s:284    .text:0000000000000198 .LVL31
     /tmp/cc1ENCv0.s:307    .text:00000000000001c8 .LVL32
     /tmp/cc1ENCv0.s:331    .text:00000000000001f4 .LVL35
     /tmp/cc1ENCv0.s:337    .text:0000000000000200 .LVL36
     /tmp/cc1ENCv0.s:889    .debug_info:0000000000000000 .Ldebug_info0
     /tmp/cc1ENCv0.s:47     .text:0000000000000020 .LBB4
     /tmp/cc1ENCv0.s:79     .text:000000000000004c .LBE4
     /tmp/cc1ENCv0.s:107    .text:000000000000008c .LBB8
     /tmp/cc1ENCv0.s:113    .text:0000000000000094 .LBE8
     /tmp/cc1ENCv0.s:179    .text:00000000000000e8 .LBB12
     /tmp/cc1ENCv0.s:211    .text:0000000000000114 .LBE12
     /tmp/cc1ENCv0.s:239    .text:0000000000000154 .LBB16
     /tmp/cc1ENCv0.s:245    .text:000000000000015c .LBE16

UNDEFINED SYMBOLS
thread_dispatch
_Z11printStringPKc
_Z8printIntiii
thread_create
_ZN3PCBD1Ev
_ZN3PCBdlEPv
