GAS LISTING /tmp/ccyyOUIQ.s 			page 1


   1              		.file	"ThreadSleep_C_API_test.cpp"
   2              		.option pic
   3              		.option norelax
   4              		.text
   5              	.Ltext0:
   6              		.section	.rodata.str1.8,"aMS",@progbits,1
   7              		.align	3
   8              	.LC0:
   9 0000 48656C6C 		.string	"Hello "
   9      6F2000
  10 0007 00       		.align	3
  11              	.LC1:
  12 0008 20210A00 		.string	" !\n"
  13 000c 00000000 		.align	3
  14              	.LC2:
  15 0010 776F6B65 		.string	"woke...\n"
  15      2E2E2E0A 
  15      00
  16 0019 00000000 		.align	3
  16      000000
  17              	.LC3:
  18 0020 46696E69 		.string	"Finished...\n"
  18      73686564 
  18      2E2E2E0A 
  18      00
  19              		.text
  20              		.align	2
  21              		.globl	_Z9sleepyRunPv
  23              	_Z9sleepyRunPv:
  24              	.LFB0:
  25              		.file 1 "test/ThreadSleep_C_API_test.cpp"
   1:test/ThreadSleep_C_API_test.cpp **** //
   2:test/ThreadSleep_C_API_test.cpp **** // Created by os on 5/16/22.
   3:test/ThreadSleep_C_API_test.cpp **** //
   4:test/ThreadSleep_C_API_test.cpp **** 
   5:test/ThreadSleep_C_API_test.cpp **** #include "ThreadSleep_C_API_test.hpp"
   6:test/ThreadSleep_C_API_test.cpp **** 
   7:test/ThreadSleep_C_API_test.cpp **** bool finished[2];
   8:test/ThreadSleep_C_API_test.cpp **** 
   9:test/ThreadSleep_C_API_test.cpp **** void sleepyRun(void *arg) {
  26              		.loc 1 9 27
  27              		.cfi_startproc
  28              	.LVL0:
  29 0000 130101FE 		addi	sp,sp,-32
  30              		.cfi_def_cfa_offset 32
  31 0004 233C1100 		sd	ra,24(sp)
  32 0008 23388100 		sd	s0,16(sp)
  33 000c 23349100 		sd	s1,8(sp)
  34 0010 23302101 		sd	s2,0(sp)
  35              		.cfi_offset 1, -8
  36              		.cfi_offset 8, -16
  37              		.cfi_offset 9, -24
  38              		.cfi_offset 18, -32
  39 0014 13040102 		addi	s0,sp,32
  40              		.cfi_def_cfa 8, 0
  10:test/ThreadSleep_C_API_test.cpp ****     time_t sleep_time = *((time_t *) arg);
  41              		.loc 1 10 5
GAS LISTING /tmp/ccyyOUIQ.s 			page 2


  42              		.loc 1 10 12 is_stmt 0
  43 0018 03390500 		ld	s2,0(a0)
  44              	.LVL1:
  11:test/ThreadSleep_C_API_test.cpp ****     int i = 6;
  45              		.loc 1 11 5 is_stmt 1
  46              		.loc 1 11 9 is_stmt 0
  47 001c 93046000 		li	s1,6
  48              	.LVL2:
  49              	.L3:
  12:test/ThreadSleep_C_API_test.cpp ****     while (--i > 0) {
  50              		.loc 1 12 5 is_stmt 1
  51              		.loc 1 12 16
  52 0020 9B84F4FF 		addiw	s1,s1,-1
  53              	.LVL3:
  54 0024 635C9004 		blez	s1,.L2
  13:test/ThreadSleep_C_API_test.cpp **** 
  14:test/ThreadSleep_C_API_test.cpp ****         printString("Hello ");
  55              		.loc 1 14 9
  56              		.loc 1 14 20 is_stmt 0
  57 0028 17050000 		lla	a0,.LC0
  57      13050500 
  58 0030 97000000 		call	_Z11printStringPKc@plt
  58      E7800000 
  59              	.LVL4:
  15:test/ThreadSleep_C_API_test.cpp ****         printInt(sleep_time);
  60              		.loc 1 15 9 is_stmt 1
  61              		.loc 1 15 17 is_stmt 0
  62 0038 13060000 		li	a2,0
  63 003c 9305A000 		li	a1,10
  64 0040 1B050900 		sext.w	a0,s2
  65 0044 97000000 		call	_Z8printIntiii@plt
  65      E7800000 
  66              	.LVL5:
  16:test/ThreadSleep_C_API_test.cpp ****         printString(" !\n");
  67              		.loc 1 16 9 is_stmt 1
  68              		.loc 1 16 20 is_stmt 0
  69 004c 17050000 		lla	a0,.LC1
  69      13050500 
  70 0054 97000000 		call	_Z11printStringPKc@plt
  70      E7800000 
  71              	.LVL6:
  17:test/ThreadSleep_C_API_test.cpp ****         time_sleep(sleep_time);
  72              		.loc 1 17 9 is_stmt 1
  73              		.loc 1 17 19 is_stmt 0
  74 005c 13050900 		mv	a0,s2
  75 0060 97000000 		call	time_sleep@plt
  75      E7800000 
  76              	.LVL7:
  18:test/ThreadSleep_C_API_test.cpp ****         printString("woke...\n");
  77              		.loc 1 18 9 is_stmt 1
  78              		.loc 1 18 20 is_stmt 0
  79 0068 17050000 		lla	a0,.LC2
  79      13050500 
  80 0070 97000000 		call	_Z11printStringPKc@plt
  80      E7800000 
  81              	.LVL8:
  12:test/ThreadSleep_C_API_test.cpp **** 
GAS LISTING /tmp/ccyyOUIQ.s 			page 3


  82              		.loc 1 12 5
  83 0078 6FF09FFA 		j	.L3
  84              	.L2:
  19:test/ThreadSleep_C_API_test.cpp ****     }
  20:test/ThreadSleep_C_API_test.cpp ****     finished[sleep_time/10-1] = true;
  85              		.loc 1 20 5 is_stmt 1
  86              		.loc 1 20 24 is_stmt 0
  87 007c 9307A000 		li	a5,10
  88 0080 3359F902 		divu	s2,s2,a5
  89              	.LVL9:
  90              		.loc 1 20 27
  91 0084 1309F9FF 		addi	s2,s2,-1
  92              		.loc 1 20 31
  93 0088 97070000 		lla	a5,.LANCHOR0
  93      93870700 
  94 0090 33892701 		add	s2,a5,s2
  95 0094 93071000 		li	a5,1
  96 0098 2300F900 		sb	a5,0(s2)
  21:test/ThreadSleep_C_API_test.cpp ****     printString("Finished...\n");
  97              		.loc 1 21 5 is_stmt 1
  98              		.loc 1 21 16 is_stmt 0
  99 009c 17050000 		lla	a0,.LC3
  99      13050500 
 100 00a4 97000000 		call	_Z11printStringPKc@plt
 100      E7800000 
 101              	.LVL10:
  22:test/ThreadSleep_C_API_test.cpp **** }
 102              		.loc 1 22 1
 103 00ac 83308101 		ld	ra,24(sp)
 104              		.cfi_restore 1
 105 00b0 03340101 		ld	s0,16(sp)
 106              		.cfi_restore 8
 107              		.cfi_def_cfa 2, 32
 108 00b4 83348100 		ld	s1,8(sp)
 109              		.cfi_restore 9
 110 00b8 03390100 		ld	s2,0(sp)
 111              		.cfi_restore 18
 112 00bc 13010102 		addi	sp,sp,32
 113              		.cfi_def_cfa_offset 0
 114 00c0 67800000 		jr	ra
 115              		.cfi_endproc
 116              	.LFE0:
 118              		.align	2
 119              		.globl	_Z12testSleepingv
 121              	_Z12testSleepingv:
 122              	.LFB1:
  23:test/ThreadSleep_C_API_test.cpp **** 
  24:test/ThreadSleep_C_API_test.cpp **** void testSleeping()
  25:test/ThreadSleep_C_API_test.cpp **** {
 123              		.loc 1 25 1 is_stmt 1
 124              		.cfi_startproc
 125 00c4 130101FC 		addi	sp,sp,-64
 126              		.cfi_def_cfa_offset 64
 127 00c8 233C1102 		sd	ra,56(sp)
 128 00cc 23388102 		sd	s0,48(sp)
 129 00d0 23349102 		sd	s1,40(sp)
 130              		.cfi_offset 1, -8
GAS LISTING /tmp/ccyyOUIQ.s 			page 4


 131              		.cfi_offset 8, -16
 132              		.cfi_offset 9, -24
 133 00d4 13040104 		addi	s0,sp,64
 134              		.cfi_def_cfa 8, 0
  26:test/ThreadSleep_C_API_test.cpp ****     const int sleepy_thread_count = 2;
 135              		.loc 1 26 5
 136              	.LVL11:
  27:test/ThreadSleep_C_API_test.cpp ****     time_t sleep_times[sleepy_thread_count] = {10, 20};
 137              		.loc 1 27 5
 138              		.loc 1 27 12 is_stmt 0
 139 00d8 9307A000 		li	a5,10
 140 00dc 2338F4FC 		sd	a5,-48(s0)
 141 00e0 93074001 		li	a5,20
 142 00e4 233CF4FC 		sd	a5,-40(s0)
  28:test/ThreadSleep_C_API_test.cpp ****     thread_t sleepyThread[sleepy_thread_count];
 143              		.loc 1 28 5 is_stmt 1
  29:test/ThreadSleep_C_API_test.cpp **** 
  30:test/ThreadSleep_C_API_test.cpp ****     for (int i = 0; i < sleepy_thread_count; i++) {
 144              		.loc 1 30 5
 145              	.LVL12:
 146              	.LBB2:
 147              		.loc 1 30 14 is_stmt 0
 148 00e8 93040000 		li	s1,0
 149 00ec 6F00C002 		j	.L7
 150              	.LVL13:
 151              	.L10:
  31:test/ThreadSleep_C_API_test.cpp ****         thread_create(&sleepyThread[i], sleepyRun, sleep_times + i);
 152              		.loc 1 31 9 is_stmt 1
 153              		.loc 1 31 64 is_stmt 0
 154 00f0 93973400 		slli	a5,s1,3
 155              		.loc 1 31 22
 156 00f4 130604FD 		addi	a2,s0,-48
 157 00f8 3306F600 		add	a2,a2,a5
 158 00fc 97050000 		lla	a1,_Z9sleepyRunPv
 158      93850500 
 159 0104 130504FC 		addi	a0,s0,-64
 160 0108 3305F500 		add	a0,a0,a5
 161 010c 97000000 		call	thread_create@plt
 161      E7800000 
 162              	.LVL14:
  30:test/ThreadSleep_C_API_test.cpp ****         thread_create(&sleepyThread[i], sleepyRun, sleep_times + i);
 163              		.loc 1 30 5 is_stmt 1
 164 0114 9B841400 		addiw	s1,s1,1
 165              	.LVL15:
 166              	.L7:
  30:test/ThreadSleep_C_API_test.cpp ****         thread_create(&sleepyThread[i], sleepyRun, sleep_times + i);
 167              		.loc 1 30 23 discriminator 1
 168 0118 93071000 		li	a5,1
 169 011c E3DA97FC 		ble	s1,a5,.L10
 170              	.L8:
 171              	.LBE2:
  32:test/ThreadSleep_C_API_test.cpp ****     }
  33:test/ThreadSleep_C_API_test.cpp **** 
  34:test/ThreadSleep_C_API_test.cpp ****     while (!(finished[0] && finished[1])) {}
 172              		.loc 1 34 5
 173              		.loc 1 34 12
 174              		.loc 1 34 24 is_stmt 0
GAS LISTING /tmp/ccyyOUIQ.s 			page 5


 175 0120 97070000 		lbu	a5,.LANCHOR0
 175      83C70700 
 176              		.loc 1 34 12
 177 0128 E38C07FE 		beqz	a5,.L8
 178              		.loc 1 34 39 discriminator 1
 179 012c 97070000 		lbu	a5,.LANCHOR0+1
 179      83C70700 
 180              		.loc 1 34 12 discriminator 1
 181 0134 E38607FE 		beqz	a5,.L8
  35:test/ThreadSleep_C_API_test.cpp **** }
 182              		.loc 1 35 1
 183 0138 83308103 		ld	ra,56(sp)
 184              		.cfi_restore 1
 185 013c 03340103 		ld	s0,48(sp)
 186              		.cfi_restore 8
 187              		.cfi_def_cfa 2, 64
 188 0140 83348102 		ld	s1,40(sp)
 189              		.cfi_restore 9
 190              	.LVL16:
 191 0144 13010104 		addi	sp,sp,64
 192              		.cfi_def_cfa_offset 0
 193 0148 67800000 		jr	ra
 194              		.cfi_endproc
 195              	.LFE1:
 197              		.globl	finished
 198              		.bss
 199              		.align	3
 200              		.set	.LANCHOR0,. + 0
 203              	finished:
 204 0000 0000     		.zero	2
 205              		.text
 206              	.Letext0:
 207              		.file 2 "test/../h/../lib/hw.h"
 208              		.file 3 "test/../h/syscall_c.h"
 209              		.file 4 "test/printing.hpp"
GAS LISTING /tmp/ccyyOUIQ.s 			page 6

