GAS LISTING /tmp/ccyyOUIQ.s 			page 1


   1              		.file	"ThreadSleep_C_API_test.cpp"
   2              		.option pic
   3              		.option norelax
   4              		.text
   5              	.Ltext0:
   6              		.section	.rodata.str1.8,"aMS",@progbits,1
   7              		.align	3
   8              	.LC0:
   9 0000 48656C6C 		.string	"Hello "
   9      6F2000
  10 0007 00       		.align	3
  11              	.LC1:
  12 0008 20210A00 		.string	" !\n"
  13 000c 00000000 		.align	3
  14              	.LC2:
  15 0010 776F6B65 		.string	"woke...\n"
  15      2E2E2E0A 
  15      00
  16 0019 00000000 		.align	3
  16      000000
  17              	.LC3:
  18 0020 46696E69 		.string	"Finished...\n"
  18      73686564 
  18      2E2E2E0A 
  18      00
  19              		.text
  20              		.align	2
  21              		.globl	_Z9sleepyRunPv
  23              	_Z9sleepyRunPv:
  24              	.LFB0:
  25              		.file 1 "test/ThreadSleep_C_API_test.cpp"
   1:test/ThreadSleep_C_API_test.cpp **** //
   2:test/ThreadSleep_C_API_test.cpp **** // Created by os on 5/16/22.
   3:test/ThreadSleep_C_API_test.cpp **** //
   4:test/ThreadSleep_C_API_test.cpp **** 
   5:test/ThreadSleep_C_API_test.cpp **** #include "ThreadSleep_C_API_test.hpp"
   6:test/ThreadSleep_C_API_test.cpp **** 
   7:test/ThreadSleep_C_API_test.cpp **** bool finished[2];
   8:test/ThreadSleep_C_API_test.cpp **** 
   9:test/ThreadSleep_C_API_test.cpp **** void sleepyRun(void *arg) {
  26              		.loc 1 9 27
  27              		.cfi_startproc
  28              	.LVL0:
  29 0000 130101FE 		addi	sp,sp,-32
  30              		.cfi_def_cfa_offset 32
  31 0004 233C1100 		sd	ra,24(sp)
  32 0008 23388100 		sd	s0,16(sp)
  33 000c 23349100 		sd	s1,8(sp)
  34 0010 23302101 		sd	s2,0(sp)
  35              		.cfi_offset 1, -8
  36              		.cfi_offset 8, -16
  37              		.cfi_offset 9, -24
  38              		.cfi_offset 18, -32
  39 0014 13040102 		addi	s0,sp,32
  40              		.cfi_def_cfa 8, 0
  10:test/ThreadSleep_C_API_test.cpp ****     time_t sleep_time = *((time_t *) arg);
  41              		.loc 1 10 5
GAS LISTING /tmp/ccyyOUIQ.s 			page 2


  42              		.loc 1 10 12 is_stmt 0
  43 0018 03390500 		ld	s2,0(a0)
  44              	.LVL1:
  11:test/ThreadSleep_C_API_test.cpp ****     int i = 6;
  45              		.loc 1 11 5 is_stmt 1
  46              		.loc 1 11 9 is_stmt 0
  47 001c 93046000 		li	s1,6
  48              	.LVL2:
  49              	.L3:
  12:test/ThreadSleep_C_API_test.cpp ****     while (--i > 0) {
  50              		.loc 1 12 5 is_stmt 1
  51              		.loc 1 12 16
  52 0020 9B84F4FF 		addiw	s1,s1,-1
  53              	.LVL3:
  54 0024 635C9004 		blez	s1,.L2
  13:test/ThreadSleep_C_API_test.cpp **** 
  14:test/ThreadSleep_C_API_test.cpp ****         printString("Hello ");
  55              		.loc 1 14 9
  56              		.loc 1 14 20 is_stmt 0
  57 0028 17050000 		lla	a0,.LC0
  57      13050500 
  58 0030 97000000 		call	_Z11printStringPKc@plt
  58      E7800000 
  59              	.LVL4:
  15:test/ThreadSleep_C_API_test.cpp ****         printInt(sleep_time);
  60              		.loc 1 15 9 is_stmt 1
  61              		.loc 1 15 17 is_stmt 0
  62 0038 13060000 		li	a2,0
  63 003c 9305A000 		li	a1,10
  64 0040 1B050900 		sext.w	a0,s2
  65 0044 97000000 		call	_Z8printIntiii@plt
  65      E7800000 
  66              	.LVL5:
  16:test/ThreadSleep_C_API_test.cpp ****         printString(" !\n");
  67              		.loc 1 16 9 is_stmt 1
  68              		.loc 1 16 20 is_stmt 0
  69 004c 17050000 		lla	a0,.LC1
  69      13050500 
  70 0054 97000000 		call	_Z11printStringPKc@plt
  70      E7800000 
  71              	.LVL6:
  17:test/ThreadSleep_C_API_test.cpp ****         time_sleep(sleep_time);
  72              		.loc 1 17 9 is_stmt 1
  73              		.loc 1 17 19 is_stmt 0
  74 005c 13050900 		mv	a0,s2
  75 0060 97000000 		call	time_sleep@plt
  75      E7800000 
  76              	.LVL7:
  18:test/ThreadSleep_C_API_test.cpp ****         printString("woke...\n");
  77              		.loc 1 18 9 is_stmt 1
  78              		.loc 1 18 20 is_stmt 0
  79 0068 17050000 		lla	a0,.LC2
  79      13050500 
  80 0070 97000000 		call	_Z11printStringPKc@plt
  80      E7800000 
  81              	.LVL8:
  12:test/ThreadSleep_C_API_test.cpp **** 
GAS LISTING /tmp/ccyyOUIQ.s 			page 3


  82              		.loc 1 12 5
  83 0078 6FF09FFA 		j	.L3
  84              	.L2:
  19:test/ThreadSleep_C_API_test.cpp ****     }
  20:test/ThreadSleep_C_API_test.cpp ****     finished[sleep_time/10-1] = true;
  85              		.loc 1 20 5 is_stmt 1
  86              		.loc 1 20 24 is_stmt 0
  87 007c 9307A000 		li	a5,10
  88 0080 3359F902 		divu	s2,s2,a5
  89              	.LVL9:
  90              		.loc 1 20 27
  91 0084 1309F9FF 		addi	s2,s2,-1
  92              		.loc 1 20 31
  93 0088 97070000 		lla	a5,.LANCHOR0
  93      93870700 
  94 0090 33892701 		add	s2,a5,s2
  95 0094 93071000 		li	a5,1
  96 0098 2300F900 		sb	a5,0(s2)
  21:test/ThreadSleep_C_API_test.cpp ****     printString("Finished...\n");
  97              		.loc 1 21 5 is_stmt 1
  98              		.loc 1 21 16 is_stmt 0
  99 009c 17050000 		lla	a0,.LC3
  99      13050500 
 100 00a4 97000000 		call	_Z11printStringPKc@plt
 100      E7800000 
 101              	.LVL10:
  22:test/ThreadSleep_C_API_test.cpp **** }
 102              		.loc 1 22 1
 103 00ac 83308101 		ld	ra,24(sp)
 104              		.cfi_restore 1
 105 00b0 03340101 		ld	s0,16(sp)
 106              		.cfi_restore 8
 107              		.cfi_def_cfa 2, 32
 108 00b4 83348100 		ld	s1,8(sp)
 109              		.cfi_restore 9
 110 00b8 03390100 		ld	s2,0(sp)
 111              		.cfi_restore 18
 112 00bc 13010102 		addi	sp,sp,32
 113              		.cfi_def_cfa_offset 0
 114 00c0 67800000 		jr	ra
 115              		.cfi_endproc
 116              	.LFE0:
 118              		.align	2
 119              		.globl	_Z12testSleepingv
 121              	_Z12testSleepingv:
 122              	.LFB1:
  23:test/ThreadSleep_C_API_test.cpp **** 
  24:test/ThreadSleep_C_API_test.cpp **** void testSleeping()
  25:test/ThreadSleep_C_API_test.cpp **** {
 123              		.loc 1 25 1 is_stmt 1
 124              		.cfi_startproc
 125 00c4 130101FC 		addi	sp,sp,-64
 126              		.cfi_def_cfa_offset 64
 127 00c8 233C1102 		sd	ra,56(sp)
 128 00cc 23388102 		sd	s0,48(sp)
 129 00d0 23349102 		sd	s1,40(sp)
 130              		.cfi_offset 1, -8
GAS LISTING /tmp/ccyyOUIQ.s 			page 4


 131              		.cfi_offset 8, -16
 132              		.cfi_offset 9, -24
 133 00d4 13040104 		addi	s0,sp,64
 134              		.cfi_def_cfa 8, 0
  26:test/ThreadSleep_C_API_test.cpp ****     const int sleepy_thread_count = 2;
 135              		.loc 1 26 5
 136              	.LVL11:
  27:test/ThreadSleep_C_API_test.cpp ****     time_t sleep_times[sleepy_thread_count] = {10, 20};
 137              		.loc 1 27 5
 138              		.loc 1 27 12 is_stmt 0
 139 00d8 9307A000 		li	a5,10
 140 00dc 2338F4FC 		sd	a5,-48(s0)
 141 00e0 93074001 		li	a5,20
 142 00e4 233CF4FC 		sd	a5,-40(s0)
  28:test/ThreadSleep_C_API_test.cpp ****     thread_t sleepyThread[sleepy_thread_count];
 143              		.loc 1 28 5 is_stmt 1
  29:test/ThreadSleep_C_API_test.cpp **** 
  30:test/ThreadSleep_C_API_test.cpp ****     for (int i = 0; i < sleepy_thread_count; i++) {
 144              		.loc 1 30 5
 145              	.LVL12:
 146              	.LBB2:
 147              		.loc 1 30 14 is_stmt 0
 148 00e8 93040000 		li	s1,0
 149 00ec 6F00C002 		j	.L7
 150              	.LVL13:
 151              	.L10:
  31:test/ThreadSleep_C_API_test.cpp ****         thread_create(&sleepyThread[i], sleepyRun, sleep_times + i);
 152              		.loc 1 31 9 is_stmt 1
 153              		.loc 1 31 64 is_stmt 0
 154 00f0 93973400 		slli	a5,s1,3
 155              		.loc 1 31 22
 156 00f4 130604FD 		addi	a2,s0,-48
 157 00f8 3306F600 		add	a2,a2,a5
 158 00fc 97050000 		lla	a1,_Z9sleepyRunPv
 158      93850500 
 159 0104 130504FC 		addi	a0,s0,-64
 160 0108 3305F500 		add	a0,a0,a5
 161 010c 97000000 		call	thread_create@plt
 161      E7800000 
 162              	.LVL14:
  30:test/ThreadSleep_C_API_test.cpp ****         thread_create(&sleepyThread[i], sleepyRun, sleep_times + i);
 163              		.loc 1 30 5 is_stmt 1
 164 0114 9B841400 		addiw	s1,s1,1
 165              	.LVL15:
 166              	.L7:
  30:test/ThreadSleep_C_API_test.cpp ****         thread_create(&sleepyThread[i], sleepyRun, sleep_times + i);
 167              		.loc 1 30 23 discriminator 1
 168 0118 93071000 		li	a5,1
 169 011c E3DA97FC 		ble	s1,a5,.L10
 170              	.L8:
 171              	.LBE2:
  32:test/ThreadSleep_C_API_test.cpp ****     }
  33:test/ThreadSleep_C_API_test.cpp **** 
  34:test/ThreadSleep_C_API_test.cpp ****     while (!(finished[0] && finished[1])) {}
 172              		.loc 1 34 5
 173              		.loc 1 34 12
 174              		.loc 1 34 24 is_stmt 0
GAS LISTING /tmp/ccyyOUIQ.s 			page 5


 175 0120 97070000 		lbu	a5,.LANCHOR0
 175      83C70700 
 176              		.loc 1 34 12
 177 0128 E38C07FE 		beqz	a5,.L8
 178              		.loc 1 34 39 discriminator 1
 179 012c 97070000 		lbu	a5,.LANCHOR0+1
 179      83C70700 
 180              		.loc 1 34 12 discriminator 1
 181 0134 E38607FE 		beqz	a5,.L8
  35:test/ThreadSleep_C_API_test.cpp **** }
 182              		.loc 1 35 1
 183 0138 83308103 		ld	ra,56(sp)
 184              		.cfi_restore 1
 185 013c 03340103 		ld	s0,48(sp)
 186              		.cfi_restore 8
 187              		.cfi_def_cfa 2, 64
 188 0140 83348102 		ld	s1,40(sp)
 189              		.cfi_restore 9
 190              	.LVL16:
 191 0144 13010104 		addi	sp,sp,64
 192              		.cfi_def_cfa_offset 0
 193 0148 67800000 		jr	ra
 194              		.cfi_endproc
 195              	.LFE1:
 197              		.globl	finished
 198              		.bss
 199              		.align	3
 200              		.set	.LANCHOR0,. + 0
 203              	finished:
 204 0000 0000     		.zero	2
 205              		.text
 206              	.Letext0:
 207              		.file 2 "test/../h/../lib/hw.h"
 208              		.file 3 "test/../h/syscall_c.h"
 209              		.file 4 "test/printing.hpp"
GAS LISTING /tmp/ccyyOUIQ.s 			page 6


DEFINED SYMBOLS
                            *ABS*:0000000000000000 ThreadSleep_C_API_test.cpp
     /tmp/ccyyOUIQ.s:23     .text:0000000000000000 _Z9sleepyRunPv
     /tmp/ccyyOUIQ.s:27     .text:0000000000000000 .L0 
     /tmp/ccyyOUIQ.s:29     .text:0000000000000000 .L0 
     /tmp/ccyyOUIQ.s:30     .text:0000000000000004 .L0 
     /tmp/ccyyOUIQ.s:35     .text:0000000000000014 .L0 
     /tmp/ccyyOUIQ.s:36     .text:0000000000000014 .L0 
     /tmp/ccyyOUIQ.s:37     .text:0000000000000014 .L0 
     /tmp/ccyyOUIQ.s:38     .text:0000000000000014 .L0 
     /tmp/ccyyOUIQ.s:40     .text:0000000000000018 .L0 
     /tmp/ccyyOUIQ.s:42     .text:0000000000000018 .L0 
     /tmp/ccyyOUIQ.s:43     .text:0000000000000018 .L0 
     /tmp/ccyyOUIQ.s:46     .text:000000000000001c .L0 
     /tmp/ccyyOUIQ.s:47     .text:000000000000001c .L0 
     /tmp/ccyyOUIQ.s:51     .text:0000000000000020 .L0 
     /tmp/ccyyOUIQ.s:52     .text:0000000000000020 .L0 
     /tmp/ccyyOUIQ.s:56     .text:0000000000000028 .L0 
     /tmp/ccyyOUIQ.s:57     .text:0000000000000028 .L0 
     /tmp/ccyyOUIQ.s:61     .text:0000000000000038 .L0 
     /tmp/ccyyOUIQ.s:62     .text:0000000000000038 .L0 
     /tmp/ccyyOUIQ.s:68     .text:000000000000004c .L0 
     /tmp/ccyyOUIQ.s:69     .text:000000000000004c .L0 
     /tmp/ccyyOUIQ.s:73     .text:000000000000005c .L0 
     /tmp/ccyyOUIQ.s:74     .text:000000000000005c .L0 
     /tmp/ccyyOUIQ.s:78     .text:0000000000000068 .L0 
     /tmp/ccyyOUIQ.s:79     .text:0000000000000068 .L0 
     /tmp/ccyyOUIQ.s:83     .text:0000000000000078 .L0 
     /tmp/ccyyOUIQ.s:86     .text:000000000000007c .L0 
     /tmp/ccyyOUIQ.s:87     .text:000000000000007c .L0 
     /tmp/ccyyOUIQ.s:91     .text:0000000000000084 .L0 
     /tmp/ccyyOUIQ.s:93     .text:0000000000000088 .L0 
     /tmp/ccyyOUIQ.s:98     .text:000000000000009c .L0 
     /tmp/ccyyOUIQ.s:99     .text:000000000000009c .L0 
     /tmp/ccyyOUIQ.s:103    .text:00000000000000ac .L0 
     /tmp/ccyyOUIQ.s:104    .text:00000000000000b0 .L0 
     /tmp/ccyyOUIQ.s:106    .text:00000000000000b4 .L0 
     /tmp/ccyyOUIQ.s:107    .text:00000000000000b4 .L0 
     /tmp/ccyyOUIQ.s:109    .text:00000000000000b8 .L0 
     /tmp/ccyyOUIQ.s:111    .text:00000000000000bc .L0 
     /tmp/ccyyOUIQ.s:113    .text:00000000000000c0 .L0 
     /tmp/ccyyOUIQ.s:115    .text:00000000000000c4 .L0 
     /tmp/ccyyOUIQ.s:121    .text:00000000000000c4 _Z12testSleepingv
     /tmp/ccyyOUIQ.s:124    .text:00000000000000c4 .L0 
     /tmp/ccyyOUIQ.s:125    .text:00000000000000c4 .L0 
     /tmp/ccyyOUIQ.s:126    .text:00000000000000c8 .L0 
     /tmp/ccyyOUIQ.s:130    .text:00000000000000d4 .L0 
     /tmp/ccyyOUIQ.s:131    .text:00000000000000d4 .L0 
     /tmp/ccyyOUIQ.s:132    .text:00000000000000d4 .L0 
     /tmp/ccyyOUIQ.s:134    .text:00000000000000d8 .L0 
     /tmp/ccyyOUIQ.s:137    .text:00000000000000d8 .L0 
     /tmp/ccyyOUIQ.s:138    .text:00000000000000d8 .L0 
     /tmp/ccyyOUIQ.s:139    .text:00000000000000d8 .L0 
     /tmp/ccyyOUIQ.s:144    .text:00000000000000e8 .L0 
     /tmp/ccyyOUIQ.s:147    .text:00000000000000e8 .L0 
     /tmp/ccyyOUIQ.s:148    .text:00000000000000e8 .L0 
     /tmp/ccyyOUIQ.s:153    .text:00000000000000f0 .L0 
GAS LISTING /tmp/ccyyOUIQ.s 			page 7


     /tmp/ccyyOUIQ.s:154    .text:00000000000000f0 .L0 
     /tmp/ccyyOUIQ.s:156    .text:00000000000000f4 .L0 
     /tmp/ccyyOUIQ.s:164    .text:0000000000000114 .L0 
     /tmp/ccyyOUIQ.s:168    .text:0000000000000118 .L0 
     /tmp/ccyyOUIQ.s:173    .text:0000000000000120 .L0 
     /tmp/ccyyOUIQ.s:174    .text:0000000000000120 .L0 
     /tmp/ccyyOUIQ.s:175    .text:0000000000000120 .L0 
     /tmp/ccyyOUIQ.s:177    .text:0000000000000128 .L0 
     /tmp/ccyyOUIQ.s:179    .text:000000000000012c .L0 
     /tmp/ccyyOUIQ.s:181    .text:0000000000000134 .L0 
     /tmp/ccyyOUIQ.s:183    .text:0000000000000138 .L0 
     /tmp/ccyyOUIQ.s:184    .text:000000000000013c .L0 
     /tmp/ccyyOUIQ.s:186    .text:0000000000000140 .L0 
     /tmp/ccyyOUIQ.s:187    .text:0000000000000140 .L0 
     /tmp/ccyyOUIQ.s:189    .text:0000000000000144 .L0 
     /tmp/ccyyOUIQ.s:192    .text:0000000000000148 .L0 
     /tmp/ccyyOUIQ.s:194    .text:000000000000014c .L0 
     /tmp/ccyyOUIQ.s:203    .bss:0000000000000000 finished
     /tmp/ccyyOUIQ.s:200    .bss:0000000000000000 .LANCHOR0
     /tmp/ccyyOUIQ.s:210    .text:000000000000014c .L0 
     /tmp/ccyyOUIQ.s:8      .rodata.str1.8:0000000000000000 .LC0
     /tmp/ccyyOUIQ.s:57     .text:0000000000000028 .L0 
     /tmp/ccyyOUIQ.s:11     .rodata.str1.8:0000000000000008 .LC1
     /tmp/ccyyOUIQ.s:69     .text:000000000000004c .L0 
     /tmp/ccyyOUIQ.s:14     .rodata.str1.8:0000000000000010 .LC2
     /tmp/ccyyOUIQ.s:79     .text:0000000000000068 .L0 
     /tmp/ccyyOUIQ.s:93     .text:0000000000000088 .L0 
     /tmp/ccyyOUIQ.s:17     .rodata.str1.8:0000000000000020 .LC3
     /tmp/ccyyOUIQ.s:99     .text:000000000000009c .L0 
     /tmp/ccyyOUIQ.s:158    .text:00000000000000fc .L0 
     /tmp/ccyyOUIQ.s:175    .text:0000000000000120 .L0 
     /tmp/ccyyOUIQ.s:179    .text:000000000000012c .L0 
     /tmp/ccyyOUIQ.s:84     .text:000000000000007c .L2
     /tmp/ccyyOUIQ.s:49     .text:0000000000000020 .L3
     /tmp/ccyyOUIQ.s:166    .text:0000000000000118 .L7
     /tmp/ccyyOUIQ.s:151    .text:00000000000000f0 .L10
     /tmp/ccyyOUIQ.s:170    .text:0000000000000120 .L8
     /tmp/ccyyOUIQ.s:603    .debug_abbrev:0000000000000000 .Ldebug_abbrev0
     /tmp/ccyyOUIQ.s:1029   .debug_str:000000000000010e .LASF35
     /tmp/ccyyOUIQ.s:1021   .debug_str:00000000000000d4 .LASF36
     /tmp/ccyyOUIQ.s:1015   .debug_str:0000000000000093 .LASF37
     /tmp/ccyyOUIQ.s:5      .text:0000000000000000 .Ltext0
     /tmp/ccyyOUIQ.s:206    .text:000000000000014c .Letext0
     /tmp/ccyyOUIQ.s:991    .debug_line:0000000000000000 .Ldebug_line0
     /tmp/ccyyOUIQ.s:995    .debug_str:000000000000000c .LASF0
     /tmp/ccyyOUIQ.s:1047   .debug_str:000000000000023b .LASF1
     /tmp/ccyyOUIQ.s:997    .debug_str:0000000000000019 .LASF2
     /tmp/ccyyOUIQ.s:1059   .debug_str:0000000000000295 .LASF4
     /tmp/ccyyOUIQ.s:1011   .debug_str:0000000000000072 .LASF3
     /tmp/ccyyOUIQ.s:1003   .debug_str:0000000000000044 .LASF5
     /tmp/ccyyOUIQ.s:1033   .debug_str:00000000000001c8 .LASF6
     /tmp/ccyyOUIQ.s:1019   .debug_str:00000000000000c1 .LASF7
     /tmp/ccyyOUIQ.s:1045   .debug_str:0000000000000228 .LASF8
     /tmp/ccyyOUIQ.s:1061   .debug_str:000000000000029c .LASF9
     /tmp/ccyyOUIQ.s:999    .debug_str:0000000000000027 .LASF10
     /tmp/ccyyOUIQ.s:1001   .debug_str:0000000000000035 .LASF11
     /tmp/ccyyOUIQ.s:1051   .debug_str:000000000000025e .LASF12
GAS LISTING /tmp/ccyyOUIQ.s 			page 8


     /tmp/ccyyOUIQ.s:1005   .debug_str:000000000000004b .LASF13
     /tmp/ccyyOUIQ.s:1049   .debug_str:000000000000024e .LASF14
     /tmp/ccyyOUIQ.s:1027   .debug_str:0000000000000102 .LASF15
     /tmp/ccyyOUIQ.s:1039   .debug_str:00000000000001f4 .LASF16
     /tmp/ccyyOUIQ.s:1035   .debug_str:00000000000001cf .LASF17
     /tmp/ccyyOUIQ.s:1025   .debug_str:00000000000000f9 .LASF18
     /tmp/ccyyOUIQ.s:1023   .debug_str:00000000000000f4 .LASF19
     /tmp/ccyyOUIQ.s:1063   .debug_str:00000000000002ac .LASF20
     /tmp/ccyyOUIQ.s:1067   .debug_str:00000000000002c8 .LASF24
     /tmp/ccyyOUIQ.s:1053   .debug_str:000000000000026d .LASF26
     /tmp/ccyyOUIQ.s:122    .text:00000000000000c4 .LFB1
     /tmp/ccyyOUIQ.s:195    .text:000000000000014c .LFE1
     /tmp/ccyyOUIQ.s:1043   .debug_str:0000000000000214 .LASF21
     /tmp/ccyyOUIQ.s:993    .debug_str:0000000000000000 .LASF22
     /tmp/ccyyOUIQ.s:1055   .debug_str:000000000000027f .LASF23
     /tmp/ccyyOUIQ.s:146    .text:00000000000000e8 .LBB2
     /tmp/ccyyOUIQ.s:171    .text:0000000000000120 .LBE2
     /tmp/ccyyOUIQ.s:933    .debug_loc:0000000000000000 .LLST3
     /tmp/ccyyOUIQ.s:162    .text:0000000000000114 .LVL14
     /tmp/ccyyOUIQ.s:1041   .debug_str:000000000000020a .LASF25
     /tmp/ccyyOUIQ.s:1013   .debug_str:0000000000000084 .LASF27
     /tmp/ccyyOUIQ.s:24     .text:0000000000000000 .LFB0
     /tmp/ccyyOUIQ.s:116    .text:00000000000000c4 .LFE0
     /tmp/ccyyOUIQ.s:945    .debug_loc:0000000000000037 .LLST0
     /tmp/ccyyOUIQ.s:1017   .debug_str:00000000000000b6 .LASF28
     /tmp/ccyyOUIQ.s:959    .debug_loc:0000000000000070 .LLST1
     /tmp/ccyyOUIQ.s:966    .debug_loc:0000000000000093 .LLST2
     /tmp/ccyyOUIQ.s:59     .text:0000000000000038 .LVL4
     /tmp/ccyyOUIQ.s:66     .text:000000000000004c .LVL5
     /tmp/ccyyOUIQ.s:71     .text:000000000000005c .LVL6
     /tmp/ccyyOUIQ.s:76     .text:0000000000000068 .LVL7
     /tmp/ccyyOUIQ.s:81     .text:0000000000000078 .LVL8
     /tmp/ccyyOUIQ.s:101    .text:00000000000000ac .LVL10
     /tmp/ccyyOUIQ.s:1031   .debug_str:00000000000001ba .LASF29
     /tmp/ccyyOUIQ.s:1065   .debug_str:00000000000002b5 .LASF30
     /tmp/ccyyOUIQ.s:1007   .debug_str:000000000000005b .LASF31
     /tmp/ccyyOUIQ.s:1037   .debug_str:00000000000001e5 .LASF32
     /tmp/ccyyOUIQ.s:1057   .debug_str:000000000000028c .LASF33
     /tmp/ccyyOUIQ.s:1009   .debug_str:0000000000000067 .LASF34
     /tmp/ccyyOUIQ.s:145    .text:00000000000000e8 .LVL12
     /tmp/ccyyOUIQ.s:150    .text:00000000000000f0 .LVL13
     /tmp/ccyyOUIQ.s:190    .text:0000000000000144 .LVL16
     /tmp/ccyyOUIQ.s:28     .text:0000000000000000 .LVL0
     /tmp/ccyyOUIQ.s:48     .text:0000000000000020 .LVL2
     /tmp/ccyyOUIQ.s:44     .text:000000000000001c .LVL1
     /tmp/ccyyOUIQ.s:89     .text:0000000000000084 .LVL9
     /tmp/ccyyOUIQ.s:53     .text:0000000000000024 .LVL3
     /tmp/ccyyOUIQ.s:211    .debug_info:0000000000000000 .Ldebug_info0

UNDEFINED SYMBOLS
_Z11printStringPKc
_Z8printIntiii
time_sleep
thread_create
