GAS LISTING /tmp/cc4dLTYL.s 			page 1


   1              		.file	"userMain.cpp"
   2              		.option pic
   3              		.option norelax
   4              		.text
   5              	.Ltext0:
   6              		.section	.text._ZN8ConsumerD2Ev,"axG",@progbits,_ZN8ConsumerD5Ev,comdat
   7              		.align	2
   8              		.weak	_ZN8ConsumerD2Ev
  10              	_ZN8ConsumerD2Ev:
  11              	.LFB20:
  12              		.file 1 "test/ConsumerProducer_CPP_Sync_API_test.hpp"
   1:test/ConsumerProducer_CPP_Sync_API_test.hpp **** //
   2:test/ConsumerProducer_CPP_Sync_API_test.hpp **** // Created by os on 4/17/22.
   3:test/ConsumerProducer_CPP_Sync_API_test.hpp **** //
   4:test/ConsumerProducer_CPP_Sync_API_test.hpp **** 
   5:test/ConsumerProducer_CPP_Sync_API_test.hpp **** #ifndef XV6_CONSUMERPRODUCER_CPP_Sync_API_TEST_H
   6:test/ConsumerProducer_CPP_Sync_API_test.hpp **** #define XV6_CONSUMERPRODUCER_CPP_Sync_API_TEST_H
   7:test/ConsumerProducer_CPP_Sync_API_test.hpp **** 
   8:test/ConsumerProducer_CPP_Sync_API_test.hpp **** #include "buffer_CPP_API.hpp"
   9:test/ConsumerProducer_CPP_Sync_API_test.hpp **** 
  10:test/ConsumerProducer_CPP_Sync_API_test.hpp **** Semaphore* waitForAll;
  11:test/ConsumerProducer_CPP_Sync_API_test.hpp **** 
  12:test/ConsumerProducer_CPP_Sync_API_test.hpp **** struct thread_data {
  13:test/ConsumerProducer_CPP_Sync_API_test.hpp ****     int id;
  14:test/ConsumerProducer_CPP_Sync_API_test.hpp ****     BufferCPP *buffer;
  15:test/ConsumerProducer_CPP_Sync_API_test.hpp ****     Semaphore* wait;
  16:test/ConsumerProducer_CPP_Sync_API_test.hpp **** };
  17:test/ConsumerProducer_CPP_Sync_API_test.hpp **** 
  18:test/ConsumerProducer_CPP_Sync_API_test.hpp **** volatile int threadEnd = 0;
  19:test/ConsumerProducer_CPP_Sync_API_test.hpp **** 
  20:test/ConsumerProducer_CPP_Sync_API_test.hpp **** class ProducerKeyboard:public Thread {
  21:test/ConsumerProducer_CPP_Sync_API_test.hpp ****     thread_data* td;
  22:test/ConsumerProducer_CPP_Sync_API_test.hpp ****     void producerKeyboard(void *arg);
  23:test/ConsumerProducer_CPP_Sync_API_test.hpp **** public:
  24:test/ConsumerProducer_CPP_Sync_API_test.hpp ****     ProducerKeyboard(thread_data* _td):Thread(), td(_td) {}
  25:test/ConsumerProducer_CPP_Sync_API_test.hpp **** 
  26:test/ConsumerProducer_CPP_Sync_API_test.hpp ****     void run() override {
  27:test/ConsumerProducer_CPP_Sync_API_test.hpp ****         producerKeyboard(td);
  28:test/ConsumerProducer_CPP_Sync_API_test.hpp ****     }
  29:test/ConsumerProducer_CPP_Sync_API_test.hpp **** };
  30:test/ConsumerProducer_CPP_Sync_API_test.hpp **** 
  31:test/ConsumerProducer_CPP_Sync_API_test.hpp **** void ProducerKeyboard::producerKeyboard(void *arg) {
  32:test/ConsumerProducer_CPP_Sync_API_test.hpp ****     struct thread_data *data = (struct thread_data *) arg;
  33:test/ConsumerProducer_CPP_Sync_API_test.hpp **** 
  34:test/ConsumerProducer_CPP_Sync_API_test.hpp ****     int key;
  35:test/ConsumerProducer_CPP_Sync_API_test.hpp ****     int i = 0;
  36:test/ConsumerProducer_CPP_Sync_API_test.hpp ****     while ((key = getc()) != 'q') {
  37:test/ConsumerProducer_CPP_Sync_API_test.hpp ****         data->buffer->put(key);
  38:test/ConsumerProducer_CPP_Sync_API_test.hpp ****         i++;
  39:test/ConsumerProducer_CPP_Sync_API_test.hpp **** 
  40:test/ConsumerProducer_CPP_Sync_API_test.hpp ****         if (i % (10 * data->id) == 0) {
  41:test/ConsumerProducer_CPP_Sync_API_test.hpp ****             Thread::dispatch();
  42:test/ConsumerProducer_CPP_Sync_API_test.hpp ****         }
  43:test/ConsumerProducer_CPP_Sync_API_test.hpp ****     }
  44:test/ConsumerProducer_CPP_Sync_API_test.hpp **** 
  45:test/ConsumerProducer_CPP_Sync_API_test.hpp ****     threadEnd = 1;
  46:test/ConsumerProducer_CPP_Sync_API_test.hpp ****     td->buffer->put('!');
GAS LISTING /tmp/cc4dLTYL.s 			page 2


  47:test/ConsumerProducer_CPP_Sync_API_test.hpp **** 
  48:test/ConsumerProducer_CPP_Sync_API_test.hpp ****     data->wait->signal();
  49:test/ConsumerProducer_CPP_Sync_API_test.hpp **** }
  50:test/ConsumerProducer_CPP_Sync_API_test.hpp **** 
  51:test/ConsumerProducer_CPP_Sync_API_test.hpp **** class Producer:public Thread {
  52:test/ConsumerProducer_CPP_Sync_API_test.hpp ****     thread_data* td;
  53:test/ConsumerProducer_CPP_Sync_API_test.hpp ****     void producer(void *arg);
  54:test/ConsumerProducer_CPP_Sync_API_test.hpp **** public:
  55:test/ConsumerProducer_CPP_Sync_API_test.hpp ****     Producer(thread_data* _td):Thread(), td(_td) {}
  56:test/ConsumerProducer_CPP_Sync_API_test.hpp **** 
  57:test/ConsumerProducer_CPP_Sync_API_test.hpp ****     void run() override {
  58:test/ConsumerProducer_CPP_Sync_API_test.hpp ****         producer(td);
  59:test/ConsumerProducer_CPP_Sync_API_test.hpp ****     }
  60:test/ConsumerProducer_CPP_Sync_API_test.hpp **** };
  61:test/ConsumerProducer_CPP_Sync_API_test.hpp **** 
  62:test/ConsumerProducer_CPP_Sync_API_test.hpp **** void Producer::producer(void *arg) {
  63:test/ConsumerProducer_CPP_Sync_API_test.hpp ****     struct thread_data *data = (struct thread_data *) arg;
  64:test/ConsumerProducer_CPP_Sync_API_test.hpp **** 
  65:test/ConsumerProducer_CPP_Sync_API_test.hpp ****     int i = 0;
  66:test/ConsumerProducer_CPP_Sync_API_test.hpp ****     while (!threadEnd) {
  67:test/ConsumerProducer_CPP_Sync_API_test.hpp ****         data->buffer->put(data->id + '0');
  68:test/ConsumerProducer_CPP_Sync_API_test.hpp ****         i++;
  69:test/ConsumerProducer_CPP_Sync_API_test.hpp **** 
  70:test/ConsumerProducer_CPP_Sync_API_test.hpp ****         if (i % (10 * data->id) == 0) {
  71:test/ConsumerProducer_CPP_Sync_API_test.hpp ****             Thread::dispatch();
  72:test/ConsumerProducer_CPP_Sync_API_test.hpp ****         }
  73:test/ConsumerProducer_CPP_Sync_API_test.hpp ****     }
  74:test/ConsumerProducer_CPP_Sync_API_test.hpp **** 
  75:test/ConsumerProducer_CPP_Sync_API_test.hpp ****     data->wait->signal();
  76:test/ConsumerProducer_CPP_Sync_API_test.hpp **** }
  77:test/ConsumerProducer_CPP_Sync_API_test.hpp **** 
  78:test/ConsumerProducer_CPP_Sync_API_test.hpp **** class Consumer:public Thread {
  13              		.loc 1 78 7
  14              		.cfi_startproc
  15              	.LVL0:
  16 0000 130101FF 		addi	sp,sp,-16
  17              		.cfi_def_cfa_offset 16
  18 0004 23341100 		sd	ra,8(sp)
  19 0008 23308100 		sd	s0,0(sp)
  20              		.cfi_offset 1, -8
  21              		.cfi_offset 8, -16
  22 000c 13040101 		addi	s0,sp,16
  23              		.cfi_def_cfa 8, 0
  24              	.LBB23:
  25              		.loc 1 78 7 is_stmt 0
  26 0010 97070000 		lla	a5,_ZTV8Consumer+16
  26      93870700 
  27 0018 2330F500 		sd	a5,0(a0)
  28 001c 97000000 		call	_ZN6ThreadD2Ev@plt
  28      E7800000 
  29              	.LVL1:
  30              	.LBE23:
  31 0024 83308100 		ld	ra,8(sp)
  32              		.cfi_restore 1
  33 0028 03340100 		ld	s0,0(sp)
  34              		.cfi_restore 8
  35              		.cfi_def_cfa 2, 16
GAS LISTING /tmp/cc4dLTYL.s 			page 3


  36 002c 13010101 		addi	sp,sp,16
  37              		.cfi_def_cfa_offset 0
  38 0030 67800000 		jr	ra
  39              		.cfi_endproc
  40              	.LFE20:
  42              		.weak	_ZN8ConsumerD1Ev
  43              		.set	_ZN8ConsumerD1Ev,_ZN8ConsumerD2Ev
  44              		.section	.text._ZN8ConsumerD0Ev,"axG",@progbits,_ZN8ConsumerD5Ev,comdat
  45              		.align	2
  46              		.weak	_ZN8ConsumerD0Ev
  48              	_ZN8ConsumerD0Ev:
  49              	.LFB22:
  50              		.loc 1 78 7 is_stmt 1
  51              		.cfi_startproc
  52              	.LVL2:
  53 0000 130101FE 		addi	sp,sp,-32
  54              		.cfi_def_cfa_offset 32
  55 0004 233C1100 		sd	ra,24(sp)
  56 0008 23388100 		sd	s0,16(sp)
  57 000c 23349100 		sd	s1,8(sp)
  58              		.cfi_offset 1, -8
  59              		.cfi_offset 8, -16
  60              		.cfi_offset 9, -24
  61 0010 13040102 		addi	s0,sp,32
  62              		.cfi_def_cfa 8, 0
  63 0014 93040500 		mv	s1,a0
  64              	.LVL3:
  65              	.LBB24:
  66              	.LBB25:
  67              		.loc 1 78 7 is_stmt 0
  68 0018 97070000 		lla	a5,_ZTV8Consumer+16
  68      93870700 
  69 0020 2330F500 		sd	a5,0(a0)
  70 0024 97000000 		call	_ZN6ThreadD2Ev@plt
  70      E7800000 
  71              	.LVL4:
  72              	.LBE25:
  73              	.LBE24:
  74 002c 13850400 		mv	a0,s1
  75 0030 97000000 		call	_ZdlPv@plt
  75      E7800000 
  76              	.LVL5:
  77 0038 83308101 		ld	ra,24(sp)
  78              		.cfi_restore 1
  79 003c 03340101 		ld	s0,16(sp)
  80              		.cfi_restore 8
  81              		.cfi_def_cfa 2, 32
  82 0040 83348100 		ld	s1,8(sp)
  83              		.cfi_restore 9
  84              	.LVL6:
  85 0044 13010102 		addi	sp,sp,32
  86              		.cfi_def_cfa_offset 0
  87 0048 67800000 		jr	ra
  88              		.cfi_endproc
  89              	.LFE22:
  91              		.section	.text._ZN8ProducerD2Ev,"axG",@progbits,_ZN8ProducerD5Ev,comdat
  92              		.align	2
GAS LISTING /tmp/cc4dLTYL.s 			page 4


  93              		.weak	_ZN8ProducerD2Ev
  95              	_ZN8ProducerD2Ev:
  96              	.LFB24:
  51:test/ConsumerProducer_CPP_Sync_API_test.hpp ****     thread_data* td;
  97              		.loc 1 51 7 is_stmt 1
  98              		.cfi_startproc
  99              	.LVL7:
 100 0000 130101FF 		addi	sp,sp,-16
 101              		.cfi_def_cfa_offset 16
 102 0004 23341100 		sd	ra,8(sp)
 103 0008 23308100 		sd	s0,0(sp)
 104              		.cfi_offset 1, -8
 105              		.cfi_offset 8, -16
 106 000c 13040101 		addi	s0,sp,16
 107              		.cfi_def_cfa 8, 0
 108              	.LBB26:
  51:test/ConsumerProducer_CPP_Sync_API_test.hpp ****     thread_data* td;
 109              		.loc 1 51 7 is_stmt 0
 110 0010 97070000 		lla	a5,_ZTV8Producer+16
 110      93870700 
 111 0018 2330F500 		sd	a5,0(a0)
 112 001c 97000000 		call	_ZN6ThreadD2Ev@plt
 112      E7800000 
 113              	.LVL8:
 114              	.LBE26:
 115 0024 83308100 		ld	ra,8(sp)
 116              		.cfi_restore 1
 117 0028 03340100 		ld	s0,0(sp)
 118              		.cfi_restore 8
 119              		.cfi_def_cfa 2, 16
 120 002c 13010101 		addi	sp,sp,16
 121              		.cfi_def_cfa_offset 0
 122 0030 67800000 		jr	ra
 123              		.cfi_endproc
 124              	.LFE24:
 126              		.weak	_ZN8ProducerD1Ev
 127              		.set	_ZN8ProducerD1Ev,_ZN8ProducerD2Ev
 128              		.section	.text._ZN8ProducerD0Ev,"axG",@progbits,_ZN8ProducerD5Ev,comdat
 129              		.align	2
 130              		.weak	_ZN8ProducerD0Ev
 132              	_ZN8ProducerD0Ev:
 133              	.LFB26:
  51:test/ConsumerProducer_CPP_Sync_API_test.hpp ****     thread_data* td;
 134              		.loc 1 51 7 is_stmt 1
 135              		.cfi_startproc
 136              	.LVL9:
 137 0000 130101FE 		addi	sp,sp,-32
 138              		.cfi_def_cfa_offset 32
 139 0004 233C1100 		sd	ra,24(sp)
 140 0008 23388100 		sd	s0,16(sp)
 141 000c 23349100 		sd	s1,8(sp)
 142              		.cfi_offset 1, -8
 143              		.cfi_offset 8, -16
 144              		.cfi_offset 9, -24
 145 0010 13040102 		addi	s0,sp,32
 146              		.cfi_def_cfa 8, 0
 147 0014 93040500 		mv	s1,a0
GAS LISTING /tmp/cc4dLTYL.s 			page 5


 148              	.LVL10:
 149              	.LBB27:
 150              	.LBB28:
  51:test/ConsumerProducer_CPP_Sync_API_test.hpp ****     thread_data* td;
 151              		.loc 1 51 7 is_stmt 0
 152 0018 97070000 		lla	a5,_ZTV8Producer+16
 152      93870700 
 153 0020 2330F500 		sd	a5,0(a0)
 154 0024 97000000 		call	_ZN6ThreadD2Ev@plt
 154      E7800000 
 155              	.LVL11:
 156              	.LBE28:
 157              	.LBE27:
 158 002c 13850400 		mv	a0,s1
 159 0030 97000000 		call	_ZdlPv@plt
 159      E7800000 
 160              	.LVL12:
 161 0038 83308101 		ld	ra,24(sp)
 162              		.cfi_restore 1
 163 003c 03340101 		ld	s0,16(sp)
 164              		.cfi_restore 8
 165              		.cfi_def_cfa 2, 32
 166 0040 83348100 		ld	s1,8(sp)
 167              		.cfi_restore 9
 168              	.LVL13:
 169 0044 13010102 		addi	sp,sp,32
 170              		.cfi_def_cfa_offset 0
 171 0048 67800000 		jr	ra
 172              		.cfi_endproc
 173              	.LFE26:
 175              		.section	.text._ZN16ProducerKeyboardD2Ev,"axG",@progbits,_ZN16ProducerKeyboardD5Ev,comdat
 176              		.align	2
 177              		.weak	_ZN16ProducerKeyboardD2Ev
 179              	_ZN16ProducerKeyboardD2Ev:
 180              	.LFB28:
  20:test/ConsumerProducer_CPP_Sync_API_test.hpp ****     thread_data* td;
 181              		.loc 1 20 7 is_stmt 1
 182              		.cfi_startproc
 183              	.LVL14:
 184 0000 130101FF 		addi	sp,sp,-16
 185              		.cfi_def_cfa_offset 16
 186 0004 23341100 		sd	ra,8(sp)
 187 0008 23308100 		sd	s0,0(sp)
 188              		.cfi_offset 1, -8
 189              		.cfi_offset 8, -16
 190 000c 13040101 		addi	s0,sp,16
 191              		.cfi_def_cfa 8, 0
 192              	.LBB29:
  20:test/ConsumerProducer_CPP_Sync_API_test.hpp ****     thread_data* td;
 193              		.loc 1 20 7 is_stmt 0
 194 0010 97070000 		lla	a5,_ZTV16ProducerKeyboard+16
 194      93870700 
 195 0018 2330F500 		sd	a5,0(a0)
 196 001c 97000000 		call	_ZN6ThreadD2Ev@plt
 196      E7800000 
 197              	.LVL15:
 198              	.LBE29:
GAS LISTING /tmp/cc4dLTYL.s 			page 6


 199 0024 83308100 		ld	ra,8(sp)
 200              		.cfi_restore 1
 201 0028 03340100 		ld	s0,0(sp)
 202              		.cfi_restore 8
 203              		.cfi_def_cfa 2, 16
 204 002c 13010101 		addi	sp,sp,16
 205              		.cfi_def_cfa_offset 0
 206 0030 67800000 		jr	ra
 207              		.cfi_endproc
 208              	.LFE28:
 210              		.weak	_ZN16ProducerKeyboardD1Ev
 211              		.set	_ZN16ProducerKeyboardD1Ev,_ZN16ProducerKeyboardD2Ev
 212              		.section	.text._ZN16ProducerKeyboardD0Ev,"axG",@progbits,_ZN16ProducerKeyboardD5Ev,comdat
 213              		.align	2
 214              		.weak	_ZN16ProducerKeyboardD0Ev
 216              	_ZN16ProducerKeyboardD0Ev:
 217              	.LFB30:
  20:test/ConsumerProducer_CPP_Sync_API_test.hpp ****     thread_data* td;
 218              		.loc 1 20 7 is_stmt 1
 219              		.cfi_startproc
 220              	.LVL16:
 221 0000 130101FE 		addi	sp,sp,-32
 222              		.cfi_def_cfa_offset 32
 223 0004 233C1100 		sd	ra,24(sp)
 224 0008 23388100 		sd	s0,16(sp)
 225 000c 23349100 		sd	s1,8(sp)
 226              		.cfi_offset 1, -8
 227              		.cfi_offset 8, -16
 228              		.cfi_offset 9, -24
 229 0010 13040102 		addi	s0,sp,32
 230              		.cfi_def_cfa 8, 0
 231 0014 93040500 		mv	s1,a0
 232              	.LVL17:
 233              	.LBB30:
 234              	.LBB31:
  20:test/ConsumerProducer_CPP_Sync_API_test.hpp ****     thread_data* td;
 235              		.loc 1 20 7 is_stmt 0
 236 0018 97070000 		lla	a5,_ZTV16ProducerKeyboard+16
 236      93870700 
 237 0020 2330F500 		sd	a5,0(a0)
 238 0024 97000000 		call	_ZN6ThreadD2Ev@plt
 238      E7800000 
 239              	.LVL18:
 240              	.LBE31:
 241              	.LBE30:
 242 002c 13850400 		mv	a0,s1
 243 0030 97000000 		call	_ZdlPv@plt
 243      E7800000 
 244              	.LVL19:
 245 0038 83308101 		ld	ra,24(sp)
 246              		.cfi_restore 1
 247 003c 03340101 		ld	s0,16(sp)
 248              		.cfi_restore 8
 249              		.cfi_def_cfa 2, 32
 250 0040 83348100 		ld	s1,8(sp)
 251              		.cfi_restore 9
 252              	.LVL20:
GAS LISTING /tmp/cc4dLTYL.s 			page 7


 253 0044 13010102 		addi	sp,sp,32
 254              		.cfi_def_cfa_offset 0
 255 0048 67800000 		jr	ra
 256              		.cfi_endproc
 257              	.LFE30:
 259              		.text
 260              		.align	2
 261              		.globl	_ZN16ProducerKeyboard16producerKeyboardEPv
 263              	_ZN16ProducerKeyboard16producerKeyboardEPv:
 264              	.LFB6:
  31:test/ConsumerProducer_CPP_Sync_API_test.hpp ****     struct thread_data *data = (struct thread_data *) arg;
 265              		.loc 1 31 52 is_stmt 1
 266              		.cfi_startproc
 267              	.LVL21:
 268 0000 130101FD 		addi	sp,sp,-48
 269              		.cfi_def_cfa_offset 48
 270 0004 23341102 		sd	ra,40(sp)
 271 0008 23308102 		sd	s0,32(sp)
 272 000c 233C9100 		sd	s1,24(sp)
 273 0010 23382101 		sd	s2,16(sp)
 274 0014 23343101 		sd	s3,8(sp)
 275              		.cfi_offset 1, -8
 276              		.cfi_offset 8, -16
 277              		.cfi_offset 9, -24
 278              		.cfi_offset 18, -32
 279              		.cfi_offset 19, -40
 280 0018 13040103 		addi	s0,sp,48
 281              		.cfi_def_cfa 8, 0
 282 001c 93090500 		mv	s3,a0
 283 0020 93840500 		mv	s1,a1
  32:test/ConsumerProducer_CPP_Sync_API_test.hpp **** 
 284              		.loc 1 32 5
 285              	.LVL22:
  34:test/ConsumerProducer_CPP_Sync_API_test.hpp ****     int i = 0;
 286              		.loc 1 34 5
  35:test/ConsumerProducer_CPP_Sync_API_test.hpp ****     while ((key = getc()) != 'q') {
 287              		.loc 1 35 5
  35:test/ConsumerProducer_CPP_Sync_API_test.hpp ****     while ((key = getc()) != 'q') {
 288              		.loc 1 35 9 is_stmt 0
 289 0024 13090000 		li	s2,0
 290 0028 6F00C000 		j	.L14
 291              	.LVL23:
 292              	.L18:
  41:test/ConsumerProducer_CPP_Sync_API_test.hpp ****         }
 293              		.loc 1 41 13 is_stmt 1
  41:test/ConsumerProducer_CPP_Sync_API_test.hpp ****         }
 294              		.loc 1 41 29 is_stmt 0
 295 002c 97000000 		call	_ZN6Thread8dispatchEv@plt
 295      E7800000 
 296              	.LVL24:
 297              	.L14:
  36:test/ConsumerProducer_CPP_Sync_API_test.hpp ****         data->buffer->put(key);
 298              		.loc 1 36 5 is_stmt 1
  36:test/ConsumerProducer_CPP_Sync_API_test.hpp ****         data->buffer->put(key);
 299              		.loc 1 36 27
  36:test/ConsumerProducer_CPP_Sync_API_test.hpp ****         data->buffer->put(key);
 300              		.loc 1 36 23 is_stmt 0
GAS LISTING /tmp/cc4dLTYL.s 			page 8


 301 0034 97000000 		call	getc@plt
 301      E7800000 
 302              	.LVL25:
  36:test/ConsumerProducer_CPP_Sync_API_test.hpp ****         data->buffer->put(key);
 303              		.loc 1 36 17
 304 003c 9B050500 		sext.w	a1,a0
 305              	.LVL26:
  36:test/ConsumerProducer_CPP_Sync_API_test.hpp ****         data->buffer->put(key);
 306              		.loc 1 36 27
 307 0040 93071007 		li	a5,113
 308 0044 638AF502 		beq	a1,a5,.L15
  37:test/ConsumerProducer_CPP_Sync_API_test.hpp ****         i++;
 309              		.loc 1 37 9 is_stmt 1
  37:test/ConsumerProducer_CPP_Sync_API_test.hpp ****         i++;
 310              		.loc 1 37 26 is_stmt 0
 311 0048 03B58400 		ld	a0,8(s1)
 312 004c 97000000 		call	_ZN9BufferCPP3putEi@plt
 312      E7800000 
 313              	.LVL27:
  38:test/ConsumerProducer_CPP_Sync_API_test.hpp **** 
 314              		.loc 1 38 9 is_stmt 1
  38:test/ConsumerProducer_CPP_Sync_API_test.hpp **** 
 315              		.loc 1 38 10 is_stmt 0
 316 0054 1B071900 		addiw	a4,s2,1
 317 0058 1B090700 		sext.w	s2,a4
 318              	.LVL28:
  40:test/ConsumerProducer_CPP_Sync_API_test.hpp ****             Thread::dispatch();
 319              		.loc 1 40 9 is_stmt 1
  40:test/ConsumerProducer_CPP_Sync_API_test.hpp ****             Thread::dispatch();
 320              		.loc 1 40 29 is_stmt 0
 321 005c 83A60400 		lw	a3,0(s1)
  40:test/ConsumerProducer_CPP_Sync_API_test.hpp ****             Thread::dispatch();
 322              		.loc 1 40 21
 323 0060 9B972600 		slliw	a5,a3,2
 324 0064 BB87D700 		addw	a5,a5,a3
 325 0068 9B971700 		slliw	a5,a5,1
  40:test/ConsumerProducer_CPP_Sync_API_test.hpp ****             Thread::dispatch();
 326              		.loc 1 40 15
 327 006c BB67F702 		remw	a5,a4,a5
  40:test/ConsumerProducer_CPP_Sync_API_test.hpp ****             Thread::dispatch();
 328              		.loc 1 40 9
 329 0070 E39207FC 		bnez	a5,.L14
 330 0074 6FF09FFB 		j	.L18
 331              	.LVL29:
 332              	.L15:
  45:test/ConsumerProducer_CPP_Sync_API_test.hpp ****     td->buffer->put('!');
 333              		.loc 1 45 5 is_stmt 1
  45:test/ConsumerProducer_CPP_Sync_API_test.hpp ****     td->buffer->put('!');
 334              		.loc 1 45 15 is_stmt 0
 335 0078 93071000 		li	a5,1
 336 007c 17070000 		sw	a5,.LANCHOR0,a4
 336      2320F700 
  46:test/ConsumerProducer_CPP_Sync_API_test.hpp **** 
 337              		.loc 1 46 5 is_stmt 1
 338 0084 83B70901 		ld	a5,16(s3)
  46:test/ConsumerProducer_CPP_Sync_API_test.hpp **** 
 339              		.loc 1 46 20 is_stmt 0
GAS LISTING /tmp/cc4dLTYL.s 			page 9


 340 0088 93051002 		li	a1,33
 341              	.LVL30:
 342 008c 03B58700 		ld	a0,8(a5)
 343              	.LVL31:
 344 0090 97000000 		call	_ZN9BufferCPP3putEi@plt
 344      E7800000 
 345              	.LVL32:
  48:test/ConsumerProducer_CPP_Sync_API_test.hpp **** }
 346              		.loc 1 48 5 is_stmt 1
  48:test/ConsumerProducer_CPP_Sync_API_test.hpp **** }
 347              		.loc 1 48 23 is_stmt 0
 348 0098 03B50401 		ld	a0,16(s1)
 349 009c 97000000 		call	_ZN9Semaphore6signalEv@plt
 349      E7800000 
 350              	.LVL33:
  49:test/ConsumerProducer_CPP_Sync_API_test.hpp **** 
 351              		.loc 1 49 1
 352 00a4 83308102 		ld	ra,40(sp)
 353              		.cfi_restore 1
 354 00a8 03340102 		ld	s0,32(sp)
 355              		.cfi_restore 8
 356              		.cfi_def_cfa 2, 48
 357 00ac 83348101 		ld	s1,24(sp)
 358              		.cfi_restore 9
 359              	.LVL34:
 360 00b0 03390101 		ld	s2,16(sp)
 361              		.cfi_restore 18
 362              	.LVL35:
 363 00b4 83398100 		ld	s3,8(sp)
 364              		.cfi_restore 19
 365              	.LVL36:
 366 00b8 13010103 		addi	sp,sp,48
 367              		.cfi_def_cfa_offset 0
 368 00bc 67800000 		jr	ra
 369              		.cfi_endproc
 370              	.LFE6:
 372              		.section	.text._ZN16ProducerKeyboard3runEv,"axG",@progbits,_ZN16ProducerKeyboard3runEv,comdat
 373              		.align	2
 374              		.weak	_ZN16ProducerKeyboard3runEv
 376              	_ZN16ProducerKeyboard3runEv:
 377              	.LFB5:
  26:test/ConsumerProducer_CPP_Sync_API_test.hpp ****         producerKeyboard(td);
 378              		.loc 1 26 10 is_stmt 1
 379              		.cfi_startproc
 380              	.LVL37:
 381 0000 130101FF 		addi	sp,sp,-16
 382              		.cfi_def_cfa_offset 16
 383 0004 23341100 		sd	ra,8(sp)
 384 0008 23308100 		sd	s0,0(sp)
 385              		.cfi_offset 1, -8
 386              		.cfi_offset 8, -16
 387 000c 13040101 		addi	s0,sp,16
 388              		.cfi_def_cfa 8, 0
  27:test/ConsumerProducer_CPP_Sync_API_test.hpp ****     }
 389              		.loc 1 27 9
  27:test/ConsumerProducer_CPP_Sync_API_test.hpp ****     }
 390              		.loc 1 27 25 is_stmt 0
GAS LISTING /tmp/cc4dLTYL.s 			page 10


 391 0010 83350501 		ld	a1,16(a0)
 392 0014 97000000 		call	_ZN16ProducerKeyboard16producerKeyboardEPv
 392      E7800000 
 393              	.LVL38:
  28:test/ConsumerProducer_CPP_Sync_API_test.hpp **** };
 394              		.loc 1 28 5
 395 001c 83308100 		ld	ra,8(sp)
 396              		.cfi_restore 1
 397 0020 03340100 		ld	s0,0(sp)
 398              		.cfi_restore 8
 399              		.cfi_def_cfa 2, 16
 400 0024 13010101 		addi	sp,sp,16
 401              		.cfi_def_cfa_offset 0
 402 0028 67800000 		jr	ra
 403              		.cfi_endproc
 404              	.LFE5:
 406              		.text
 407              		.align	2
 408              		.globl	_ZN8Producer8producerEPv
 410              	_ZN8Producer8producerEPv:
 411              	.LFB11:
  62:test/ConsumerProducer_CPP_Sync_API_test.hpp ****     struct thread_data *data = (struct thread_data *) arg;
 412              		.loc 1 62 36 is_stmt 1
 413              		.cfi_startproc
 414              	.LVL39:
 415 00c0 130101FE 		addi	sp,sp,-32
 416              		.cfi_def_cfa_offset 32
 417 00c4 233C1100 		sd	ra,24(sp)
 418 00c8 23388100 		sd	s0,16(sp)
 419 00cc 23349100 		sd	s1,8(sp)
 420 00d0 23302101 		sd	s2,0(sp)
 421              		.cfi_offset 1, -8
 422              		.cfi_offset 8, -16
 423              		.cfi_offset 9, -24
 424              		.cfi_offset 18, -32
 425 00d4 13040102 		addi	s0,sp,32
 426              		.cfi_def_cfa 8, 0
 427 00d8 93840500 		mv	s1,a1
  63:test/ConsumerProducer_CPP_Sync_API_test.hpp **** 
 428              		.loc 1 63 5
 429              	.LVL40:
  65:test/ConsumerProducer_CPP_Sync_API_test.hpp ****     while (!threadEnd) {
 430              		.loc 1 65 5
  65:test/ConsumerProducer_CPP_Sync_API_test.hpp ****     while (!threadEnd) {
 431              		.loc 1 65 9 is_stmt 0
 432 00dc 13090000 		li	s2,0
 433 00e0 6F00C000 		j	.L22
 434              	.LVL41:
 435              	.L26:
  71:test/ConsumerProducer_CPP_Sync_API_test.hpp ****         }
 436              		.loc 1 71 13 is_stmt 1
  71:test/ConsumerProducer_CPP_Sync_API_test.hpp ****         }
 437              		.loc 1 71 29 is_stmt 0
 438 00e4 97000000 		call	_ZN6Thread8dispatchEv@plt
 438      E7800000 
 439              	.LVL42:
 440              	.L22:
GAS LISTING /tmp/cc4dLTYL.s 			page 11


  66:test/ConsumerProducer_CPP_Sync_API_test.hpp ****         data->buffer->put(data->id + '0');
 441              		.loc 1 66 5 is_stmt 1
  66:test/ConsumerProducer_CPP_Sync_API_test.hpp ****         data->buffer->put(data->id + '0');
 442              		.loc 1 66 12
 443 00ec 97070000 		lw	a5,.LANCHOR0
 443      83A70700 
 444 00f4 639E0702 		bnez	a5,.L23
  67:test/ConsumerProducer_CPP_Sync_API_test.hpp ****         i++;
 445              		.loc 1 67 9
  67:test/ConsumerProducer_CPP_Sync_API_test.hpp ****         i++;
 446              		.loc 1 67 33 is_stmt 0
 447 00f8 83A50400 		lw	a1,0(s1)
  67:test/ConsumerProducer_CPP_Sync_API_test.hpp ****         i++;
 448              		.loc 1 67 26
 449 00fc 9B850503 		addiw	a1,a1,48
 450 0100 03B58400 		ld	a0,8(s1)
 451 0104 97000000 		call	_ZN9BufferCPP3putEi@plt
 451      E7800000 
 452              	.LVL43:
  68:test/ConsumerProducer_CPP_Sync_API_test.hpp **** 
 453              		.loc 1 68 9 is_stmt 1
  68:test/ConsumerProducer_CPP_Sync_API_test.hpp **** 
 454              		.loc 1 68 10 is_stmt 0
 455 010c 1B071900 		addiw	a4,s2,1
 456 0110 1B090700 		sext.w	s2,a4
 457              	.LVL44:
  70:test/ConsumerProducer_CPP_Sync_API_test.hpp ****             Thread::dispatch();
 458              		.loc 1 70 9 is_stmt 1
  70:test/ConsumerProducer_CPP_Sync_API_test.hpp ****             Thread::dispatch();
 459              		.loc 1 70 29 is_stmt 0
 460 0114 83A60400 		lw	a3,0(s1)
  70:test/ConsumerProducer_CPP_Sync_API_test.hpp ****             Thread::dispatch();
 461              		.loc 1 70 21
 462 0118 9B972600 		slliw	a5,a3,2
 463 011c BB87D700 		addw	a5,a5,a3
 464 0120 9B971700 		slliw	a5,a5,1
  70:test/ConsumerProducer_CPP_Sync_API_test.hpp ****             Thread::dispatch();
 465              		.loc 1 70 15
 466 0124 BB67F702 		remw	a5,a4,a5
  70:test/ConsumerProducer_CPP_Sync_API_test.hpp ****             Thread::dispatch();
 467              		.loc 1 70 9
 468 0128 E39207FC 		bnez	a5,.L22
 469 012c 6FF09FFB 		j	.L26
 470              	.LVL45:
 471              	.L23:
  75:test/ConsumerProducer_CPP_Sync_API_test.hpp **** }
 472              		.loc 1 75 5 is_stmt 1
  75:test/ConsumerProducer_CPP_Sync_API_test.hpp **** }
 473              		.loc 1 75 23 is_stmt 0
 474 0130 03B50401 		ld	a0,16(s1)
 475 0134 97000000 		call	_ZN9Semaphore6signalEv@plt
 475      E7800000 
 476              	.LVL46:
  76:test/ConsumerProducer_CPP_Sync_API_test.hpp **** 
 477              		.loc 1 76 1
 478 013c 83308101 		ld	ra,24(sp)
 479              		.cfi_restore 1
GAS LISTING /tmp/cc4dLTYL.s 			page 12


 480 0140 03340101 		ld	s0,16(sp)
 481              		.cfi_restore 8
 482              		.cfi_def_cfa 2, 32
 483 0144 83348100 		ld	s1,8(sp)
 484              		.cfi_restore 9
 485              	.LVL47:
 486 0148 03390100 		ld	s2,0(sp)
 487              		.cfi_restore 18
 488              	.LVL48:
 489 014c 13010102 		addi	sp,sp,32
 490              		.cfi_def_cfa_offset 0
 491 0150 67800000 		jr	ra
 492              		.cfi_endproc
 493              	.LFE11:
 495              		.section	.text._ZN8Producer3runEv,"axG",@progbits,_ZN8Producer3runEv,comdat
 496              		.align	2
 497              		.weak	_ZN8Producer3runEv
 499              	_ZN8Producer3runEv:
 500              	.LFB10:
  57:test/ConsumerProducer_CPP_Sync_API_test.hpp ****         producer(td);
 501              		.loc 1 57 10 is_stmt 1
 502              		.cfi_startproc
 503              	.LVL49:
 504 0000 130101FF 		addi	sp,sp,-16
 505              		.cfi_def_cfa_offset 16
 506 0004 23341100 		sd	ra,8(sp)
 507 0008 23308100 		sd	s0,0(sp)
 508              		.cfi_offset 1, -8
 509              		.cfi_offset 8, -16
 510 000c 13040101 		addi	s0,sp,16
 511              		.cfi_def_cfa 8, 0
  58:test/ConsumerProducer_CPP_Sync_API_test.hpp ****     }
 512              		.loc 1 58 9
  58:test/ConsumerProducer_CPP_Sync_API_test.hpp ****     }
 513              		.loc 1 58 17 is_stmt 0
 514 0010 83350501 		ld	a1,16(a0)
 515 0014 97000000 		call	_ZN8Producer8producerEPv
 515      E7800000 
 516              	.LVL50:
  59:test/ConsumerProducer_CPP_Sync_API_test.hpp **** };
 517              		.loc 1 59 5
 518 001c 83308100 		ld	ra,8(sp)
 519              		.cfi_restore 1
 520 0020 03340100 		ld	s0,0(sp)
 521              		.cfi_restore 8
 522              		.cfi_def_cfa 2, 16
 523 0024 13010101 		addi	sp,sp,16
 524              		.cfi_def_cfa_offset 0
 525 0028 67800000 		jr	ra
 526              		.cfi_endproc
 527              	.LFE10:
 529              		.text
 530              		.align	2
 531              		.globl	_ZN8Consumer8consumerEPv
 533              	_ZN8Consumer8consumerEPv:
 534              	.LFB16:
  79:test/ConsumerProducer_CPP_Sync_API_test.hpp ****     thread_data* td;
GAS LISTING /tmp/cc4dLTYL.s 			page 13


  80:test/ConsumerProducer_CPP_Sync_API_test.hpp ****     void consumer(void *arg);
  81:test/ConsumerProducer_CPP_Sync_API_test.hpp **** public:
  82:test/ConsumerProducer_CPP_Sync_API_test.hpp ****     Consumer(thread_data* _td):Thread(), td(_td) {}
  83:test/ConsumerProducer_CPP_Sync_API_test.hpp **** 
  84:test/ConsumerProducer_CPP_Sync_API_test.hpp ****     void run() override {
  85:test/ConsumerProducer_CPP_Sync_API_test.hpp ****         consumer(td);
  86:test/ConsumerProducer_CPP_Sync_API_test.hpp ****     }
  87:test/ConsumerProducer_CPP_Sync_API_test.hpp **** };
  88:test/ConsumerProducer_CPP_Sync_API_test.hpp **** 
  89:test/ConsumerProducer_CPP_Sync_API_test.hpp **** void Consumer::consumer(void *arg) {
 535              		.loc 1 89 36 is_stmt 1
 536              		.cfi_startproc
 537              	.LVL51:
 538 0154 130101FD 		addi	sp,sp,-48
 539              		.cfi_def_cfa_offset 48
 540 0158 23341102 		sd	ra,40(sp)
 541 015c 23308102 		sd	s0,32(sp)
 542 0160 233C9100 		sd	s1,24(sp)
 543 0164 23382101 		sd	s2,16(sp)
 544 0168 23343101 		sd	s3,8(sp)
 545 016c 23304101 		sd	s4,0(sp)
 546              		.cfi_offset 1, -8
 547              		.cfi_offset 8, -16
 548              		.cfi_offset 9, -24
 549              		.cfi_offset 18, -32
 550              		.cfi_offset 19, -40
 551              		.cfi_offset 20, -48
 552 0170 13040103 		addi	s0,sp,48
 553              		.cfi_def_cfa 8, 0
 554 0174 93090500 		mv	s3,a0
 555 0178 13890500 		mv	s2,a1
  90:test/ConsumerProducer_CPP_Sync_API_test.hpp ****     struct thread_data *data = (struct thread_data *) arg;
 556              		.loc 1 90 5
 557              	.LVL52:
  91:test/ConsumerProducer_CPP_Sync_API_test.hpp **** 
  92:test/ConsumerProducer_CPP_Sync_API_test.hpp ****     int i = 0;
 558              		.loc 1 92 5
 559              		.loc 1 92 9 is_stmt 0
 560 017c 130A0000 		li	s4,0
 561 0180 6F00C001 		j	.L30
 562              	.LVL53:
 563              	.L36:
 564              	.LBB32:
  93:test/ConsumerProducer_CPP_Sync_API_test.hpp ****     while (!threadEnd) {
  94:test/ConsumerProducer_CPP_Sync_API_test.hpp ****         int key = data->buffer->get();
  95:test/ConsumerProducer_CPP_Sync_API_test.hpp ****         i++;
  96:test/ConsumerProducer_CPP_Sync_API_test.hpp **** 
  97:test/ConsumerProducer_CPP_Sync_API_test.hpp ****         putc(key);
  98:test/ConsumerProducer_CPP_Sync_API_test.hpp **** 
  99:test/ConsumerProducer_CPP_Sync_API_test.hpp ****         if (i % (5 * data->id) == 0) {
 100:test/ConsumerProducer_CPP_Sync_API_test.hpp ****             Thread::dispatch();
 565              		.loc 1 100 13 is_stmt 1
 566              		.loc 1 100 29 is_stmt 0
 567 0184 97000000 		call	_ZN6Thread8dispatchEv@plt
 567      E7800000 
 568              	.LVL54:
 569 018c 6F000005 		j	.L32
GAS LISTING /tmp/cc4dLTYL.s 			page 14


 570              	.LVL55:
 571              	.L37:
 101:test/ConsumerProducer_CPP_Sync_API_test.hpp ****         }
 102:test/ConsumerProducer_CPP_Sync_API_test.hpp **** 
 103:test/ConsumerProducer_CPP_Sync_API_test.hpp ****         if (i % 80 == 0) {
 104:test/ConsumerProducer_CPP_Sync_API_test.hpp ****             putc('\n');
 572              		.loc 1 104 13 is_stmt 1
 573              		.loc 1 104 17 is_stmt 0
 574 0190 1305A000 		li	a0,10
 575 0194 97000000 		call	putc@plt
 575      E7800000 
 576              	.LVL56:
 577              	.L30:
 578              	.LBE32:
  93:test/ConsumerProducer_CPP_Sync_API_test.hpp ****     while (!threadEnd) {
 579              		.loc 1 93 5 is_stmt 1
  93:test/ConsumerProducer_CPP_Sync_API_test.hpp ****     while (!threadEnd) {
 580              		.loc 1 93 12
 581 019c 97070000 		lw	a5,.LANCHOR0
 581      83A70700 
 582 01a4 63920706 		bnez	a5,.L31
 583              	.LBB33:
  94:test/ConsumerProducer_CPP_Sync_API_test.hpp ****         i++;
 584              		.loc 1 94 9
  94:test/ConsumerProducer_CPP_Sync_API_test.hpp ****         i++;
 585              		.loc 1 94 36 is_stmt 0
 586 01a8 03358900 		ld	a0,8(s2)
 587 01ac 97000000 		call	_ZN9BufferCPP3getEv@plt
 587      E7800000 
 588              	.LVL57:
  95:test/ConsumerProducer_CPP_Sync_API_test.hpp **** 
 589              		.loc 1 95 9 is_stmt 1
  95:test/ConsumerProducer_CPP_Sync_API_test.hpp **** 
 590              		.loc 1 95 10 is_stmt 0
 591 01b4 9B041A00 		addiw	s1,s4,1
 592 01b8 1B8A0400 		sext.w	s4,s1
 593              	.LVL58:
  97:test/ConsumerProducer_CPP_Sync_API_test.hpp **** 
 594              		.loc 1 97 9 is_stmt 1
  97:test/ConsumerProducer_CPP_Sync_API_test.hpp **** 
 595              		.loc 1 97 13 is_stmt 0
 596 01bc 1375F50F 		andi	a0,a0,0xff
 597              	.LVL59:
 598 01c0 97000000 		call	putc@plt
 598      E7800000 
 599              	.LVL60:
  99:test/ConsumerProducer_CPP_Sync_API_test.hpp ****             Thread::dispatch();
 600              		.loc 1 99 9 is_stmt 1
  99:test/ConsumerProducer_CPP_Sync_API_test.hpp ****             Thread::dispatch();
 601              		.loc 1 99 28 is_stmt 0
 602 01c8 03270900 		lw	a4,0(s2)
  99:test/ConsumerProducer_CPP_Sync_API_test.hpp ****             Thread::dispatch();
 603              		.loc 1 99 20
 604 01cc 9B172700 		slliw	a5,a4,2
 605 01d0 BB87E700 		addw	a5,a5,a4
  99:test/ConsumerProducer_CPP_Sync_API_test.hpp ****             Thread::dispatch();
 606              		.loc 1 99 15
GAS LISTING /tmp/cc4dLTYL.s 			page 15


 607 01d4 BBE7F402 		remw	a5,s1,a5
  99:test/ConsumerProducer_CPP_Sync_API_test.hpp ****             Thread::dispatch();
 608              		.loc 1 99 9
 609 01d8 E38607FA 		beqz	a5,.L36
 610              	.L32:
 103:test/ConsumerProducer_CPP_Sync_API_test.hpp ****             putc('\n');
 611              		.loc 1 103 9 is_stmt 1
 103:test/ConsumerProducer_CPP_Sync_API_test.hpp ****             putc('\n');
 612              		.loc 1 103 15 is_stmt 0
 613 01dc 93070005 		li	a5,80
 614 01e0 BBE4F402 		remw	s1,s1,a5
 615              	.LVL61:
 103:test/ConsumerProducer_CPP_Sync_API_test.hpp ****             putc('\n');
 616              		.loc 1 103 9
 617 01e4 E39C04FA 		bnez	s1,.L30
 618 01e8 6FF09FFA 		j	.L37
 619              	.L38:
 620              	.LBE33:
 621              	.LBB34:
 105:test/ConsumerProducer_CPP_Sync_API_test.hpp ****         }
 106:test/ConsumerProducer_CPP_Sync_API_test.hpp ****     }
 107:test/ConsumerProducer_CPP_Sync_API_test.hpp **** 
 108:test/ConsumerProducer_CPP_Sync_API_test.hpp **** 
 109:test/ConsumerProducer_CPP_Sync_API_test.hpp ****     while (td->buffer->getCnt() > 0) {
 110:test/ConsumerProducer_CPP_Sync_API_test.hpp ****         int key = td->buffer->get();
 622              		.loc 1 110 9 is_stmt 1
 623              		.loc 1 110 19 is_stmt 0
 624 01ec 83B70901 		ld	a5,16(s3)
 625              		.loc 1 110 34
 626 01f0 03B58700 		ld	a0,8(a5)
 627 01f4 97000000 		call	_ZN9BufferCPP3getEv@plt
 627      E7800000 
 628              	.LVL62:
 111:test/ConsumerProducer_CPP_Sync_API_test.hpp ****         Console::putc(key);
 629              		.loc 1 111 9 is_stmt 1
 630              		.loc 1 111 22 is_stmt 0
 631 01fc 1375F50F 		andi	a0,a0,0xff
 632              	.LVL63:
 633 0200 97000000 		call	_ZN7Console4putcEc@plt
 633      E7800000 
 634              	.LVL64:
 635              	.L31:
 636              	.LBE34:
 109:test/ConsumerProducer_CPP_Sync_API_test.hpp ****         int key = td->buffer->get();
 637              		.loc 1 109 5 is_stmt 1
 109:test/ConsumerProducer_CPP_Sync_API_test.hpp ****         int key = td->buffer->get();
 638              		.loc 1 109 33
 109:test/ConsumerProducer_CPP_Sync_API_test.hpp ****         int key = td->buffer->get();
 639              		.loc 1 109 12 is_stmt 0
 640 0208 83B70901 		ld	a5,16(s3)
 109:test/ConsumerProducer_CPP_Sync_API_test.hpp ****         int key = td->buffer->get();
 641              		.loc 1 109 30
 642 020c 03B58700 		ld	a0,8(a5)
 643 0210 97000000 		call	_ZN9BufferCPP6getCntEv@plt
 643      E7800000 
 644              	.LVL65:
 109:test/ConsumerProducer_CPP_Sync_API_test.hpp ****         int key = td->buffer->get();
GAS LISTING /tmp/cc4dLTYL.s 			page 16


 645              		.loc 1 109 33
 646 0218 E34AA0FC 		bgtz	a0,.L38
 112:test/ConsumerProducer_CPP_Sync_API_test.hpp ****     }
 113:test/ConsumerProducer_CPP_Sync_API_test.hpp **** 
 114:test/ConsumerProducer_CPP_Sync_API_test.hpp ****     data->wait->signal();
 647              		.loc 1 114 5 is_stmt 1
 648              		.loc 1 114 23 is_stmt 0
 649 021c 03350901 		ld	a0,16(s2)
 650 0220 97000000 		call	_ZN9Semaphore6signalEv@plt
 650      E7800000 
 651              	.LVL66:
 115:test/ConsumerProducer_CPP_Sync_API_test.hpp **** }
 652              		.loc 1 115 1
 653 0228 83308102 		ld	ra,40(sp)
 654              		.cfi_restore 1
 655 022c 03340102 		ld	s0,32(sp)
 656              		.cfi_restore 8
 657              		.cfi_def_cfa 2, 48
 658 0230 83348101 		ld	s1,24(sp)
 659              		.cfi_restore 9
 660 0234 03390101 		ld	s2,16(sp)
 661              		.cfi_restore 18
 662              	.LVL67:
 663 0238 83398100 		ld	s3,8(sp)
 664              		.cfi_restore 19
 665              	.LVL68:
 666 023c 033A0100 		ld	s4,0(sp)
 667              		.cfi_restore 20
 668              	.LVL69:
 669 0240 13010103 		addi	sp,sp,48
 670              		.cfi_def_cfa_offset 0
 671 0244 67800000 		jr	ra
 672              		.cfi_endproc
 673              	.LFE16:
 675              		.section	.text._ZN8Consumer3runEv,"axG",@progbits,_ZN8Consumer3runEv,comdat
 676              		.align	2
 677              		.weak	_ZN8Consumer3runEv
 679              	_ZN8Consumer3runEv:
 680              	.LFB15:
  84:test/ConsumerProducer_CPP_Sync_API_test.hpp ****         consumer(td);
 681              		.loc 1 84 10 is_stmt 1
 682              		.cfi_startproc
 683              	.LVL70:
 684 0000 130101FF 		addi	sp,sp,-16
 685              		.cfi_def_cfa_offset 16
 686 0004 23341100 		sd	ra,8(sp)
 687 0008 23308100 		sd	s0,0(sp)
 688              		.cfi_offset 1, -8
 689              		.cfi_offset 8, -16
 690 000c 13040101 		addi	s0,sp,16
 691              		.cfi_def_cfa 8, 0
  85:test/ConsumerProducer_CPP_Sync_API_test.hpp ****     }
 692              		.loc 1 85 9
  85:test/ConsumerProducer_CPP_Sync_API_test.hpp ****     }
 693              		.loc 1 85 17 is_stmt 0
 694 0010 83350501 		ld	a1,16(a0)
 695 0014 97000000 		call	_ZN8Consumer8consumerEPv
GAS LISTING /tmp/cc4dLTYL.s 			page 17


 695      E7800000 
 696              	.LVL71:
  86:test/ConsumerProducer_CPP_Sync_API_test.hpp **** };
 697              		.loc 1 86 5
 698 001c 83308100 		ld	ra,8(sp)
 699              		.cfi_restore 1
 700 0020 03340100 		ld	s0,0(sp)
 701              		.cfi_restore 8
 702              		.cfi_def_cfa 2, 16
 703 0024 13010101 		addi	sp,sp,16
 704              		.cfi_def_cfa_offset 0
 705 0028 67800000 		jr	ra
 706              		.cfi_endproc
 707              	.LFE15:
 709              		.section	.rodata.str1.8,"aMS",@progbits,1
 710              		.align	3
 711              	.LC0:
 712 0000 556E6573 		.string	"Unesite broj proizvodjaca?\n"
 712      69746520 
 712      62726F6A 
 712      2070726F 
 712      697A766F 
 713 001c 00000000 		.align	3
 714              	.LC1:
 715 0020 556E6573 		.string	"Unesite velicinu bafera?\n"
 715      69746520 
 715      76656C69 
 715      63696E75 
 715      20626166 
 716 003a 00000000 		.align	3
 716      0000
 717              	.LC2:
 718 0040 42726F6A 		.string	"Broj proizvodjaca "
 718      2070726F 
 718      697A766F 
 718      646A6163 
 718      612000
 719 0053 00000000 		.align	3
 719      00
 720              	.LC3:
 721 0058 20692076 		.string	" i velicina bafera "
 721      656C6963 
 721      696E6120 
 721      62616665 
 721      72612000 
 722 006c 00000000 		.align	3
 723              	.LC4:
 724 0070 2E0A00   		.string	".\n"
 725 0073 00000000 		.align	3
 725      00
 726              	.LC5:
 727 0078 42726F6A 		.string	"Broj proizvodjaca ne sme biti manji od velicine bafera!\n"
 727      2070726F 
 727      697A766F 
 727      646A6163 
 727      61206E65 
 728 00b1 00000000 		.align	3
GAS LISTING /tmp/cc4dLTYL.s 			page 18


 728      000000
 729              	.LC6:
 730 00b8 42726F6A 		.string	"Broj proizvodjaca mora biti veci od nula!\n"
 730      2070726F 
 730      697A766F 
 730      646A6163 
 730      61206D6F 
 731              		.text
 732              		.align	2
 733              		.globl	_Z29producerConsumer_CPP_Sync_APIv
 735              	_Z29producerConsumer_CPP_Sync_APIv:
 736              	.LFB17:
 116:test/ConsumerProducer_CPP_Sync_API_test.hpp **** 
 117:test/ConsumerProducer_CPP_Sync_API_test.hpp **** void producerConsumer_CPP_Sync_API() {
 737              		.loc 1 117 38 is_stmt 1
 738              		.cfi_startproc
 739              		.cfi_personality 0x9b,DW.ref.__gxx_personality_v0
 740              		.cfi_lsda 0x1b,.LLSDA17
 741 0248 130101F8 		addi	sp,sp,-128
 742              		.cfi_def_cfa_offset 128
 743 024c 233C1106 		sd	ra,120(sp)
 744 0250 23388106 		sd	s0,112(sp)
 745 0254 23349106 		sd	s1,104(sp)
 746 0258 23302107 		sd	s2,96(sp)
 747 025c 233C3105 		sd	s3,88(sp)
 748 0260 23384105 		sd	s4,80(sp)
 749 0264 23345105 		sd	s5,72(sp)
 750 0268 23306105 		sd	s6,64(sp)
 751 026c 233C7103 		sd	s7,56(sp)
 752 0270 23388103 		sd	s8,48(sp)
 753 0274 23349103 		sd	s9,40(sp)
 754              		.cfi_offset 1, -8
 755              		.cfi_offset 8, -16
 756              		.cfi_offset 9, -24
 757              		.cfi_offset 18, -32
 758              		.cfi_offset 19, -40
 759              		.cfi_offset 20, -48
 760              		.cfi_offset 21, -56
 761              		.cfi_offset 22, -64
 762              		.cfi_offset 23, -72
 763              		.cfi_offset 24, -80
 764              		.cfi_offset 25, -88
 765 0278 13040108 		addi	s0,sp,128
 766              		.cfi_def_cfa 8, 0
 118:test/ConsumerProducer_CPP_Sync_API_test.hpp ****     char input[30];
 119:test/ConsumerProducer_CPP_Sync_API_test.hpp ****     int n, threadNum;
 120:test/ConsumerProducer_CPP_Sync_API_test.hpp **** 
 121:test/ConsumerProducer_CPP_Sync_API_test.hpp ****     printString("Unesite broj proizvodjaca?\n");
 122:test/ConsumerProducer_CPP_Sync_API_test.hpp ****     getString(input, 30);
 123:test/ConsumerProducer_CPP_Sync_API_test.hpp ****     threadNum = stringToInt(input);
 124:test/ConsumerProducer_CPP_Sync_API_test.hpp **** 
 125:test/ConsumerProducer_CPP_Sync_API_test.hpp ****     printString("Unesite velicinu bafera?\n");
 126:test/ConsumerProducer_CPP_Sync_API_test.hpp ****     getString(input, 30);
 127:test/ConsumerProducer_CPP_Sync_API_test.hpp ****     n = stringToInt(input);
 128:test/ConsumerProducer_CPP_Sync_API_test.hpp **** 
 129:test/ConsumerProducer_CPP_Sync_API_test.hpp ****     printString("Broj proizvodjaca "); printInt(threadNum);
 130:test/ConsumerProducer_CPP_Sync_API_test.hpp ****     printString(" i velicina bafera "); printInt(n);
GAS LISTING /tmp/cc4dLTYL.s 			page 19


 131:test/ConsumerProducer_CPP_Sync_API_test.hpp ****     printString(".\n");
 132:test/ConsumerProducer_CPP_Sync_API_test.hpp **** 
 133:test/ConsumerProducer_CPP_Sync_API_test.hpp ****     if(threadNum > n) {
 134:test/ConsumerProducer_CPP_Sync_API_test.hpp ****         printString("Broj proizvodjaca ne sme biti manji od velicine bafera!\n");
 135:test/ConsumerProducer_CPP_Sync_API_test.hpp ****         return;
 136:test/ConsumerProducer_CPP_Sync_API_test.hpp ****     } else if (threadNum < 1) {
 137:test/ConsumerProducer_CPP_Sync_API_test.hpp ****         printString("Broj proizvodjaca mora biti veci od nula!\n");
 138:test/ConsumerProducer_CPP_Sync_API_test.hpp ****         return;
 139:test/ConsumerProducer_CPP_Sync_API_test.hpp ****     }
 140:test/ConsumerProducer_CPP_Sync_API_test.hpp **** 
 141:test/ConsumerProducer_CPP_Sync_API_test.hpp ****     BufferCPP *buffer = new BufferCPP(n);
 142:test/ConsumerProducer_CPP_Sync_API_test.hpp **** 
 143:test/ConsumerProducer_CPP_Sync_API_test.hpp ****     waitForAll = new Semaphore(0);
 144:test/ConsumerProducer_CPP_Sync_API_test.hpp **** 
 145:test/ConsumerProducer_CPP_Sync_API_test.hpp ****     Thread* threads[threadNum];
 146:test/ConsumerProducer_CPP_Sync_API_test.hpp ****     Thread* consumerThread;
 147:test/ConsumerProducer_CPP_Sync_API_test.hpp **** 
 148:test/ConsumerProducer_CPP_Sync_API_test.hpp ****     struct thread_data data[threadNum + 1];
 149:test/ConsumerProducer_CPP_Sync_API_test.hpp **** 
 150:test/ConsumerProducer_CPP_Sync_API_test.hpp ****     data[threadNum].id = threadNum;
 151:test/ConsumerProducer_CPP_Sync_API_test.hpp ****     data[threadNum].buffer = buffer;
 152:test/ConsumerProducer_CPP_Sync_API_test.hpp ****     data[threadNum].wait = waitForAll;
 153:test/ConsumerProducer_CPP_Sync_API_test.hpp ****     consumerThread = new Consumer(data+threadNum);
 154:test/ConsumerProducer_CPP_Sync_API_test.hpp ****     consumerThread->start();
 155:test/ConsumerProducer_CPP_Sync_API_test.hpp **** 
 156:test/ConsumerProducer_CPP_Sync_API_test.hpp ****     for (int i = 0; i < threadNum; i++) {
 157:test/ConsumerProducer_CPP_Sync_API_test.hpp ****         data[i].id = i;
 158:test/ConsumerProducer_CPP_Sync_API_test.hpp ****         data[i].buffer = buffer;
 159:test/ConsumerProducer_CPP_Sync_API_test.hpp ****         data[i].wait = waitForAll;
 160:test/ConsumerProducer_CPP_Sync_API_test.hpp **** 
 161:test/ConsumerProducer_CPP_Sync_API_test.hpp ****         if(i>0) {
 162:test/ConsumerProducer_CPP_Sync_API_test.hpp ****             threads[i] = new Producer(data+i);
 163:test/ConsumerProducer_CPP_Sync_API_test.hpp ****         } else {
 164:test/ConsumerProducer_CPP_Sync_API_test.hpp ****             threads[i] = new ProducerKeyboard(data+i);
 165:test/ConsumerProducer_CPP_Sync_API_test.hpp ****         }
 166:test/ConsumerProducer_CPP_Sync_API_test.hpp **** 
 167:test/ConsumerProducer_CPP_Sync_API_test.hpp ****         threads[i]->start();
 168:test/ConsumerProducer_CPP_Sync_API_test.hpp ****     }
 169:test/ConsumerProducer_CPP_Sync_API_test.hpp **** 
 170:test/ConsumerProducer_CPP_Sync_API_test.hpp ****     Thread::dispatch();
 171:test/ConsumerProducer_CPP_Sync_API_test.hpp **** 
 172:test/ConsumerProducer_CPP_Sync_API_test.hpp ****     for (int i = 0; i <= threadNum; i++) {
 173:test/ConsumerProducer_CPP_Sync_API_test.hpp ****         waitForAll->wait();
 174:test/ConsumerProducer_CPP_Sync_API_test.hpp ****     }
 175:test/ConsumerProducer_CPP_Sync_API_test.hpp **** 
 176:test/ConsumerProducer_CPP_Sync_API_test.hpp ****     for (int i = 0; i < threadNum; i++) {
 177:test/ConsumerProducer_CPP_Sync_API_test.hpp ****         delete threads[i];
 178:test/ConsumerProducer_CPP_Sync_API_test.hpp ****     }
 179:test/ConsumerProducer_CPP_Sync_API_test.hpp ****     delete consumerThread;
 180:test/ConsumerProducer_CPP_Sync_API_test.hpp ****     delete waitForAll;
 181:test/ConsumerProducer_CPP_Sync_API_test.hpp ****     delete buffer;
 767              		.loc 1 181 18 is_stmt 0
 768 027c 930B0100 		mv	s7,sp
 118:test/ConsumerProducer_CPP_Sync_API_test.hpp ****     char input[30];
 769              		.loc 1 118 5 is_stmt 1
 119:test/ConsumerProducer_CPP_Sync_API_test.hpp **** 
 770              		.loc 1 119 5
GAS LISTING /tmp/cc4dLTYL.s 			page 20


 121:test/ConsumerProducer_CPP_Sync_API_test.hpp ****     getString(input, 30);
 771              		.loc 1 121 5
 121:test/ConsumerProducer_CPP_Sync_API_test.hpp ****     getString(input, 30);
 772              		.loc 1 121 16 is_stmt 0
 773 0280 17050000 		lla	a0,.LC0
 773      13050500 
 774              	.LEHB0:
 775 0288 97000000 		call	_Z11printStringPKc@plt
 775      E7800000 
 776              	.LVL72:
 122:test/ConsumerProducer_CPP_Sync_API_test.hpp ****     threadNum = stringToInt(input);
 777              		.loc 1 122 5 is_stmt 1
 122:test/ConsumerProducer_CPP_Sync_API_test.hpp ****     threadNum = stringToInt(input);
 778              		.loc 1 122 14 is_stmt 0
 779 0290 9305E001 		li	a1,30
 780 0294 930404F8 		addi	s1,s0,-128
 781 0298 13850400 		mv	a0,s1
 782 029c 97000000 		call	_Z9getStringPci@plt
 782      E7800000 
 783              	.LVL73:
 123:test/ConsumerProducer_CPP_Sync_API_test.hpp **** 
 784              		.loc 1 123 5 is_stmt 1
 123:test/ConsumerProducer_CPP_Sync_API_test.hpp **** 
 785              		.loc 1 123 28 is_stmt 0
 786 02a4 13850400 		mv	a0,s1
 787 02a8 97000000 		call	_Z11stringToIntPKc@plt
 787      E7800000 
 788              	.LVL74:
 789 02b0 13090500 		mv	s2,a0
 790              	.LVL75:
 125:test/ConsumerProducer_CPP_Sync_API_test.hpp ****     getString(input, 30);
 791              		.loc 1 125 5 is_stmt 1
 125:test/ConsumerProducer_CPP_Sync_API_test.hpp ****     getString(input, 30);
 792              		.loc 1 125 16 is_stmt 0
 793 02b4 17050000 		lla	a0,.LC1
 793      13050500 
 794 02bc 97000000 		call	_Z11printStringPKc@plt
 794      E7800000 
 795              	.LVL76:
 126:test/ConsumerProducer_CPP_Sync_API_test.hpp ****     n = stringToInt(input);
 796              		.loc 1 126 5 is_stmt 1
 126:test/ConsumerProducer_CPP_Sync_API_test.hpp ****     n = stringToInt(input);
 797              		.loc 1 126 14 is_stmt 0
 798 02c4 9305E001 		li	a1,30
 799 02c8 13850400 		mv	a0,s1
 800 02cc 97000000 		call	_Z9getStringPci@plt
 800      E7800000 
 801              	.LVL77:
 127:test/ConsumerProducer_CPP_Sync_API_test.hpp **** 
 802              		.loc 1 127 5 is_stmt 1
 127:test/ConsumerProducer_CPP_Sync_API_test.hpp **** 
 803              		.loc 1 127 20 is_stmt 0
 804 02d4 13850400 		mv	a0,s1
 805 02d8 97000000 		call	_Z11stringToIntPKc@plt
 805      E7800000 
 806              	.LVL78:
 807 02e0 93040500 		mv	s1,a0
GAS LISTING /tmp/cc4dLTYL.s 			page 21


 808              	.LVL79:
 129:test/ConsumerProducer_CPP_Sync_API_test.hpp ****     printString(" i velicina bafera "); printInt(n);
 809              		.loc 1 129 5 is_stmt 1
 129:test/ConsumerProducer_CPP_Sync_API_test.hpp ****     printString(" i velicina bafera "); printInt(n);
 810              		.loc 1 129 16 is_stmt 0
 811 02e4 17050000 		lla	a0,.LC2
 811      13050500 
 812 02ec 97000000 		call	_Z11printStringPKc@plt
 812      E7800000 
 813              	.LVL80:
 129:test/ConsumerProducer_CPP_Sync_API_test.hpp ****     printString(" i velicina bafera "); printInt(n);
 814              		.loc 1 129 40 is_stmt 1
 129:test/ConsumerProducer_CPP_Sync_API_test.hpp ****     printString(" i velicina bafera "); printInt(n);
 815              		.loc 1 129 48 is_stmt 0
 816 02f4 13060000 		li	a2,0
 817 02f8 9305A000 		li	a1,10
 818 02fc 13050900 		mv	a0,s2
 819 0300 97000000 		call	_Z8printIntiii@plt
 819      E7800000 
 820              	.LVL81:
 130:test/ConsumerProducer_CPP_Sync_API_test.hpp ****     printString(".\n");
 821              		.loc 1 130 5 is_stmt 1
 130:test/ConsumerProducer_CPP_Sync_API_test.hpp ****     printString(".\n");
 822              		.loc 1 130 16 is_stmt 0
 823 0308 17050000 		lla	a0,.LC3
 823      13050500 
 824 0310 97000000 		call	_Z11printStringPKc@plt
 824      E7800000 
 825              	.LVL82:
 130:test/ConsumerProducer_CPP_Sync_API_test.hpp ****     printString(".\n");
 826              		.loc 1 130 41 is_stmt 1
 130:test/ConsumerProducer_CPP_Sync_API_test.hpp ****     printString(".\n");
 827              		.loc 1 130 49 is_stmt 0
 828 0318 13060000 		li	a2,0
 829 031c 9305A000 		li	a1,10
 830 0320 13850400 		mv	a0,s1
 831 0324 97000000 		call	_Z8printIntiii@plt
 831      E7800000 
 832              	.LVL83:
 131:test/ConsumerProducer_CPP_Sync_API_test.hpp **** 
 833              		.loc 1 131 5 is_stmt 1
 131:test/ConsumerProducer_CPP_Sync_API_test.hpp **** 
 834              		.loc 1 131 16 is_stmt 0
 835 032c 17050000 		lla	a0,.LC4
 835      13050500 
 836 0334 97000000 		call	_Z11printStringPKc@plt
 836      E7800000 
 837              	.LVL84:
 133:test/ConsumerProducer_CPP_Sync_API_test.hpp ****         printString("Broj proizvodjaca ne sme biti manji od velicine bafera!\n");
 838              		.loc 1 133 5 is_stmt 1
 839 033c 63C42403 		bgt	s2,s1,.L69
 136:test/ConsumerProducer_CPP_Sync_API_test.hpp ****         printString("Broj proizvodjaca mora biti veci od nula!\n");
 840              		.loc 1 136 12
 841 0340 635C2003 		blez	s2,.L70
 141:test/ConsumerProducer_CPP_Sync_API_test.hpp **** 
 842              		.loc 1 141 5
 141:test/ConsumerProducer_CPP_Sync_API_test.hpp **** 
GAS LISTING /tmp/cc4dLTYL.s 			page 22


 843              		.loc 1 141 40 is_stmt 0
 844 0344 13058003 		li	a0,56
 845 0348 97000000 		call	_Znwm@plt
 845      E7800000 
 846              	.LVL85:
 847              	.LEHE0:
 848 0350 930A0500 		mv	s5,a0
 849 0354 93850400 		mv	a1,s1
 850              	.LEHB1:
 851 0358 97000000 		call	_ZN9BufferCPPC1Ei@plt
 851      E7800000 
 852              	.LVL86:
 853              	.LEHE1:
 854 0360 6F000003 		j	.L71
 855              	.L69:
 134:test/ConsumerProducer_CPP_Sync_API_test.hpp ****         return;
 856              		.loc 1 134 9 is_stmt 1
 134:test/ConsumerProducer_CPP_Sync_API_test.hpp ****         return;
 857              		.loc 1 134 20 is_stmt 0
 858 0364 17050000 		lla	a0,.LC5
 858      13050500 
 859              	.LEHB2:
 860 036c 97000000 		call	_Z11printStringPKc@plt
 860      E7800000 
 861              	.LVL87:
 135:test/ConsumerProducer_CPP_Sync_API_test.hpp ****     } else if (threadNum < 1) {
 862              		.loc 1 135 9 is_stmt 1
 863 0374 6F004001 		j	.L43
 864              	.L70:
 137:test/ConsumerProducer_CPP_Sync_API_test.hpp ****         return;
 865              		.loc 1 137 9
 137:test/ConsumerProducer_CPP_Sync_API_test.hpp ****         return;
 866              		.loc 1 137 20 is_stmt 0
 867 0378 17050000 		lla	a0,.LC6
 867      13050500 
 868 0380 97000000 		call	_Z11printStringPKc@plt
 868      E7800000 
 869              	.LVL88:
 138:test/ConsumerProducer_CPP_Sync_API_test.hpp ****     }
 870              		.loc 1 138 9 is_stmt 1
 871              	.L43:
 872 0388 13810B00 		mv	sp,s7
 873 038c 6F000024 		j	.L41
 874              	.L71:
 875              	.LVL89:
 143:test/ConsumerProducer_CPP_Sync_API_test.hpp **** 
 876              		.loc 1 143 5 discriminator 3
 143:test/ConsumerProducer_CPP_Sync_API_test.hpp **** 
 877              		.loc 1 143 33 is_stmt 0 discriminator 3
 878 0390 13050001 		li	a0,16
 879 0394 97000000 		call	_Znwm@plt
 879      E7800000 
 880              	.LVL90:
 881              	.LEHE2:
 882 039c 93040500 		mv	s1,a0
 883              	.LVL91:
 884 03a0 93050000 		li	a1,0
GAS LISTING /tmp/cc4dLTYL.s 			page 23


 885              	.LEHB3:
 886 03a4 97000000 		call	_ZN9SemaphoreC1Ej@plt
 886      E7800000 
 887              	.LVL92:
 888              	.LEHE3:
 143:test/ConsumerProducer_CPP_Sync_API_test.hpp **** 
 889              		.loc 1 143 16 discriminator 3
 890 03ac 17070000 		lla	a4,.LANCHOR0
 890      13070700 
 891 03b4 23349700 		sd	s1,8(a4)
 145:test/ConsumerProducer_CPP_Sync_API_test.hpp ****     Thread* consumerThread;
 892              		.loc 1 145 5 is_stmt 1 discriminator 3
 893              	.LVL93:
 145:test/ConsumerProducer_CPP_Sync_API_test.hpp ****     Thread* consumerThread;
 894              		.loc 1 145 13 is_stmt 0 discriminator 3
 895 03b8 93173900 		slli	a5,s2,3
 896 03bc 9387F700 		addi	a5,a5,15
 897 03c0 93F707FF 		andi	a5,a5,-16
 898 03c4 3301F140 		sub	sp,sp,a5
 899 03c8 93090100 		mv	s3,sp
 900              	.LVL94:
 146:test/ConsumerProducer_CPP_Sync_API_test.hpp **** 
 901              		.loc 1 146 5 is_stmt 1 discriminator 3
 148:test/ConsumerProducer_CPP_Sync_API_test.hpp **** 
 902              		.loc 1 148 5 discriminator 3
 148:test/ConsumerProducer_CPP_Sync_API_test.hpp **** 
 903              		.loc 1 148 39 is_stmt 0 discriminator 3
 904 03cc 9B061900 		addiw	a3,s2,1
 905              	.LVL95:
 148:test/ConsumerProducer_CPP_Sync_API_test.hpp **** 
 906              		.loc 1 148 24 discriminator 3
 907 03d0 93971600 		slli	a5,a3,1
 908 03d4 B387D700 		add	a5,a5,a3
 909 03d8 93973700 		slli	a5,a5,3
 910 03dc 9387F700 		addi	a5,a5,15
 911 03e0 93F707FF 		andi	a5,a5,-16
 912 03e4 3301F140 		sub	sp,sp,a5
 913              	.LVL96:
 914 03e8 130A0100 		mv	s4,sp
 915              	.LVL97:
 150:test/ConsumerProducer_CPP_Sync_API_test.hpp ****     data[threadNum].buffer = buffer;
 916              		.loc 1 150 5 is_stmt 1 discriminator 3
 150:test/ConsumerProducer_CPP_Sync_API_test.hpp ****     data[threadNum].buffer = buffer;
 917              		.loc 1 150 24 is_stmt 0 discriminator 3
 918 03ec 93141900 		slli	s1,s2,1
 919 03f0 B3872401 		add	a5,s1,s2
 920 03f4 93973700 		slli	a5,a5,3
 921 03f8 B307FA00 		add	a5,s4,a5
 922 03fc 23A02701 		sw	s2,0(a5)
 151:test/ConsumerProducer_CPP_Sync_API_test.hpp ****     data[threadNum].wait = waitForAll;
 923              		.loc 1 151 5 is_stmt 1 discriminator 3
 151:test/ConsumerProducer_CPP_Sync_API_test.hpp ****     data[threadNum].wait = waitForAll;
 924              		.loc 1 151 28 is_stmt 0 discriminator 3
 925 0400 23B45701 		sd	s5,8(a5)
 152:test/ConsumerProducer_CPP_Sync_API_test.hpp ****     consumerThread = new Consumer(data+threadNum);
 926              		.loc 1 152 5 is_stmt 1 discriminator 3
 152:test/ConsumerProducer_CPP_Sync_API_test.hpp ****     consumerThread = new Consumer(data+threadNum);
GAS LISTING /tmp/cc4dLTYL.s 			page 24


 927              		.loc 1 152 26 is_stmt 0 discriminator 3
 928 0404 03378700 		ld	a4,8(a4)
 929 0408 23B8E700 		sd	a4,16(a5)
 153:test/ConsumerProducer_CPP_Sync_API_test.hpp ****     consumerThread->start();
 930              		.loc 1 153 5 is_stmt 1 discriminator 3
 153:test/ConsumerProducer_CPP_Sync_API_test.hpp ****     consumerThread->start();
 931              		.loc 1 153 49 is_stmt 0 discriminator 3
 932 040c 13058001 		li	a0,24
 933              	.LEHB4:
 934 0410 97000000 		call	_Znwm@plt
 934      E7800000 
 935              	.LVL98:
 936              	.LEHE4:
 937 0418 130B0500 		mv	s6,a0
 153:test/ConsumerProducer_CPP_Sync_API_test.hpp ****     consumerThread->start();
 938              		.loc 1 153 39 discriminator 3
 939 041c B3842401 		add	s1,s1,s2
 940 0420 93943400 		slli	s1,s1,3
 153:test/ConsumerProducer_CPP_Sync_API_test.hpp ****     consumerThread->start();
 941              		.loc 1 153 49 discriminator 3
 942 0424 B3049A00 		add	s1,s4,s1
 943              	.LVL99:
 944              	.LEHB5:
 945              	.LBB35:
 946              	.LBB36:
  82:test/ConsumerProducer_CPP_Sync_API_test.hpp **** 
 947              		.loc 1 82 48 discriminator 3
 948 0428 97000000 		call	_ZN6ThreadC2Ev@plt
 948      E7800000 
 949              	.LVL100:
 950              	.LEHE5:
  82:test/ConsumerProducer_CPP_Sync_API_test.hpp **** 
 951              		.loc 1 82 48
 952 0430 97070000 		lla	a5,_ZTV8Consumer+16
 952      93870700 
 953 0438 2330FB00 		sd	a5,0(s6)
 954 043c 23389B00 		sd	s1,16(s6)
 955              	.LVL101:
 956              	.LBE36:
 957              	.LBE35:
 154:test/ConsumerProducer_CPP_Sync_API_test.hpp **** 
 958              		.loc 1 154 5 is_stmt 1
 154:test/ConsumerProducer_CPP_Sync_API_test.hpp **** 
 959              		.loc 1 154 26 is_stmt 0
 960 0440 13050B00 		mv	a0,s6
 961              	.LEHB6:
 962 0444 97000000 		call	_ZN6Thread5startEv@plt
 962      E7800000 
 963              	.LVL102:
 964              	.LBB37:
 156:test/ConsumerProducer_CPP_Sync_API_test.hpp ****         data[i].id = i;
 965              		.loc 1 156 14
 966 044c 93040000 		li	s1,0
 967 0450 6F008003 		j	.L48
 968              	.LVL103:
 969              	.L72:
 970              	.LBB38:
GAS LISTING /tmp/cc4dLTYL.s 			page 25


 971              	.LBB39:
  55:test/ConsumerProducer_CPP_Sync_API_test.hpp **** 
 972              		.loc 1 55 48
 973 0454 97070000 		lla	a5,_ZTV8Producer+16
 973      93870700 
 974 045c 23B0FC00 		sd	a5,0(s9)
 975 0460 23B88C01 		sd	s8,16(s9)
 976              	.LVL104:
 977              	.LBE39:
 978              	.LBE38:
 162:test/ConsumerProducer_CPP_Sync_API_test.hpp ****         } else {
 979              		.loc 1 162 24
 980 0464 93973400 		slli	a5,s1,3
 981 0468 B387F900 		add	a5,s3,a5
 982 046c 23B09701 		sd	s9,0(a5)
 983              	.L47:
 167:test/ConsumerProducer_CPP_Sync_API_test.hpp ****     }
 984              		.loc 1 167 9 is_stmt 1
 167:test/ConsumerProducer_CPP_Sync_API_test.hpp ****     }
 985              		.loc 1 167 18 is_stmt 0
 986 0470 93973400 		slli	a5,s1,3
 987 0474 B387F900 		add	a5,s3,a5
 167:test/ConsumerProducer_CPP_Sync_API_test.hpp ****     }
 988              		.loc 1 167 26
 989 0478 03B50700 		ld	a0,0(a5)
 990 047c 97000000 		call	_ZN6Thread5startEv@plt
 990      E7800000 
 991              	.LVL105:
 156:test/ConsumerProducer_CPP_Sync_API_test.hpp ****         data[i].id = i;
 992              		.loc 1 156 5 is_stmt 1
 993 0484 9B841400 		addiw	s1,s1,1
 994              	.LVL106:
 995              	.L48:
 156:test/ConsumerProducer_CPP_Sync_API_test.hpp ****         data[i].id = i;
 996              		.loc 1 156 23 discriminator 1
 997 0488 63D0240B 		bge	s1,s2,.L45
 157:test/ConsumerProducer_CPP_Sync_API_test.hpp ****         data[i].buffer = buffer;
 998              		.loc 1 157 9
 157:test/ConsumerProducer_CPP_Sync_API_test.hpp ****         data[i].buffer = buffer;
 999              		.loc 1 157 20 is_stmt 0
 1000 048c 93971400 		slli	a5,s1,1
 1001 0490 B3879700 		add	a5,a5,s1
 1002 0494 93973700 		slli	a5,a5,3
 1003 0498 B307FA00 		add	a5,s4,a5
 1004 049c 23A09700 		sw	s1,0(a5)
 158:test/ConsumerProducer_CPP_Sync_API_test.hpp ****         data[i].wait = waitForAll;
 1005              		.loc 1 158 9 is_stmt 1
 158:test/ConsumerProducer_CPP_Sync_API_test.hpp ****         data[i].wait = waitForAll;
 1006              		.loc 1 158 24 is_stmt 0
 1007 04a0 23B45701 		sd	s5,8(a5)
 159:test/ConsumerProducer_CPP_Sync_API_test.hpp **** 
 1008              		.loc 1 159 9 is_stmt 1
 159:test/ConsumerProducer_CPP_Sync_API_test.hpp **** 
 1009              		.loc 1 159 22 is_stmt 0
 1010 04a4 17070000 		ld	a4,.LANCHOR0+8
 1010      03370700 
 1011 04ac 23B8E700 		sd	a4,16(a5)
GAS LISTING /tmp/cc4dLTYL.s 			page 26


 161:test/ConsumerProducer_CPP_Sync_API_test.hpp ****             threads[i] = new Producer(data+i);
 1012              		.loc 1 161 9 is_stmt 1
 1013 04b0 63589002 		blez	s1,.L46
 162:test/ConsumerProducer_CPP_Sync_API_test.hpp ****         } else {
 1014              		.loc 1 162 13
 162:test/ConsumerProducer_CPP_Sync_API_test.hpp ****         } else {
 1015              		.loc 1 162 45 is_stmt 0
 1016 04b4 13058001 		li	a0,24
 1017 04b8 97000000 		call	_Znwm@plt
 1017      E7800000 
 1018              	.LVL107:
 1019              	.LEHE6:
 1020 04c0 930C0500 		mv	s9,a0
 162:test/ConsumerProducer_CPP_Sync_API_test.hpp ****         } else {
 1021              		.loc 1 162 43
 1022 04c4 139C1400 		slli	s8,s1,1
 1023 04c8 330C9C00 		add	s8,s8,s1
 1024 04cc 131C3C00 		slli	s8,s8,3
 162:test/ConsumerProducer_CPP_Sync_API_test.hpp ****         } else {
 1025              		.loc 1 162 45
 1026 04d0 330C8A01 		add	s8,s4,s8
 1027              	.LVL108:
 1028              	.LEHB7:
 1029              	.LBB41:
 1030              	.LBB40:
  55:test/ConsumerProducer_CPP_Sync_API_test.hpp **** 
 1031              		.loc 1 55 48
 1032 04d4 97000000 		call	_ZN6ThreadC2Ev@plt
 1032      E7800000 
 1033              	.LVL109:
 1034              	.LEHE7:
 1035 04dc 6FF09FF7 		j	.L72
 1036              	.LVL110:
 1037              	.L46:
 1038              	.LBE40:
 1039              	.LBE41:
 164:test/ConsumerProducer_CPP_Sync_API_test.hpp ****         }
 1040              		.loc 1 164 13 is_stmt 1
 164:test/ConsumerProducer_CPP_Sync_API_test.hpp ****         }
 1041              		.loc 1 164 53 is_stmt 0
 1042 04e0 13058001 		li	a0,24
 1043              	.LEHB8:
 1044 04e4 97000000 		call	_Znwm@plt
 1044      E7800000 
 1045              	.LVL111:
 1046              	.LEHE8:
 1047 04ec 930C0500 		mv	s9,a0
 164:test/ConsumerProducer_CPP_Sync_API_test.hpp ****         }
 1048              		.loc 1 164 51
 1049 04f0 139C1400 		slli	s8,s1,1
 1050 04f4 330C9C00 		add	s8,s8,s1
 1051 04f8 131C3C00 		slli	s8,s8,3
 164:test/ConsumerProducer_CPP_Sync_API_test.hpp ****         }
 1052              		.loc 1 164 53
 1053 04fc 330C8A01 		add	s8,s4,s8
 1054              	.LVL112:
 1055              	.LEHB9:
GAS LISTING /tmp/cc4dLTYL.s 			page 27


 1056              	.LBB42:
 1057              	.LBB43:
  24:test/ConsumerProducer_CPP_Sync_API_test.hpp **** 
 1058              		.loc 1 24 56
 1059 0500 97000000 		call	_ZN6ThreadC2Ev@plt
 1059      E7800000 
 1060              	.LVL113:
 1061              	.LEHE9:
 1062 0508 97070000 		lla	a5,_ZTV16ProducerKeyboard+16
 1062      93870700 
 1063 0510 23B0FC00 		sd	a5,0(s9)
 1064 0514 23B88C01 		sd	s8,16(s9)
 1065              	.LVL114:
 1066              	.LBE43:
 1067              	.LBE42:
 164:test/ConsumerProducer_CPP_Sync_API_test.hpp ****         }
 1068              		.loc 1 164 24
 1069 0518 93973400 		slli	a5,s1,3
 1070 051c B387F900 		add	a5,s3,a5
 1071 0520 23B09701 		sd	s9,0(a5)
 1072 0524 6FF0DFF4 		j	.L47
 1073              	.L45:
 1074              	.LBE37:
 170:test/ConsumerProducer_CPP_Sync_API_test.hpp **** 
 1075              		.loc 1 170 5 is_stmt 1
 1076              	.LEHB10:
 170:test/ConsumerProducer_CPP_Sync_API_test.hpp **** 
 1077              		.loc 1 170 21 is_stmt 0
 1078 0528 97000000 		call	_ZN6Thread8dispatchEv@plt
 1078      E7800000 
 1079              	.LVL115:
 1080              	.LBB44:
 172:test/ConsumerProducer_CPP_Sync_API_test.hpp ****         waitForAll->wait();
 1081              		.loc 1 172 14
 1082 0530 93040000 		li	s1,0
 1083              	.LVL116:
 1084              	.L50:
 172:test/ConsumerProducer_CPP_Sync_API_test.hpp ****         waitForAll->wait();
 1085              		.loc 1 172 23 is_stmt 1 discriminator 1
 1086 0534 634E9900 		bgt	s1,s2,.L62
 173:test/ConsumerProducer_CPP_Sync_API_test.hpp ****     }
 1087              		.loc 1 173 9
 173:test/ConsumerProducer_CPP_Sync_API_test.hpp ****     }
 1088              		.loc 1 173 25 is_stmt 0
 1089 0538 17050000 		ld	a0,.LANCHOR0+8
 1089      03350500 
 1090 0540 97000000 		call	_ZN9Semaphore4waitEv@plt
 1090      E7800000 
 1091              	.LVL117:
 172:test/ConsumerProducer_CPP_Sync_API_test.hpp ****         waitForAll->wait();
 1092              		.loc 1 172 5 is_stmt 1
 1093 0548 9B841400 		addiw	s1,s1,1
 1094              	.LVL118:
 1095 054c 6FF09FFE 		j	.L50
 1096              	.LVL119:
 1097              	.L62:
 1098              	.LBE44:
GAS LISTING /tmp/cc4dLTYL.s 			page 28


 1099              	.LBB45:
 176:test/ConsumerProducer_CPP_Sync_API_test.hpp ****         delete threads[i];
 1100              		.loc 1 176 14 is_stmt 0
 1101 0550 93040000 		li	s1,0
 1102              	.LVL120:
 1103 0554 6F008000 		j	.L49
 1104              	.LVL121:
 1105              	.L52:
 176:test/ConsumerProducer_CPP_Sync_API_test.hpp ****         delete threads[i];
 1106              		.loc 1 176 5 is_stmt 1 discriminator 2
 1107 0558 9B841400 		addiw	s1,s1,1
 1108              	.LVL122:
 1109              	.L49:
 176:test/ConsumerProducer_CPP_Sync_API_test.hpp ****         delete threads[i];
 1110              		.loc 1 176 23 discriminator 1
 1111 055c 63D22403 		bge	s1,s2,.L51
 177:test/ConsumerProducer_CPP_Sync_API_test.hpp ****     }
 1112              		.loc 1 177 9
 177:test/ConsumerProducer_CPP_Sync_API_test.hpp ****     }
 1113              		.loc 1 177 25 is_stmt 0
 1114 0560 93973400 		slli	a5,s1,3
 1115 0564 B387F900 		add	a5,s3,a5
 1116 0568 03B50700 		ld	a0,0(a5)
 177:test/ConsumerProducer_CPP_Sync_API_test.hpp ****     }
 1117              		.loc 1 177 26
 1118 056c E30605FE 		beqz	a0,.L52
 177:test/ConsumerProducer_CPP_Sync_API_test.hpp ****     }
 1119              		.loc 1 177 25 discriminator 1
 1120 0570 83370500 		ld	a5,0(a0)
 1121 0574 83B78700 		ld	a5,8(a5)
 1122 0578 E7800700 		jalr	a5
 1123              	.LVL123:
 1124 057c 6FF0DFFD 		j	.L52
 1125              	.L51:
 1126              	.LBE45:
 179:test/ConsumerProducer_CPP_Sync_API_test.hpp ****     delete waitForAll;
 1127              		.loc 1 179 5 is_stmt 1
 179:test/ConsumerProducer_CPP_Sync_API_test.hpp ****     delete waitForAll;
 1128              		.loc 1 179 26 is_stmt 0
 1129 0580 630A0B00 		beqz	s6,.L53
 179:test/ConsumerProducer_CPP_Sync_API_test.hpp ****     delete waitForAll;
 1130              		.loc 1 179 12 discriminator 1
 1131 0584 83370B00 		ld	a5,0(s6)
 1132 0588 83B78700 		ld	a5,8(a5)
 1133 058c 13050B00 		mv	a0,s6
 1134 0590 E7800700 		jalr	a5
 1135              	.LVL124:
 1136              	.L53:
 180:test/ConsumerProducer_CPP_Sync_API_test.hpp ****     delete buffer;
 1137              		.loc 1 180 5 is_stmt 1
 180:test/ConsumerProducer_CPP_Sync_API_test.hpp ****     delete buffer;
 1138              		.loc 1 180 12 is_stmt 0
 1139 0594 17050000 		ld	a0,.LANCHOR0+8
 1139      03350500 
 180:test/ConsumerProducer_CPP_Sync_API_test.hpp ****     delete buffer;
 1140              		.loc 1 180 22
 1141 059c 63080500 		beqz	a0,.L54
GAS LISTING /tmp/cc4dLTYL.s 			page 29


 180:test/ConsumerProducer_CPP_Sync_API_test.hpp ****     delete buffer;
 1142              		.loc 1 180 12 discriminator 1
 1143 05a0 83370500 		ld	a5,0(a0)
 1144 05a4 83B78700 		ld	a5,8(a5)
 1145 05a8 E7800700 		jalr	a5
 1146              	.LVL125:
 1147              	.L54:
 1148              		.loc 1 181 5 is_stmt 1
 1149              		.loc 1 181 18 is_stmt 0
 1150 05ac 638E0A00 		beqz	s5,.L55
 1151              		.loc 1 181 12 discriminator 1
 1152 05b0 13850A00 		mv	a0,s5
 1153 05b4 97000000 		call	_ZN9BufferCPPD1Ev@plt
 1153      E7800000 
 1154              	.LVL126:
 1155 05bc 13850A00 		mv	a0,s5
 1156 05c0 97000000 		call	_ZdlPv@plt
 1156      E7800000 
 1157              	.LVL127:
 1158              	.LEHE10:
 1159              	.L55:
 1160 05c8 13810B00 		mv	sp,s7
 1161              	.LVL128:
 1162              	.L41:
 182:test/ConsumerProducer_CPP_Sync_API_test.hpp **** 
 183:test/ConsumerProducer_CPP_Sync_API_test.hpp **** }
 1163              		.loc 1 183 1
 1164 05cc 130104F8 		addi	sp,s0,-128
 1165              		.cfi_remember_state
 1166              		.cfi_def_cfa 2, 128
 1167 05d0 83308107 		ld	ra,120(sp)
 1168              		.cfi_restore 1
 1169 05d4 03340107 		ld	s0,112(sp)
 1170              		.cfi_restore 8
 1171 05d8 83348106 		ld	s1,104(sp)
 1172              		.cfi_restore 9
 1173 05dc 03390106 		ld	s2,96(sp)
 1174              		.cfi_restore 18
 1175              	.LVL129:
 1176 05e0 83398105 		ld	s3,88(sp)
 1177              		.cfi_restore 19
 1178 05e4 033A0105 		ld	s4,80(sp)
 1179              		.cfi_restore 20
 1180 05e8 833A8104 		ld	s5,72(sp)
 1181              		.cfi_restore 21
 1182 05ec 033B0104 		ld	s6,64(sp)
 1183              		.cfi_restore 22
 1184 05f0 833B8103 		ld	s7,56(sp)
 1185              		.cfi_restore 23
 1186 05f4 033C0103 		ld	s8,48(sp)
 1187              		.cfi_restore 24
 1188 05f8 833C8102 		ld	s9,40(sp)
 1189              		.cfi_restore 25
 1190 05fc 13010108 		addi	sp,sp,128
 1191              		.cfi_def_cfa_offset 0
 1192 0600 67800000 		jr	ra
 1193              	.LVL130:
GAS LISTING /tmp/cc4dLTYL.s 			page 30


 1194              	.L63:
 1195              		.cfi_restore_state
 1196 0604 93040500 		mv	s1,a0
 1197              	.LVL131:
 141:test/ConsumerProducer_CPP_Sync_API_test.hpp **** 
 1198              		.loc 1 141 40
 1199 0608 13850A00 		mv	a0,s5
 1200 060c 97000000 		call	_ZdlPv@plt
 1200      E7800000 
 1201              	.LVL132:
 1202 0614 13850400 		mv	a0,s1
 1203              	.LEHB11:
 1204 0618 97000000 		call	_Unwind_Resume@plt
 1204      E7800000 
 1205              	.LVL133:
 1206              	.LEHE11:
 1207              	.L64:
 1208 0620 13090500 		mv	s2,a0
 1209              	.LVL134:
 143:test/ConsumerProducer_CPP_Sync_API_test.hpp **** 
 1210              		.loc 1 143 33
 1211 0624 13850400 		mv	a0,s1
 1212 0628 97000000 		call	_ZdlPv@plt
 1212      E7800000 
 1213              	.LVL135:
 1214 0630 13050900 		mv	a0,s2
 1215              	.LEHB12:
 1216 0634 97000000 		call	_Unwind_Resume@plt
 1216      E7800000 
 1217              	.LVL136:
 1218              	.LEHE12:
 1219              	.L65:
 1220 063c 93040500 		mv	s1,a0
 1221              	.LVL137:
 153:test/ConsumerProducer_CPP_Sync_API_test.hpp ****     consumerThread->start();
 1222              		.loc 1 153 49
 1223 0640 13050B00 		mv	a0,s6
 1224 0644 97000000 		call	_ZdlPv@plt
 1224      E7800000 
 1225              	.LVL138:
 1226 064c 13850400 		mv	a0,s1
 1227              	.LEHB13:
 1228 0650 97000000 		call	_Unwind_Resume@plt
 1228      E7800000 
 1229              	.LVL139:
 1230              	.LEHE13:
 1231              	.L66:
 1232 0658 93040500 		mv	s1,a0
 1233              	.LVL140:
 1234              	.LBB46:
 162:test/ConsumerProducer_CPP_Sync_API_test.hpp ****         } else {
 1235              		.loc 1 162 45
 1236 065c 13850C00 		mv	a0,s9
 1237 0660 97000000 		call	_ZdlPv@plt
 1237      E7800000 
 1238              	.LVL141:
 1239 0668 13850400 		mv	a0,s1
GAS LISTING /tmp/cc4dLTYL.s 			page 31


 1240              	.LEHB14:
 1241 066c 97000000 		call	_Unwind_Resume@plt
 1241      E7800000 
 1242              	.LVL142:
 1243              	.LEHE14:
 1244              	.L67:
 1245 0674 93040500 		mv	s1,a0
 1246              	.LVL143:
 164:test/ConsumerProducer_CPP_Sync_API_test.hpp ****         }
 1247              		.loc 1 164 53
 1248 0678 13850C00 		mv	a0,s9
 1249 067c 97000000 		call	_ZdlPv@plt
 1249      E7800000 
 1250              	.LVL144:
 1251 0684 13850400 		mv	a0,s1
 1252              	.LEHB15:
 1253 0688 97000000 		call	_Unwind_Resume@plt
 1253      E7800000 
 1254              	.LVL145:
 1255              	.LEHE15:
 1256              	.LBE46:
 1257              		.cfi_endproc
 1258              	.LFE17:
 1259              		.globl	__gxx_personality_v0
 1260              		.section	.gcc_except_table,"a",@progbits
 1261              	.LLSDA17:
 1262 0000 FF       		.byte	0xff
 1263 0001 FF       		.byte	0xff
 1264 0002 03       		.byte	0x3
 1265 0003 D001     		.byte	0xd0,0x1
 1266 0005 00000000 		.4byte	.LEHB0-.LFB17
 1267 0009 00000000 		.4byte	.LEHE0-.LEHB0
 1268 000d 00000000 		.4byte	0
 1269 0011 00       		.byte	0
 1270 0012 00000000 		.4byte	.LEHB1-.LFB17
 1271 0016 00000000 		.4byte	.LEHE1-.LEHB1
 1272 001a 00000000 		.4byte	.L63-.LFB17
 1273 001e 00       		.byte	0
 1274 001f 00000000 		.4byte	.LEHB2-.LFB17
 1275 0023 00000000 		.4byte	.LEHE2-.LEHB2
 1276 0027 00000000 		.4byte	0
 1277 002b 00       		.byte	0
 1278 002c 00000000 		.4byte	.LEHB3-.LFB17
 1279 0030 00000000 		.4byte	.LEHE3-.LEHB3
 1280 0034 00000000 		.4byte	.L64-.LFB17
 1281 0038 00       		.byte	0
 1282 0039 00000000 		.4byte	.LEHB4-.LFB17
 1283 003d 00000000 		.4byte	.LEHE4-.LEHB4
 1284 0041 00000000 		.4byte	0
 1285 0045 00       		.byte	0
 1286 0046 00000000 		.4byte	.LEHB5-.LFB17
 1287 004a 00000000 		.4byte	.LEHE5-.LEHB5
 1288 004e 00000000 		.4byte	.L65-.LFB17
 1289 0052 00       		.byte	0
 1290 0053 00000000 		.4byte	.LEHB6-.LFB17
 1291 0057 00000000 		.4byte	.LEHE6-.LEHB6
 1292 005b 00000000 		.4byte	0
GAS LISTING /tmp/cc4dLTYL.s 			page 32


 1293 005f 00       		.byte	0
 1294 0060 00000000 		.4byte	.LEHB7-.LFB17
 1295 0064 00000000 		.4byte	.LEHE7-.LEHB7
 1296 0068 00000000 		.4byte	.L66-.LFB17
 1297 006c 00       		.byte	0
 1298 006d 00000000 		.4byte	.LEHB8-.LFB17
 1299 0071 00000000 		.4byte	.LEHE8-.LEHB8
 1300 0075 00000000 		.4byte	0
 1301 0079 00       		.byte	0
 1302 007a 00000000 		.4byte	.LEHB9-.LFB17
 1303 007e 00000000 		.4byte	.LEHE9-.LEHB9
 1304 0082 00000000 		.4byte	.L67-.LFB17
 1305 0086 00       		.byte	0
 1306 0087 00000000 		.4byte	.LEHB10-.LFB17
 1307 008b 00000000 		.4byte	.LEHE10-.LEHB10
 1308 008f 00000000 		.4byte	0
 1309 0093 00       		.byte	0
 1310 0094 00000000 		.4byte	.LEHB11-.LFB17
 1311 0098 00000000 		.4byte	.LEHE11-.LEHB11
 1312 009c 00000000 		.4byte	0
 1313 00a0 00       		.byte	0
 1314 00a1 00000000 		.4byte	.LEHB12-.LFB17
 1315 00a5 00000000 		.4byte	.LEHE12-.LEHB12
 1316 00a9 00000000 		.4byte	0
 1317 00ad 00       		.byte	0
 1318 00ae 00000000 		.4byte	.LEHB13-.LFB17
 1319 00b2 00000000 		.4byte	.LEHE13-.LEHB13
 1320 00b6 00000000 		.4byte	0
 1321 00ba 00       		.byte	0
 1322 00bb 00000000 		.4byte	.LEHB14-.LFB17
 1323 00bf 00000000 		.4byte	.LEHE14-.LEHB14
 1324 00c3 00000000 		.4byte	0
 1325 00c7 00       		.byte	0
 1326 00c8 00000000 		.4byte	.LEHB15-.LFB17
 1327 00cc 00000000 		.4byte	.LEHE15-.LEHB15
 1328 00d0 00000000 		.4byte	0
 1329 00d4 00       		.byte	0
 1330              		.text
 1332              		.align	2
 1333              		.globl	_Z8userMainv
 1335              	_Z8userMainv:
 1336              	.LFB18:
 1337              		.file 2 "test/userMain.cpp"
   1:test/userMain.cpp **** //
   2:test/userMain.cpp **** // Created by os on 5/16/22.
   3:test/userMain.cpp **** //
   4:test/userMain.cpp **** 
   5:test/userMain.cpp **** #include "userMain.hpp"
   6:test/userMain.cpp **** //#include "Threads_C_API_test.hpp" // zadatak 2, niti C API i sinhrona promena konteksta
   7:test/userMain.cpp **** //#include "Threads_CPP_API_test.hpp" // zadatak 2., niti CPP API i sinhrona promena konteksta
   8:test/userMain.cpp **** 
   9:test/userMain.cpp **** //#include "ConsumerProducer_C_API_test.hpp" // zadatak 3., kompletan C API sa semaforima, sinhrona
  10:test/userMain.cpp **** #include "ConsumerProducer_CPP_Sync_API_test.hpp" // zadatak 3., kompletan CPP API sa semaforima, s
  11:test/userMain.cpp **** 
  12:test/userMain.cpp **** //#include "ThreadSleep_C_API_test.hpp" // thread_sleep test C API
  13:test/userMain.cpp **** //#include "ConsumerProducer_CPP_API_test.hpp" // zadatak 4. CPP API i asinhrona promena konteksta
  14:test/userMain.cpp **** 
GAS LISTING /tmp/cc4dLTYL.s 			page 33


  15:test/userMain.cpp **** 
  16:test/userMain.cpp **** void userMain()
  17:test/userMain.cpp **** {
 1338              		.loc 2 17 1 is_stmt 1
 1339              		.cfi_startproc
 1340 0690 130101FF 		addi	sp,sp,-16
 1341              		.cfi_def_cfa_offset 16
 1342 0694 23341100 		sd	ra,8(sp)
 1343 0698 23308100 		sd	s0,0(sp)
 1344              		.cfi_offset 1, -8
 1345              		.cfi_offset 8, -16
 1346 069c 13040101 		addi	s0,sp,16
 1347              		.cfi_def_cfa 8, 0
  18:test/userMain.cpp ****     //__asm__ volatile("csrr a0, sstatus");
  19:test/userMain.cpp ****     //Threads_C_API_test(); // zadatak 2., niti C API i sinhrona promena konteksta
  20:test/userMain.cpp ****     //Threads_CPP_API_test(); // zadatak 2., niti CPP API i sinhrona promena konteksta
  21:test/userMain.cpp **** 
  22:test/userMain.cpp ****     //producerConsumer_C_API(); // zadatak 3., kompletan C API sa semaforima, sinhrona promena kont
  23:test/userMain.cpp ****     producerConsumer_CPP_Sync_API(); // zadatak 3., kompletan CPP API sa semaforima, sinhrona prome
 1348              		.loc 2 23 5
 1349              		.loc 2 23 34 is_stmt 0
 1350 06a0 97000000 		call	_Z29producerConsumer_CPP_Sync_APIv
 1350      E7800000 
 1351              	.LVL146:
  24:test/userMain.cpp **** 
  25:test/userMain.cpp ****     //testSleeping(); // thread_sleep test C API
  26:test/userMain.cpp ****     //ConsumerProducerCPP::testConsumerProducer(); // zadatak 4. CPP API i asinhrona promena kontek
  27:test/userMain.cpp **** }...
 1352              		.loc 2 27 1
 1353 06a8 83308100 		ld	ra,8(sp)
 1354              		.cfi_restore 1
 1355 06ac 03340100 		ld	s0,0(sp)
 1356              		.cfi_restore 8
 1357              		.cfi_def_cfa 2, 16
 1358 06b0 13010101 		addi	sp,sp,16
 1359              		.cfi_def_cfa_offset 0
 1360 06b4 67800000 		jr	ra
 1361              		.cfi_endproc
 1362              	.LFE18:
 1364              		.weak	_ZTV16ProducerKeyboard
 1365              		.section	.data.rel.ro.local._ZTV16ProducerKeyboard,"awG",@progbits,_ZTV16ProducerKeyboard,comdat
 1366              		.align	3
 1369              	_ZTV16ProducerKeyboard:
 1370 0000 00000000 		.dword	0
 1370      00000000 
 1371 0008 00000000 		.dword	0
 1371      00000000 
 1372 0010 00000000 		.dword	_ZN16ProducerKeyboardD1Ev
 1372      00000000 
 1373 0018 00000000 		.dword	_ZN16ProducerKeyboardD0Ev
 1373      00000000 
 1374 0020 00000000 		.dword	_ZN16ProducerKeyboard3runEv
 1374      00000000 
 1375              		.weak	_ZTV8Producer
 1376              		.section	.data.rel.ro.local._ZTV8Producer,"awG",@progbits,_ZTV8Producer,comdat
 1377              		.align	3
 1380              	_ZTV8Producer:
GAS LISTING /tmp/cc4dLTYL.s 			page 34


 1381 0000 00000000 		.dword	0
 1381      00000000 
 1382 0008 00000000 		.dword	0
 1382      00000000 
 1383 0010 00000000 		.dword	_ZN8ProducerD1Ev
 1383      00000000 
 1384 0018 00000000 		.dword	_ZN8ProducerD0Ev
 1384      00000000 
 1385 0020 00000000 		.dword	_ZN8Producer3runEv
 1385      00000000 
 1386              		.weak	_ZTV8Consumer
 1387              		.section	.data.rel.ro.local._ZTV8Consumer,"awG",@progbits,_ZTV8Consumer,comdat
 1388              		.align	3
 1391              	_ZTV8Consumer:
 1392 0000 00000000 		.dword	0
 1392      00000000 
 1393 0008 00000000 		.dword	0
 1393      00000000 
 1394 0010 00000000 		.dword	_ZN8ConsumerD1Ev
 1394      00000000 
 1395 0018 00000000 		.dword	_ZN8ConsumerD0Ev
 1395      00000000 
 1396 0020 00000000 		.dword	_ZN8Consumer3runEv
 1396      00000000 
 1397              		.globl	threadEnd
 1398              		.globl	waitForAll
 1399              		.bss
 1400              		.align	3
 1401              		.set	.LANCHOR0,. + 0
 1404              	threadEnd:
 1405 0000 00000000 		.zero	4
 1406 0004 00000000 		.zero	4
 1409              	waitForAll:
 1410 0008 00000000 		.zero	8
 1410      00000000 
 1411              		.text
 1412              	.Letext0:
 1413              		.file 3 "test/../h/../lib/hw.h"
 1414              		.file 4 "test/../h/syscall_cpp.hpp"
 1415              		.file 5 "test/buffer_CPP_API.hpp"
 1416              		.file 6 "test/printing.hpp"
 1417              		.file 7 "test/../h/syscall_c.h"
 5417              		.align	3
 5420              	DW.ref.__gxx_personality_v0:
 5421 0000 00000000 		.dword	__gxx_personality_v0
 5421      00000000 
 5422              		.ident	"GCC: (Ubuntu 9.3.0-17ubuntu1~20.04) 9.3.0"
 5423              		.section	.note.GNU-stack,"",@progbits
GAS LISTING /tmp/cc4dLTYL.s 			page 35


DEFINED SYMBOLS
                            *ABS*:0000000000000000 userMain.cpp
     /tmp/cc4dLTYL.s:10     .text._ZN8ConsumerD2Ev:0000000000000000 _ZN8ConsumerD2Ev
     /tmp/cc4dLTYL.s:14     .text._ZN8ConsumerD2Ev:0000000000000000 .L0 
     /tmp/cc4dLTYL.s:16     .text._ZN8ConsumerD2Ev:0000000000000000 .L0 
     /tmp/cc4dLTYL.s:17     .text._ZN8ConsumerD2Ev:0000000000000004 .L0 
     /tmp/cc4dLTYL.s:20     .text._ZN8ConsumerD2Ev:000000000000000c .L0 
     /tmp/cc4dLTYL.s:21     .text._ZN8ConsumerD2Ev:000000000000000c .L0 
     /tmp/cc4dLTYL.s:23     .text._ZN8ConsumerD2Ev:0000000000000010 .L0 
     /tmp/cc4dLTYL.s:1391   .data.rel.ro.local._ZTV8Consumer:0000000000000000 _ZTV8Consumer
     /tmp/cc4dLTYL.s:26     .text._ZN8ConsumerD2Ev:0000000000000010 .L0 
     /tmp/cc4dLTYL.s:32     .text._ZN8ConsumerD2Ev:0000000000000028 .L0 
     /tmp/cc4dLTYL.s:34     .text._ZN8ConsumerD2Ev:000000000000002c .L0 
     /tmp/cc4dLTYL.s:35     .text._ZN8ConsumerD2Ev:000000000000002c .L0 
     /tmp/cc4dLTYL.s:37     .text._ZN8ConsumerD2Ev:0000000000000030 .L0 
     /tmp/cc4dLTYL.s:39     .text._ZN8ConsumerD2Ev:0000000000000034 .L0 
     /tmp/cc4dLTYL.s:10     .text._ZN8ConsumerD2Ev:0000000000000000 _ZN8ConsumerD1Ev
     /tmp/cc4dLTYL.s:48     .text._ZN8ConsumerD0Ev:0000000000000000 _ZN8ConsumerD0Ev
     /tmp/cc4dLTYL.s:51     .text._ZN8ConsumerD0Ev:0000000000000000 .L0 
     /tmp/cc4dLTYL.s:53     .text._ZN8ConsumerD0Ev:0000000000000000 .L0 
     /tmp/cc4dLTYL.s:54     .text._ZN8ConsumerD0Ev:0000000000000004 .L0 
     /tmp/cc4dLTYL.s:58     .text._ZN8ConsumerD0Ev:0000000000000010 .L0 
     /tmp/cc4dLTYL.s:59     .text._ZN8ConsumerD0Ev:0000000000000010 .L0 
     /tmp/cc4dLTYL.s:60     .text._ZN8ConsumerD0Ev:0000000000000010 .L0 
     /tmp/cc4dLTYL.s:62     .text._ZN8ConsumerD0Ev:0000000000000014 .L0 
     /tmp/cc4dLTYL.s:68     .text._ZN8ConsumerD0Ev:0000000000000018 .L0 
     /tmp/cc4dLTYL.s:78     .text._ZN8ConsumerD0Ev:000000000000003c .L0 
     /tmp/cc4dLTYL.s:80     .text._ZN8ConsumerD0Ev:0000000000000040 .L0 
     /tmp/cc4dLTYL.s:81     .text._ZN8ConsumerD0Ev:0000000000000040 .L0 
     /tmp/cc4dLTYL.s:83     .text._ZN8ConsumerD0Ev:0000000000000044 .L0 
     /tmp/cc4dLTYL.s:86     .text._ZN8ConsumerD0Ev:0000000000000048 .L0 
     /tmp/cc4dLTYL.s:88     .text._ZN8ConsumerD0Ev:000000000000004c .L0 
     /tmp/cc4dLTYL.s:95     .text._ZN8ProducerD2Ev:0000000000000000 _ZN8ProducerD2Ev
     /tmp/cc4dLTYL.s:98     .text._ZN8ProducerD2Ev:0000000000000000 .L0 
     /tmp/cc4dLTYL.s:100    .text._ZN8ProducerD2Ev:0000000000000000 .L0 
     /tmp/cc4dLTYL.s:101    .text._ZN8ProducerD2Ev:0000000000000004 .L0 
     /tmp/cc4dLTYL.s:104    .text._ZN8ProducerD2Ev:000000000000000c .L0 
     /tmp/cc4dLTYL.s:105    .text._ZN8ProducerD2Ev:000000000000000c .L0 
     /tmp/cc4dLTYL.s:107    .text._ZN8ProducerD2Ev:0000000000000010 .L0 
     /tmp/cc4dLTYL.s:1380   .data.rel.ro.local._ZTV8Producer:0000000000000000 _ZTV8Producer
     /tmp/cc4dLTYL.s:110    .text._ZN8ProducerD2Ev:0000000000000010 .L0 
     /tmp/cc4dLTYL.s:116    .text._ZN8ProducerD2Ev:0000000000000028 .L0 
     /tmp/cc4dLTYL.s:118    .text._ZN8ProducerD2Ev:000000000000002c .L0 
     /tmp/cc4dLTYL.s:119    .text._ZN8ProducerD2Ev:000000000000002c .L0 
     /tmp/cc4dLTYL.s:121    .text._ZN8ProducerD2Ev:0000000000000030 .L0 
     /tmp/cc4dLTYL.s:123    .text._ZN8ProducerD2Ev:0000000000000034 .L0 
     /tmp/cc4dLTYL.s:95     .text._ZN8ProducerD2Ev:0000000000000000 _ZN8ProducerD1Ev
     /tmp/cc4dLTYL.s:132    .text._ZN8ProducerD0Ev:0000000000000000 _ZN8ProducerD0Ev
     /tmp/cc4dLTYL.s:135    .text._ZN8ProducerD0Ev:0000000000000000 .L0 
     /tmp/cc4dLTYL.s:137    .text._ZN8ProducerD0Ev:0000000000000000 .L0 
     /tmp/cc4dLTYL.s:138    .text._ZN8ProducerD0Ev:0000000000000004 .L0 
     /tmp/cc4dLTYL.s:142    .text._ZN8ProducerD0Ev:0000000000000010 .L0 
     /tmp/cc4dLTYL.s:143    .text._ZN8ProducerD0Ev:0000000000000010 .L0 
     /tmp/cc4dLTYL.s:144    .text._ZN8ProducerD0Ev:0000000000000010 .L0 
     /tmp/cc4dLTYL.s:146    .text._ZN8ProducerD0Ev:0000000000000014 .L0 
     /tmp/cc4dLTYL.s:152    .text._ZN8ProducerD0Ev:0000000000000018 .L0 
     /tmp/cc4dLTYL.s:162    .text._ZN8ProducerD0Ev:000000000000003c .L0 
GAS LISTING /tmp/cc4dLTYL.s 			page 36


     /tmp/cc4dLTYL.s:164    .text._ZN8ProducerD0Ev:0000000000000040 .L0 
     /tmp/cc4dLTYL.s:165    .text._ZN8ProducerD0Ev:0000000000000040 .L0 
     /tmp/cc4dLTYL.s:167    .text._ZN8ProducerD0Ev:0000000000000044 .L0 
     /tmp/cc4dLTYL.s:170    .text._ZN8ProducerD0Ev:0000000000000048 .L0 
     /tmp/cc4dLTYL.s:172    .text._ZN8ProducerD0Ev:000000000000004c .L0 
     /tmp/cc4dLTYL.s:179    .text._ZN16ProducerKeyboardD2Ev:0000000000000000 _ZN16ProducerKeyboardD2Ev
     /tmp/cc4dLTYL.s:182    .text._ZN16ProducerKeyboardD2Ev:0000000000000000 .L0 
     /tmp/cc4dLTYL.s:184    .text._ZN16ProducerKeyboardD2Ev:0000000000000000 .L0 
     /tmp/cc4dLTYL.s:185    .text._ZN16ProducerKeyboardD2Ev:0000000000000004 .L0 
     /tmp/cc4dLTYL.s:188    .text._ZN16ProducerKeyboardD2Ev:000000000000000c .L0 
     /tmp/cc4dLTYL.s:189    .text._ZN16ProducerKeyboardD2Ev:000000000000000c .L0 
     /tmp/cc4dLTYL.s:191    .text._ZN16ProducerKeyboardD2Ev:0000000000000010 .L0 
     /tmp/cc4dLTYL.s:1369   .data.rel.ro.local._ZTV16ProducerKeyboard:0000000000000000 _ZTV16ProducerKeyboard
     /tmp/cc4dLTYL.s:194    .text._ZN16ProducerKeyboardD2Ev:0000000000000010 .L0 
     /tmp/cc4dLTYL.s:200    .text._ZN16ProducerKeyboardD2Ev:0000000000000028 .L0 
     /tmp/cc4dLTYL.s:202    .text._ZN16ProducerKeyboardD2Ev:000000000000002c .L0 
     /tmp/cc4dLTYL.s:203    .text._ZN16ProducerKeyboardD2Ev:000000000000002c .L0 
     /tmp/cc4dLTYL.s:205    .text._ZN16ProducerKeyboardD2Ev:0000000000000030 .L0 
     /tmp/cc4dLTYL.s:207    .text._ZN16ProducerKeyboardD2Ev:0000000000000034 .L0 
     /tmp/cc4dLTYL.s:179    .text._ZN16ProducerKeyboardD2Ev:0000000000000000 _ZN16ProducerKeyboardD1Ev
     /tmp/cc4dLTYL.s:216    .text._ZN16ProducerKeyboardD0Ev:0000000000000000 _ZN16ProducerKeyboardD0Ev
     /tmp/cc4dLTYL.s:219    .text._ZN16ProducerKeyboardD0Ev:0000000000000000 .L0 
     /tmp/cc4dLTYL.s:221    .text._ZN16ProducerKeyboardD0Ev:0000000000000000 .L0 
     /tmp/cc4dLTYL.s:222    .text._ZN16ProducerKeyboardD0Ev:0000000000000004 .L0 
     /tmp/cc4dLTYL.s:226    .text._ZN16ProducerKeyboardD0Ev:0000000000000010 .L0 
     /tmp/cc4dLTYL.s:227    .text._ZN16ProducerKeyboardD0Ev:0000000000000010 .L0 
     /tmp/cc4dLTYL.s:228    .text._ZN16ProducerKeyboardD0Ev:0000000000000010 .L0 
     /tmp/cc4dLTYL.s:230    .text._ZN16ProducerKeyboardD0Ev:0000000000000014 .L0 
     /tmp/cc4dLTYL.s:236    .text._ZN16ProducerKeyboardD0Ev:0000000000000018 .L0 
     /tmp/cc4dLTYL.s:246    .text._ZN16ProducerKeyboardD0Ev:000000000000003c .L0 
     /tmp/cc4dLTYL.s:248    .text._ZN16ProducerKeyboardD0Ev:0000000000000040 .L0 
     /tmp/cc4dLTYL.s:249    .text._ZN16ProducerKeyboardD0Ev:0000000000000040 .L0 
     /tmp/cc4dLTYL.s:251    .text._ZN16ProducerKeyboardD0Ev:0000000000000044 .L0 
     /tmp/cc4dLTYL.s:254    .text._ZN16ProducerKeyboardD0Ev:0000000000000048 .L0 
     /tmp/cc4dLTYL.s:256    .text._ZN16ProducerKeyboardD0Ev:000000000000004c .L0 
     /tmp/cc4dLTYL.s:263    .text:0000000000000000 _ZN16ProducerKeyboard16producerKeyboardEPv
     /tmp/cc4dLTYL.s:266    .text:0000000000000000 .L0 
     /tmp/cc4dLTYL.s:268    .text:0000000000000000 .L0 
     /tmp/cc4dLTYL.s:269    .text:0000000000000004 .L0 
     /tmp/cc4dLTYL.s:275    .text:0000000000000018 .L0 
     /tmp/cc4dLTYL.s:276    .text:0000000000000018 .L0 
     /tmp/cc4dLTYL.s:277    .text:0000000000000018 .L0 
     /tmp/cc4dLTYL.s:278    .text:0000000000000018 .L0 
     /tmp/cc4dLTYL.s:279    .text:0000000000000018 .L0 
     /tmp/cc4dLTYL.s:281    .text:000000000000001c .L0 
     /tmp/cc4dLTYL.s:286    .text:0000000000000024 .L0 
     /tmp/cc4dLTYL.s:287    .text:0000000000000024 .L0 
     /tmp/cc4dLTYL.s:288    .text:0000000000000024 .L0 
     /tmp/cc4dLTYL.s:289    .text:0000000000000024 .L0 
     /tmp/cc4dLTYL.s:294    .text:000000000000002c .L0 
     /tmp/cc4dLTYL.s:295    .text:000000000000002c .L0 
     /tmp/cc4dLTYL.s:299    .text:0000000000000034 .L0 
     /tmp/cc4dLTYL.s:300    .text:0000000000000034 .L0 
     /tmp/cc4dLTYL.s:301    .text:0000000000000034 .L0 
     /tmp/cc4dLTYL.s:304    .text:000000000000003c .L0 
     /tmp/cc4dLTYL.s:307    .text:0000000000000040 .L0 
     /tmp/cc4dLTYL.s:310    .text:0000000000000048 .L0 
GAS LISTING /tmp/cc4dLTYL.s 			page 37


     /tmp/cc4dLTYL.s:311    .text:0000000000000048 .L0 
     /tmp/cc4dLTYL.s:315    .text:0000000000000054 .L0 
     /tmp/cc4dLTYL.s:316    .text:0000000000000054 .L0 
     /tmp/cc4dLTYL.s:320    .text:000000000000005c .L0 
     /tmp/cc4dLTYL.s:321    .text:000000000000005c .L0 
     /tmp/cc4dLTYL.s:323    .text:0000000000000060 .L0 
     /tmp/cc4dLTYL.s:327    .text:000000000000006c .L0 
     /tmp/cc4dLTYL.s:329    .text:0000000000000070 .L0 
     /tmp/cc4dLTYL.s:334    .text:0000000000000078 .L0 
     /tmp/cc4dLTYL.s:335    .text:0000000000000078 .L0 
     /tmp/cc4dLTYL.s:338    .text:0000000000000084 .L0 
     /tmp/cc4dLTYL.s:340    .text:0000000000000088 .L0 
     /tmp/cc4dLTYL.s:347    .text:0000000000000098 .L0 
     /tmp/cc4dLTYL.s:348    .text:0000000000000098 .L0 
     /tmp/cc4dLTYL.s:352    .text:00000000000000a4 .L0 
     /tmp/cc4dLTYL.s:353    .text:00000000000000a8 .L0 
     /tmp/cc4dLTYL.s:355    .text:00000000000000ac .L0 
     /tmp/cc4dLTYL.s:356    .text:00000000000000ac .L0 
     /tmp/cc4dLTYL.s:358    .text:00000000000000b0 .L0 
     /tmp/cc4dLTYL.s:361    .text:00000000000000b4 .L0 
     /tmp/cc4dLTYL.s:364    .text:00000000000000b8 .L0 
     /tmp/cc4dLTYL.s:367    .text:00000000000000bc .L0 
     /tmp/cc4dLTYL.s:369    .text:00000000000000c0 .L0 
     /tmp/cc4dLTYL.s:376    .text._ZN16ProducerKeyboard3runEv:0000000000000000 _ZN16ProducerKeyboard3runEv
     /tmp/cc4dLTYL.s:379    .text._ZN16ProducerKeyboard3runEv:0000000000000000 .L0 
     /tmp/cc4dLTYL.s:381    .text._ZN16ProducerKeyboard3runEv:0000000000000000 .L0 
     /tmp/cc4dLTYL.s:382    .text._ZN16ProducerKeyboard3runEv:0000000000000004 .L0 
     /tmp/cc4dLTYL.s:385    .text._ZN16ProducerKeyboard3runEv:000000000000000c .L0 
     /tmp/cc4dLTYL.s:386    .text._ZN16ProducerKeyboard3runEv:000000000000000c .L0 
     /tmp/cc4dLTYL.s:388    .text._ZN16ProducerKeyboard3runEv:0000000000000010 .L0 
     /tmp/cc4dLTYL.s:390    .text._ZN16ProducerKeyboard3runEv:0000000000000010 .L0 
     /tmp/cc4dLTYL.s:391    .text._ZN16ProducerKeyboard3runEv:0000000000000010 .L0 
     /tmp/cc4dLTYL.s:395    .text._ZN16ProducerKeyboard3runEv:000000000000001c .L0 
     /tmp/cc4dLTYL.s:396    .text._ZN16ProducerKeyboard3runEv:0000000000000020 .L0 
     /tmp/cc4dLTYL.s:398    .text._ZN16ProducerKeyboard3runEv:0000000000000024 .L0 
     /tmp/cc4dLTYL.s:399    .text._ZN16ProducerKeyboard3runEv:0000000000000024 .L0 
     /tmp/cc4dLTYL.s:401    .text._ZN16ProducerKeyboard3runEv:0000000000000028 .L0 
     /tmp/cc4dLTYL.s:403    .text._ZN16ProducerKeyboard3runEv:000000000000002c .L0 
     /tmp/cc4dLTYL.s:410    .text:00000000000000c0 _ZN8Producer8producerEPv
     /tmp/cc4dLTYL.s:413    .text:00000000000000c0 .L0 
     /tmp/cc4dLTYL.s:415    .text:00000000000000c0 .L0 
     /tmp/cc4dLTYL.s:416    .text:00000000000000c4 .L0 
     /tmp/cc4dLTYL.s:421    .text:00000000000000d4 .L0 
     /tmp/cc4dLTYL.s:422    .text:00000000000000d4 .L0 
     /tmp/cc4dLTYL.s:423    .text:00000000000000d4 .L0 
     /tmp/cc4dLTYL.s:424    .text:00000000000000d4 .L0 
     /tmp/cc4dLTYL.s:426    .text:00000000000000d8 .L0 
     /tmp/cc4dLTYL.s:430    .text:00000000000000dc .L0 
     /tmp/cc4dLTYL.s:431    .text:00000000000000dc .L0 
     /tmp/cc4dLTYL.s:432    .text:00000000000000dc .L0 
     /tmp/cc4dLTYL.s:437    .text:00000000000000e4 .L0 
     /tmp/cc4dLTYL.s:438    .text:00000000000000e4 .L0 
     /tmp/cc4dLTYL.s:442    .text:00000000000000ec .L0 
     /tmp/cc4dLTYL.s:443    .text:00000000000000ec .L0 
     /tmp/cc4dLTYL.s:446    .text:00000000000000f8 .L0 
     /tmp/cc4dLTYL.s:447    .text:00000000000000f8 .L0 
     /tmp/cc4dLTYL.s:449    .text:00000000000000fc .L0 
GAS LISTING /tmp/cc4dLTYL.s 			page 38


     /tmp/cc4dLTYL.s:454    .text:000000000000010c .L0 
     /tmp/cc4dLTYL.s:455    .text:000000000000010c .L0 
     /tmp/cc4dLTYL.s:459    .text:0000000000000114 .L0 
     /tmp/cc4dLTYL.s:460    .text:0000000000000114 .L0 
     /tmp/cc4dLTYL.s:462    .text:0000000000000118 .L0 
     /tmp/cc4dLTYL.s:466    .text:0000000000000124 .L0 
     /tmp/cc4dLTYL.s:468    .text:0000000000000128 .L0 
     /tmp/cc4dLTYL.s:473    .text:0000000000000130 .L0 
     /tmp/cc4dLTYL.s:474    .text:0000000000000130 .L0 
     /tmp/cc4dLTYL.s:478    .text:000000000000013c .L0 
     /tmp/cc4dLTYL.s:479    .text:0000000000000140 .L0 
     /tmp/cc4dLTYL.s:481    .text:0000000000000144 .L0 
     /tmp/cc4dLTYL.s:482    .text:0000000000000144 .L0 
     /tmp/cc4dLTYL.s:484    .text:0000000000000148 .L0 
     /tmp/cc4dLTYL.s:487    .text:000000000000014c .L0 
     /tmp/cc4dLTYL.s:490    .text:0000000000000150 .L0 
     /tmp/cc4dLTYL.s:492    .text:0000000000000154 .L0 
     /tmp/cc4dLTYL.s:499    .text._ZN8Producer3runEv:0000000000000000 _ZN8Producer3runEv
     /tmp/cc4dLTYL.s:502    .text._ZN8Producer3runEv:0000000000000000 .L0 
     /tmp/cc4dLTYL.s:504    .text._ZN8Producer3runEv:0000000000000000 .L0 
     /tmp/cc4dLTYL.s:505    .text._ZN8Producer3runEv:0000000000000004 .L0 
     /tmp/cc4dLTYL.s:508    .text._ZN8Producer3runEv:000000000000000c .L0 
     /tmp/cc4dLTYL.s:509    .text._ZN8Producer3runEv:000000000000000c .L0 
     /tmp/cc4dLTYL.s:511    .text._ZN8Producer3runEv:0000000000000010 .L0 
     /tmp/cc4dLTYL.s:513    .text._ZN8Producer3runEv:0000000000000010 .L0 
     /tmp/cc4dLTYL.s:514    .text._ZN8Producer3runEv:0000000000000010 .L0 
     /tmp/cc4dLTYL.s:518    .text._ZN8Producer3runEv:000000000000001c .L0 
     /tmp/cc4dLTYL.s:519    .text._ZN8Producer3runEv:0000000000000020 .L0 
     /tmp/cc4dLTYL.s:521    .text._ZN8Producer3runEv:0000000000000024 .L0 
     /tmp/cc4dLTYL.s:522    .text._ZN8Producer3runEv:0000000000000024 .L0 
     /tmp/cc4dLTYL.s:524    .text._ZN8Producer3runEv:0000000000000028 .L0 
     /tmp/cc4dLTYL.s:526    .text._ZN8Producer3runEv:000000000000002c .L0 
     /tmp/cc4dLTYL.s:533    .text:0000000000000154 _ZN8Consumer8consumerEPv
     /tmp/cc4dLTYL.s:536    .text:0000000000000154 .L0 
     /tmp/cc4dLTYL.s:538    .text:0000000000000154 .L0 
     /tmp/cc4dLTYL.s:539    .text:0000000000000158 .L0 
     /tmp/cc4dLTYL.s:546    .text:0000000000000170 .L0 
     /tmp/cc4dLTYL.s:547    .text:0000000000000170 .L0 
     /tmp/cc4dLTYL.s:548    .text:0000000000000170 .L0 
     /tmp/cc4dLTYL.s:549    .text:0000000000000170 .L0 
     /tmp/cc4dLTYL.s:550    .text:0000000000000170 .L0 
     /tmp/cc4dLTYL.s:551    .text:0000000000000170 .L0 
     /tmp/cc4dLTYL.s:553    .text:0000000000000174 .L0 
     /tmp/cc4dLTYL.s:558    .text:000000000000017c .L0 
     /tmp/cc4dLTYL.s:559    .text:000000000000017c .L0 
     /tmp/cc4dLTYL.s:560    .text:000000000000017c .L0 
     /tmp/cc4dLTYL.s:566    .text:0000000000000184 .L0 
     /tmp/cc4dLTYL.s:567    .text:0000000000000184 .L0 
     /tmp/cc4dLTYL.s:573    .text:0000000000000190 .L0 
     /tmp/cc4dLTYL.s:574    .text:0000000000000190 .L0 
     /tmp/cc4dLTYL.s:580    .text:000000000000019c .L0 
     /tmp/cc4dLTYL.s:581    .text:000000000000019c .L0 
     /tmp/cc4dLTYL.s:585    .text:00000000000001a8 .L0 
     /tmp/cc4dLTYL.s:586    .text:00000000000001a8 .L0 
     /tmp/cc4dLTYL.s:590    .text:00000000000001b4 .L0 
     /tmp/cc4dLTYL.s:591    .text:00000000000001b4 .L0 
     /tmp/cc4dLTYL.s:595    .text:00000000000001bc .L0 
GAS LISTING /tmp/cc4dLTYL.s 			page 39


     /tmp/cc4dLTYL.s:596    .text:00000000000001bc .L0 
     /tmp/cc4dLTYL.s:601    .text:00000000000001c8 .L0 
     /tmp/cc4dLTYL.s:602    .text:00000000000001c8 .L0 
     /tmp/cc4dLTYL.s:604    .text:00000000000001cc .L0 
     /tmp/cc4dLTYL.s:607    .text:00000000000001d4 .L0 
     /tmp/cc4dLTYL.s:609    .text:00000000000001d8 .L0 
     /tmp/cc4dLTYL.s:612    .text:00000000000001dc .L0 
     /tmp/cc4dLTYL.s:613    .text:00000000000001dc .L0 
     /tmp/cc4dLTYL.s:617    .text:00000000000001e4 .L0 
     /tmp/cc4dLTYL.s:623    .text:00000000000001ec .L0 
     /tmp/cc4dLTYL.s:624    .text:00000000000001ec .L0 
     /tmp/cc4dLTYL.s:626    .text:00000000000001f0 .L0 
     /tmp/cc4dLTYL.s:630    .text:00000000000001fc .L0 
     /tmp/cc4dLTYL.s:631    .text:00000000000001fc .L0 
     /tmp/cc4dLTYL.s:638    .text:0000000000000208 .L0 
     /tmp/cc4dLTYL.s:639    .text:0000000000000208 .L0 
     /tmp/cc4dLTYL.s:640    .text:0000000000000208 .L0 
     /tmp/cc4dLTYL.s:642    .text:000000000000020c .L0 
     /tmp/cc4dLTYL.s:646    .text:0000000000000218 .L0 
     /tmp/cc4dLTYL.s:648    .text:000000000000021c .L0 
     /tmp/cc4dLTYL.s:649    .text:000000000000021c .L0 
     /tmp/cc4dLTYL.s:653    .text:0000000000000228 .L0 
     /tmp/cc4dLTYL.s:654    .text:000000000000022c .L0 
     /tmp/cc4dLTYL.s:656    .text:0000000000000230 .L0 
     /tmp/cc4dLTYL.s:657    .text:0000000000000230 .L0 
     /tmp/cc4dLTYL.s:659    .text:0000000000000234 .L0 
     /tmp/cc4dLTYL.s:661    .text:0000000000000238 .L0 
     /tmp/cc4dLTYL.s:664    .text:000000000000023c .L0 
     /tmp/cc4dLTYL.s:667    .text:0000000000000240 .L0 
     /tmp/cc4dLTYL.s:670    .text:0000000000000244 .L0 
     /tmp/cc4dLTYL.s:672    .text:0000000000000248 .L0 
     /tmp/cc4dLTYL.s:679    .text._ZN8Consumer3runEv:0000000000000000 _ZN8Consumer3runEv
     /tmp/cc4dLTYL.s:682    .text._ZN8Consumer3runEv:0000000000000000 .L0 
     /tmp/cc4dLTYL.s:684    .text._ZN8Consumer3runEv:0000000000000000 .L0 
     /tmp/cc4dLTYL.s:685    .text._ZN8Consumer3runEv:0000000000000004 .L0 
     /tmp/cc4dLTYL.s:688    .text._ZN8Consumer3runEv:000000000000000c .L0 
     /tmp/cc4dLTYL.s:689    .text._ZN8Consumer3runEv:000000000000000c .L0 
     /tmp/cc4dLTYL.s:691    .text._ZN8Consumer3runEv:0000000000000010 .L0 
     /tmp/cc4dLTYL.s:693    .text._ZN8Consumer3runEv:0000000000000010 .L0 
     /tmp/cc4dLTYL.s:694    .text._ZN8Consumer3runEv:0000000000000010 .L0 
     /tmp/cc4dLTYL.s:698    .text._ZN8Consumer3runEv:000000000000001c .L0 
     /tmp/cc4dLTYL.s:699    .text._ZN8Consumer3runEv:0000000000000020 .L0 
     /tmp/cc4dLTYL.s:701    .text._ZN8Consumer3runEv:0000000000000024 .L0 
     /tmp/cc4dLTYL.s:702    .text._ZN8Consumer3runEv:0000000000000024 .L0 
     /tmp/cc4dLTYL.s:704    .text._ZN8Consumer3runEv:0000000000000028 .L0 
     /tmp/cc4dLTYL.s:706    .text._ZN8Consumer3runEv:000000000000002c .L0 
     /tmp/cc4dLTYL.s:735    .text:0000000000000248 _Z29producerConsumer_CPP_Sync_APIv
     /tmp/cc4dLTYL.s:738    .text:0000000000000248 .L0 
     /tmp/cc4dLTYL.s:5420   .data.rel.local.DW.ref.__gxx_personality_v0:0000000000000000 DW.ref.__gxx_personality_v0
     /tmp/cc4dLTYL.s:741    .text:0000000000000248 .L0 
     /tmp/cc4dLTYL.s:742    .text:000000000000024c .L0 
     /tmp/cc4dLTYL.s:754    .text:0000000000000278 .L0 
     /tmp/cc4dLTYL.s:755    .text:0000000000000278 .L0 
     /tmp/cc4dLTYL.s:756    .text:0000000000000278 .L0 
     /tmp/cc4dLTYL.s:757    .text:0000000000000278 .L0 
     /tmp/cc4dLTYL.s:758    .text:0000000000000278 .L0 
     /tmp/cc4dLTYL.s:759    .text:0000000000000278 .L0 
GAS LISTING /tmp/cc4dLTYL.s 			page 40


     /tmp/cc4dLTYL.s:760    .text:0000000000000278 .L0 
     /tmp/cc4dLTYL.s:761    .text:0000000000000278 .L0 
     /tmp/cc4dLTYL.s:762    .text:0000000000000278 .L0 
     /tmp/cc4dLTYL.s:763    .text:0000000000000278 .L0 
     /tmp/cc4dLTYL.s:764    .text:0000000000000278 .L0 
     /tmp/cc4dLTYL.s:766    .text:000000000000027c .L0 
     /tmp/cc4dLTYL.s:768    .text:000000000000027c .L0 
     /tmp/cc4dLTYL.s:770    .text:0000000000000280 .L0 
     /tmp/cc4dLTYL.s:771    .text:0000000000000280 .L0 
     /tmp/cc4dLTYL.s:772    .text:0000000000000280 .L0 
     /tmp/cc4dLTYL.s:773    .text:0000000000000280 .L0 
     /tmp/cc4dLTYL.s:778    .text:0000000000000290 .L0 
     /tmp/cc4dLTYL.s:779    .text:0000000000000290 .L0 
     /tmp/cc4dLTYL.s:785    .text:00000000000002a4 .L0 
     /tmp/cc4dLTYL.s:786    .text:00000000000002a4 .L0 
     /tmp/cc4dLTYL.s:792    .text:00000000000002b4 .L0 
     /tmp/cc4dLTYL.s:793    .text:00000000000002b4 .L0 
     /tmp/cc4dLTYL.s:797    .text:00000000000002c4 .L0 
     /tmp/cc4dLTYL.s:798    .text:00000000000002c4 .L0 
     /tmp/cc4dLTYL.s:803    .text:00000000000002d4 .L0 
     /tmp/cc4dLTYL.s:804    .text:00000000000002d4 .L0 
     /tmp/cc4dLTYL.s:810    .text:00000000000002e4 .L0 
     /tmp/cc4dLTYL.s:811    .text:00000000000002e4 .L0 
     /tmp/cc4dLTYL.s:815    .text:00000000000002f4 .L0 
     /tmp/cc4dLTYL.s:816    .text:00000000000002f4 .L0 
     /tmp/cc4dLTYL.s:822    .text:0000000000000308 .L0 
     /tmp/cc4dLTYL.s:823    .text:0000000000000308 .L0 
     /tmp/cc4dLTYL.s:827    .text:0000000000000318 .L0 
     /tmp/cc4dLTYL.s:828    .text:0000000000000318 .L0 
     /tmp/cc4dLTYL.s:834    .text:000000000000032c .L0 
     /tmp/cc4dLTYL.s:835    .text:000000000000032c .L0 
     /tmp/cc4dLTYL.s:839    .text:000000000000033c .L0 
     /tmp/cc4dLTYL.s:841    .text:0000000000000340 .L0 
     /tmp/cc4dLTYL.s:843    .text:0000000000000344 .L0 
     /tmp/cc4dLTYL.s:844    .text:0000000000000344 .L0 
     /tmp/cc4dLTYL.s:857    .text:0000000000000364 .L0 
     /tmp/cc4dLTYL.s:858    .text:0000000000000364 .L0 
     /tmp/cc4dLTYL.s:863    .text:0000000000000374 .L0 
     /tmp/cc4dLTYL.s:866    .text:0000000000000378 .L0 
     /tmp/cc4dLTYL.s:867    .text:0000000000000378 .L0 
     /tmp/cc4dLTYL.s:872    .text:0000000000000388 .L0 
     /tmp/cc4dLTYL.s:877    .text:0000000000000390 .L0 
     /tmp/cc4dLTYL.s:878    .text:0000000000000390 .L0 
     /tmp/cc4dLTYL.s:890    .text:00000000000003ac .L0 
     /tmp/cc4dLTYL.s:894    .text:00000000000003b8 .L0 
     /tmp/cc4dLTYL.s:895    .text:00000000000003b8 .L0 
     /tmp/cc4dLTYL.s:902    .text:00000000000003cc .L0 
     /tmp/cc4dLTYL.s:903    .text:00000000000003cc .L0 
     /tmp/cc4dLTYL.s:904    .text:00000000000003cc .L0 
     /tmp/cc4dLTYL.s:907    .text:00000000000003d0 .L0 
     /tmp/cc4dLTYL.s:917    .text:00000000000003ec .L0 
     /tmp/cc4dLTYL.s:918    .text:00000000000003ec .L0 
     /tmp/cc4dLTYL.s:924    .text:0000000000000400 .L0 
     /tmp/cc4dLTYL.s:925    .text:0000000000000400 .L0 
     /tmp/cc4dLTYL.s:927    .text:0000000000000404 .L0 
     /tmp/cc4dLTYL.s:928    .text:0000000000000404 .L0 
     /tmp/cc4dLTYL.s:931    .text:000000000000040c .L0 
GAS LISTING /tmp/cc4dLTYL.s 			page 41


     /tmp/cc4dLTYL.s:932    .text:000000000000040c .L0 
     /tmp/cc4dLTYL.s:939    .text:000000000000041c .L0 
     /tmp/cc4dLTYL.s:942    .text:0000000000000424 .L0 
     /tmp/cc4dLTYL.s:948    .text:0000000000000428 .L0 
     /tmp/cc4dLTYL.s:952    .text:0000000000000430 .L0 
     /tmp/cc4dLTYL.s:959    .text:0000000000000440 .L0 
     /tmp/cc4dLTYL.s:960    .text:0000000000000440 .L0 
     /tmp/cc4dLTYL.s:966    .text:000000000000044c .L0 
     /tmp/cc4dLTYL.s:973    .text:0000000000000454 .L0 
     /tmp/cc4dLTYL.s:980    .text:0000000000000464 .L0 
     /tmp/cc4dLTYL.s:985    .text:0000000000000470 .L0 
     /tmp/cc4dLTYL.s:986    .text:0000000000000470 .L0 
     /tmp/cc4dLTYL.s:989    .text:0000000000000478 .L0 
     /tmp/cc4dLTYL.s:993    .text:0000000000000484 .L0 
     /tmp/cc4dLTYL.s:997    .text:0000000000000488 .L0 
     /tmp/cc4dLTYL.s:999    .text:000000000000048c .L0 
     /tmp/cc4dLTYL.s:1000   .text:000000000000048c .L0 
     /tmp/cc4dLTYL.s:1006   .text:00000000000004a0 .L0 
     /tmp/cc4dLTYL.s:1007   .text:00000000000004a0 .L0 
     /tmp/cc4dLTYL.s:1009   .text:00000000000004a4 .L0 
     /tmp/cc4dLTYL.s:1010   .text:00000000000004a4 .L0 
     /tmp/cc4dLTYL.s:1013   .text:00000000000004b0 .L0 
     /tmp/cc4dLTYL.s:1015   .text:00000000000004b4 .L0 
     /tmp/cc4dLTYL.s:1016   .text:00000000000004b4 .L0 
     /tmp/cc4dLTYL.s:1022   .text:00000000000004c4 .L0 
     /tmp/cc4dLTYL.s:1026   .text:00000000000004d0 .L0 
     /tmp/cc4dLTYL.s:1032   .text:00000000000004d4 .L0 
     /tmp/cc4dLTYL.s:1041   .text:00000000000004e0 .L0 
     /tmp/cc4dLTYL.s:1042   .text:00000000000004e0 .L0 
     /tmp/cc4dLTYL.s:1049   .text:00000000000004f0 .L0 
     /tmp/cc4dLTYL.s:1053   .text:00000000000004fc .L0 
     /tmp/cc4dLTYL.s:1059   .text:0000000000000500 .L0 
     /tmp/cc4dLTYL.s:1069   .text:0000000000000518 .L0 
     /tmp/cc4dLTYL.s:1077   .text:0000000000000528 .L0 
     /tmp/cc4dLTYL.s:1078   .text:0000000000000528 .L0 
     /tmp/cc4dLTYL.s:1082   .text:0000000000000530 .L0 
     /tmp/cc4dLTYL.s:1086   .text:0000000000000534 .L0 
     /tmp/cc4dLTYL.s:1088   .text:0000000000000538 .L0 
     /tmp/cc4dLTYL.s:1089   .text:0000000000000538 .L0 
     /tmp/cc4dLTYL.s:1093   .text:0000000000000548 .L0 
     /tmp/cc4dLTYL.s:1101   .text:0000000000000550 .L0 
     /tmp/cc4dLTYL.s:1107   .text:0000000000000558 .L0 
     /tmp/cc4dLTYL.s:1111   .text:000000000000055c .L0 
     /tmp/cc4dLTYL.s:1113   .text:0000000000000560 .L0 
     /tmp/cc4dLTYL.s:1114   .text:0000000000000560 .L0 
     /tmp/cc4dLTYL.s:1118   .text:000000000000056c .L0 
     /tmp/cc4dLTYL.s:1120   .text:0000000000000570 .L0 
     /tmp/cc4dLTYL.s:1128   .text:0000000000000580 .L0 
     /tmp/cc4dLTYL.s:1129   .text:0000000000000580 .L0 
     /tmp/cc4dLTYL.s:1131   .text:0000000000000584 .L0 
     /tmp/cc4dLTYL.s:1138   .text:0000000000000594 .L0 
     /tmp/cc4dLTYL.s:1139   .text:0000000000000594 .L0 
     /tmp/cc4dLTYL.s:1141   .text:000000000000059c .L0 
     /tmp/cc4dLTYL.s:1143   .text:00000000000005a0 .L0 
     /tmp/cc4dLTYL.s:1149   .text:00000000000005ac .L0 
     /tmp/cc4dLTYL.s:1150   .text:00000000000005ac .L0 
     /tmp/cc4dLTYL.s:1152   .text:00000000000005b0 .L0 
GAS LISTING /tmp/cc4dLTYL.s 			page 42


     /tmp/cc4dLTYL.s:1164   .text:00000000000005cc .L0 
     /tmp/cc4dLTYL.s:1165   .text:00000000000005d0 .L0 
     /tmp/cc4dLTYL.s:1166   .text:00000000000005d0 .L0 
     /tmp/cc4dLTYL.s:1168   .text:00000000000005d4 .L0 
     /tmp/cc4dLTYL.s:1170   .text:00000000000005d8 .L0 
     /tmp/cc4dLTYL.s:1172   .text:00000000000005dc .L0 
     /tmp/cc4dLTYL.s:1174   .text:00000000000005e0 .L0 
     /tmp/cc4dLTYL.s:1177   .text:00000000000005e4 .L0 
     /tmp/cc4dLTYL.s:1179   .text:00000000000005e8 .L0 
     /tmp/cc4dLTYL.s:1181   .text:00000000000005ec .L0 
     /tmp/cc4dLTYL.s:1183   .text:00000000000005f0 .L0 
     /tmp/cc4dLTYL.s:1185   .text:00000000000005f4 .L0 
     /tmp/cc4dLTYL.s:1187   .text:00000000000005f8 .L0 
     /tmp/cc4dLTYL.s:1189   .text:00000000000005fc .L0 
     /tmp/cc4dLTYL.s:1191   .text:0000000000000600 .L0 
     /tmp/cc4dLTYL.s:1195   .text:0000000000000604 .L0 
     /tmp/cc4dLTYL.s:1199   .text:0000000000000608 .L0 
     /tmp/cc4dLTYL.s:1211   .text:0000000000000624 .L0 
     /tmp/cc4dLTYL.s:1223   .text:0000000000000640 .L0 
     /tmp/cc4dLTYL.s:1236   .text:000000000000065c .L0 
     /tmp/cc4dLTYL.s:1248   .text:0000000000000678 .L0 
     /tmp/cc4dLTYL.s:1257   .text:0000000000000690 .L0 
     /tmp/cc4dLTYL.s:1335   .text:0000000000000690 _Z8userMainv
     /tmp/cc4dLTYL.s:1339   .text:0000000000000690 .L0 
     /tmp/cc4dLTYL.s:1340   .text:0000000000000690 .L0 
     /tmp/cc4dLTYL.s:1341   .text:0000000000000694 .L0 
     /tmp/cc4dLTYL.s:1344   .text:000000000000069c .L0 
     /tmp/cc4dLTYL.s:1345   .text:000000000000069c .L0 
     /tmp/cc4dLTYL.s:1347   .text:00000000000006a0 .L0 
     /tmp/cc4dLTYL.s:1349   .text:00000000000006a0 .L0 
     /tmp/cc4dLTYL.s:1350   .text:00000000000006a0 .L0 
     /tmp/cc4dLTYL.s:1353   .text:00000000000006a8 .L0 
     /tmp/cc4dLTYL.s:1354   .text:00000000000006ac .L0 
     /tmp/cc4dLTYL.s:1356   .text:00000000000006b0 .L0 
     /tmp/cc4dLTYL.s:1357   .text:00000000000006b0 .L0 
     /tmp/cc4dLTYL.s:1359   .text:00000000000006b4 .L0 
     /tmp/cc4dLTYL.s:1361   .text:00000000000006b8 .L0 
     /tmp/cc4dLTYL.s:1404   .bss:0000000000000000 threadEnd
     /tmp/cc4dLTYL.s:1409   .bss:0000000000000008 waitForAll
     /tmp/cc4dLTYL.s:1401   .bss:0000000000000000 .LANCHOR0
     /tmp/cc4dLTYL.s:44     .text._ZN8ConsumerD2Ev:0000000000000034 .L0 
     /tmp/cc4dLTYL.s:91     .text._ZN8ConsumerD0Ev:000000000000004c .L0 
     /tmp/cc4dLTYL.s:128    .text._ZN8ProducerD2Ev:0000000000000034 .L0 
     /tmp/cc4dLTYL.s:175    .text._ZN8ProducerD0Ev:000000000000004c .L0 
     /tmp/cc4dLTYL.s:212    .text._ZN16ProducerKeyboardD2Ev:0000000000000034 .L0 
     /tmp/cc4dLTYL.s:259    .text._ZN16ProducerKeyboardD0Ev:000000000000004c .L0 
     /tmp/cc4dLTYL.s:1418   .text:00000000000006b8 .L0 
     /tmp/cc4dLTYL.s:406    .text._ZN16ProducerKeyboard3runEv:000000000000002c .L0 
     /tmp/cc4dLTYL.s:529    .text._ZN8Producer3runEv:000000000000002c .L0 
     /tmp/cc4dLTYL.s:709    .text._ZN8Consumer3runEv:000000000000002c .L0 
     /tmp/cc4dLTYL.s:336    .text:000000000000007c .L0 
     /tmp/cc4dLTYL.s:443    .text:00000000000000ec .L0 
     /tmp/cc4dLTYL.s:581    .text:000000000000019c .L0 
     /tmp/cc4dLTYL.s:711    .rodata.str1.8:0000000000000000 .LC0
     /tmp/cc4dLTYL.s:773    .text:0000000000000280 .L0 
     /tmp/cc4dLTYL.s:714    .rodata.str1.8:0000000000000020 .LC1
     /tmp/cc4dLTYL.s:793    .text:00000000000002b4 .L0 
GAS LISTING /tmp/cc4dLTYL.s 			page 43


     /tmp/cc4dLTYL.s:717    .rodata.str1.8:0000000000000040 .LC2
     /tmp/cc4dLTYL.s:811    .text:00000000000002e4 .L0 
     /tmp/cc4dLTYL.s:720    .rodata.str1.8:0000000000000058 .LC3
     /tmp/cc4dLTYL.s:823    .text:0000000000000308 .L0 
     /tmp/cc4dLTYL.s:723    .rodata.str1.8:0000000000000070 .LC4
     /tmp/cc4dLTYL.s:835    .text:000000000000032c .L0 
     /tmp/cc4dLTYL.s:726    .rodata.str1.8:0000000000000078 .LC5
     /tmp/cc4dLTYL.s:858    .text:0000000000000364 .L0 
     /tmp/cc4dLTYL.s:729    .rodata.str1.8:00000000000000b8 .LC6
     /tmp/cc4dLTYL.s:867    .text:0000000000000378 .L0 
     /tmp/cc4dLTYL.s:890    .text:00000000000003ac .L0 
     /tmp/cc4dLTYL.s:952    .text:0000000000000430 .L0 
     /tmp/cc4dLTYL.s:973    .text:0000000000000454 .L0 
     /tmp/cc4dLTYL.s:1010   .text:00000000000004a4 .L0 
     /tmp/cc4dLTYL.s:1062   .text:0000000000000508 .L0 
     /tmp/cc4dLTYL.s:1089   .text:0000000000000538 .L0 
     /tmp/cc4dLTYL.s:1139   .text:0000000000000594 .L0 
     /tmp/cc4dLTYL.s:297    .text:0000000000000034 .L14
     /tmp/cc4dLTYL.s:332    .text:0000000000000078 .L15
     /tmp/cc4dLTYL.s:292    .text:000000000000002c .L18
     /tmp/cc4dLTYL.s:440    .text:00000000000000ec .L22
     /tmp/cc4dLTYL.s:471    .text:0000000000000130 .L23
     /tmp/cc4dLTYL.s:435    .text:00000000000000e4 .L26
     /tmp/cc4dLTYL.s:577    .text:000000000000019c .L30
     /tmp/cc4dLTYL.s:610    .text:00000000000001dc .L32
     /tmp/cc4dLTYL.s:635    .text:0000000000000208 .L31
     /tmp/cc4dLTYL.s:563    .text:0000000000000184 .L36
     /tmp/cc4dLTYL.s:571    .text:0000000000000190 .L37
     /tmp/cc4dLTYL.s:619    .text:00000000000001ec .L38
     /tmp/cc4dLTYL.s:855    .text:0000000000000364 .L69
     /tmp/cc4dLTYL.s:864    .text:0000000000000378 .L70
     /tmp/cc4dLTYL.s:874    .text:0000000000000390 .L71
     /tmp/cc4dLTYL.s:871    .text:0000000000000388 .L43
     /tmp/cc4dLTYL.s:1162   .text:00000000000005cc .L41
     /tmp/cc4dLTYL.s:995    .text:0000000000000488 .L48
     /tmp/cc4dLTYL.s:1073   .text:0000000000000528 .L45
     /tmp/cc4dLTYL.s:1037   .text:00000000000004e0 .L46
     /tmp/cc4dLTYL.s:969    .text:0000000000000454 .L72
     /tmp/cc4dLTYL.s:983    .text:0000000000000470 .L47
     /tmp/cc4dLTYL.s:1097   .text:0000000000000550 .L62
     /tmp/cc4dLTYL.s:1084   .text:0000000000000534 .L50
     /tmp/cc4dLTYL.s:1109   .text:000000000000055c .L49
     /tmp/cc4dLTYL.s:1125   .text:0000000000000580 .L51
     /tmp/cc4dLTYL.s:1105   .text:0000000000000558 .L52
     /tmp/cc4dLTYL.s:1136   .text:0000000000000594 .L53
     /tmp/cc4dLTYL.s:1147   .text:00000000000005ac .L54
     /tmp/cc4dLTYL.s:1159   .text:00000000000005c8 .L55
     /tmp/cc4dLTYL.s:26     .text._ZN8ConsumerD2Ev:0000000000000010 .L0 
     /tmp/cc4dLTYL.s:68     .text._ZN8ConsumerD0Ev:0000000000000018 .L0 
     /tmp/cc4dLTYL.s:110    .text._ZN8ProducerD2Ev:0000000000000010 .L0 
     /tmp/cc4dLTYL.s:152    .text._ZN8ProducerD0Ev:0000000000000018 .L0 
     /tmp/cc4dLTYL.s:194    .text._ZN16ProducerKeyboardD2Ev:0000000000000010 .L0 
     /tmp/cc4dLTYL.s:236    .text._ZN16ProducerKeyboardD0Ev:0000000000000018 .L0 
     /tmp/cc4dLTYL.s:774    .text:0000000000000288 .LEHB0
     /tmp/cc4dLTYL.s:736    .text:0000000000000248 .LFB17
     /tmp/cc4dLTYL.s:847    .text:0000000000000350 .LEHE0
     /tmp/cc4dLTYL.s:850    .text:0000000000000358 .LEHB1
GAS LISTING /tmp/cc4dLTYL.s 			page 44


     /tmp/cc4dLTYL.s:853    .text:0000000000000360 .LEHE1
     /tmp/cc4dLTYL.s:1194   .text:0000000000000604 .L63
     /tmp/cc4dLTYL.s:859    .text:000000000000036c .LEHB2
     /tmp/cc4dLTYL.s:881    .text:000000000000039c .LEHE2
     /tmp/cc4dLTYL.s:885    .text:00000000000003a4 .LEHB3
     /tmp/cc4dLTYL.s:888    .text:00000000000003ac .LEHE3
     /tmp/cc4dLTYL.s:1207   .text:0000000000000620 .L64
     /tmp/cc4dLTYL.s:933    .text:0000000000000410 .LEHB4
     /tmp/cc4dLTYL.s:936    .text:0000000000000418 .LEHE4
     /tmp/cc4dLTYL.s:944    .text:0000000000000428 .LEHB5
     /tmp/cc4dLTYL.s:950    .text:0000000000000430 .LEHE5
     /tmp/cc4dLTYL.s:1219   .text:000000000000063c .L65
     /tmp/cc4dLTYL.s:961    .text:0000000000000444 .LEHB6
     /tmp/cc4dLTYL.s:1019   .text:00000000000004c0 .LEHE6
     /tmp/cc4dLTYL.s:1028   .text:00000000000004d4 .LEHB7
     /tmp/cc4dLTYL.s:1034   .text:00000000000004dc .LEHE7
     /tmp/cc4dLTYL.s:1231   .text:0000000000000658 .L66
     /tmp/cc4dLTYL.s:1043   .text:00000000000004e4 .LEHB8
     /tmp/cc4dLTYL.s:1046   .text:00000000000004ec .LEHE8
     /tmp/cc4dLTYL.s:1055   .text:0000000000000500 .LEHB9
     /tmp/cc4dLTYL.s:1061   .text:0000000000000508 .LEHE9
     /tmp/cc4dLTYL.s:1244   .text:0000000000000674 .L67
     /tmp/cc4dLTYL.s:1076   .text:0000000000000528 .LEHB10
     /tmp/cc4dLTYL.s:1158   .text:00000000000005c8 .LEHE10
     /tmp/cc4dLTYL.s:1203   .text:0000000000000618 .LEHB11
     /tmp/cc4dLTYL.s:1206   .text:0000000000000620 .LEHE11
     /tmp/cc4dLTYL.s:1215   .text:0000000000000634 .LEHB12
     /tmp/cc4dLTYL.s:1218   .text:000000000000063c .LEHE12
     /tmp/cc4dLTYL.s:1227   .text:0000000000000650 .LEHB13
     /tmp/cc4dLTYL.s:1230   .text:0000000000000658 .LEHE13
     /tmp/cc4dLTYL.s:1240   .text:000000000000066c .LEHB14
     /tmp/cc4dLTYL.s:1243   .text:0000000000000674 .LEHE14
     /tmp/cc4dLTYL.s:1252   .text:0000000000000688 .LEHB15
     /tmp/cc4dLTYL.s:1255   .text:0000000000000690 .LEHE15
     /tmp/cc4dLTYL.s:3405   .debug_abbrev:0000000000000000 .Ldebug_abbrev0
     /tmp/cc4dLTYL.s:5208   .debug_str:00000000000000a9 .LASF105
     /tmp/cc4dLTYL.s:5224   .debug_str:00000000000001dd .LASF106
     /tmp/cc4dLTYL.s:5234   .debug_str:000000000000022f .LASF107
     /tmp/cc4dLTYL.s:5140   .debug_ranges:0000000000000000 .Ldebug_ranges0
     /tmp/cc4dLTYL.s:5182   .debug_line:0000000000000000 .Ldebug_line0
     /tmp/cc4dLTYL.s:5312   .debug_str:0000000000000499 .LASF0
     /tmp/cc4dLTYL.s:5328   .debug_str:000000000000050a .LASF1
     /tmp/cc4dLTYL.s:5300   .debug_str:000000000000042c .LASF2
     /tmp/cc4dLTYL.s:5282   .debug_str:00000000000003c9 .LASF4
     /tmp/cc4dLTYL.s:5368   .debug_str:0000000000000675 .LASF3
     /tmp/cc4dLTYL.s:5210   .debug_str:000000000000016d .LASF5
     /tmp/cc4dLTYL.s:5334   .debug_str:000000000000054c .LASF6
     /tmp/cc4dLTYL.s:5310   .debug_str:0000000000000486 .LASF7
     /tmp/cc4dLTYL.s:5386   .debug_str:000000000000070a .LASF8
     /tmp/cc4dLTYL.s:5266   .debug_str:000000000000032a .LASF9
     /tmp/cc4dLTYL.s:5344   .debug_str:000000000000059a .LASF10
     /tmp/cc4dLTYL.s:5376   .debug_str:00000000000006b2 .LASF11
     /tmp/cc4dLTYL.s:5216   .debug_str:000000000000019e .LASF12
     /tmp/cc4dLTYL.s:5186   .debug_str:000000000000000a .LASF13
     /tmp/cc4dLTYL.s:5230   .debug_str:000000000000020b .LASF14
     /tmp/cc4dLTYL.s:5364   .debug_str:000000000000063c .LASF15
     /tmp/cc4dLTYL.s:5236   .debug_str:0000000000000252 .LASF16
GAS LISTING /tmp/cc4dLTYL.s 			page 45


     /tmp/cc4dLTYL.s:5278   .debug_str:00000000000003b5 .LASF18
     /tmp/cc4dLTYL.s:5188   .debug_str:000000000000001a .LASF104
     /tmp/cc4dLTYL.s:5226   .debug_str:00000000000001ef .LASF108
     /tmp/cc4dLTYL.s:5304   .debug_str:0000000000000458 .LASF38
     /tmp/cc4dLTYL.s:5330   .debug_str:000000000000051d .LASF109
     /tmp/cc4dLTYL.s:5336   .debug_str:000000000000055f .LASF17
     /tmp/cc4dLTYL.s:5360   .debug_str:000000000000062b .LASF19
     /tmp/cc4dLTYL.s:5362   .debug_str:0000000000000635 .LASF20
     /tmp/cc4dLTYL.s:5240   .debug_str:0000000000000279 .LASF21
     /tmp/cc4dLTYL.s:5298   .debug_str:0000000000000427 .LASF22
     /tmp/cc4dLTYL.s:5246   .debug_str:0000000000000292 .LASF23
     /tmp/cc4dLTYL.s:5270   .debug_str:0000000000000341 .LASF24
     /tmp/cc4dLTYL.s:5296   .debug_str:000000000000041d .LASF25
     /tmp/cc4dLTYL.s:5316   .debug_str:00000000000004bf .LASF26
     /tmp/cc4dLTYL.s:5318   .debug_str:00000000000004c9 .LASF28
     /tmp/cc4dLTYL.s:5290   .debug_str:00000000000003fb .LASF27
     /tmp/cc4dLTYL.s:5388   .debug_str:000000000000071a .LASF29
     /tmp/cc4dLTYL.s:5272   .debug_str:000000000000034f .LASF110
     /tmp/cc4dLTYL.s:5212   .debug_str:0000000000000174 .LASF111
     /tmp/cc4dLTYL.s:5204   .debug_str:000000000000008b .LASF30
     /tmp/cc4dLTYL.s:5206   .debug_str:0000000000000092 .LASF31
     /tmp/cc4dLTYL.s:5184   .debug_str:0000000000000000 .LASF45
     /tmp/cc4dLTYL.s:5356   .debug_str:00000000000005ff .LASF32
     /tmp/cc4dLTYL.s:5252   .debug_str:00000000000002bb .LASF34
     /tmp/cc4dLTYL.s:5358   .debug_str:0000000000000614 .LASF33
     /tmp/cc4dLTYL.s:5338   .debug_str:0000000000000564 .LASF35
     /tmp/cc4dLTYL.s:5256   .debug_str:00000000000002da .LASF36
     /tmp/cc4dLTYL.s:5264   .debug_str:000000000000031e .LASF112
     /tmp/cc4dLTYL.s:5284   .debug_str:00000000000003d0 .LASF37
     /tmp/cc4dLTYL.s:5218   .debug_str:00000000000001ae .LASF39
     /tmp/cc4dLTYL.s:5262   .debug_str:000000000000030b .LASF40
     /tmp/cc4dLTYL.s:5286   .debug_str:00000000000003da .LASF41
     /tmp/cc4dLTYL.s:5220   .debug_str:00000000000001b7 .LASF43
     /tmp/cc4dLTYL.s:5404   .debug_str:00000000000007ab .LASF55
     /tmp/cc4dLTYL.s:5258   .debug_str:00000000000002e5 .LASF42
     /tmp/cc4dLTYL.s:5384   .debug_str:00000000000006f7 .LASF58
     /tmp/cc4dLTYL.s:5320   .debug_str:00000000000004db .LASF44
     /tmp/cc4dLTYL.s:5238   .debug_str:0000000000000268 .LASF61
     /tmp/cc4dLTYL.s:5382   .debug_str:00000000000006f0 .LASF46
     /tmp/cc4dLTYL.s:5394   .debug_str:000000000000074c .LASF47
     /tmp/cc4dLTYL.s:5408   .debug_str:00000000000007d5 .LASF48
     /tmp/cc4dLTYL.s:5214   .debug_str:0000000000000188 .LASF49
     /tmp/cc4dLTYL.s:5268   .debug_str:0000000000000338 .LASF50
     /tmp/cc4dLTYL.s:5324   .debug_str:00000000000004f8 .LASF51
     /tmp/cc4dLTYL.s:5378   .debug_str:00000000000006c1 .LASF52
     /tmp/cc4dLTYL.s:5346   .debug_str:00000000000005a9 .LASF53
     /tmp/cc4dLTYL.s:5326   .debug_str:0000000000000501 .LASF54
     /tmp/cc4dLTYL.s:5314   .debug_str:00000000000004a6 .LASF56
     /tmp/cc4dLTYL.s:5302   .debug_str:000000000000043a .LASF57
     /tmp/cc4dLTYL.s:5390   .debug_str:000000000000072c .LASF59
     /tmp/cc4dLTYL.s:5200   .debug_str:0000000000000063 .LASF60
     /tmp/cc4dLTYL.s:5374   .debug_str:00000000000006a1 .LASF62
     /tmp/cc4dLTYL.s:5406   .debug_str:00000000000007c4 .LASF63
     /tmp/cc4dLTYL.s:5332   .debug_str:0000000000000530 .LASF64
     /tmp/cc4dLTYL.s:5222   .debug_str:00000000000001c0 .LASF65
     /tmp/cc4dLTYL.s:5340   .debug_str:000000000000056b .LASF66
     /tmp/cc4dLTYL.s:5276   .debug_str:000000000000038a .LASF67
GAS LISTING /tmp/cc4dLTYL.s 			page 46


     /tmp/cc4dLTYL.s:5274   .debug_str:0000000000000363 .LASF68
     /tmp/cc4dLTYL.s:5380   .debug_str:00000000000006d4 .LASF69
     /tmp/cc4dLTYL.s:5190   .debug_str:000000000000001f .LASF70
     /tmp/cc4dLTYL.s:5398   .debug_str:000000000000076f .LASF71
     /tmp/cc4dLTYL.s:5352   .debug_str:00000000000005f5 .LASF72
     /tmp/cc4dLTYL.s:5370   .debug_str:0000000000000687 .LASF73
     /tmp/cc4dLTYL.s:5254   .debug_str:00000000000002c0 .LASF74
     /tmp/cc4dLTYL.s:217    .text._ZN16ProducerKeyboardD0Ev:0000000000000000 .LFB30
     /tmp/cc4dLTYL.s:257    .text._ZN16ProducerKeyboardD0Ev:000000000000004c .LFE30
     /tmp/cc4dLTYL.s:4403   .debug_loc:0000000000000000 .LLST7
     /tmp/cc4dLTYL.s:233    .text._ZN16ProducerKeyboardD0Ev:0000000000000018 .LBB30
     /tmp/cc4dLTYL.s:241    .text._ZN16ProducerKeyboardD0Ev:000000000000002c .LBE30
     /tmp/cc4dLTYL.s:4421   .debug_loc:000000000000004c .LLST8
     /tmp/cc4dLTYL.s:239    .text._ZN16ProducerKeyboardD0Ev:000000000000002c .LVL18
     /tmp/cc4dLTYL.s:244    .text._ZN16ProducerKeyboardD0Ev:0000000000000038 .LVL19
     /tmp/cc4dLTYL.s:5306   .debug_str:000000000000045d .LASF75
     /tmp/cc4dLTYL.s:180    .text._ZN16ProducerKeyboardD2Ev:0000000000000000 .LFB28
     /tmp/cc4dLTYL.s:208    .text._ZN16ProducerKeyboardD2Ev:0000000000000034 .LFE28
     /tmp/cc4dLTYL.s:4432   .debug_loc:0000000000000082 .LLST6
     /tmp/cc4dLTYL.s:197    .text._ZN16ProducerKeyboardD2Ev:0000000000000024 .LVL15
     /tmp/cc4dLTYL.s:5250   .debug_str:00000000000002aa .LASF76
     /tmp/cc4dLTYL.s:133    .text._ZN8ProducerD0Ev:0000000000000000 .LFB26
     /tmp/cc4dLTYL.s:173    .text._ZN8ProducerD0Ev:000000000000004c .LFE26
     /tmp/cc4dLTYL.s:4446   .debug_loc:00000000000000bb .LLST4
     /tmp/cc4dLTYL.s:149    .text._ZN8ProducerD0Ev:0000000000000018 .LBB27
     /tmp/cc4dLTYL.s:157    .text._ZN8ProducerD0Ev:000000000000002c .LBE27
     /tmp/cc4dLTYL.s:4464   .debug_loc:0000000000000107 .LLST5
     /tmp/cc4dLTYL.s:155    .text._ZN8ProducerD0Ev:000000000000002c .LVL11
     /tmp/cc4dLTYL.s:160    .text._ZN8ProducerD0Ev:0000000000000038 .LVL12
     /tmp/cc4dLTYL.s:5192   .debug_str:0000000000000031 .LASF77
     /tmp/cc4dLTYL.s:96     .text._ZN8ProducerD2Ev:0000000000000000 .LFB24
     /tmp/cc4dLTYL.s:124    .text._ZN8ProducerD2Ev:0000000000000034 .LFE24
     /tmp/cc4dLTYL.s:4475   .debug_loc:000000000000013d .LLST3
     /tmp/cc4dLTYL.s:113    .text._ZN8ProducerD2Ev:0000000000000024 .LVL8
     /tmp/cc4dLTYL.s:5348   .debug_str:00000000000005bd .LASF78
     /tmp/cc4dLTYL.s:49     .text._ZN8ConsumerD0Ev:0000000000000000 .LFB22
     /tmp/cc4dLTYL.s:89     .text._ZN8ConsumerD0Ev:000000000000004c .LFE22
     /tmp/cc4dLTYL.s:4489   .debug_loc:0000000000000176 .LLST1
     /tmp/cc4dLTYL.s:65     .text._ZN8ConsumerD0Ev:0000000000000018 .LBB24
     /tmp/cc4dLTYL.s:73     .text._ZN8ConsumerD0Ev:000000000000002c .LBE24
     /tmp/cc4dLTYL.s:4507   .debug_loc:00000000000001c2 .LLST2
     /tmp/cc4dLTYL.s:71     .text._ZN8ConsumerD0Ev:000000000000002c .LVL4
     /tmp/cc4dLTYL.s:76     .text._ZN8ConsumerD0Ev:0000000000000038 .LVL5
     /tmp/cc4dLTYL.s:5292   .debug_str:0000000000000406 .LASF79
     /tmp/cc4dLTYL.s:11     .text._ZN8ConsumerD2Ev:0000000000000000 .LFB20
     /tmp/cc4dLTYL.s:40     .text._ZN8ConsumerD2Ev:0000000000000034 .LFE20
     /tmp/cc4dLTYL.s:4518   .debug_loc:00000000000001f8 .LLST0
     /tmp/cc4dLTYL.s:29     .text._ZN8ConsumerD2Ev:0000000000000024 .LVL1
     /tmp/cc4dLTYL.s:5248   .debug_str:00000000000002a1 .LASF80
     /tmp/cc4dLTYL.s:5288   .debug_str:00000000000003ee .LASF82
     /tmp/cc4dLTYL.s:1336   .text:0000000000000690 .LFB18
     /tmp/cc4dLTYL.s:1362   .text:00000000000006b8 .LFE18
     /tmp/cc4dLTYL.s:1351   .text:00000000000006a8 .LVL146
     /tmp/cc4dLTYL.s:5202   .debug_str:000000000000006d .LASF81
     /tmp/cc4dLTYL.s:5366   .debug_str:0000000000000652 .LASF83
     /tmp/cc4dLTYL.s:1258   .text:0000000000000690 .LFE17
     /tmp/cc4dLTYL.s:5198   .debug_str:000000000000005d .LASF84
GAS LISTING /tmp/cc4dLTYL.s 			page 47


     /tmp/cc4dLTYL.s:4532   .debug_loc:0000000000000231 .LLST31
     /tmp/cc4dLTYL.s:5244   .debug_str:0000000000000288 .LASF85
     /tmp/cc4dLTYL.s:4543   .debug_loc:0000000000000267 .LLST32
     /tmp/cc4dLTYL.s:4558   .debug_loc:00000000000002b0 .LLST33
     /tmp/cc4dLTYL.s:5260   .debug_str:0000000000000303 .LASF86
     /tmp/cc4dLTYL.s:4569   .debug_loc:00000000000002e6 .LLST34
     /tmp/cc4dLTYL.s:5400   .debug_str:0000000000000789 .LASF87
     /tmp/cc4dLTYL.s:4587   .debug_loc:0000000000000332 .LLST35
     /tmp/cc4dLTYL.s:5354   .debug_str:00000000000005fa .LASF88
     /tmp/cc4dLTYL.s:4598   .debug_loc:0000000000000368 .LLST36
     /tmp/cc4dLTYL.s:4611   .debug_loc:00000000000003a0 .LLST39
     /tmp/cc4dLTYL.s:970    .text:0000000000000454 .LBB38
     /tmp/cc4dLTYL.s:4626   .debug_loc:00000000000003e9 .LLST40
     /tmp/cc4dLTYL.s:4641   .debug_loc:0000000000000432 .LLST41
     /tmp/cc4dLTYL.s:1033   .text:00000000000004dc .LVL109
     /tmp/cc4dLTYL.s:1056   .text:0000000000000500 .LBB42
     /tmp/cc4dLTYL.s:1067   .text:0000000000000518 .LBE42
     /tmp/cc4dLTYL.s:4660   .debug_loc:000000000000048e .LLST42
     /tmp/cc4dLTYL.s:4671   .debug_loc:00000000000004c4 .LLST43
     /tmp/cc4dLTYL.s:1060   .text:0000000000000508 .LVL113
     /tmp/cc4dLTYL.s:991    .text:0000000000000484 .LVL105
     /tmp/cc4dLTYL.s:1018   .text:00000000000004c0 .LVL107
     /tmp/cc4dLTYL.s:1045   .text:00000000000004ec .LVL111
     /tmp/cc4dLTYL.s:1238   .text:0000000000000668 .LVL141
     /tmp/cc4dLTYL.s:1250   .text:0000000000000684 .LVL144
     /tmp/cc4dLTYL.s:1080   .text:0000000000000530 .LBB44
     /tmp/cc4dLTYL.s:1098   .text:0000000000000550 .LBE44
     /tmp/cc4dLTYL.s:4686   .debug_loc:000000000000050d .LLST44
     /tmp/cc4dLTYL.s:1091   .text:0000000000000548 .LVL117
     /tmp/cc4dLTYL.s:1099   .text:0000000000000550 .LBB45
     /tmp/cc4dLTYL.s:1126   .text:0000000000000580 .LBE45
     /tmp/cc4dLTYL.s:4697   .debug_loc:0000000000000543 .LLST45
     /tmp/cc4dLTYL.s:4704   .debug_loc:0000000000000566 .LLST28
     /tmp/cc4dLTYL.s:4735   .debug_loc:00000000000005b0 .LLST30
     /tmp/cc4dLTYL.s:945    .text:0000000000000428 .LBB35
     /tmp/cc4dLTYL.s:957    .text:0000000000000440 .LBE35
     /tmp/cc4dLTYL.s:4766   .debug_loc:00000000000005fa .LLST37
     /tmp/cc4dLTYL.s:4793   .debug_loc:000000000000064f .LLST38
     /tmp/cc4dLTYL.s:949    .text:0000000000000430 .LVL100
     /tmp/cc4dLTYL.s:776    .text:0000000000000290 .LVL72
     /tmp/cc4dLTYL.s:783    .text:00000000000002a4 .LVL73
     /tmp/cc4dLTYL.s:788    .text:00000000000002b0 .LVL74
     /tmp/cc4dLTYL.s:795    .text:00000000000002c4 .LVL76
     /tmp/cc4dLTYL.s:801    .text:00000000000002d4 .LVL77
     /tmp/cc4dLTYL.s:806    .text:00000000000002e0 .LVL78
     /tmp/cc4dLTYL.s:813    .text:00000000000002f4 .LVL80
     /tmp/cc4dLTYL.s:820    .text:0000000000000308 .LVL81
     /tmp/cc4dLTYL.s:825    .text:0000000000000318 .LVL82
     /tmp/cc4dLTYL.s:832    .text:000000000000032c .LVL83
     /tmp/cc4dLTYL.s:837    .text:000000000000033c .LVL84
     /tmp/cc4dLTYL.s:846    .text:0000000000000350 .LVL85
     /tmp/cc4dLTYL.s:852    .text:0000000000000360 .LVL86
     /tmp/cc4dLTYL.s:861    .text:0000000000000374 .LVL87
     /tmp/cc4dLTYL.s:869    .text:0000000000000388 .LVL88
     /tmp/cc4dLTYL.s:880    .text:000000000000039c .LVL90
     /tmp/cc4dLTYL.s:887    .text:00000000000003ac .LVL92
     /tmp/cc4dLTYL.s:935    .text:0000000000000418 .LVL98
GAS LISTING /tmp/cc4dLTYL.s 			page 48


     /tmp/cc4dLTYL.s:963    .text:000000000000044c .LVL102
     /tmp/cc4dLTYL.s:1079   .text:0000000000000530 .LVL115
     /tmp/cc4dLTYL.s:1135   .text:0000000000000594 .LVL124
     /tmp/cc4dLTYL.s:1154   .text:00000000000005bc .LVL126
     /tmp/cc4dLTYL.s:1157   .text:00000000000005c8 .LVL127
     /tmp/cc4dLTYL.s:1201   .text:0000000000000614 .LVL132
     /tmp/cc4dLTYL.s:1205   .text:0000000000000620 .LVL133
     /tmp/cc4dLTYL.s:1213   .text:0000000000000630 .LVL135
     /tmp/cc4dLTYL.s:1217   .text:000000000000063c .LVL136
     /tmp/cc4dLTYL.s:1225   .text:000000000000064c .LVL138
     /tmp/cc4dLTYL.s:1229   .text:0000000000000658 .LVL139
     /tmp/cc4dLTYL.s:1242   .text:0000000000000674 .LVL142
     /tmp/cc4dLTYL.s:1254   .text:0000000000000690 .LVL145
     /tmp/cc4dLTYL.s:534    .text:0000000000000154 .LFB16
     /tmp/cc4dLTYL.s:673    .text:0000000000000248 .LFE16
     /tmp/cc4dLTYL.s:4808   .debug_loc:0000000000000698 .LLST20
     /tmp/cc4dLTYL.s:4826   .debug_loc:00000000000006e4 .LLST21
     /tmp/cc4dLTYL.s:4844   .debug_loc:0000000000000730 .LLST22
     /tmp/cc4dLTYL.s:4862   .debug_loc:000000000000077c .LLST23
     /tmp/cc4dLTYL.s:4886   .debug_loc:00000000000007ec .LLST24
     /tmp/cc4dLTYL.s:568    .text:000000000000018c .LVL54
     /tmp/cc4dLTYL.s:576    .text:000000000000019c .LVL56
     /tmp/cc4dLTYL.s:588    .text:00000000000001b4 .LVL57
     /tmp/cc4dLTYL.s:599    .text:00000000000001c8 .LVL60
     /tmp/cc4dLTYL.s:621    .text:00000000000001ec .LBB34
     /tmp/cc4dLTYL.s:636    .text:0000000000000208 .LBE34
     /tmp/cc4dLTYL.s:4893   .debug_loc:000000000000080f .LLST25
     /tmp/cc4dLTYL.s:628    .text:00000000000001fc .LVL62
     /tmp/cc4dLTYL.s:634    .text:0000000000000208 .LVL64
     /tmp/cc4dLTYL.s:644    .text:0000000000000218 .LVL65
     /tmp/cc4dLTYL.s:651    .text:0000000000000228 .LVL66
     /tmp/cc4dLTYL.s:680    .text._ZN8Consumer3runEv:0000000000000000 .LFB15
     /tmp/cc4dLTYL.s:707    .text._ZN8Consumer3runEv:000000000000002c .LFE15
     /tmp/cc4dLTYL.s:4900   .debug_loc:0000000000000832 .LLST26
     /tmp/cc4dLTYL.s:696    .text._ZN8Consumer3runEv:000000000000001c .LVL71
     /tmp/cc4dLTYL.s:5410   .debug_str:00000000000007db .LASF89
     /tmp/cc4dLTYL.s:411    .text:00000000000000c0 .LFB11
     /tmp/cc4dLTYL.s:493    .text:0000000000000154 .LFE11
     /tmp/cc4dLTYL.s:4914   .debug_loc:000000000000086b .LLST15
     /tmp/cc4dLTYL.s:4928   .debug_loc:00000000000008a4 .LLST16
     /tmp/cc4dLTYL.s:4946   .debug_loc:00000000000008f0 .LLST17
     /tmp/cc4dLTYL.s:4964   .debug_loc:000000000000093c .LLST18
     /tmp/cc4dLTYL.s:439    .text:00000000000000ec .LVL42
     /tmp/cc4dLTYL.s:452    .text:000000000000010c .LVL43
     /tmp/cc4dLTYL.s:476    .text:000000000000013c .LVL46
     /tmp/cc4dLTYL.s:500    .text._ZN8Producer3runEv:0000000000000000 .LFB10
     /tmp/cc4dLTYL.s:527    .text._ZN8Producer3runEv:000000000000002c .LFE10
     /tmp/cc4dLTYL.s:4988   .debug_loc:00000000000009ac .LLST19
     /tmp/cc4dLTYL.s:516    .text._ZN8Producer3runEv:000000000000001c .LVL50
     /tmp/cc4dLTYL.s:5342   .debug_str:000000000000057c .LASF90
     /tmp/cc4dLTYL.s:264    .text:0000000000000000 .LFB6
     /tmp/cc4dLTYL.s:370    .text:00000000000000c0 .LFE6
     /tmp/cc4dLTYL.s:5002   .debug_loc:00000000000009e5 .LLST9
     /tmp/cc4dLTYL.s:5020   .debug_loc:0000000000000a31 .LLST10
     /tmp/cc4dLTYL.s:5038   .debug_loc:0000000000000a7d .LLST11
     /tmp/cc4dLTYL.s:5056   .debug_loc:0000000000000ac9 .LLST12
     /tmp/cc4dLTYL.s:5071   .debug_loc:0000000000000b12 .LLST13
GAS LISTING /tmp/cc4dLTYL.s 			page 49


     /tmp/cc4dLTYL.s:296    .text:0000000000000034 .LVL24
     /tmp/cc4dLTYL.s:302    .text:000000000000003c .LVL25
     /tmp/cc4dLTYL.s:313    .text:0000000000000054 .LVL27
     /tmp/cc4dLTYL.s:345    .text:0000000000000098 .LVL32
     /tmp/cc4dLTYL.s:350    .text:00000000000000a4 .LVL33
     /tmp/cc4dLTYL.s:377    .text._ZN16ProducerKeyboard3runEv:0000000000000000 .LFB5
     /tmp/cc4dLTYL.s:404    .text._ZN16ProducerKeyboard3runEv:000000000000002c .LFE5
     /tmp/cc4dLTYL.s:5095   .debug_loc:0000000000000b82 .LLST14
     /tmp/cc4dLTYL.s:393    .text._ZN16ProducerKeyboard3runEv:000000000000001c .LVL38
     /tmp/cc4dLTYL.s:5350   .debug_str:00000000000005ce .LASF91
     /tmp/cc4dLTYL.s:5412   .debug_str:00000000000007f9 .LASF92
     /tmp/cc4dLTYL.s:5372   .debug_str:0000000000000691 .LASF93
     /tmp/cc4dLTYL.s:5294   .debug_str:0000000000000417 .LASF94
     /tmp/cc4dLTYL.s:5392   .debug_str:000000000000073f .LASF95
     /tmp/cc4dLTYL.s:5402   .debug_str:0000000000000798 .LASF96
     /tmp/cc4dLTYL.s:5194   .debug_str:0000000000000042 .LASF97
     /tmp/cc4dLTYL.s:5396   .debug_str:000000000000075f .LASF98
     /tmp/cc4dLTYL.s:5242   .debug_str:000000000000027e .LASF99
     /tmp/cc4dLTYL.s:5322   .debug_str:00000000000004e5 .LASF100
     /tmp/cc4dLTYL.s:5280   .debug_str:00000000000003bd .LASF101
     /tmp/cc4dLTYL.s:5308   .debug_str:0000000000000477 .LASF102
     /tmp/cc4dLTYL.s:5228   .debug_str:0000000000000202 .LASF103
     /tmp/cc4dLTYL.s:5196   .debug_str:000000000000004e .LASF113
     /tmp/cc4dLTYL.s:5232   .debug_str:0000000000000217 .LASF114
     /tmp/cc4dLTYL.s:220    .text._ZN16ProducerKeyboardD0Ev:0000000000000000 .LVL16
     /tmp/cc4dLTYL.s:252    .text._ZN16ProducerKeyboardD0Ev:0000000000000044 .LVL20
     /tmp/cc4dLTYL.s:232    .text._ZN16ProducerKeyboardD0Ev:0000000000000018 .LVL17
     /tmp/cc4dLTYL.s:183    .text._ZN16ProducerKeyboardD2Ev:0000000000000000 .LVL14
     /tmp/cc4dLTYL.s:136    .text._ZN8ProducerD0Ev:0000000000000000 .LVL9
     /tmp/cc4dLTYL.s:168    .text._ZN8ProducerD0Ev:0000000000000044 .LVL13
     /tmp/cc4dLTYL.s:148    .text._ZN8ProducerD0Ev:0000000000000018 .LVL10
     /tmp/cc4dLTYL.s:99     .text._ZN8ProducerD2Ev:0000000000000000 .LVL7
     /tmp/cc4dLTYL.s:52     .text._ZN8ConsumerD0Ev:0000000000000000 .LVL2
     /tmp/cc4dLTYL.s:84     .text._ZN8ConsumerD0Ev:0000000000000044 .LVL6
     /tmp/cc4dLTYL.s:64     .text._ZN8ConsumerD0Ev:0000000000000018 .LVL3
     /tmp/cc4dLTYL.s:15     .text._ZN8ConsumerD2Ev:0000000000000000 .LVL0
     /tmp/cc4dLTYL.s:808    .text:00000000000002e4 .LVL79
     /tmp/cc4dLTYL.s:883    .text:00000000000003a0 .LVL91
     /tmp/cc4dLTYL.s:1193   .text:0000000000000604 .LVL130
     /tmp/cc4dLTYL.s:1197   .text:0000000000000608 .LVL131
     /tmp/cc4dLTYL.s:790    .text:00000000000002b4 .LVL75
     /tmp/cc4dLTYL.s:1175   .text:00000000000005e0 .LVL129
     /tmp/cc4dLTYL.s:1209   .text:0000000000000624 .LVL134
     /tmp/cc4dLTYL.s:875    .text:0000000000000390 .LVL89
     /tmp/cc4dLTYL.s:1161   .text:00000000000005cc .LVL128
     /tmp/cc4dLTYL.s:900    .text:00000000000003cc .LVL94
     /tmp/cc4dLTYL.s:913    .text:00000000000003e8 .LVL96
     /tmp/cc4dLTYL.s:955    .text:0000000000000440 .LVL101
     /tmp/cc4dLTYL.s:915    .text:00000000000003ec .LVL97
     /tmp/cc4dLTYL.s:968    .text:0000000000000454 .LVL103
     /tmp/cc4dLTYL.s:1083   .text:0000000000000534 .LVL116
     /tmp/cc4dLTYL.s:1233   .text:000000000000065c .LVL140
     /tmp/cc4dLTYL.s:1246   .text:0000000000000678 .LVL143
     /tmp/cc4dLTYL.s:976    .text:0000000000000464 .LVL104
     /tmp/cc4dLTYL.s:1027   .text:00000000000004d4 .LVL108
     /tmp/cc4dLTYL.s:1036   .text:00000000000004e0 .LVL110
     /tmp/cc4dLTYL.s:1054   .text:0000000000000500 .LVL112
GAS LISTING /tmp/cc4dLTYL.s 			page 50


     /tmp/cc4dLTYL.s:1065   .text:0000000000000518 .LVL114
     /tmp/cc4dLTYL.s:1094   .text:000000000000054c .LVL118
     /tmp/cc4dLTYL.s:1096   .text:0000000000000550 .LVL119
     /tmp/cc4dLTYL.s:1102   .text:0000000000000554 .LVL120
     /tmp/cc4dLTYL.s:1104   .text:0000000000000558 .LVL121
     /tmp/cc4dLTYL.s:893    .text:00000000000003b8 .LVL93
     /tmp/cc4dLTYL.s:905    .text:00000000000003d0 .LVL95
     /tmp/cc4dLTYL.s:943    .text:0000000000000428 .LVL99
     /tmp/cc4dLTYL.s:1221   .text:0000000000000640 .LVL137
     /tmp/cc4dLTYL.s:537    .text:0000000000000154 .LVL51
     /tmp/cc4dLTYL.s:562    .text:0000000000000184 .LVL53
     /tmp/cc4dLTYL.s:665    .text:000000000000023c .LVL68
     /tmp/cc4dLTYL.s:662    .text:0000000000000238 .LVL67
     /tmp/cc4dLTYL.s:557    .text:000000000000017c .LVL52
     /tmp/cc4dLTYL.s:570    .text:0000000000000190 .LVL55
     /tmp/cc4dLTYL.s:593    .text:00000000000001bc .LVL58
     /tmp/cc4dLTYL.s:615    .text:00000000000001e4 .LVL61
     /tmp/cc4dLTYL.s:668    .text:0000000000000240 .LVL69
     /tmp/cc4dLTYL.s:597    .text:00000000000001c0 .LVL59
     /tmp/cc4dLTYL.s:632    .text:0000000000000200 .LVL63
     /tmp/cc4dLTYL.s:683    .text._ZN8Consumer3runEv:0000000000000000 .LVL70
     /tmp/cc4dLTYL.s:414    .text:00000000000000c0 .LVL39
     /tmp/cc4dLTYL.s:434    .text:00000000000000e4 .LVL41
     /tmp/cc4dLTYL.s:485    .text:0000000000000148 .LVL47
     /tmp/cc4dLTYL.s:429    .text:00000000000000dc .LVL40
     /tmp/cc4dLTYL.s:457    .text:0000000000000114 .LVL44
     /tmp/cc4dLTYL.s:470    .text:0000000000000130 .LVL45
     /tmp/cc4dLTYL.s:488    .text:000000000000014c .LVL48
     /tmp/cc4dLTYL.s:503    .text._ZN8Producer3runEv:0000000000000000 .LVL49
     /tmp/cc4dLTYL.s:267    .text:0000000000000000 .LVL21
     /tmp/cc4dLTYL.s:291    .text:000000000000002c .LVL23
     /tmp/cc4dLTYL.s:365    .text:00000000000000b8 .LVL36
     /tmp/cc4dLTYL.s:359    .text:00000000000000b0 .LVL34
     /tmp/cc4dLTYL.s:285    .text:0000000000000024 .LVL22
     /tmp/cc4dLTYL.s:305    .text:0000000000000040 .LVL26
     /tmp/cc4dLTYL.s:331    .text:0000000000000078 .LVL29
     /tmp/cc4dLTYL.s:341    .text:000000000000008c .LVL30
     /tmp/cc4dLTYL.s:343    .text:0000000000000090 .LVL31
     /tmp/cc4dLTYL.s:318    .text:000000000000005c .LVL28
     /tmp/cc4dLTYL.s:362    .text:00000000000000b4 .LVL35
     /tmp/cc4dLTYL.s:380    .text._ZN16ProducerKeyboard3runEv:0000000000000000 .LVL37
     /tmp/cc4dLTYL.s:1419   .debug_info:0000000000000000 .Ldebug_info0
     /tmp/cc4dLTYL.s:5      .text:0000000000000000 .Ltext0
     /tmp/cc4dLTYL.s:1412   .text:00000000000006b8 .Letext0
     /tmp/cc4dLTYL.s:564    .text:0000000000000184 .LBB32
     /tmp/cc4dLTYL.s:578    .text:000000000000019c .LBE32
     /tmp/cc4dLTYL.s:583    .text:00000000000001a8 .LBB33
     /tmp/cc4dLTYL.s:620    .text:00000000000001ec .LBE33
     /tmp/cc4dLTYL.s:964    .text:000000000000044c .LBB37
     /tmp/cc4dLTYL.s:1074   .text:0000000000000528 .LBE37
     /tmp/cc4dLTYL.s:1234   .text:000000000000065c .LBB46
     /tmp/cc4dLTYL.s:1256   .text:0000000000000690 .LBE46
     /tmp/cc4dLTYL.s:978    .text:0000000000000464 .LBE38
     /tmp/cc4dLTYL.s:1029   .text:00000000000004d4 .LBB41
     /tmp/cc4dLTYL.s:1039   .text:00000000000004e0 .LBE41
     /tmp/cc4dLTYL.s:1261   .gcc_except_table:0000000000000000 .LLSDA17
                           .group:0000000000000000 _ZN8ConsumerD5Ev
GAS LISTING /tmp/cc4dLTYL.s 			page 51


                           .group:0000000000000000 _ZN8ProducerD5Ev
                           .group:0000000000000000 _ZN16ProducerKeyboardD5Ev

UNDEFINED SYMBOLS
_ZN6ThreadD2Ev
_ZdlPv
_ZN6Thread8dispatchEv
getc
_ZN9BufferCPP3putEi
_ZN9Semaphore6signalEv
putc
_ZN9BufferCPP3getEv
_ZN7Console4putcEc
_ZN9BufferCPP6getCntEv
_Z11printStringPKc
_Z9getStringPci
_Z11stringToIntPKc
_Z8printIntiii
_Znwm
_ZN9BufferCPPC1Ei
_ZN9SemaphoreC1Ej
_ZN6ThreadC2Ev
_ZN6Thread5startEv
_ZN9Semaphore4waitEv
_ZN9BufferCPPD1Ev
_Unwind_Resume
__gxx_personality_v0
