GAS LISTING /tmp/ccXmwCBq.s 			page 1


   1              		.file	"userMain.cpp"
   2              		.option pic
   3              		.option norelax
   4              		.text
   5              	.Ltext0:
   6              		.align	2
   7              		.globl	_Z8userMainv
   9              	_Z8userMainv:
  10              	.LFB19:
  11              		.file 1 "test/userMain.cpp"
   1:test/userMain.cpp **** //
   2:test/userMain.cpp **** // Created by os on 5/16/22.
   3:test/userMain.cpp **** //
   4:test/userMain.cpp **** 
   5:test/userMain.cpp **** #include "userMain.hpp"
   6:test/userMain.cpp **** 
   7:test/userMain.cpp **** void userMain()
   8:test/userMain.cpp **** {
  12              		.loc 1 8 1
  13              		.cfi_startproc
  14 0000 130101FF 		addi	sp,sp,-16
  15              		.cfi_def_cfa_offset 16
  16 0004 23348100 		sd	s0,8(sp)
  17              		.cfi_offset 8, -8
  18 0008 13040101 		addi	s0,sp,16
  19              		.cfi_def_cfa 8, 0
   9:test/userMain.cpp ****     //__asm__ volatile("csrr a0, sstatus");
  10:test/userMain.cpp ****     //Threads_C_API_test(); // zadatak 2., niti C API i sinhrona promena konteksta
  11:test/userMain.cpp ****     //Threads_CPP_API_test(); // zadatak 2., niti CPP API i sinhrona promena konteksta
  12:test/userMain.cpp **** 
  13:test/userMain.cpp ****     //producerConsumer_C_API(); // zadatak 3., kompletan C API sa semaforima, sinhrona promena kont
  14:test/userMain.cpp ****     //producerConsumer_CPP_Sync_API(); // zadatak 3., kompletan CPP API sa semaforima, sinhrona pro
  15:test/userMain.cpp **** 
  16:test/userMain.cpp ****     //testSleeping(); // thread_sleep test C API
  17:test/userMain.cpp ****     //ConsumerProducerCPP::testConsumerProducer(); // zadatak 4. CPP API i asinhrona promena kontek
  18:test/userMain.cpp **** }...
  20              		.loc 1 18 1 is_stmt 0
  21 000c 03348100 		ld	s0,8(sp)
  22              		.cfi_restore 8
  23              		.cfi_def_cfa 2, 16
  24 0010 13010101 		addi	sp,sp,16
  25              		.cfi_def_cfa_offset 0
  26 0014 67800000 		jr	ra
  27              		.cfi_endproc
  28              	.LFE19:
  30              	.Letext0:
  31              		.file 2 "test/../h/../lib/hw.h"
GAS LISTING /tmp/ccXmwCBq.s 			page 2

